ARM GAS  /tmp/cc2k1ucX.s 			page 1


   1              		.cpu cortex-m4
   2              		.eabi_attribute 27, 1
   3              		.eabi_attribute 28, 1
   4              		.eabi_attribute 20, 1
   5              		.eabi_attribute 21, 1
   6              		.eabi_attribute 23, 3
   7              		.eabi_attribute 24, 1
   8              		.eabi_attribute 25, 1
   9              		.eabi_attribute 26, 1
  10              		.eabi_attribute 30, 1
  11              		.eabi_attribute 34, 1
  12              		.eabi_attribute 18, 4
  13              		.file	"bank.c"
  14              		.text
  15              	.Ltext0:
  16              		.cfi_sections	.debug_frame
  17              		.section	.text.MY_NVIC_SetVectorTable,"ax",%progbits
  18              		.align	1
  19              		.global	MY_NVIC_SetVectorTable
  20              		.arch armv7e-m
  21              		.syntax unified
  22              		.thumb
  23              		.thumb_func
  24              		.fpu fpv4-sp-d16
  26              	MY_NVIC_SetVectorTable:
  27              	.LVL0:
  28              	.LFB126:
  29              		.file 1 "Lib/src/bank.c"
   1:Lib/src/bank.c **** #include "lib.h"
   2:Lib/src/bank.c **** 
   3:Lib/src/bank.c **** void MY_NVIC_SetVectorTable(u32 NVIC_VectTab,u32 Offset)	 
   4:Lib/src/bank.c **** { 	   	  
  30              		.loc 1 4 1 view -0
  31              		.cfi_startproc
  32              		@ args = 0, pretend = 0, frame = 0
  33              		@ frame_needed = 0, uses_anonymous_args = 0
  34              		@ link register save eliminated.
   5:Lib/src/bank.c **** 	SCB->VTOR=NVIC_VectTab|(Offset&(u32)0xFFFFFE00);
  35              		.loc 1 5 2 view .LVU1
  36              		.loc 1 5 32 is_stmt 0 view .LVU2
  37 0000 21F4FF71 		bic	r1, r1, #510
  38              	.LVL1:
  39              		.loc 1 5 32 view .LVU3
  40 0004 21F00101 		bic	r1, r1, #1
  41              		.loc 1 5 24 view .LVU4
  42 0008 0143     		orrs	r1, r1, r0
  43              		.loc 1 5 11 view .LVU5
  44 000a 014B     		ldr	r3, .L2
  45 000c 9960     		str	r1, [r3, #8]
   6:Lib/src/bank.c **** }
  46              		.loc 1 6 1 view .LVU6
  47 000e 7047     		bx	lr
  48              	.L3:
  49              		.align	2
  50              	.L2:
  51 0010 00ED00E0 		.word	-536810240
  52              		.cfi_endproc
ARM GAS  /tmp/cc2k1ucX.s 			page 2


  53              	.LFE126:
  55              		.section	.text.MY_NVIC_PriorityGroupConfig,"ax",%progbits
  56              		.align	1
  57              		.global	MY_NVIC_PriorityGroupConfig
  58              		.syntax unified
  59              		.thumb
  60              		.thumb_func
  61              		.fpu fpv4-sp-d16
  63              	MY_NVIC_PriorityGroupConfig:
  64              	.LVL2:
  65              	.LFB127:
   7:Lib/src/bank.c **** 		   
   8:Lib/src/bank.c **** void MY_NVIC_PriorityGroupConfig(u8 NVIC_Group)	 
   9:Lib/src/bank.c **** { 
  66              		.loc 1 9 1 is_stmt 1 view -0
  67              		.cfi_startproc
  68              		@ args = 0, pretend = 0, frame = 0
  69              		@ frame_needed = 0, uses_anonymous_args = 0
  70              		@ link register save eliminated.
  10:Lib/src/bank.c **** 	u32 temp,temp1;	  
  71              		.loc 1 10 2 view .LVU8
  11:Lib/src/bank.c **** 	temp1=(~NVIC_Group)&0x07;
  72              		.loc 1 11 2 view .LVU9
  73              		.loc 1 11 9 is_stmt 0 view .LVU10
  74 0000 C343     		mvns	r3, r0
  75              	.LVL3:
  12:Lib/src/bank.c **** 	temp1<<=8;
  76              		.loc 1 12 2 is_stmt 1 view .LVU11
  77              		.loc 1 12 7 is_stmt 0 view .LVU12
  78 0002 1B02     		lsls	r3, r3, #8
  79              	.LVL4:
  80              		.loc 1 12 7 view .LVU13
  81 0004 03F4E063 		and	r3, r3, #1792
  82              	.LVL5:
  13:Lib/src/bank.c **** 	temp=SCB->AIRCR;  
  83              		.loc 1 13 2 is_stmt 1 view .LVU14
  84              		.loc 1 13 6 is_stmt 0 view .LVU15
  85 0008 0649     		ldr	r1, .L5
  86 000a CA68     		ldr	r2, [r1, #12]
  87              	.LVL6:
  14:Lib/src/bank.c **** 	temp&=0X0000F8FF; 
  88              		.loc 1 14 2 is_stmt 1 view .LVU16
  89              		.loc 1 14 6 is_stmt 0 view .LVU17
  90 000c 22F4E062 		bic	r2, r2, #1792
  91              	.LVL7:
  92              		.loc 1 14 6 view .LVU18
  93 0010 1204     		lsls	r2, r2, #16
  94 0012 120C     		lsrs	r2, r2, #16
  95              	.LVL8:
  15:Lib/src/bank.c **** 	temp|=0X05FA0000; 
  96              		.loc 1 15 2 is_stmt 1 view .LVU19
  97              		.loc 1 15 6 is_stmt 0 view .LVU20
  98 0014 42F0BF62 		orr	r2, r2, #100139008
  99              	.LVL9:
 100              		.loc 1 15 6 view .LVU21
 101 0018 42F40032 		orr	r2, r2, #131072
 102              	.LVL10:
ARM GAS  /tmp/cc2k1ucX.s 			page 3


  16:Lib/src/bank.c **** 	temp|=temp1;	   
 103              		.loc 1 16 2 is_stmt 1 view .LVU22
 104              		.loc 1 16 6 is_stmt 0 view .LVU23
 105 001c 1343     		orrs	r3, r3, r2
 106              	.LVL11:
  17:Lib/src/bank.c **** 	SCB->AIRCR=temp; 	    	  				   
 107              		.loc 1 17 2 is_stmt 1 view .LVU24
 108              		.loc 1 17 12 is_stmt 0 view .LVU25
 109 001e CB60     		str	r3, [r1, #12]
  18:Lib/src/bank.c **** }
 110              		.loc 1 18 1 view .LVU26
 111 0020 7047     		bx	lr
 112              	.L6:
 113 0022 00BF     		.align	2
 114              	.L5:
 115 0024 00ED00E0 		.word	-536810240
 116              		.cfi_endproc
 117              	.LFE127:
 119              		.section	.text.GPIO_Set,"ax",%progbits
 120              		.align	1
 121              		.global	GPIO_Set
 122              		.syntax unified
 123              		.thumb
 124              		.thumb_func
 125              		.fpu fpv4-sp-d16
 127              	GPIO_Set:
 128              	.LVL12:
 129              	.LFB128:
  19:Lib/src/bank.c **** 
  20:Lib/src/bank.c **** void GPIO_Set(GPIO_TypeDef* GPIOx,u32 BITx,u32 MODE,u32 OTYPE,u32 OSPEED,u32 PUPD)
  21:Lib/src/bank.c **** {
 130              		.loc 1 21 1 is_stmt 1 view -0
 131              		.cfi_startproc
 132              		@ args = 8, pretend = 0, frame = 0
 133              		@ frame_needed = 0, uses_anonymous_args = 0
 134              		.loc 1 21 1 is_stmt 0 view .LVU28
 135 0000 2DE9F043 		push	{r4, r5, r6, r7, r8, r9, lr}
 136              	.LCFI0:
 137              		.cfi_def_cfa_offset 28
 138              		.cfi_offset 4, -28
 139              		.cfi_offset 5, -24
 140              		.cfi_offset 6, -20
 141              		.cfi_offset 7, -16
 142              		.cfi_offset 8, -12
 143              		.cfi_offset 9, -8
 144              		.cfi_offset 14, -4
 145 0004 079F     		ldr	r7, [sp, #28]
 146 0006 089E     		ldr	r6, [sp, #32]
  22:Lib/src/bank.c ****     u32 pinpos=0,pos=0,curpin=0;
 147              		.loc 1 22 5 is_stmt 1 view .LVU29
 148              	.LVL13:
  23:Lib/src/bank.c **** 	for(pinpos=0;pinpos<16;pinpos++)
 149              		.loc 1 23 2 view .LVU30
 150              		.loc 1 23 12 is_stmt 0 view .LVU31
 151 0008 4FF0000C 		mov	ip, #0
 152              		.loc 1 23 2 view .LVU32
 153 000c 01E0     		b	.L8
ARM GAS  /tmp/cc2k1ucX.s 			page 4


 154              	.LVL14:
 155              	.L9:
 156              		.loc 1 23 25 is_stmt 1 discriminator 2 view .LVU33
 157              		.loc 1 23 31 is_stmt 0 discriminator 2 view .LVU34
 158 000e 0CF1010C 		add	ip, ip, #1
 159              	.LVL15:
 160              	.L8:
 161              		.loc 1 23 15 is_stmt 1 discriminator 1 view .LVU35
 162              		.loc 1 23 2 is_stmt 0 discriminator 1 view .LVU36
 163 0012 BCF10F0F 		cmp	ip, #15
 164 0016 38D8     		bhi	.L12
  24:Lib/src/bank.c **** 	{
  25:Lib/src/bank.c **** 		pos=1<<pinpos;	
 165              		.loc 1 25 3 is_stmt 1 view .LVU37
 166              		.loc 1 25 8 is_stmt 0 view .LVU38
 167 0018 4FF0010E 		mov	lr, #1
 168 001c 0EFA0CFE 		lsl	lr, lr, ip
 169              	.LVL16:
  26:Lib/src/bank.c **** 		curpin=BITx&pos;
 170              		.loc 1 26 3 is_stmt 1 view .LVU39
  27:Lib/src/bank.c **** 		if(curpin==pos)	
 171              		.loc 1 27 3 view .LVU40
 172              		.loc 1 27 5 is_stmt 0 view .LVU41
 173 0020 3EEA0104 		bics	r4, lr, r1
 174 0024 F3D1     		bne	.L9
  28:Lib/src/bank.c **** 		{
  29:Lib/src/bank.c **** 			GPIOx->MODER&=~(3<<(pinpos*2));	
 175              		.loc 1 29 4 is_stmt 1 view .LVU42
 176              		.loc 1 29 16 is_stmt 0 view .LVU43
 177 0026 D0F80090 		ldr	r9, [r0]
 178              		.loc 1 29 30 view .LVU44
 179 002a 4FEA4C05 		lsl	r5, ip, #1
 180              		.loc 1 29 21 view .LVU45
 181 002e 0324     		movs	r4, #3
 182 0030 AC40     		lsls	r4, r4, r5
 183              		.loc 1 29 18 view .LVU46
 184 0032 6FEA0408 		mvn	r8, r4
 185              		.loc 1 29 16 view .LVU47
 186 0036 29EA0404 		bic	r4, r9, r4
 187 003a 0460     		str	r4, [r0]
  30:Lib/src/bank.c **** 			GPIOx->MODER|=MODE<<(pinpos*2);	
 188              		.loc 1 30 4 is_stmt 1 view .LVU48
 189              		.loc 1 30 16 is_stmt 0 view .LVU49
 190 003c 0468     		ldr	r4, [r0]
 191              		.loc 1 30 22 view .LVU50
 192 003e 02FA05F9 		lsl	r9, r2, r5
 193              		.loc 1 30 16 view .LVU51
 194 0042 44EA0904 		orr	r4, r4, r9
 195 0046 0460     		str	r4, [r0]
  31:Lib/src/bank.c **** 			if((MODE==0X01)||(MODE==0X02))	
 196              		.loc 1 31 4 is_stmt 1 view .LVU52
 197              		.loc 1 31 19 is_stmt 0 view .LVU53
 198 0048 541E     		subs	r4, r2, #1
 199              		.loc 1 31 6 view .LVU54
 200 004a 012C     		cmp	r4, #1
 201 004c DFD8     		bhi	.L9
  32:Lib/src/bank.c **** 			{  
ARM GAS  /tmp/cc2k1ucX.s 			page 5


  33:Lib/src/bank.c **** 				GPIOx->OSPEEDR&=~(3<<(pinpos*2));	
 202              		.loc 1 33 5 is_stmt 1 view .LVU55
 203              		.loc 1 33 19 is_stmt 0 view .LVU56
 204 004e 8468     		ldr	r4, [r0, #8]
 205 0050 08EA0404 		and	r4, r8, r4
 206 0054 8460     		str	r4, [r0, #8]
  34:Lib/src/bank.c **** 				GPIOx->OSPEEDR|=(OSPEED<<(pinpos*2)); 
 207              		.loc 1 34 5 is_stmt 1 view .LVU57
 208              		.loc 1 34 19 is_stmt 0 view .LVU58
 209 0056 8468     		ldr	r4, [r0, #8]
 210              		.loc 1 34 28 view .LVU59
 211 0058 07FA05F9 		lsl	r9, r7, r5
 212              		.loc 1 34 19 view .LVU60
 213 005c 44EA0904 		orr	r4, r4, r9
 214 0060 8460     		str	r4, [r0, #8]
  35:Lib/src/bank.c **** 				GPIOx->OTYPER&=~(1<<pinpos) ;		
 215              		.loc 1 35 5 is_stmt 1 view .LVU61
 216              		.loc 1 35 18 is_stmt 0 view .LVU62
 217 0062 4468     		ldr	r4, [r0, #4]
 218 0064 24EA0E04 		bic	r4, r4, lr
 219 0068 4460     		str	r4, [r0, #4]
  36:Lib/src/bank.c **** 				GPIOx->OTYPER|=OTYPE<<pinpos;		
 220              		.loc 1 36 5 is_stmt 1 view .LVU63
 221              		.loc 1 36 18 is_stmt 0 view .LVU64
 222 006a 4468     		ldr	r4, [r0, #4]
 223              		.loc 1 36 25 view .LVU65
 224 006c 03FA0CFE 		lsl	lr, r3, ip
 225              	.LVL17:
 226              		.loc 1 36 18 view .LVU66
 227 0070 44EA0E04 		orr	r4, r4, lr
 228 0074 4460     		str	r4, [r0, #4]
  37:Lib/src/bank.c ****                 GPIOx->PUPDR&=~(3<<(pinpos*2));	
 229              		.loc 1 37 17 is_stmt 1 view .LVU67
 230              		.loc 1 37 29 is_stmt 0 view .LVU68
 231 0076 C468     		ldr	r4, [r0, #12]
 232 0078 08EA0404 		and	r4, r8, r4
 233 007c C460     		str	r4, [r0, #12]
  38:Lib/src/bank.c ****                 GPIOx->PUPDR|=PUPD<<(pinpos*2);	
 234              		.loc 1 38 17 is_stmt 1 view .LVU69
 235              		.loc 1 38 29 is_stmt 0 view .LVU70
 236 007e C468     		ldr	r4, [r0, #12]
 237              		.loc 1 38 35 view .LVU71
 238 0080 06FA05F5 		lsl	r5, r6, r5
 239              		.loc 1 38 29 view .LVU72
 240 0084 2543     		orrs	r5, r5, r4
 241 0086 C560     		str	r5, [r0, #12]
 242 0088 C1E7     		b	.L9
 243              	.LVL18:
 244              	.L12:
  39:Lib/src/bank.c **** 		    }
  40:Lib/src/bank.c **** 	    }
  41:Lib/src/bank.c ****     }
  42:Lib/src/bank.c **** }
 245              		.loc 1 42 1 view .LVU73
 246 008a BDE8F083 		pop	{r4, r5, r6, r7, r8, r9, pc}
 247              		.loc 1 42 1 view .LVU74
 248              		.cfi_endproc
ARM GAS  /tmp/cc2k1ucX.s 			page 6


 249              	.LFE128:
 251              		.section	.text.GPIO_AF_Set,"ax",%progbits
 252              		.align	1
 253              		.global	GPIO_AF_Set
 254              		.syntax unified
 255              		.thumb
 256              		.thumb_func
 257              		.fpu fpv4-sp-d16
 259              	GPIO_AF_Set:
 260              	.LVL19:
 261              	.LFB129:
  43:Lib/src/bank.c **** 
  44:Lib/src/bank.c **** 
  45:Lib/src/bank.c **** void GPIO_AF_Set(GPIO_TypeDef* GPIOx,u8 BITx,u8 AFx)
  46:Lib/src/bank.c **** {  
 262              		.loc 1 46 1 is_stmt 1 view -0
 263              		.cfi_startproc
 264              		@ args = 0, pretend = 0, frame = 0
 265              		@ frame_needed = 0, uses_anonymous_args = 0
 266              		@ link register save eliminated.
 267              		.loc 1 46 1 is_stmt 0 view .LVU76
 268 0000 10B4     		push	{r4}
 269              	.LCFI1:
 270              		.cfi_def_cfa_offset 4
 271              		.cfi_offset 4, -4
  47:Lib/src/bank.c **** 	GPIOx->AFR[BITx>>3]&=~(0X0F<<((BITx&0X07)*4));
 272              		.loc 1 47 2 is_stmt 1 view .LVU77
 273              		.loc 1 47 21 is_stmt 0 view .LVU78
 274 0002 CB08     		lsrs	r3, r1, #3
 275 0004 0833     		adds	r3, r3, #8
 276 0006 50F82340 		ldr	r4, [r0, r3, lsl #2]
 277              		.loc 1 47 37 view .LVU79
 278 000a 01F00701 		and	r1, r1, #7
 279              	.LVL20:
 280              		.loc 1 47 43 view .LVU80
 281 000e 8900     		lsls	r1, r1, #2
 282              		.loc 1 47 29 view .LVU81
 283 0010 4FF00F0C 		mov	ip, #15
 284 0014 0CFA01FC 		lsl	ip, ip, r1
 285              		.loc 1 47 21 view .LVU82
 286 0018 24EA0C04 		bic	r4, r4, ip
 287 001c 40F82340 		str	r4, [r0, r3, lsl #2]
  48:Lib/src/bank.c **** 	GPIOx->AFR[BITx>>3]|=(u32)AFx<<((BITx&0X07)*4);
 288              		.loc 1 48 2 is_stmt 1 view .LVU83
 289              		.loc 1 48 21 is_stmt 0 view .LVU84
 290 0020 50F82340 		ldr	r4, [r0, r3, lsl #2]
 291              		.loc 1 48 31 view .LVU85
 292 0024 02FA01F1 		lsl	r1, r2, r1
 293              		.loc 1 48 21 view .LVU86
 294 0028 0C43     		orrs	r4, r4, r1
 295 002a 40F82340 		str	r4, [r0, r3, lsl #2]
  49:Lib/src/bank.c **** }  
 296              		.loc 1 49 1 view .LVU87
 297 002e 5DF8044B 		ldr	r4, [sp], #4
 298              	.LCFI2:
 299              		.cfi_restore 4
 300              		.cfi_def_cfa_offset 0
ARM GAS  /tmp/cc2k1ucX.s 			page 7


 301 0032 7047     		bx	lr
 302              		.cfi_endproc
 303              	.LFE129:
 305              		.section	.text.MY_NVIC_Init,"ax",%progbits
 306              		.align	1
 307              		.global	MY_NVIC_Init
 308              		.syntax unified
 309              		.thumb
 310              		.thumb_func
 311              		.fpu fpv4-sp-d16
 313              	MY_NVIC_Init:
 314              	.LVL21:
 315              	.LFB130:
  50:Lib/src/bank.c **** 
  51:Lib/src/bank.c **** 
  52:Lib/src/bank.c **** void MY_NVIC_Init(u8 NVIC_PreemptionPriority,u8 NVIC_SubPriority,u8 NVIC_Channel,u8 NVIC_Group)	 
  53:Lib/src/bank.c **** { 
 316              		.loc 1 53 1 is_stmt 1 view -0
 317              		.cfi_startproc
 318              		@ args = 0, pretend = 0, frame = 0
 319              		@ frame_needed = 0, uses_anonymous_args = 0
 320              		.loc 1 53 1 is_stmt 0 view .LVU89
 321 0000 F8B5     		push	{r3, r4, r5, r6, r7, lr}
 322              	.LCFI3:
 323              		.cfi_def_cfa_offset 24
 324              		.cfi_offset 3, -24
 325              		.cfi_offset 4, -20
 326              		.cfi_offset 5, -16
 327              		.cfi_offset 6, -12
 328              		.cfi_offset 7, -8
 329              		.cfi_offset 14, -4
 330 0002 0646     		mov	r6, r0
 331 0004 0C46     		mov	r4, r1
 332 0006 1546     		mov	r5, r2
 333 0008 1F46     		mov	r7, r3
  54:Lib/src/bank.c **** 	u32 temp;	  
 334              		.loc 1 54 2 is_stmt 1 view .LVU90
  55:Lib/src/bank.c **** 	MY_NVIC_PriorityGroupConfig(NVIC_Group);
 335              		.loc 1 55 2 view .LVU91
 336 000a 1846     		mov	r0, r3
 337              	.LVL22:
 338              		.loc 1 55 2 is_stmt 0 view .LVU92
 339 000c FFF7FEFF 		bl	MY_NVIC_PriorityGroupConfig
 340              	.LVL23:
  56:Lib/src/bank.c **** 	temp=NVIC_PreemptionPriority<<(4-NVIC_Group);	  
 341              		.loc 1 56 2 is_stmt 1 view .LVU93
 342              		.loc 1 56 34 is_stmt 0 view .LVU94
 343 0010 C7F10400 		rsb	r0, r7, #4
 344              		.loc 1 56 30 view .LVU95
 345 0014 8640     		lsls	r6, r6, r0
 346              	.LVL24:
  57:Lib/src/bank.c **** 	temp|=NVIC_SubPriority&(0x0f>>NVIC_Group);
 347              		.loc 1 57 2 is_stmt 1 view .LVU96
 348              		.loc 1 57 30 is_stmt 0 view .LVU97
 349 0016 0F23     		movs	r3, #15
 350 0018 43FA07F7 		asr	r7, r3, r7
 351              		.loc 1 57 24 view .LVU98
ARM GAS  /tmp/cc2k1ucX.s 			page 8


 352 001c 3C40     		ands	r4, r4, r7
 353              		.loc 1 57 6 view .LVU99
 354 001e 3443     		orrs	r4, r4, r6
 355              	.LVL25:
  58:Lib/src/bank.c **** 	temp&=0xf;								
 356              		.loc 1 58 2 is_stmt 1 view .LVU100
 357              		.loc 1 58 6 is_stmt 0 view .LVU101
 358 0020 1C40     		ands	r4, r4, r3
 359              	.LVL26:
  59:Lib/src/bank.c **** 	NVIC->ISER[NVIC_Channel/32]|=1<<NVIC_Channel%32;
 360              		.loc 1 59 2 is_stmt 1 view .LVU102
 361              		.loc 1 59 29 is_stmt 0 view .LVU103
 362 0022 6809     		lsrs	r0, r5, #5
 363 0024 084B     		ldr	r3, .L17
 364 0026 53F82020 		ldr	r2, [r3, r0, lsl #2]
 365              		.loc 1 59 46 view .LVU104
 366 002a 05F01F06 		and	r6, r5, #31
 367              		.loc 1 59 32 view .LVU105
 368 002e 0121     		movs	r1, #1
 369 0030 B140     		lsls	r1, r1, r6
 370              		.loc 1 59 29 view .LVU106
 371 0032 0A43     		orrs	r2, r2, r1
 372 0034 43F82020 		str	r2, [r3, r0, lsl #2]
  60:Lib/src/bank.c **** 	NVIC->IP[NVIC_Channel]|=temp<<4;					    	  				   
 373              		.loc 1 60 2 is_stmt 1 view .LVU107
 374              		.loc 1 60 24 is_stmt 0 view .LVU108
 375 0038 2B44     		add	r3, r3, r5
 376 003a 93F80023 		ldrb	r2, [r3, #768]	@ zero_extendqisi2
 377 003e 42EA0414 		orr	r4, r2, r4, lsl #4
 378              	.LVL27:
 379              		.loc 1 60 24 view .LVU109
 380 0042 83F80043 		strb	r4, [r3, #768]
  61:Lib/src/bank.c **** }...
 381              		.loc 1 61 1 view .LVU110
 382 0046 F8BD     		pop	{r3, r4, r5, r6, r7, pc}
 383              	.L18:
 384              		.align	2
 385              	.L17:
 386 0048 00E100E0 		.word	-536813312
 387              		.cfi_endproc
 388              	.LFE130:
 390              		.text
 391              	.Letext0:
 392              		.file 2 "/home/ktkuri/arm-gcc-tools/arm-none-eabi/include/machine/_default_types.h"
 393              		.file 3 "/home/ktkuri/arm-gcc-tools/arm-none-eabi/include/sys/_stdint.h"
 394              		.file 4 "Libraries/CMSIS/Include/core_cm4.h"
 395              		.file 5 "Libraries/CMSIS/Device/ST/STM32F4xx/Include/stm32f4xx.h"
ARM GAS  /tmp/cc2k1ucX.s 			page 9

