ARM GAS  C:\Users\ktkuru\AppData\Local\Temp\cch5rgrq.s 			page 1


   1              		.cpu cortex-m4
   2              		.arch armv7e-m
   3              		.fpu fpv4-sp-d16
   4              		.eabi_attribute 27, 1
   5              		.eabi_attribute 28, 1
   6              		.eabi_attribute 20, 1
   7              		.eabi_attribute 21, 1
   8              		.eabi_attribute 23, 3
   9              		.eabi_attribute 24, 1
  10              		.eabi_attribute 25, 1
  11              		.eabi_attribute 26, 1
  12              		.eabi_attribute 30, 1
  13              		.eabi_attribute 34, 1
  14              		.eabi_attribute 18, 4
  15              		.file	"gt9xxx.c"
  16              		.text
  17              	.Ltext0:
  18              		.cfi_sections	.debug_frame
  19              		.file 1 "HADRWARE/TOUCH/gt9xxx.c"
  20              		.section	.text.gt9xxx_wr_reg,"ax",%progbits
  21              		.align	1
  22              		.global	gt9xxx_wr_reg
  23              		.syntax unified
  24              		.thumb
  25              		.thumb_func
  27              	gt9xxx_wr_reg:
  28              	.LVL0:
  29              	.LFB126:
   1:HADRWARE/TOUCH/gt9xxx.c **** /**
   2:HADRWARE/TOUCH/gt9xxx.c ****  **************************************************************************************************
   3:HADRWARE/TOUCH/gt9xxx.c ****  * @file        gt9xxx.c
   4:HADRWARE/TOUCH/gt9xxx.c ****  * @author      正点原子团队(ALIENTEK)
   5:HADRWARE/TOUCH/gt9xxx.c ****  * @version     V1.1
   6:HADRWARE/TOUCH/gt9xxx.c ****  * @date        2022-12-27
   7:HADRWARE/TOUCH/gt9xxx.c ****  * @brief       4.3寸电容触摸屏-GT9xxx 驱动代码
   8:HADRWARE/TOUCH/gt9xxx.c ****  *   @note      GT系列电容触摸屏IC通用驱动,本代码支持: GT9147/GT917S/GT968/GT1151/GT9271 等多种
   9:HADRWARE/TOUCH/gt9xxx.c ****  *              驱动IC, 这些驱动IC仅ID不一样, 具体代码基本不需要做任何修改即可通过本代码直接驱动
  10:HADRWARE/TOUCH/gt9xxx.c ****  *
  11:HADRWARE/TOUCH/gt9xxx.c ****  * @license     Copyright (c) 2022-2032, 广州市星翼电子科技有限公司
  12:HADRWARE/TOUCH/gt9xxx.c ****  **************************************************************************************************
  13:HADRWARE/TOUCH/gt9xxx.c ****  * @attention
  14:HADRWARE/TOUCH/gt9xxx.c ****  *
  15:HADRWARE/TOUCH/gt9xxx.c ****  * 实验平台:正点原子 阿波罗 F429开发板
  16:HADRWARE/TOUCH/gt9xxx.c ****  * 在线视频:www.yuanzige.com
  17:HADRWARE/TOUCH/gt9xxx.c ****  * 技术论坛:www.openedv.com
  18:HADRWARE/TOUCH/gt9xxx.c ****  * 公司网址:www.alientek.com
  19:HADRWARE/TOUCH/gt9xxx.c ****  * 购买地址:openedv.taobao.com
  20:HADRWARE/TOUCH/gt9xxx.c ****  *
  21:HADRWARE/TOUCH/gt9xxx.c ****  * 修改说明
  22:HADRWARE/TOUCH/gt9xxx.c ****  * V1.0 20221227
  23:HADRWARE/TOUCH/gt9xxx.c ****  * 第一次发布
  24:HADRWARE/TOUCH/gt9xxx.c ****  * V1.1 20230607
  25:HADRWARE/TOUCH/gt9xxx.c ****  * 1，新增对ST7796 3.5寸屏 GT1151的支持
  26:HADRWARE/TOUCH/gt9xxx.c ****  * 2，新增对ILI9806 4.3寸屏 GT1151的支持
  27:HADRWARE/TOUCH/gt9xxx.c ****  *
  28:HADRWARE/TOUCH/gt9xxx.c ****  **************************************************************************************************
  29:HADRWARE/TOUCH/gt9xxx.c ****  */
ARM GAS  C:\Users\ktkuru\AppData\Local\Temp\cch5rgrq.s 			page 2


  30:HADRWARE/TOUCH/gt9xxx.c **** 
  31:HADRWARE/TOUCH/gt9xxx.c **** #include "string.h"
  32:HADRWARE/TOUCH/gt9xxx.c **** #include "lcd.h"
  33:HADRWARE/TOUCH/gt9xxx.c **** #include "touch.h"
  34:HADRWARE/TOUCH/gt9xxx.c **** #include "ctiic.h"
  35:HADRWARE/TOUCH/gt9xxx.c **** #include "gt9xxx.h"
  36:HADRWARE/TOUCH/gt9xxx.c **** #include "usart.h"
  37:HADRWARE/TOUCH/gt9xxx.c **** #include "delay.h"
  38:HADRWARE/TOUCH/gt9xxx.c **** 
  39:HADRWARE/TOUCH/gt9xxx.c **** 
  40:HADRWARE/TOUCH/gt9xxx.c **** 
  41:HADRWARE/TOUCH/gt9xxx.c **** /* 注意: 除了GT9271支持10点触摸之外, 其他触摸芯片只支持 5点触摸 */
  42:HADRWARE/TOUCH/gt9xxx.c **** uint8_t g_gt_tnum = 5;      /* 默认支持的触摸屏点数(5点触摸) */
  43:HADRWARE/TOUCH/gt9xxx.c **** 
  44:HADRWARE/TOUCH/gt9xxx.c **** /**
  45:HADRWARE/TOUCH/gt9xxx.c ****  * @brief       向gt9xxx写入一次数据
  46:HADRWARE/TOUCH/gt9xxx.c ****  * @param       reg : 起始寄存器地址
  47:HADRWARE/TOUCH/gt9xxx.c ****  * @param       buf : 数据缓缓存区
  48:HADRWARE/TOUCH/gt9xxx.c ****  * @param       len : 写数据长度
  49:HADRWARE/TOUCH/gt9xxx.c ****  * @retval      0, 成功; 1, 失败;
  50:HADRWARE/TOUCH/gt9xxx.c ****  */
  51:HADRWARE/TOUCH/gt9xxx.c **** uint8_t gt9xxx_wr_reg(uint16_t reg, uint8_t *buf, uint8_t len)
  52:HADRWARE/TOUCH/gt9xxx.c **** {
  30              		.loc 1 52 1 view -0
  31              		.cfi_startproc
  32              		@ args = 0, pretend = 0, frame = 0
  33              		@ frame_needed = 0, uses_anonymous_args = 0
  34              		.loc 1 52 1 is_stmt 0 view .LVU1
  35 0000 F8B5     		push	{r3, r4, r5, r6, r7, lr}
  36              	.LCFI0:
  37              		.cfi_def_cfa_offset 24
  38              		.cfi_offset 3, -24
  39              		.cfi_offset 4, -20
  40              		.cfi_offset 5, -16
  41              		.cfi_offset 6, -12
  42              		.cfi_offset 7, -8
  43              		.cfi_offset 14, -4
  44 0002 0446     		mov	r4, r0
  45 0004 0F46     		mov	r7, r1
  46 0006 1546     		mov	r5, r2
  53:HADRWARE/TOUCH/gt9xxx.c ****     uint8_t i;
  47              		.loc 1 53 5 is_stmt 1 view .LVU2
  54:HADRWARE/TOUCH/gt9xxx.c ****     uint8_t ret = 0;
  48              		.loc 1 54 5 view .LVU3
  49              	.LVL1:
  55:HADRWARE/TOUCH/gt9xxx.c ****     ct_iic_start();
  50              		.loc 1 55 5 view .LVU4
  51 0008 FFF7FEFF 		bl	ct_iic_start
  52              	.LVL2:
  56:HADRWARE/TOUCH/gt9xxx.c ****     ct_iic_send_byte(GT9XXX_CMD_WR);    /* 发送写命令 */
  53              		.loc 1 56 5 view .LVU5
  54 000c 2820     		movs	r0, #40
  55 000e FFF7FEFF 		bl	ct_iic_send_byte
  56              	.LVL3:
  57:HADRWARE/TOUCH/gt9xxx.c ****     ct_iic_wait_ack();
  57              		.loc 1 57 5 view .LVU6
  58 0012 FFF7FEFF 		bl	ct_iic_wait_ack
ARM GAS  C:\Users\ktkuru\AppData\Local\Temp\cch5rgrq.s 			page 3


  59              	.LVL4:
  58:HADRWARE/TOUCH/gt9xxx.c ****     ct_iic_send_byte(reg >> 8);         /* 发送高8位地址 */
  60              		.loc 1 58 5 view .LVU7
  61 0016 200A     		lsrs	r0, r4, #8
  62 0018 FFF7FEFF 		bl	ct_iic_send_byte
  63              	.LVL5:
  59:HADRWARE/TOUCH/gt9xxx.c ****     ct_iic_wait_ack();
  64              		.loc 1 59 5 view .LVU8
  65 001c FFF7FEFF 		bl	ct_iic_wait_ack
  66              	.LVL6:
  60:HADRWARE/TOUCH/gt9xxx.c ****     ct_iic_send_byte(reg & 0XFF);       /* 发送低8位地址 */
  67              		.loc 1 60 5 view .LVU9
  68 0020 E0B2     		uxtb	r0, r4
  69 0022 FFF7FEFF 		bl	ct_iic_send_byte
  70              	.LVL7:
  61:HADRWARE/TOUCH/gt9xxx.c ****     ct_iic_wait_ack();
  71              		.loc 1 61 5 view .LVU10
  72 0026 FFF7FEFF 		bl	ct_iic_wait_ack
  73              	.LVL8:
  62:HADRWARE/TOUCH/gt9xxx.c **** 
  63:HADRWARE/TOUCH/gt9xxx.c ****     for (i = 0; i < len; i++)
  74              		.loc 1 63 5 view .LVU11
  54:HADRWARE/TOUCH/gt9xxx.c ****     ct_iic_start();
  75              		.loc 1 54 13 is_stmt 0 view .LVU12
  76 002a 0026     		movs	r6, #0
  77              		.loc 1 63 12 view .LVU13
  78 002c 3446     		mov	r4, r6
  79              	.LVL9:
  80              		.loc 1 63 5 view .LVU14
  81 002e 01E0     		b	.L2
  82              	.LVL10:
  83              	.L6:
  84              		.loc 1 63 27 is_stmt 1 discriminator 2 view .LVU15
  85 0030 0134     		adds	r4, r4, #1
  86              	.LVL11:
  87              		.loc 1 63 27 is_stmt 0 discriminator 2 view .LVU16
  88 0032 E4B2     		uxtb	r4, r4
  89              	.LVL12:
  90              	.L2:
  91              		.loc 1 63 19 is_stmt 1 discriminator 1 view .LVU17
  92 0034 AC42     		cmp	r4, r5
  93 0036 07D2     		bcs	.L3
  64:HADRWARE/TOUCH/gt9xxx.c ****     {
  65:HADRWARE/TOUCH/gt9xxx.c ****         ct_iic_send_byte(buf[i]);       /* 发数据 */
  94              		.loc 1 65 9 view .LVU18
  95 0038 385D     		ldrb	r0, [r7, r4]	@ zero_extendqisi2
  96 003a FFF7FEFF 		bl	ct_iic_send_byte
  97              	.LVL13:
  66:HADRWARE/TOUCH/gt9xxx.c ****         ret = ct_iic_wait_ack();
  98              		.loc 1 66 9 view .LVU19
  99              		.loc 1 66 15 is_stmt 0 view .LVU20
 100 003e FFF7FEFF 		bl	ct_iic_wait_ack
 101              	.LVL14:
  67:HADRWARE/TOUCH/gt9xxx.c **** 
  68:HADRWARE/TOUCH/gt9xxx.c ****         if (ret)break;
 102              		.loc 1 68 9 is_stmt 1 view .LVU21
 103              		.loc 1 68 12 is_stmt 0 view .LVU22
ARM GAS  C:\Users\ktkuru\AppData\Local\Temp\cch5rgrq.s 			page 4


 104 0042 0646     		mov	r6, r0
 105 0044 0028     		cmp	r0, #0
 106 0046 F3D0     		beq	.L6
 107              	.LVL15:
 108              	.L3:
  69:HADRWARE/TOUCH/gt9xxx.c ****     }
  70:HADRWARE/TOUCH/gt9xxx.c **** 
  71:HADRWARE/TOUCH/gt9xxx.c ****     ct_iic_stop();  /* 产生一个停止条件 */
 109              		.loc 1 71 5 is_stmt 1 view .LVU23
 110 0048 FFF7FEFF 		bl	ct_iic_stop
 111              	.LVL16:
  72:HADRWARE/TOUCH/gt9xxx.c ****     return ret;
 112              		.loc 1 72 5 view .LVU24
  73:HADRWARE/TOUCH/gt9xxx.c **** }
 113              		.loc 1 73 1 is_stmt 0 view .LVU25
 114 004c 3046     		mov	r0, r6
 115 004e F8BD     		pop	{r3, r4, r5, r6, r7, pc}
 116              		.loc 1 73 1 view .LVU26
 117              		.cfi_endproc
 118              	.LFE126:
 120              		.section	.text.gt9xxx_rd_reg,"ax",%progbits
 121              		.align	1
 122              		.global	gt9xxx_rd_reg
 123              		.syntax unified
 124              		.thumb
 125              		.thumb_func
 127              	gt9xxx_rd_reg:
 128              	.LVL17:
 129              	.LFB127:
  74:HADRWARE/TOUCH/gt9xxx.c **** 
  75:HADRWARE/TOUCH/gt9xxx.c **** /**
  76:HADRWARE/TOUCH/gt9xxx.c ****  * @brief       从gt9xxx读出一次数据
  77:HADRWARE/TOUCH/gt9xxx.c ****  * @param       reg : 起始寄存器地址
  78:HADRWARE/TOUCH/gt9xxx.c ****  * @param       buf : 数据缓缓存区
  79:HADRWARE/TOUCH/gt9xxx.c ****  * @param       len : 读数据长度
  80:HADRWARE/TOUCH/gt9xxx.c ****  * @retval      无
  81:HADRWARE/TOUCH/gt9xxx.c ****  */
  82:HADRWARE/TOUCH/gt9xxx.c **** void gt9xxx_rd_reg(uint16_t reg, uint8_t *buf, uint8_t len)
  83:HADRWARE/TOUCH/gt9xxx.c **** {
 130              		.loc 1 83 1 is_stmt 1 view -0
 131              		.cfi_startproc
 132              		@ args = 0, pretend = 0, frame = 0
 133              		@ frame_needed = 0, uses_anonymous_args = 0
 134              		.loc 1 83 1 is_stmt 0 view .LVU28
 135 0000 70B5     		push	{r4, r5, r6, lr}
 136              	.LCFI1:
 137              		.cfi_def_cfa_offset 16
 138              		.cfi_offset 4, -16
 139              		.cfi_offset 5, -12
 140              		.cfi_offset 6, -8
 141              		.cfi_offset 14, -4
 142 0002 0446     		mov	r4, r0
 143 0004 0E46     		mov	r6, r1
 144 0006 1546     		mov	r5, r2
  84:HADRWARE/TOUCH/gt9xxx.c ****     uint8_t i;
 145              		.loc 1 84 5 is_stmt 1 view .LVU29
  85:HADRWARE/TOUCH/gt9xxx.c ****     ct_iic_start();
ARM GAS  C:\Users\ktkuru\AppData\Local\Temp\cch5rgrq.s 			page 5


 146              		.loc 1 85 5 view .LVU30
 147 0008 FFF7FEFF 		bl	ct_iic_start
 148              	.LVL18:
  86:HADRWARE/TOUCH/gt9xxx.c ****     ct_iic_send_byte(GT9XXX_CMD_WR);    /* 发送写命令 */
 149              		.loc 1 86 5 view .LVU31
 150 000c 2820     		movs	r0, #40
 151 000e FFF7FEFF 		bl	ct_iic_send_byte
 152              	.LVL19:
  87:HADRWARE/TOUCH/gt9xxx.c ****     ct_iic_wait_ack();
 153              		.loc 1 87 5 view .LVU32
 154 0012 FFF7FEFF 		bl	ct_iic_wait_ack
 155              	.LVL20:
  88:HADRWARE/TOUCH/gt9xxx.c ****     ct_iic_send_byte(reg >> 8);         /* 发送高8位地址 */
 156              		.loc 1 88 5 view .LVU33
 157 0016 200A     		lsrs	r0, r4, #8
 158 0018 FFF7FEFF 		bl	ct_iic_send_byte
 159              	.LVL21:
  89:HADRWARE/TOUCH/gt9xxx.c ****     ct_iic_wait_ack();
 160              		.loc 1 89 5 view .LVU34
 161 001c FFF7FEFF 		bl	ct_iic_wait_ack
 162              	.LVL22:
  90:HADRWARE/TOUCH/gt9xxx.c ****     ct_iic_send_byte(reg & 0XFF);       /* 发送低8位地址 */
 163              		.loc 1 90 5 view .LVU35
 164 0020 E0B2     		uxtb	r0, r4
 165 0022 FFF7FEFF 		bl	ct_iic_send_byte
 166              	.LVL23:
  91:HADRWARE/TOUCH/gt9xxx.c ****     ct_iic_wait_ack();
 167              		.loc 1 91 5 view .LVU36
 168 0026 FFF7FEFF 		bl	ct_iic_wait_ack
 169              	.LVL24:
  92:HADRWARE/TOUCH/gt9xxx.c ****     ct_iic_start();
 170              		.loc 1 92 5 view .LVU37
 171 002a FFF7FEFF 		bl	ct_iic_start
 172              	.LVL25:
  93:HADRWARE/TOUCH/gt9xxx.c ****     ct_iic_send_byte(GT9XXX_CMD_RD);    /* 发送读命令 */
 173              		.loc 1 93 5 view .LVU38
 174 002e 2920     		movs	r0, #41
 175 0030 FFF7FEFF 		bl	ct_iic_send_byte
 176              	.LVL26:
  94:HADRWARE/TOUCH/gt9xxx.c ****     ct_iic_wait_ack();
 177              		.loc 1 94 5 view .LVU39
 178 0034 FFF7FEFF 		bl	ct_iic_wait_ack
 179              	.LVL27:
  95:HADRWARE/TOUCH/gt9xxx.c **** 
  96:HADRWARE/TOUCH/gt9xxx.c ****     for (i = 0; i < len; i++)
 180              		.loc 1 96 5 view .LVU40
 181              		.loc 1 96 12 is_stmt 0 view .LVU41
 182 0038 0024     		movs	r4, #0
 183              	.LVL28:
 184              		.loc 1 96 5 view .LVU42
 185 003a 08E0     		b	.L8
 186              	.LVL29:
 187              	.L9:
  97:HADRWARE/TOUCH/gt9xxx.c ****     {
  98:HADRWARE/TOUCH/gt9xxx.c ****         buf[i] = ct_iic_read_byte(i == (len - 1) ? 0 : 1);  /* 发数据 */
 188              		.loc 1 98 9 is_stmt 1 view .LVU43
 189              		.loc 1 98 45 is_stmt 0 view .LVU44
ARM GAS  C:\Users\ktkuru\AppData\Local\Temp\cch5rgrq.s 			page 6


 190 003c 681E     		subs	r0, r5, #1
 191              		.loc 1 98 18 view .LVU45
 192 003e 201A     		subs	r0, r4, r0
 193 0040 18BF     		it	ne
 194 0042 0120     		movne	r0, #1
 195 0044 FFF7FEFF 		bl	ct_iic_read_byte
 196              	.LVL30:
 197              		.loc 1 98 16 discriminator 1 view .LVU46
 198 0048 3055     		strb	r0, [r6, r4]
  96:HADRWARE/TOUCH/gt9xxx.c ****     {
 199              		.loc 1 96 27 is_stmt 1 discriminator 3 view .LVU47
 200 004a 0134     		adds	r4, r4, #1
 201              	.LVL31:
  96:HADRWARE/TOUCH/gt9xxx.c ****     {
 202              		.loc 1 96 27 is_stmt 0 discriminator 3 view .LVU48
 203 004c E4B2     		uxtb	r4, r4
 204              	.LVL32:
 205              	.L8:
  96:HADRWARE/TOUCH/gt9xxx.c ****     {
 206              		.loc 1 96 19 is_stmt 1 discriminator 1 view .LVU49
 207 004e AC42     		cmp	r4, r5
 208 0050 F4D3     		bcc	.L9
  99:HADRWARE/TOUCH/gt9xxx.c ****     }
 100:HADRWARE/TOUCH/gt9xxx.c **** 
 101:HADRWARE/TOUCH/gt9xxx.c ****     ct_iic_stop();  /* 产生一个停止条件 */
 209              		.loc 1 101 5 view .LVU50
 210 0052 FFF7FEFF 		bl	ct_iic_stop
 211              	.LVL33:
 102:HADRWARE/TOUCH/gt9xxx.c **** }
 212              		.loc 1 102 1 is_stmt 0 view .LVU51
 213 0056 70BD     		pop	{r4, r5, r6, pc}
 214              		.loc 1 102 1 view .LVU52
 215              		.cfi_endproc
 216              	.LFE127:
 218              		.section	.text.gt9xxx_scan,"ax",%progbits
 219              		.align	1
 220              		.global	gt9xxx_scan
 221              		.syntax unified
 222              		.thumb
 223              		.thumb_func
 225              	gt9xxx_scan:
 226              	.LVL34:
 227              	.LFB129:
 103:HADRWARE/TOUCH/gt9xxx.c **** 
 104:HADRWARE/TOUCH/gt9xxx.c **** /**
 105:HADRWARE/TOUCH/gt9xxx.c ****  * @brief       初始化gt9xxx触摸屏
 106:HADRWARE/TOUCH/gt9xxx.c ****  * @param       无
 107:HADRWARE/TOUCH/gt9xxx.c ****  * @retval      0, 初始化成功; 1, 初始化失败;
 108:HADRWARE/TOUCH/gt9xxx.c ****  */
 109:HADRWARE/TOUCH/gt9xxx.c **** uint8_t gt9xxx_init(void)
 110:HADRWARE/TOUCH/gt9xxx.c **** {
 111:HADRWARE/TOUCH/gt9xxx.c ****     uint8_t temp[5];
 112:HADRWARE/TOUCH/gt9xxx.c **** 
 113:HADRWARE/TOUCH/gt9xxx.c ****     GT9XXX_RST_GPIO_CLK_ENABLE();   /* RST引脚时钟使能 */
 114:HADRWARE/TOUCH/gt9xxx.c ****     GT9XXX_INT_GPIO_CLK_ENABLE();   /* INT引脚时钟使能 */
 115:HADRWARE/TOUCH/gt9xxx.c **** 
 116:HADRWARE/TOUCH/gt9xxx.c ****     /* RST引脚模式设置, 推挽输出, 上拉 */
ARM GAS  C:\Users\ktkuru\AppData\Local\Temp\cch5rgrq.s 			page 7


 117:HADRWARE/TOUCH/gt9xxx.c ****     sys_gpio_set(GT9XXX_RST_GPIO_PORT, GT9XXX_RST_GPIO_PIN,
 118:HADRWARE/TOUCH/gt9xxx.c ****                  SYS_GPIO_MODE_OUT, SYS_GPIO_OTYPE_PP, SYS_GPIO_SPEED_MID, SYS_GPIO_PUPD_PU);
 119:HADRWARE/TOUCH/gt9xxx.c **** 
 120:HADRWARE/TOUCH/gt9xxx.c ****     /* INT引脚模式设置, 输入模式, 上拉 */
 121:HADRWARE/TOUCH/gt9xxx.c ****     sys_gpio_set(GT9XXX_INT_GPIO_PORT, GT9XXX_INT_GPIO_PIN,
 122:HADRWARE/TOUCH/gt9xxx.c ****                  SYS_GPIO_MODE_IN, SYS_GPIO_OTYPE_PP, SYS_GPIO_SPEED_MID, SYS_GPIO_PUPD_PU);
 123:HADRWARE/TOUCH/gt9xxx.c **** 
 124:HADRWARE/TOUCH/gt9xxx.c ****     
 125:HADRWARE/TOUCH/gt9xxx.c ****     ct_iic_init();      /* 初始化电容屏的I2C总线 */
 126:HADRWARE/TOUCH/gt9xxx.c ****     GT9XXX_RST(0);      /* 复位 */
 127:HADRWARE/TOUCH/gt9xxx.c ****     delay_ms(10);
 128:HADRWARE/TOUCH/gt9xxx.c ****     GT9XXX_RST(1);      /* 释放复位 */
 129:HADRWARE/TOUCH/gt9xxx.c ****     delay_ms(10);
 130:HADRWARE/TOUCH/gt9xxx.c **** 
 131:HADRWARE/TOUCH/gt9xxx.c ****     /* INT引脚模式设置, 输入模式, 浮空输入 */
 132:HADRWARE/TOUCH/gt9xxx.c ****     sys_gpio_set(GT9XXX_INT_GPIO_PORT, GT9XXX_INT_GPIO_PIN, 
 133:HADRWARE/TOUCH/gt9xxx.c ****                  SYS_GPIO_MODE_IN, SYS_GPIO_OTYPE_PP, SYS_GPIO_SPEED_MID, SYS_GPIO_PUPD_NONE);
 134:HADRWARE/TOUCH/gt9xxx.c **** 
 135:HADRWARE/TOUCH/gt9xxx.c ****     delay_ms(100);
 136:HADRWARE/TOUCH/gt9xxx.c ****     gt9xxx_rd_reg(GT9XXX_PID_REG, temp, 4); /* 读取产品ID */
 137:HADRWARE/TOUCH/gt9xxx.c ****     temp[4] = 0;
 138:HADRWARE/TOUCH/gt9xxx.c ****     /* 判断一下是否是特定的触摸屏 */
 139:HADRWARE/TOUCH/gt9xxx.c ****     if (strcmp((char *)temp, "911") && strcmp((char *)temp, "9147") && strcmp((char *)temp, "1158")
 140:HADRWARE/TOUCH/gt9xxx.c ****     {
 141:HADRWARE/TOUCH/gt9xxx.c ****         return 1;   /* 若不是触摸屏用到的GT911/9147/1158/9271，则初始化失败，需硬件查看触摸IC型号以
 142:HADRWARE/TOUCH/gt9xxx.c ****     }
 143:HADRWARE/TOUCH/gt9xxx.c ****     printf("CTP ID:%s\r\n", temp);          /* 打印ID */
 144:HADRWARE/TOUCH/gt9xxx.c ****     
 145:HADRWARE/TOUCH/gt9xxx.c ****     if (strcmp((char *)temp, "9271") == 0)  /* ID==9271, 支持10点触摸 */
 146:HADRWARE/TOUCH/gt9xxx.c ****     {
 147:HADRWARE/TOUCH/gt9xxx.c ****          g_gt_tnum = 10;    /* 支持10点触摸屏 */
 148:HADRWARE/TOUCH/gt9xxx.c ****     }
 149:HADRWARE/TOUCH/gt9xxx.c ****     
 150:HADRWARE/TOUCH/gt9xxx.c ****     temp[0] = 0X02;
 151:HADRWARE/TOUCH/gt9xxx.c ****     gt9xxx_wr_reg(GT9XXX_CTRL_REG, temp, 1);    /* 软复位GT9XXX */
 152:HADRWARE/TOUCH/gt9xxx.c ****     
 153:HADRWARE/TOUCH/gt9xxx.c ****     delay_ms(10);
 154:HADRWARE/TOUCH/gt9xxx.c ****     
 155:HADRWARE/TOUCH/gt9xxx.c ****     temp[0] = 0X00;
 156:HADRWARE/TOUCH/gt9xxx.c ****     gt9xxx_wr_reg(GT9XXX_CTRL_REG, temp, 1);    /* 结束复位, 进入读坐标状态 */
 157:HADRWARE/TOUCH/gt9xxx.c ****     
 158:HADRWARE/TOUCH/gt9xxx.c ****     /* 开始读坐标  */
 159:HADRWARE/TOUCH/gt9xxx.c ****     tp_dev.touchtype |= lcddev.dir & 0X01;  
 160:HADRWARE/TOUCH/gt9xxx.c ****     tp_dev.scan = gt9xxx_scan;
 161:HADRWARE/TOUCH/gt9xxx.c ****     tp_dev.touchtype |= 0X80;
 162:HADRWARE/TOUCH/gt9xxx.c **** 
 163:HADRWARE/TOUCH/gt9xxx.c ****     return 0;
 164:HADRWARE/TOUCH/gt9xxx.c **** }
 165:HADRWARE/TOUCH/gt9xxx.c **** 
 166:HADRWARE/TOUCH/gt9xxx.c **** /* GT9XXX 10个触摸点(最多) 对应的寄存器表 */
 167:HADRWARE/TOUCH/gt9xxx.c **** const uint16_t GT9XXX_TPX_TBL[10] =
 168:HADRWARE/TOUCH/gt9xxx.c **** {
 169:HADRWARE/TOUCH/gt9xxx.c ****     GT9XXX_TP1_REG, GT9XXX_TP2_REG, GT9XXX_TP3_REG, GT9XXX_TP4_REG, GT9XXX_TP5_REG,
 170:HADRWARE/TOUCH/gt9xxx.c ****     GT9XXX_TP6_REG, GT9XXX_TP7_REG, GT9XXX_TP8_REG, GT9XXX_TP9_REG, GT9XXX_TP10_REG,
 171:HADRWARE/TOUCH/gt9xxx.c **** };
 172:HADRWARE/TOUCH/gt9xxx.c **** 
 173:HADRWARE/TOUCH/gt9xxx.c **** /**
ARM GAS  C:\Users\ktkuru\AppData\Local\Temp\cch5rgrq.s 			page 8


 174:HADRWARE/TOUCH/gt9xxx.c ****  * @brief       扫描触摸屏(采用查询方式)
 175:HADRWARE/TOUCH/gt9xxx.c ****  * @param       mode : 电容屏未用到次参数, 为了兼容电阻屏
 176:HADRWARE/TOUCH/gt9xxx.c ****  * @retval      当前触屏状态
 177:HADRWARE/TOUCH/gt9xxx.c ****  *   @arg       0, 触屏无触摸; 
 178:HADRWARE/TOUCH/gt9xxx.c ****  *   @arg       1, 触屏有触摸;
 179:HADRWARE/TOUCH/gt9xxx.c ****  */
 180:HADRWARE/TOUCH/gt9xxx.c **** uint8_t gt9xxx_scan(uint8_t mode)
 181:HADRWARE/TOUCH/gt9xxx.c **** {
 228              		.loc 1 181 1 is_stmt 1 view -0
 229              		.cfi_startproc
 230              		@ args = 0, pretend = 0, frame = 16
 231              		@ frame_needed = 0, uses_anonymous_args = 0
 232              		.loc 1 181 1 is_stmt 0 view .LVU54
 233 0000 10B5     		push	{r4, lr}
 234              	.LCFI2:
 235              		.cfi_def_cfa_offset 8
 236              		.cfi_offset 4, -8
 237              		.cfi_offset 14, -4
 238 0002 84B0     		sub	sp, sp, #16
 239              	.LCFI3:
 240              		.cfi_def_cfa_offset 24
 241 0004 8DF80700 		strb	r0, [sp, #7]
 182:HADRWARE/TOUCH/gt9xxx.c ****     uint8_t buf[4];
 242              		.loc 1 182 5 is_stmt 1 view .LVU55
 183:HADRWARE/TOUCH/gt9xxx.c ****     uint8_t i = 0;
 243              		.loc 1 183 5 view .LVU56
 244              		.loc 1 183 13 is_stmt 0 view .LVU57
 245 0008 0023     		movs	r3, #0
 246 000a 8DF80B30 		strb	r3, [sp, #11]
 184:HADRWARE/TOUCH/gt9xxx.c ****     uint8_t res = 0;
 247              		.loc 1 184 5 is_stmt 1 view .LVU58
 248              	.LVL35:
 185:HADRWARE/TOUCH/gt9xxx.c ****     uint16_t temp;
 249              		.loc 1 185 5 view .LVU59
 186:HADRWARE/TOUCH/gt9xxx.c ****     uint16_t tempsta;
 250              		.loc 1 186 5 view .LVU60
 187:HADRWARE/TOUCH/gt9xxx.c ****     static uint8_t t = 0;   /* 控制查询间隔,从而降低CPU占用率 */
 251              		.loc 1 187 5 view .LVU61
 188:HADRWARE/TOUCH/gt9xxx.c ****     t++;
 252              		.loc 1 188 5 view .LVU62
 253              		.loc 1 188 6 is_stmt 0 view .LVU63
 254 000e 9F4B     		ldr	r3, .L35
 255 0010 1A78     		ldrb	r2, [r3]	@ zero_extendqisi2
 256 0012 0132     		adds	r2, r2, #1
 257 0014 D2B2     		uxtb	r2, r2
 258 0016 1A70     		strb	r2, [r3]
 189:HADRWARE/TOUCH/gt9xxx.c **** 
 190:HADRWARE/TOUCH/gt9xxx.c ****     if ((t % 10) == 0 || t < 10)    /* 空闲时,每进入10次CTP_Scan函数才检测1次,从而节省CPU使用率 */
 259              		.loc 1 190 5 is_stmt 1 view .LVU64
 260              		.loc 1 190 18 is_stmt 0 view .LVU65
 261 0018 9D4B     		ldr	r3, .L35+4
 262 001a A3FB0213 		umull	r1, r3, r3, r2
 263 001e DB08     		lsrs	r3, r3, #3
 264 0020 03EB8303 		add	r3, r3, r3, lsl #2
 265 0024 A2EB4303 		sub	r3, r2, r3, lsl #1
 266              		.loc 1 190 8 view .LVU66
 267 0028 13F0FF0F 		tst	r3, #255
ARM GAS  C:\Users\ktkuru\AppData\Local\Temp\cch5rgrq.s 			page 9


 268 002c 02D0     		beq	.L12
 269              		.loc 1 190 23 discriminator 1 view .LVU67
 270 002e 092A     		cmp	r2, #9
 271 0030 00F20681 		bhi	.L28
 272              	.L12:
 191:HADRWARE/TOUCH/gt9xxx.c ****     {
 192:HADRWARE/TOUCH/gt9xxx.c ****         gt9xxx_rd_reg(GT9XXX_GSTID_REG, &mode, 1);  /* 读取触摸点的状态 */
 273              		.loc 1 192 9 is_stmt 1 view .LVU68
 274 0034 0122     		movs	r2, #1
 275 0036 0DF10701 		add	r1, sp, #7
 276 003a 48F24E10 		movw	r0, #33102
 277              	.LVL36:
 278              		.loc 1 192 9 is_stmt 0 view .LVU69
 279 003e FFF7FEFF 		bl	gt9xxx_rd_reg
 280              	.LVL37:
 193:HADRWARE/TOUCH/gt9xxx.c **** 
 194:HADRWARE/TOUCH/gt9xxx.c ****         if ((mode & 0X80) && ((mode & 0XF) <= g_gt_tnum))
 281              		.loc 1 194 9 is_stmt 1 view .LVU70
 282              		.loc 1 194 13 is_stmt 0 view .LVU71
 283 0042 9DF80730 		ldrb	r3, [sp, #7]	@ zero_extendqisi2
 284 0046 9DF90720 		ldrsb	r2, [sp, #7]
 285              		.loc 1 194 12 view .LVU72
 286 004a 002A     		cmp	r2, #0
 287 004c 22DB     		blt	.L31
 288              	.L14:
 195:HADRWARE/TOUCH/gt9xxx.c ****         {
 196:HADRWARE/TOUCH/gt9xxx.c ****             i = 0;
 197:HADRWARE/TOUCH/gt9xxx.c ****             gt9xxx_wr_reg(GT9XXX_GSTID_REG, &i, 1); /* 清标志 */
 198:HADRWARE/TOUCH/gt9xxx.c ****         }
 199:HADRWARE/TOUCH/gt9xxx.c **** 
 200:HADRWARE/TOUCH/gt9xxx.c ****         if ((mode & 0XF) && ((mode & 0XF) <= g_gt_tnum))
 289              		.loc 1 200 9 is_stmt 1 view .LVU73
 290              		.loc 1 200 19 is_stmt 0 view .LVU74
 291 004e 9DF80700 		ldrb	r0, [sp, #7]	@ zero_extendqisi2
 292              		.loc 1 200 12 view .LVU75
 293 0052 10F00F00 		ands	r0, r0, #15
 294 0056 00F0F480 		beq	.L13
 295              		.loc 1 200 43 discriminator 1 view .LVU76
 296 005a 8E4B     		ldr	r3, .L35+8
 297 005c 1A78     		ldrb	r2, [r3]	@ zero_extendqisi2
 298              		.loc 1 200 26 discriminator 1 view .LVU77
 299 005e 9042     		cmp	r0, r2
 300 0060 00F2FE80 		bhi	.L29
 201:HADRWARE/TOUCH/gt9xxx.c ****         {
 202:HADRWARE/TOUCH/gt9xxx.c ****             temp = 0XFFFF << (mode & 0XF);  /* 将点的个数转换为1的位数,匹配tp_dev.sta定义 */
 301              		.loc 1 202 13 is_stmt 1 view .LVU78
 302              		.loc 1 202 27 is_stmt 0 view .LVU79
 303 0064 4FF6FF73 		movw	r3, #65535
 304 0068 8340     		lsls	r3, r3, r0
 305              	.LVL38:
 203:HADRWARE/TOUCH/gt9xxx.c ****             tempsta = tp_dev.sta;           /* 保存当前的tp_dev.sta值 */
 306              		.loc 1 203 13 is_stmt 1 view .LVU80
 307              		.loc 1 203 21 is_stmt 0 view .LVU81
 308 006a 8B49     		ldr	r1, .L35+12
 309 006c 8C8E     		ldrh	r4, [r1, #52]
 310              	.LVL39:
 204:HADRWARE/TOUCH/gt9xxx.c ****             tp_dev.sta = (~temp) | TP_PRES_DOWN | TP_CATH_PRES;
ARM GAS  C:\Users\ktkuru\AppData\Local\Temp\cch5rgrq.s 			page 10


 311              		.loc 1 204 13 is_stmt 1 view .LVU82
 312              		.loc 1 204 49 is_stmt 0 view .LVU83
 313 006e DB43     		mvns	r3, r3
 314              	.LVL40:
 315              		.loc 1 204 49 view .LVU84
 316 0070 6FEA8343 		mvn	r3, r3, lsl #18
 317              	.LVL41:
 318              		.loc 1 204 49 view .LVU85
 319 0074 6FEA9343 		mvn	r3, r3, lsr #18
 320              		.loc 1 204 24 view .LVU86
 321 0078 8B86     		strh	r3, [r1, #52]	@ movhi
 205:HADRWARE/TOUCH/gt9xxx.c ****             tp_dev.x[g_gt_tnum - 1] = tp_dev.x[0];  /* 保存触点0的数据,保存在最后一个上 */
 322              		.loc 1 205 13 is_stmt 1 view .LVU87
 323              		.loc 1 205 47 is_stmt 0 view .LVU88
 324 007a 8889     		ldrh	r0, [r1, #12]
 325              	.LVL42:
 326              		.loc 1 205 37 view .LVU89
 327 007c D31C     		adds	r3, r2, #3
 328 007e 01EB4303 		add	r3, r1, r3, lsl #1
 329 0082 9880     		strh	r0, [r3, #4]	@ movhi
 206:HADRWARE/TOUCH/gt9xxx.c ****             tp_dev.y[g_gt_tnum - 1] = tp_dev.y[0];
 330              		.loc 1 206 13 is_stmt 1 view .LVU90
 331              		.loc 1 206 47 is_stmt 0 view .LVU91
 332 0084 0B8C     		ldrh	r3, [r1, #32]
 333              		.loc 1 206 37 view .LVU92
 334 0086 0F32     		adds	r2, r2, #15
 335 0088 21F81230 		strh	r3, [r1, r2, lsl #1]	@ movhi
 207:HADRWARE/TOUCH/gt9xxx.c **** 
 208:HADRWARE/TOUCH/gt9xxx.c ****             for (i = 0; i < g_gt_tnum; i++)
 336              		.loc 1 208 13 is_stmt 1 view .LVU93
 337              		.loc 1 208 20 is_stmt 0 view .LVU94
 338 008c 0023     		movs	r3, #0
 339 008e 8DF80B30 		strb	r3, [sp, #11]
 340              		.loc 1 208 13 view .LVU95
 341 0092 35E0     		b	.L15
 342              	.LVL43:
 343              	.L31:
 194:HADRWARE/TOUCH/gt9xxx.c ****         {
 344              		.loc 1 194 44 discriminator 1 view .LVU96
 345 0094 7F4A     		ldr	r2, .L35+8
 346 0096 1278     		ldrb	r2, [r2]	@ zero_extendqisi2
 194:HADRWARE/TOUCH/gt9xxx.c ****         {
 347              		.loc 1 194 27 discriminator 1 view .LVU97
 348 0098 03F00F03 		and	r3, r3, #15
 349 009c 9A42     		cmp	r2, r3
 350 009e D6D3     		bcc	.L14
 196:HADRWARE/TOUCH/gt9xxx.c ****             gt9xxx_wr_reg(GT9XXX_GSTID_REG, &i, 1); /* 清标志 */
 351              		.loc 1 196 13 is_stmt 1 view .LVU98
 196:HADRWARE/TOUCH/gt9xxx.c ****             gt9xxx_wr_reg(GT9XXX_GSTID_REG, &i, 1); /* 清标志 */
 352              		.loc 1 196 15 is_stmt 0 view .LVU99
 353 00a0 0023     		movs	r3, #0
 354 00a2 8DF80B30 		strb	r3, [sp, #11]
 197:HADRWARE/TOUCH/gt9xxx.c ****         }
 355              		.loc 1 197 13 is_stmt 1 view .LVU100
 356 00a6 0122     		movs	r2, #1
 357 00a8 0DF10B01 		add	r1, sp, #11
 358 00ac 48F24E10 		movw	r0, #33102
ARM GAS  C:\Users\ktkuru\AppData\Local\Temp\cch5rgrq.s 			page 11


 359 00b0 FFF7FEFF 		bl	gt9xxx_wr_reg
 360              	.LVL44:
 361 00b4 CBE7     		b	.L14
 362              	.LVL45:
 363              	.L17:
 209:HADRWARE/TOUCH/gt9xxx.c ****             {
 210:HADRWARE/TOUCH/gt9xxx.c ****                 if (tp_dev.sta & (1 << i))  /* 触摸有效? */
 211:HADRWARE/TOUCH/gt9xxx.c ****                 {
 212:HADRWARE/TOUCH/gt9xxx.c ****                     gt9xxx_rd_reg(GT9XXX_TPX_TBL[i], buf, 4);   /* 读取XY坐标值 */
 213:HADRWARE/TOUCH/gt9xxx.c **** 
 214:HADRWARE/TOUCH/gt9xxx.c ****                     if (lcddev.id == 0X5510 || lcddev.id == 0X9806 || lcddev.id == 0X7796)     /* 4
 215:HADRWARE/TOUCH/gt9xxx.c ****                     {
 216:HADRWARE/TOUCH/gt9xxx.c ****                         if (tp_dev.touchtype & 0X01)    /* 横屏 */
 364              		.loc 1 216 25 view .LVU101
 365              		.loc 1 216 35 is_stmt 0 view .LVU102
 366 00b6 784B     		ldr	r3, .L35+12
 367 00b8 93F84430 		ldrb	r3, [r3, #68]	@ zero_extendqisi2
 368              		.loc 1 216 28 view .LVU103
 369 00bc 13F0010F 		tst	r3, #1
 370 00c0 5CD0     		beq	.L19
 217:HADRWARE/TOUCH/gt9xxx.c ****                         {
 218:HADRWARE/TOUCH/gt9xxx.c ****                             tp_dev.x[i] = lcddev.width - (((uint16_t)buf[3] << 8) + buf[2]);
 371              		.loc 1 218 29 is_stmt 1 view .LVU104
 372              		.loc 1 218 49 is_stmt 0 view .LVU105
 373 00c2 764B     		ldr	r3, .L35+16
 374 00c4 1988     		ldrh	r1, [r3]
 375              		.loc 1 218 73 view .LVU106
 376 00c6 9DF80F20 		ldrb	r2, [sp, #15]	@ zero_extendqisi2
 377              		.loc 1 218 88 view .LVU107
 378 00ca 9DF80E30 		ldrb	r3, [sp, #14]	@ zero_extendqisi2
 379              		.loc 1 218 83 view .LVU108
 380 00ce 03EB0223 		add	r3, r3, r2, lsl #8
 381 00d2 9BB2     		uxth	r3, r3
 382              		.loc 1 218 37 view .LVU109
 383 00d4 9DF80B20 		ldrb	r2, [sp, #11]	@ zero_extendqisi2
 384              		.loc 1 218 56 view .LVU110
 385 00d8 C91A     		subs	r1, r1, r3
 386              		.loc 1 218 41 view .LVU111
 387 00da 6F48     		ldr	r0, .L35+12
 388 00dc 131D     		adds	r3, r2, #4
 389 00de 00EB4303 		add	r3, r0, r3, lsl #1
 390 00e2 9980     		strh	r1, [r3, #4]	@ movhi
 219:HADRWARE/TOUCH/gt9xxx.c ****                             tp_dev.y[i] = ((uint16_t)buf[1] << 8) + buf[0];
 391              		.loc 1 219 29 is_stmt 1 view .LVU112
 392              		.loc 1 219 57 is_stmt 0 view .LVU113
 393 00e4 9DF80D10 		ldrb	r1, [sp, #13]	@ zero_extendqisi2
 394              		.loc 1 219 72 view .LVU114
 395 00e8 9DF80C30 		ldrb	r3, [sp, #12]	@ zero_extendqisi2
 396              		.loc 1 219 67 view .LVU115
 397 00ec 03EB0123 		add	r3, r3, r1, lsl #8
 398              		.loc 1 219 41 view .LVU116
 399 00f0 1032     		adds	r2, r2, #16
 400 00f2 20F81230 		strh	r3, [r0, r2, lsl #1]	@ movhi
 401              	.L16:
 208:HADRWARE/TOUCH/gt9xxx.c ****             {
 402              		.loc 1 208 41 is_stmt 1 discriminator 2 view .LVU117
 403 00f6 9DF80B30 		ldrb	r3, [sp, #11]	@ zero_extendqisi2
ARM GAS  C:\Users\ktkuru\AppData\Local\Temp\cch5rgrq.s 			page 12


 404 00fa 0133     		adds	r3, r3, #1
 405 00fc 8DF80B30 		strb	r3, [sp, #11]
 406              	.L15:
 208:HADRWARE/TOUCH/gt9xxx.c ****             {
 407              		.loc 1 208 27 discriminator 1 view .LVU118
 408 0100 9DF80B00 		ldrb	r0, [sp, #11]	@ zero_extendqisi2
 409 0104 634B     		ldr	r3, .L35+8
 410 0106 1B78     		ldrb	r3, [r3]	@ zero_extendqisi2
 411 0108 9842     		cmp	r0, r3
 412 010a 69D2     		bcs	.L32
 210:HADRWARE/TOUCH/gt9xxx.c ****                 {
 413              		.loc 1 210 17 view .LVU119
 210:HADRWARE/TOUCH/gt9xxx.c ****                 {
 414              		.loc 1 210 27 is_stmt 0 view .LVU120
 415 010c 624B     		ldr	r3, .L35+12
 416 010e 9B8E     		ldrh	r3, [r3, #52]
 210:HADRWARE/TOUCH/gt9xxx.c ****                 {
 417              		.loc 1 210 21 view .LVU121
 418 0110 0341     		asrs	r3, r3, r0
 210:HADRWARE/TOUCH/gt9xxx.c ****                 {
 419              		.loc 1 210 20 view .LVU122
 420 0112 13F0010F 		tst	r3, #1
 421 0116 EED0     		beq	.L16
 212:HADRWARE/TOUCH/gt9xxx.c **** 
 422              		.loc 1 212 21 is_stmt 1 view .LVU123
 423 0118 0422     		movs	r2, #4
 424 011a 03A9     		add	r1, sp, #12
 425 011c 604B     		ldr	r3, .L35+20
 426 011e 33F81000 		ldrh	r0, [r3, r0, lsl #1]
 427 0122 FFF7FEFF 		bl	gt9xxx_rd_reg
 428              	.LVL46:
 214:HADRWARE/TOUCH/gt9xxx.c ****                     {
 429              		.loc 1 214 21 view .LVU124
 214:HADRWARE/TOUCH/gt9xxx.c ****                     {
 430              		.loc 1 214 31 is_stmt 0 view .LVU125
 431 0126 5D4B     		ldr	r3, .L35+16
 432 0128 9B88     		ldrh	r3, [r3, #4]
 214:HADRWARE/TOUCH/gt9xxx.c ****                     {
 433              		.loc 1 214 24 view .LVU126
 434 012a 45F21052 		movw	r2, #21776
 435 012e 9342     		cmp	r3, r2
 436 0130 C1D0     		beq	.L17
 214:HADRWARE/TOUCH/gt9xxx.c ****                     {
 437              		.loc 1 214 45 discriminator 1 view .LVU127
 438 0132 49F60602 		movw	r2, #38918
 439 0136 9342     		cmp	r3, r2
 440 0138 BDD0     		beq	.L17
 214:HADRWARE/TOUCH/gt9xxx.c ****                     {
 441              		.loc 1 214 68 discriminator 2 view .LVU128
 442 013a 47F29672 		movw	r2, #30614
 443 013e 9342     		cmp	r3, r2
 444 0140 B9D0     		beq	.L17
 220:HADRWARE/TOUCH/gt9xxx.c ****                         }
 221:HADRWARE/TOUCH/gt9xxx.c ****                         else
 222:HADRWARE/TOUCH/gt9xxx.c ****                         {
 223:HADRWARE/TOUCH/gt9xxx.c ****                             tp_dev.x[i] = ((uint16_t)buf[1] << 8) + buf[0];
 224:HADRWARE/TOUCH/gt9xxx.c ****                             tp_dev.y[i] = ((uint16_t)buf[3] << 8) + buf[2];
ARM GAS  C:\Users\ktkuru\AppData\Local\Temp\cch5rgrq.s 			page 13


 225:HADRWARE/TOUCH/gt9xxx.c ****                         }
 226:HADRWARE/TOUCH/gt9xxx.c ****                     }
 227:HADRWARE/TOUCH/gt9xxx.c ****                     else    /* 其他型号 */
 228:HADRWARE/TOUCH/gt9xxx.c ****                     {
 229:HADRWARE/TOUCH/gt9xxx.c ****                         if (tp_dev.touchtype & 0X01)    /* 横屏 */
 445              		.loc 1 229 25 is_stmt 1 view .LVU129
 446              		.loc 1 229 35 is_stmt 0 view .LVU130
 447 0142 554B     		ldr	r3, .L35+12
 448 0144 93F84430 		ldrb	r3, [r3, #68]	@ zero_extendqisi2
 449              		.loc 1 229 28 view .LVU131
 450 0148 13F0010F 		tst	r3, #1
 451 014c 2DD0     		beq	.L20
 230:HADRWARE/TOUCH/gt9xxx.c ****                         {
 231:HADRWARE/TOUCH/gt9xxx.c ****                             tp_dev.x[i] = ((uint16_t)buf[1] << 8) + buf[0];
 452              		.loc 1 231 29 is_stmt 1 view .LVU132
 453              		.loc 1 231 57 is_stmt 0 view .LVU133
 454 014e 9DF80D20 		ldrb	r2, [sp, #13]	@ zero_extendqisi2
 455              		.loc 1 231 72 view .LVU134
 456 0152 9DF80C10 		ldrb	r1, [sp, #12]	@ zero_extendqisi2
 457              		.loc 1 231 37 view .LVU135
 458 0156 9DF80B30 		ldrb	r3, [sp, #11]	@ zero_extendqisi2
 459              		.loc 1 231 67 view .LVU136
 460 015a 01EB0221 		add	r1, r1, r2, lsl #8
 461              		.loc 1 231 41 view .LVU137
 462 015e 4E48     		ldr	r0, .L35+12
 463 0160 1A1D     		adds	r2, r3, #4
 464 0162 00EB4202 		add	r2, r0, r2, lsl #1
 465 0166 9180     		strh	r1, [r2, #4]	@ movhi
 232:HADRWARE/TOUCH/gt9xxx.c ****                             tp_dev.y[i] = ((uint16_t)buf[3] << 8) + buf[2];
 466              		.loc 1 232 29 is_stmt 1 view .LVU138
 467              		.loc 1 232 57 is_stmt 0 view .LVU139
 468 0168 9DF80F10 		ldrb	r1, [sp, #15]	@ zero_extendqisi2
 469              		.loc 1 232 72 view .LVU140
 470 016c 9DF80E20 		ldrb	r2, [sp, #14]	@ zero_extendqisi2
 471              		.loc 1 232 67 view .LVU141
 472 0170 02EB0122 		add	r2, r2, r1, lsl #8
 473              		.loc 1 232 41 view .LVU142
 474 0174 1033     		adds	r3, r3, #16
 475 0176 20F81320 		strh	r2, [r0, r3, lsl #1]	@ movhi
 476 017a BCE7     		b	.L16
 477              	.L19:
 223:HADRWARE/TOUCH/gt9xxx.c ****                             tp_dev.y[i] = ((uint16_t)buf[3] << 8) + buf[2];
 478              		.loc 1 223 29 is_stmt 1 view .LVU143
 223:HADRWARE/TOUCH/gt9xxx.c ****                             tp_dev.y[i] = ((uint16_t)buf[3] << 8) + buf[2];
 479              		.loc 1 223 57 is_stmt 0 view .LVU144
 480 017c 9DF80D20 		ldrb	r2, [sp, #13]	@ zero_extendqisi2
 223:HADRWARE/TOUCH/gt9xxx.c ****                             tp_dev.y[i] = ((uint16_t)buf[3] << 8) + buf[2];
 481              		.loc 1 223 72 view .LVU145
 482 0180 9DF80C10 		ldrb	r1, [sp, #12]	@ zero_extendqisi2
 223:HADRWARE/TOUCH/gt9xxx.c ****                             tp_dev.y[i] = ((uint16_t)buf[3] << 8) + buf[2];
 483              		.loc 1 223 37 view .LVU146
 484 0184 9DF80B30 		ldrb	r3, [sp, #11]	@ zero_extendqisi2
 223:HADRWARE/TOUCH/gt9xxx.c ****                             tp_dev.y[i] = ((uint16_t)buf[3] << 8) + buf[2];
 485              		.loc 1 223 67 view .LVU147
 486 0188 01EB0221 		add	r1, r1, r2, lsl #8
 223:HADRWARE/TOUCH/gt9xxx.c ****                             tp_dev.y[i] = ((uint16_t)buf[3] << 8) + buf[2];
 487              		.loc 1 223 41 view .LVU148
ARM GAS  C:\Users\ktkuru\AppData\Local\Temp\cch5rgrq.s 			page 14


 488 018c 4248     		ldr	r0, .L35+12
 489 018e 1A1D     		adds	r2, r3, #4
 490 0190 00EB4202 		add	r2, r0, r2, lsl #1
 491 0194 9180     		strh	r1, [r2, #4]	@ movhi
 224:HADRWARE/TOUCH/gt9xxx.c ****                         }
 492              		.loc 1 224 29 is_stmt 1 view .LVU149
 224:HADRWARE/TOUCH/gt9xxx.c ****                         }
 493              		.loc 1 224 57 is_stmt 0 view .LVU150
 494 0196 9DF80F10 		ldrb	r1, [sp, #15]	@ zero_extendqisi2
 224:HADRWARE/TOUCH/gt9xxx.c ****                         }
 495              		.loc 1 224 72 view .LVU151
 496 019a 9DF80E20 		ldrb	r2, [sp, #14]	@ zero_extendqisi2
 224:HADRWARE/TOUCH/gt9xxx.c ****                         }
 497              		.loc 1 224 67 view .LVU152
 498 019e 02EB0122 		add	r2, r2, r1, lsl #8
 224:HADRWARE/TOUCH/gt9xxx.c ****                         }
 499              		.loc 1 224 41 view .LVU153
 500 01a2 1033     		adds	r3, r3, #16
 501 01a4 20F81320 		strh	r2, [r0, r3, lsl #1]	@ movhi
 502 01a8 A5E7     		b	.L16
 503              	.L20:
 233:HADRWARE/TOUCH/gt9xxx.c ****                         }
 234:HADRWARE/TOUCH/gt9xxx.c ****                         else
 235:HADRWARE/TOUCH/gt9xxx.c ****                         {
 236:HADRWARE/TOUCH/gt9xxx.c ****                             tp_dev.x[i] = lcddev.width - (((uint16_t)buf[3] << 8) + buf[2]);
 504              		.loc 1 236 29 is_stmt 1 view .LVU154
 505              		.loc 1 236 49 is_stmt 0 view .LVU155
 506 01aa 3C4B     		ldr	r3, .L35+16
 507 01ac 1988     		ldrh	r1, [r3]
 508              		.loc 1 236 73 view .LVU156
 509 01ae 9DF80F20 		ldrb	r2, [sp, #15]	@ zero_extendqisi2
 510              		.loc 1 236 88 view .LVU157
 511 01b2 9DF80E30 		ldrb	r3, [sp, #14]	@ zero_extendqisi2
 512              		.loc 1 236 83 view .LVU158
 513 01b6 03EB0223 		add	r3, r3, r2, lsl #8
 514 01ba 9BB2     		uxth	r3, r3
 515              		.loc 1 236 37 view .LVU159
 516 01bc 9DF80B20 		ldrb	r2, [sp, #11]	@ zero_extendqisi2
 517              		.loc 1 236 56 view .LVU160
 518 01c0 C91A     		subs	r1, r1, r3
 519              		.loc 1 236 41 view .LVU161
 520 01c2 3548     		ldr	r0, .L35+12
 521 01c4 131D     		adds	r3, r2, #4
 522 01c6 00EB4303 		add	r3, r0, r3, lsl #1
 523 01ca 9980     		strh	r1, [r3, #4]	@ movhi
 237:HADRWARE/TOUCH/gt9xxx.c ****                             tp_dev.y[i] = ((uint16_t)buf[1] << 8) + buf[0];
 524              		.loc 1 237 29 is_stmt 1 view .LVU162
 525              		.loc 1 237 57 is_stmt 0 view .LVU163
 526 01cc 9DF80D10 		ldrb	r1, [sp, #13]	@ zero_extendqisi2
 527              		.loc 1 237 72 view .LVU164
 528 01d0 9DF80C30 		ldrb	r3, [sp, #12]	@ zero_extendqisi2
 529              		.loc 1 237 67 view .LVU165
 530 01d4 03EB0123 		add	r3, r3, r1, lsl #8
 531              		.loc 1 237 41 view .LVU166
 532 01d8 1032     		adds	r2, r2, #16
 533 01da 20F81230 		strh	r3, [r0, r2, lsl #1]	@ movhi
 534 01de 8AE7     		b	.L16
ARM GAS  C:\Users\ktkuru\AppData\Local\Temp\cch5rgrq.s 			page 15


 535              	.L32:
 238:HADRWARE/TOUCH/gt9xxx.c ****                         }
 239:HADRWARE/TOUCH/gt9xxx.c ****                     }
 240:HADRWARE/TOUCH/gt9xxx.c **** 
 241:HADRWARE/TOUCH/gt9xxx.c ****                     //printf("x[%d]:%d,y[%d]:%d\r\n", i, tp_dev.x[i], i, tp_dev.y[i]);
 242:HADRWARE/TOUCH/gt9xxx.c ****                 }
 243:HADRWARE/TOUCH/gt9xxx.c ****             }
 244:HADRWARE/TOUCH/gt9xxx.c **** 
 245:HADRWARE/TOUCH/gt9xxx.c ****             res = 1;
 536              		.loc 1 245 13 is_stmt 1 view .LVU167
 537              	.LVL47:
 246:HADRWARE/TOUCH/gt9xxx.c **** 
 247:HADRWARE/TOUCH/gt9xxx.c ****             if (tp_dev.x[0] > lcddev.width || tp_dev.y[0] > lcddev.height)  /* 非法数据(坐标超出了)
 538              		.loc 1 247 13 view .LVU168
 539              		.loc 1 247 25 is_stmt 0 view .LVU169
 540 01e0 2D4A     		ldr	r2, .L35+12
 541 01e2 9189     		ldrh	r1, [r2, #12]
 542              		.loc 1 247 37 view .LVU170
 543 01e4 2D4A     		ldr	r2, .L35+16
 544 01e6 1288     		ldrh	r2, [r2]
 545              		.loc 1 247 16 view .LVU171
 546 01e8 9142     		cmp	r1, r2
 547 01ea 05D8     		bhi	.L22
 548              		.loc 1 247 55 discriminator 1 view .LVU172
 549 01ec 2A4A     		ldr	r2, .L35+12
 550 01ee 118C     		ldrh	r1, [r2, #32]
 551              		.loc 1 247 67 discriminator 1 view .LVU173
 552 01f0 2A4A     		ldr	r2, .L35+16
 553 01f2 5288     		ldrh	r2, [r2, #2]
 554              		.loc 1 247 44 discriminator 1 view .LVU174
 555 01f4 9142     		cmp	r1, r2
 556 01f6 1ED9     		bls	.L23
 557              	.L22:
 248:HADRWARE/TOUCH/gt9xxx.c ****             {
 249:HADRWARE/TOUCH/gt9xxx.c ****                 if ((mode & 0XF) > 1)   /* 有其他点有数据,则复第二个触点的数据到第一个触点. */
 558              		.loc 1 249 17 is_stmt 1 view .LVU175
 559              		.loc 1 249 34 is_stmt 0 view .LVU176
 560 01f8 9DF80720 		ldrb	r2, [sp, #7]	@ zero_extendqisi2
 561              		.loc 1 249 20 view .LVU177
 562 01fc 12F00E0F 		tst	r2, #14
 563 0200 09D0     		beq	.L24
 250:HADRWARE/TOUCH/gt9xxx.c ****                 {
 251:HADRWARE/TOUCH/gt9xxx.c ****                     tp_dev.x[0] = tp_dev.x[1];
 564              		.loc 1 251 21 is_stmt 1 view .LVU178
 565              		.loc 1 251 43 is_stmt 0 view .LVU179
 566 0202 254B     		ldr	r3, .L35+12
 567 0204 DA89     		ldrh	r2, [r3, #14]
 568              		.loc 1 251 33 view .LVU180
 569 0206 9A81     		strh	r2, [r3, #12]	@ movhi
 252:HADRWARE/TOUCH/gt9xxx.c ****                     tp_dev.y[0] = tp_dev.y[1];
 570              		.loc 1 252 21 is_stmt 1 view .LVU181
 571              		.loc 1 252 43 is_stmt 0 view .LVU182
 572 0208 5A8C     		ldrh	r2, [r3, #34]
 573              		.loc 1 252 33 view .LVU183
 574 020a 1A84     		strh	r2, [r3, #32]	@ movhi
 253:HADRWARE/TOUCH/gt9xxx.c ****                     t = 0;  /* 触发一次,则会最少连续监测10次,从而提高命中率 */
 575              		.loc 1 253 21 is_stmt 1 view .LVU184
ARM GAS  C:\Users\ktkuru\AppData\Local\Temp\cch5rgrq.s 			page 16


 576              		.loc 1 253 23 is_stmt 0 view .LVU185
 577 020c 1F4B     		ldr	r3, .L35
 578 020e 0022     		movs	r2, #0
 579 0210 1A70     		strb	r2, [r3]
 245:HADRWARE/TOUCH/gt9xxx.c **** 
 580              		.loc 1 245 17 view .LVU186
 581 0212 0120     		movs	r0, #1
 582 0214 15E0     		b	.L13
 583              	.L24:
 254:HADRWARE/TOUCH/gt9xxx.c ****                 }
 255:HADRWARE/TOUCH/gt9xxx.c ****                 else        /* 非法数据,则忽略此次数据(还原原来的) */
 256:HADRWARE/TOUCH/gt9xxx.c ****                 {
 257:HADRWARE/TOUCH/gt9xxx.c ****                     tp_dev.x[0] = tp_dev.x[g_gt_tnum - 1];
 584              		.loc 1 257 21 is_stmt 1 view .LVU187
 585              		.loc 1 257 43 is_stmt 0 view .LVU188
 586 0216 204A     		ldr	r2, .L35+12
 587 0218 D91C     		adds	r1, r3, #3
 588 021a 02EB4101 		add	r1, r2, r1, lsl #1
 589 021e 8988     		ldrh	r1, [r1, #4]
 590              		.loc 1 257 33 view .LVU189
 591 0220 9181     		strh	r1, [r2, #12]	@ movhi
 258:HADRWARE/TOUCH/gt9xxx.c ****                     tp_dev.y[0] = tp_dev.y[g_gt_tnum - 1];
 592              		.loc 1 258 21 is_stmt 1 view .LVU190
 593              		.loc 1 258 43 is_stmt 0 view .LVU191
 594 0222 0F33     		adds	r3, r3, #15
 595 0224 32F81330 		ldrh	r3, [r2, r3, lsl #1]
 596              		.loc 1 258 33 view .LVU192
 597 0228 1384     		strh	r3, [r2, #32]	@ movhi
 259:HADRWARE/TOUCH/gt9xxx.c ****                     mode = 0X80;
 598              		.loc 1 259 21 is_stmt 1 view .LVU193
 599              		.loc 1 259 26 is_stmt 0 view .LVU194
 600 022a 8023     		movs	r3, #128
 601 022c 8DF80730 		strb	r3, [sp, #7]
 260:HADRWARE/TOUCH/gt9xxx.c ****                     tp_dev.sta = tempsta;   /* 恢复tp_dev.sta */
 602              		.loc 1 260 21 is_stmt 1 view .LVU195
 603              		.loc 1 260 32 is_stmt 0 view .LVU196
 604 0230 9486     		strh	r4, [r2, #52]	@ movhi
 245:HADRWARE/TOUCH/gt9xxx.c **** 
 605              		.loc 1 245 17 view .LVU197
 606 0232 0120     		movs	r0, #1
 607 0234 05E0     		b	.L13
 608              	.L23:
 261:HADRWARE/TOUCH/gt9xxx.c ****                 }
 262:HADRWARE/TOUCH/gt9xxx.c ****             }
 263:HADRWARE/TOUCH/gt9xxx.c ****             else 
 264:HADRWARE/TOUCH/gt9xxx.c ****             {
 265:HADRWARE/TOUCH/gt9xxx.c ****                 t = 0;      /* 触发一次,则会最少连续监测10次,从而提高命中率 */
 609              		.loc 1 265 17 is_stmt 1 view .LVU198
 610              		.loc 1 265 19 is_stmt 0 view .LVU199
 611 0236 154B     		ldr	r3, .L35
 612 0238 0022     		movs	r2, #0
 613 023a 1A70     		strb	r2, [r3]
 245:HADRWARE/TOUCH/gt9xxx.c **** 
 614              		.loc 1 245 17 view .LVU200
 615 023c 0120     		movs	r0, #1
 616 023e 00E0     		b	.L13
 617              	.LVL48:
ARM GAS  C:\Users\ktkuru\AppData\Local\Temp\cch5rgrq.s 			page 17


 618              	.L28:
 184:HADRWARE/TOUCH/gt9xxx.c ****     uint16_t temp;
 619              		.loc 1 184 13 view .LVU201
 620 0240 0020     		movs	r0, #0
 621              	.LVL49:
 622              	.L13:
 266:HADRWARE/TOUCH/gt9xxx.c ****             }
 267:HADRWARE/TOUCH/gt9xxx.c ****         }
 268:HADRWARE/TOUCH/gt9xxx.c ****     }
 269:HADRWARE/TOUCH/gt9xxx.c **** 
 270:HADRWARE/TOUCH/gt9xxx.c ****     if ((mode & 0X8F) == 0X80)  /* 无触摸点按下 */
 623              		.loc 1 270 5 is_stmt 1 view .LVU202
 624              		.loc 1 270 15 is_stmt 0 view .LVU203
 625 0242 9DF80730 		ldrb	r3, [sp, #7]	@ zero_extendqisi2
 626              		.loc 1 270 8 view .LVU204
 627 0246 03F08F03 		and	r3, r3, #143
 628 024a 802B     		cmp	r3, #128
 629 024c 0AD0     		beq	.L33
 630              	.L25:
 271:HADRWARE/TOUCH/gt9xxx.c ****     {
 272:HADRWARE/TOUCH/gt9xxx.c ****         if (tp_dev.sta & TP_PRES_DOWN)      /* 之前是被按下的 */
 273:HADRWARE/TOUCH/gt9xxx.c ****         {
 274:HADRWARE/TOUCH/gt9xxx.c ****             tp_dev.sta &= ~TP_PRES_DOWN;    /* 标记按键松开 */
 275:HADRWARE/TOUCH/gt9xxx.c ****         }
 276:HADRWARE/TOUCH/gt9xxx.c ****         else    /* 之前就没有被按下 */
 277:HADRWARE/TOUCH/gt9xxx.c ****         {
 278:HADRWARE/TOUCH/gt9xxx.c ****             tp_dev.x[0] = 0xffff;
 279:HADRWARE/TOUCH/gt9xxx.c ****             tp_dev.y[0] = 0xffff;
 280:HADRWARE/TOUCH/gt9xxx.c ****             tp_dev.sta &= 0XE000;           /* 清除点有效标记 */
 281:HADRWARE/TOUCH/gt9xxx.c ****         }
 282:HADRWARE/TOUCH/gt9xxx.c ****     }
 283:HADRWARE/TOUCH/gt9xxx.c **** 
 284:HADRWARE/TOUCH/gt9xxx.c ****     if (t > 240)t = 10; /* 重新从10开始计数 */
 631              		.loc 1 284 5 is_stmt 1 view .LVU205
 632              		.loc 1 284 11 is_stmt 0 view .LVU206
 633 024e 0F4B     		ldr	r3, .L35
 634 0250 1B78     		ldrb	r3, [r3]	@ zero_extendqisi2
 635              		.loc 1 284 8 view .LVU207
 636 0252 F02B     		cmp	r3, #240
 637 0254 02D9     		bls	.L27
 638              		.loc 1 284 17 is_stmt 1 discriminator 1 view .LVU208
 639              		.loc 1 284 19 is_stmt 0 discriminator 1 view .LVU209
 640 0256 0D4B     		ldr	r3, .L35
 641 0258 0A22     		movs	r2, #10
 642 025a 1A70     		strb	r2, [r3]
 643              	.L27:
 285:HADRWARE/TOUCH/gt9xxx.c **** 
 286:HADRWARE/TOUCH/gt9xxx.c ****     return res;
 644              		.loc 1 286 5 is_stmt 1 view .LVU210
 287:HADRWARE/TOUCH/gt9xxx.c **** }
 645              		.loc 1 287 1 is_stmt 0 view .LVU211
 646 025c 04B0     		add	sp, sp, #16
 647              	.LCFI4:
 648              		.cfi_remember_state
 649              		.cfi_def_cfa_offset 8
 650              		@ sp needed
 651 025e 10BD     		pop	{r4, pc}
ARM GAS  C:\Users\ktkuru\AppData\Local\Temp\cch5rgrq.s 			page 18


 652              	.LVL50:
 653              	.L29:
 654              	.LCFI5:
 655              		.cfi_restore_state
 184:HADRWARE/TOUCH/gt9xxx.c ****     uint16_t temp;
 656              		.loc 1 184 13 view .LVU212
 657 0260 0020     		movs	r0, #0
 658 0262 EEE7     		b	.L13
 659              	.LVL51:
 660              	.L33:
 272:HADRWARE/TOUCH/gt9xxx.c ****         {
 661              		.loc 1 272 9 is_stmt 1 view .LVU213
 272:HADRWARE/TOUCH/gt9xxx.c ****         {
 662              		.loc 1 272 19 is_stmt 0 view .LVU214
 663 0264 0C4A     		ldr	r2, .L35+12
 664 0266 938E     		ldrh	r3, [r2, #52]
 272:HADRWARE/TOUCH/gt9xxx.c ****         {
 665              		.loc 1 272 13 view .LVU215
 666 0268 B2F93420 		ldrsh	r2, [r2, #52]
 272:HADRWARE/TOUCH/gt9xxx.c ****         {
 667              		.loc 1 272 12 view .LVU216
 668 026c 002A     		cmp	r2, #0
 669 026e 08DB     		blt	.L34
 278:HADRWARE/TOUCH/gt9xxx.c ****             tp_dev.y[0] = 0xffff;
 670              		.loc 1 278 13 is_stmt 1 view .LVU217
 278:HADRWARE/TOUCH/gt9xxx.c ****             tp_dev.y[0] = 0xffff;
 671              		.loc 1 278 25 is_stmt 0 view .LVU218
 672 0270 094A     		ldr	r2, .L35+12
 673 0272 4FF6FF71 		movw	r1, #65535
 674 0276 9181     		strh	r1, [r2, #12]	@ movhi
 279:HADRWARE/TOUCH/gt9xxx.c ****             tp_dev.sta &= 0XE000;           /* 清除点有效标记 */
 675              		.loc 1 279 13 is_stmt 1 view .LVU219
 279:HADRWARE/TOUCH/gt9xxx.c ****             tp_dev.sta &= 0XE000;           /* 清除点有效标记 */
 676              		.loc 1 279 25 is_stmt 0 view .LVU220
 677 0278 1184     		strh	r1, [r2, #32]	@ movhi
 280:HADRWARE/TOUCH/gt9xxx.c ****         }
 678              		.loc 1 280 13 is_stmt 1 view .LVU221
 280:HADRWARE/TOUCH/gt9xxx.c ****         }
 679              		.loc 1 280 24 is_stmt 0 view .LVU222
 680 027a 03F46043 		and	r3, r3, #57344
 681 027e 9386     		strh	r3, [r2, #52]	@ movhi
 682 0280 E5E7     		b	.L25
 683              	.L34:
 274:HADRWARE/TOUCH/gt9xxx.c ****         }
 684              		.loc 1 274 13 is_stmt 1 view .LVU223
 274:HADRWARE/TOUCH/gt9xxx.c ****         }
 685              		.loc 1 274 24 is_stmt 0 view .LVU224
 686 0282 C3F30E03 		ubfx	r3, r3, #0, #15
 687 0286 044A     		ldr	r2, .L35+12
 688 0288 9386     		strh	r3, [r2, #52]	@ movhi
 689 028a E0E7     		b	.L25
 690              	.L36:
 691              		.align	2
 692              	.L35:
 693 028c 00000000 		.word	t.0
 694 0290 CDCCCCCC 		.word	-858993459
 695 0294 00000000 		.word	g_gt_tnum
ARM GAS  C:\Users\ktkuru\AppData\Local\Temp\cch5rgrq.s 			page 19


 696 0298 00000000 		.word	tp_dev
 697 029c 00000000 		.word	lcddev
 698 02a0 00000000 		.word	GT9XXX_TPX_TBL
 699              		.cfi_endproc
 700              	.LFE129:
 702              		.section	.rodata.gt9xxx_init.str1.4,"aMS",%progbits,1
 703              		.align	2
 704              	.LC0:
 705 0000 39313100 		.ascii	"911\000"
 706              		.align	2
 707              	.LC1:
 708 0004 39313437 		.ascii	"9147\000"
 708      00
 709 0009 000000   		.align	2
 710              	.LC2:
 711 000c 31313538 		.ascii	"1158\000"
 711      00
 712 0011 000000   		.align	2
 713              	.LC3:
 714 0014 39323731 		.ascii	"9271\000"
 714      00
 715 0019 000000   		.align	2
 716              	.LC4:
 717 001c 43545020 		.ascii	"CTP ID:%s\015\012\000"
 717      49443A25 
 717      730D0A00 
 718              		.section	.text.gt9xxx_init,"ax",%progbits
 719              		.align	1
 720              		.global	gt9xxx_init
 721              		.syntax unified
 722              		.thumb
 723              		.thumb_func
 725              	gt9xxx_init:
 726              	.LFB128:
 110:HADRWARE/TOUCH/gt9xxx.c ****     uint8_t temp[5];
 727              		.loc 1 110 1 is_stmt 1 view -0
 728              		.cfi_startproc
 729              		@ args = 0, pretend = 0, frame = 8
 730              		@ frame_needed = 0, uses_anonymous_args = 0
 731 0000 70B5     		push	{r4, r5, r6, lr}
 732              	.LCFI6:
 733              		.cfi_def_cfa_offset 16
 734              		.cfi_offset 4, -16
 735              		.cfi_offset 5, -12
 736              		.cfi_offset 6, -8
 737              		.cfi_offset 14, -4
 738 0002 84B0     		sub	sp, sp, #16
 739              	.LCFI7:
 740              		.cfi_def_cfa_offset 32
 111:HADRWARE/TOUCH/gt9xxx.c **** 
 741              		.loc 1 111 5 view .LVU226
 113:HADRWARE/TOUCH/gt9xxx.c ****     GT9XXX_INT_GPIO_CLK_ENABLE();   /* INT引脚时钟使能 */
 742              		.loc 1 113 5 view .LVU227
 113:HADRWARE/TOUCH/gt9xxx.c ****     GT9XXX_INT_GPIO_CLK_ENABLE();   /* INT引脚时钟使能 */
 743              		.loc 1 113 5 view .LVU228
 744 0004 474B     		ldr	r3, .L43
 745 0006 1A6B     		ldr	r2, [r3, #48]
ARM GAS  C:\Users\ktkuru\AppData\Local\Temp\cch5rgrq.s 			page 20


 746 0008 42F48072 		orr	r2, r2, #256
 747 000c 1A63     		str	r2, [r3, #48]
 113:HADRWARE/TOUCH/gt9xxx.c ****     GT9XXX_INT_GPIO_CLK_ENABLE();   /* INT引脚时钟使能 */
 748              		.loc 1 113 5 view .LVU229
 114:HADRWARE/TOUCH/gt9xxx.c **** 
 749              		.loc 1 114 5 view .LVU230
 114:HADRWARE/TOUCH/gt9xxx.c **** 
 750              		.loc 1 114 5 view .LVU231
 751 000e 1A6B     		ldr	r2, [r3, #48]
 752 0010 42F08002 		orr	r2, r2, #128
 753 0014 1A63     		str	r2, [r3, #48]
 114:HADRWARE/TOUCH/gt9xxx.c **** 
 754              		.loc 1 114 5 view .LVU232
 117:HADRWARE/TOUCH/gt9xxx.c ****                  SYS_GPIO_MODE_OUT, SYS_GPIO_OTYPE_PP, SYS_GPIO_SPEED_MID, SYS_GPIO_PUPD_PU);
 755              		.loc 1 117 5 view .LVU233
 756 0016 444D     		ldr	r5, .L43+4
 757 0018 0124     		movs	r4, #1
 758 001a 0194     		str	r4, [sp, #4]
 759 001c 0094     		str	r4, [sp]
 760 001e 0023     		movs	r3, #0
 761 0020 2246     		mov	r2, r4
 762 0022 4FF48071 		mov	r1, #256
 763 0026 2846     		mov	r0, r5
 764 0028 FFF7FEFF 		bl	sys_gpio_set
 765              	.LVL52:
 121:HADRWARE/TOUCH/gt9xxx.c ****                  SYS_GPIO_MODE_IN, SYS_GPIO_OTYPE_PP, SYS_GPIO_SPEED_MID, SYS_GPIO_PUPD_PU);
 766              		.loc 1 121 5 view .LVU234
 767 002c 3F4E     		ldr	r6, .L43+8
 768 002e 0194     		str	r4, [sp, #4]
 769 0030 0094     		str	r4, [sp]
 770 0032 0023     		movs	r3, #0
 771 0034 1A46     		mov	r2, r3
 772 0036 8021     		movs	r1, #128
 773 0038 3046     		mov	r0, r6
 774 003a FFF7FEFF 		bl	sys_gpio_set
 775              	.LVL53:
 125:HADRWARE/TOUCH/gt9xxx.c ****     GT9XXX_RST(0);      /* 复位 */
 776              		.loc 1 125 5 view .LVU235
 777 003e FFF7FEFF 		bl	ct_iic_init
 778              	.LVL54:
 126:HADRWARE/TOUCH/gt9xxx.c ****     delay_ms(10);
 779              		.loc 1 126 5 view .LVU236
 780 0042 0022     		movs	r2, #0
 781 0044 4FF48071 		mov	r1, #256
 782 0048 2846     		mov	r0, r5
 783 004a FFF7FEFF 		bl	sys_gpio_pin_set
 784              	.LVL55:
 127:HADRWARE/TOUCH/gt9xxx.c ****     GT9XXX_RST(1);      /* 释放复位 */
 785              		.loc 1 127 5 view .LVU237
 786 004e 0A20     		movs	r0, #10
 787 0050 FFF7FEFF 		bl	delay_ms
 788              	.LVL56:
 128:HADRWARE/TOUCH/gt9xxx.c ****     delay_ms(10);
 789              		.loc 1 128 5 view .LVU238
 790 0054 2246     		mov	r2, r4
 791 0056 4FF48071 		mov	r1, #256
 792 005a 2846     		mov	r0, r5
ARM GAS  C:\Users\ktkuru\AppData\Local\Temp\cch5rgrq.s 			page 21


 793 005c FFF7FEFF 		bl	sys_gpio_pin_set
 794              	.LVL57:
 129:HADRWARE/TOUCH/gt9xxx.c **** 
 795              		.loc 1 129 5 view .LVU239
 796 0060 0A20     		movs	r0, #10
 797 0062 FFF7FEFF 		bl	delay_ms
 798              	.LVL58:
 132:HADRWARE/TOUCH/gt9xxx.c ****                  SYS_GPIO_MODE_IN, SYS_GPIO_OTYPE_PP, SYS_GPIO_SPEED_MID, SYS_GPIO_PUPD_NONE);
 799              		.loc 1 132 5 view .LVU240
 800 0066 0025     		movs	r5, #0
 801 0068 0195     		str	r5, [sp, #4]
 802 006a 0094     		str	r4, [sp]
 803 006c 2B46     		mov	r3, r5
 804 006e 2A46     		mov	r2, r5
 805 0070 8021     		movs	r1, #128
 806 0072 3046     		mov	r0, r6
 807 0074 FFF7FEFF 		bl	sys_gpio_set
 808              	.LVL59:
 135:HADRWARE/TOUCH/gt9xxx.c ****     gt9xxx_rd_reg(GT9XXX_PID_REG, temp, 4); /* 读取产品ID */
 809              		.loc 1 135 5 view .LVU241
 810 0078 6420     		movs	r0, #100
 811 007a FFF7FEFF 		bl	delay_ms
 812              	.LVL60:
 136:HADRWARE/TOUCH/gt9xxx.c ****     temp[4] = 0;
 813              		.loc 1 136 5 view .LVU242
 814 007e 0422     		movs	r2, #4
 815 0080 02A9     		add	r1, sp, #8
 816 0082 48F24010 		movw	r0, #33088
 817 0086 FFF7FEFF 		bl	gt9xxx_rd_reg
 818              	.LVL61:
 137:HADRWARE/TOUCH/gt9xxx.c ****     /* 判断一下是否是特定的触摸屏 */
 819              		.loc 1 137 5 view .LVU243
 137:HADRWARE/TOUCH/gt9xxx.c ****     /* 判断一下是否是特定的触摸屏 */
 820              		.loc 1 137 13 is_stmt 0 view .LVU244
 821 008a 8DF80C50 		strb	r5, [sp, #12]
 139:HADRWARE/TOUCH/gt9xxx.c ****     {
 822              		.loc 1 139 5 is_stmt 1 view .LVU245
 139:HADRWARE/TOUCH/gt9xxx.c ****     {
 823              		.loc 1 139 9 is_stmt 0 view .LVU246
 824 008e 2849     		ldr	r1, .L43+12
 825 0090 02A8     		add	r0, sp, #8
 826 0092 FFF7FEFF 		bl	strcmp
 827              	.LVL62:
 139:HADRWARE/TOUCH/gt9xxx.c ****     {
 828              		.loc 1 139 8 discriminator 1 view .LVU247
 829 0096 78B1     		cbz	r0, .L38
 139:HADRWARE/TOUCH/gt9xxx.c ****     {
 830              		.loc 1 139 40 discriminator 1 view .LVU248
 831 0098 2649     		ldr	r1, .L43+16
 832 009a 02A8     		add	r0, sp, #8
 833 009c FFF7FEFF 		bl	strcmp
 834              	.LVL63:
 139:HADRWARE/TOUCH/gt9xxx.c ****     {
 835              		.loc 1 139 37 discriminator 1 view .LVU249
 836 00a0 50B1     		cbz	r0, .L38
 139:HADRWARE/TOUCH/gt9xxx.c ****     {
 837              		.loc 1 139 72 discriminator 2 view .LVU250
ARM GAS  C:\Users\ktkuru\AppData\Local\Temp\cch5rgrq.s 			page 22


 838 00a2 2549     		ldr	r1, .L43+20
 839 00a4 02A8     		add	r0, sp, #8
 840 00a6 FFF7FEFF 		bl	strcmp
 841              	.LVL64:
 139:HADRWARE/TOUCH/gt9xxx.c ****     {
 842              		.loc 1 139 69 discriminator 1 view .LVU251
 843 00aa 28B1     		cbz	r0, .L38
 139:HADRWARE/TOUCH/gt9xxx.c ****     {
 844              		.loc 1 139 104 discriminator 3 view .LVU252
 845 00ac 2349     		ldr	r1, .L43+24
 846 00ae 02A8     		add	r0, sp, #8
 847 00b0 FFF7FEFF 		bl	strcmp
 848              	.LVL65:
 139:HADRWARE/TOUCH/gt9xxx.c ****     {
 849              		.loc 1 139 101 discriminator 1 view .LVU253
 850 00b4 0028     		cmp	r0, #0
 851 00b6 33D1     		bne	.L41
 852              	.L38:
 143:HADRWARE/TOUCH/gt9xxx.c ****     
 853              		.loc 1 143 5 is_stmt 1 view .LVU254
 854 00b8 02A9     		add	r1, sp, #8
 855 00ba 2148     		ldr	r0, .L43+28
 856 00bc FFF7FEFF 		bl	printf
 857              	.LVL66:
 145:HADRWARE/TOUCH/gt9xxx.c ****     {
 858              		.loc 1 145 5 view .LVU255
 145:HADRWARE/TOUCH/gt9xxx.c ****     {
 859              		.loc 1 145 9 is_stmt 0 view .LVU256
 860 00c0 1E49     		ldr	r1, .L43+24
 861 00c2 02A8     		add	r0, sp, #8
 862 00c4 FFF7FEFF 		bl	strcmp
 863              	.LVL67:
 145:HADRWARE/TOUCH/gt9xxx.c ****     {
 864              		.loc 1 145 8 discriminator 1 view .LVU257
 865 00c8 10B9     		cbnz	r0, .L40
 147:HADRWARE/TOUCH/gt9xxx.c ****     }
 866              		.loc 1 147 10 is_stmt 1 view .LVU258
 147:HADRWARE/TOUCH/gt9xxx.c ****     }
 867              		.loc 1 147 20 is_stmt 0 view .LVU259
 868 00ca 1E4B     		ldr	r3, .L43+32
 869 00cc 0A22     		movs	r2, #10
 870 00ce 1A70     		strb	r2, [r3]
 871              	.L40:
 150:HADRWARE/TOUCH/gt9xxx.c ****     gt9xxx_wr_reg(GT9XXX_CTRL_REG, temp, 1);    /* 软复位GT9XXX */
 872              		.loc 1 150 5 is_stmt 1 view .LVU260
 150:HADRWARE/TOUCH/gt9xxx.c ****     gt9xxx_wr_reg(GT9XXX_CTRL_REG, temp, 1);    /* 软复位GT9XXX */
 873              		.loc 1 150 13 is_stmt 0 view .LVU261
 874 00d0 0223     		movs	r3, #2
 875 00d2 8DF80830 		strb	r3, [sp, #8]
 151:HADRWARE/TOUCH/gt9xxx.c ****     
 876              		.loc 1 151 5 is_stmt 1 view .LVU262
 877 00d6 0122     		movs	r2, #1
 878 00d8 02A9     		add	r1, sp, #8
 879 00da 48F24000 		movw	r0, #32832
 880 00de FFF7FEFF 		bl	gt9xxx_wr_reg
 881              	.LVL68:
 153:HADRWARE/TOUCH/gt9xxx.c ****     
ARM GAS  C:\Users\ktkuru\AppData\Local\Temp\cch5rgrq.s 			page 23


 882              		.loc 1 153 5 view .LVU263
 883 00e2 0A20     		movs	r0, #10
 884 00e4 FFF7FEFF 		bl	delay_ms
 885              	.LVL69:
 155:HADRWARE/TOUCH/gt9xxx.c ****     gt9xxx_wr_reg(GT9XXX_CTRL_REG, temp, 1);    /* 结束复位, 进入读坐标状态 */
 886              		.loc 1 155 5 view .LVU264
 155:HADRWARE/TOUCH/gt9xxx.c ****     gt9xxx_wr_reg(GT9XXX_CTRL_REG, temp, 1);    /* 结束复位, 进入读坐标状态 */
 887              		.loc 1 155 13 is_stmt 0 view .LVU265
 888 00e8 0024     		movs	r4, #0
 889 00ea 8DF80840 		strb	r4, [sp, #8]
 156:HADRWARE/TOUCH/gt9xxx.c ****     
 890              		.loc 1 156 5 is_stmt 1 view .LVU266
 891 00ee 0122     		movs	r2, #1
 892 00f0 02A9     		add	r1, sp, #8
 893 00f2 48F24000 		movw	r0, #32832
 894 00f6 FFF7FEFF 		bl	gt9xxx_wr_reg
 895              	.LVL70:
 159:HADRWARE/TOUCH/gt9xxx.c ****     tp_dev.scan = gt9xxx_scan;
 896              		.loc 1 159 5 view .LVU267
 159:HADRWARE/TOUCH/gt9xxx.c ****     tp_dev.scan = gt9xxx_scan;
 897              		.loc 1 159 11 is_stmt 0 view .LVU268
 898 00fa 134A     		ldr	r2, .L43+36
 899 00fc 92F84430 		ldrb	r3, [r2, #68]	@ zero_extendqisi2
 159:HADRWARE/TOUCH/gt9xxx.c ****     tp_dev.scan = gt9xxx_scan;
 900              		.loc 1 159 31 view .LVU269
 901 0100 1249     		ldr	r1, .L43+40
 902 0102 8979     		ldrb	r1, [r1, #6]	@ zero_extendqisi2
 903 0104 01F00101 		and	r1, r1, #1
 904 0108 0B43     		orrs	r3, r3, r1
 159:HADRWARE/TOUCH/gt9xxx.c ****     tp_dev.scan = gt9xxx_scan;
 905              		.loc 1 159 22 view .LVU270
 906 010a 82F84430 		strb	r3, [r2, #68]
 160:HADRWARE/TOUCH/gt9xxx.c ****     tp_dev.touchtype |= 0X80;
 907              		.loc 1 160 5 is_stmt 1 view .LVU271
 160:HADRWARE/TOUCH/gt9xxx.c ****     tp_dev.touchtype |= 0X80;
 908              		.loc 1 160 17 is_stmt 0 view .LVU272
 909 010e 1049     		ldr	r1, .L43+44
 910 0110 5160     		str	r1, [r2, #4]
 161:HADRWARE/TOUCH/gt9xxx.c **** 
 911              		.loc 1 161 5 is_stmt 1 view .LVU273
 161:HADRWARE/TOUCH/gt9xxx.c **** 
 912              		.loc 1 161 22 is_stmt 0 view .LVU274
 913 0112 63F07F03 		orn	r3, r3, #127
 914 0116 82F84430 		strb	r3, [r2, #68]
 163:HADRWARE/TOUCH/gt9xxx.c **** }
 915              		.loc 1 163 5 is_stmt 1 view .LVU275
 163:HADRWARE/TOUCH/gt9xxx.c **** }
 916              		.loc 1 163 12 is_stmt 0 view .LVU276
 917 011a 2046     		mov	r0, r4
 918              	.L39:
 164:HADRWARE/TOUCH/gt9xxx.c **** 
 919              		.loc 1 164 1 view .LVU277
 920 011c 04B0     		add	sp, sp, #16
 921              	.LCFI8:
 922              		.cfi_remember_state
 923              		.cfi_def_cfa_offset 16
 924              		@ sp needed
ARM GAS  C:\Users\ktkuru\AppData\Local\Temp\cch5rgrq.s 			page 24


 925 011e 70BD     		pop	{r4, r5, r6, pc}
 926              	.L41:
 927              	.LCFI9:
 928              		.cfi_restore_state
 141:HADRWARE/TOUCH/gt9xxx.c ****     }
 929              		.loc 1 141 16 view .LVU278
 930 0120 0120     		movs	r0, #1
 931 0122 FBE7     		b	.L39
 932              	.L44:
 933              		.align	2
 934              	.L43:
 935 0124 00380240 		.word	1073887232
 936 0128 00200240 		.word	1073881088
 937 012c 001C0240 		.word	1073880064
 938 0130 00000000 		.word	.LC0
 939 0134 04000000 		.word	.LC1
 940 0138 0C000000 		.word	.LC2
 941 013c 14000000 		.word	.LC3
 942 0140 1C000000 		.word	.LC4
 943 0144 00000000 		.word	g_gt_tnum
 944 0148 00000000 		.word	tp_dev
 945 014c 00000000 		.word	lcddev
 946 0150 00000000 		.word	gt9xxx_scan
 947              		.cfi_endproc
 948              	.LFE128:
 950              		.section	.rodata.Read_SitData.str1.4,"aMS",%progbits,1
 951              		.align	2
 952              	.LC5:
 953 0000 783A2564 		.ascii	"x:%d\012\000"
 953      0A00
 954              		.section	.text.Read_SitData,"ax",%progbits
 955              		.align	1
 956              		.global	Read_SitData
 957              		.syntax unified
 958              		.thumb
 959              		.thumb_func
 961              	Read_SitData:
 962              	.LVL71:
 963              	.LFB130:
 288:HADRWARE/TOUCH/gt9xxx.c **** 
 289:HADRWARE/TOUCH/gt9xxx.c **** void Read_SitData(uint8_t i)
 290:HADRWARE/TOUCH/gt9xxx.c **** {
 964              		.loc 1 290 1 is_stmt 1 view -0
 965              		.cfi_startproc
 966              		@ args = 0, pretend = 0, frame = 8
 967              		@ frame_needed = 0, uses_anonymous_args = 0
 968              		.loc 1 290 1 is_stmt 0 view .LVU280
 969 0000 00B5     		push	{lr}
 970              	.LCFI10:
 971              		.cfi_def_cfa_offset 4
 972              		.cfi_offset 14, -4
 973 0002 83B0     		sub	sp, sp, #12
 974              	.LCFI11:
 975              		.cfi_def_cfa_offset 16
 291:HADRWARE/TOUCH/gt9xxx.c ****     uint8_t buf[4];
 976              		.loc 1 291 5 is_stmt 1 view .LVU281
 292:HADRWARE/TOUCH/gt9xxx.c ****     gt9xxx_rd_reg(GT9XXX_TPX_TBL[i], buf, 4);
ARM GAS  C:\Users\ktkuru\AppData\Local\Temp\cch5rgrq.s 			page 25


 977              		.loc 1 292 5 view .LVU282
 978 0004 0422     		movs	r2, #4
 979 0006 0DEB0201 		add	r1, sp, r2
 980 000a 094B     		ldr	r3, .L47
 981 000c 33F81000 		ldrh	r0, [r3, r0, lsl #1]
 982              	.LVL72:
 983              		.loc 1 292 5 is_stmt 0 view .LVU283
 984 0010 FFF7FEFF 		bl	gt9xxx_rd_reg
 985              	.LVL73:
 293:HADRWARE/TOUCH/gt9xxx.c **** 
 294:HADRWARE/TOUCH/gt9xxx.c ****     uint16_t x_sit =((uint16_t)buf[1]<<8) + buf[0];
 986              		.loc 1 294 5 is_stmt 1 view .LVU284
 987              		.loc 1 294 35 is_stmt 0 view .LVU285
 988 0014 9DF80530 		ldrb	r3, [sp, #5]	@ zero_extendqisi2
 989              		.loc 1 294 48 view .LVU286
 990 0018 9DF80410 		ldrb	r1, [sp, #4]	@ zero_extendqisi2
 991              		.loc 1 294 14 view .LVU287
 992 001c 01EB0321 		add	r1, r1, r3, lsl #8
 993              	.LVL74:
 295:HADRWARE/TOUCH/gt9xxx.c ****     printf("x:%d\n",x_sit);
 994              		.loc 1 295 5 is_stmt 1 view .LVU288
 995 0020 89B2     		uxth	r1, r1
 996              		.loc 1 295 5 is_stmt 0 view .LVU289
 997 0022 0448     		ldr	r0, .L47+4
 998 0024 FFF7FEFF 		bl	printf
 999              	.LVL75:
 296:HADRWARE/TOUCH/gt9xxx.c **** }
 1000              		.loc 1 296 1 view .LVU290
 1001 0028 03B0     		add	sp, sp, #12
 1002              	.LCFI12:
 1003              		.cfi_def_cfa_offset 4
 1004              		@ sp needed
 1005 002a 5DF804FB 		ldr	pc, [sp], #4
 1006              	.L48:
 1007 002e 00BF     		.align	2
 1008              	.L47:
 1009 0030 00000000 		.word	GT9XXX_TPX_TBL
 1010 0034 00000000 		.word	.LC5
 1011              		.cfi_endproc
 1012              	.LFE130:
 1014              		.section	.bss.t.0,"aw",%nobits
 1017              	t.0:
 1018 0000 00       		.space	1
 1019              		.global	GT9XXX_TPX_TBL
 1020              		.section	.rodata.GT9XXX_TPX_TBL,"a"
 1021              		.align	2
 1024              	GT9XXX_TPX_TBL:
 1025 0000 5081     		.short	-32432
 1026 0002 5881     		.short	-32424
 1027 0004 6081     		.short	-32416
 1028 0006 6881     		.short	-32408
 1029 0008 7081     		.short	-32400
 1030 000a 7881     		.short	-32392
 1031 000c 8081     		.short	-32384
 1032 000e 8881     		.short	-32376
 1033 0010 9081     		.short	-32368
 1034 0012 9881     		.short	-32360
ARM GAS  C:\Users\ktkuru\AppData\Local\Temp\cch5rgrq.s 			page 26


 1035              		.global	g_gt_tnum
 1036              		.section	.data.g_gt_tnum,"aw"
 1039              	g_gt_tnum:
 1040 0000 05       		.byte	5
 1041              		.text
 1042              	.Letext0:
 1043              		.file 2 "C:/Program Files (x86)/Arm GNU Toolchain arm-none-eabi/13.3 rel1/arm-none-eabi/include/ma
 1044              		.file 3 "C:/Program Files (x86)/Arm GNU Toolchain arm-none-eabi/13.3 rel1/arm-none-eabi/include/sy
 1045              		.file 4 "libraries/CMSIS/Device/ST/STM32F4xx/include/stm32f4xx.h"
 1046              		.file 5 "HADRWARE/TOUCH/touch.h"
 1047              		.file 6 "HADRWARE/LCD/lcd.h"
 1048              		.file 7 "C:/Program Files (x86)/Arm GNU Toolchain arm-none-eabi/13.3 rel1/arm-none-eabi/include/st
 1049              		.file 8 "C:/Program Files (x86)/Arm GNU Toolchain arm-none-eabi/13.3 rel1/arm-none-eabi/include/st
 1050              		.file 9 "SYSTEM/delay/delay.h"
 1051              		.file 10 "SYSTEM/sys/sys.h"
 1052              		.file 11 "HADRWARE/TOUCH/ctiic.h"
ARM GAS  C:\Users\ktkuru\AppData\Local\Temp\cch5rgrq.s 			page 27


DEFINED SYMBOLS
                            *ABS*:00000000 gt9xxx.c
C:\Users\ktkuru\AppData\Local\Temp\cch5rgrq.s:21     .text.gt9xxx_wr_reg:00000000 $t
C:\Users\ktkuru\AppData\Local\Temp\cch5rgrq.s:27     .text.gt9xxx_wr_reg:00000000 gt9xxx_wr_reg
C:\Users\ktkuru\AppData\Local\Temp\cch5rgrq.s:121    .text.gt9xxx_rd_reg:00000000 $t
C:\Users\ktkuru\AppData\Local\Temp\cch5rgrq.s:127    .text.gt9xxx_rd_reg:00000000 gt9xxx_rd_reg
C:\Users\ktkuru\AppData\Local\Temp\cch5rgrq.s:219    .text.gt9xxx_scan:00000000 $t
C:\Users\ktkuru\AppData\Local\Temp\cch5rgrq.s:225    .text.gt9xxx_scan:00000000 gt9xxx_scan
C:\Users\ktkuru\AppData\Local\Temp\cch5rgrq.s:693    .text.gt9xxx_scan:0000028c $d
C:\Users\ktkuru\AppData\Local\Temp\cch5rgrq.s:1017   .bss.t.0:00000000 t.0
C:\Users\ktkuru\AppData\Local\Temp\cch5rgrq.s:1039   .data.g_gt_tnum:00000000 g_gt_tnum
C:\Users\ktkuru\AppData\Local\Temp\cch5rgrq.s:1024   .rodata.GT9XXX_TPX_TBL:00000000 GT9XXX_TPX_TBL
C:\Users\ktkuru\AppData\Local\Temp\cch5rgrq.s:703    .rodata.gt9xxx_init.str1.4:00000000 $d
C:\Users\ktkuru\AppData\Local\Temp\cch5rgrq.s:719    .text.gt9xxx_init:00000000 $t
C:\Users\ktkuru\AppData\Local\Temp\cch5rgrq.s:725    .text.gt9xxx_init:00000000 gt9xxx_init
C:\Users\ktkuru\AppData\Local\Temp\cch5rgrq.s:935    .text.gt9xxx_init:00000124 $d
C:\Users\ktkuru\AppData\Local\Temp\cch5rgrq.s:951    .rodata.Read_SitData.str1.4:00000000 $d
C:\Users\ktkuru\AppData\Local\Temp\cch5rgrq.s:955    .text.Read_SitData:00000000 $t
C:\Users\ktkuru\AppData\Local\Temp\cch5rgrq.s:961    .text.Read_SitData:00000000 Read_SitData
C:\Users\ktkuru\AppData\Local\Temp\cch5rgrq.s:1009   .text.Read_SitData:00000030 $d
C:\Users\ktkuru\AppData\Local\Temp\cch5rgrq.s:1018   .bss.t.0:00000000 $d
C:\Users\ktkuru\AppData\Local\Temp\cch5rgrq.s:1021   .rodata.GT9XXX_TPX_TBL:00000000 $d

UNDEFINED SYMBOLS
ct_iic_start
ct_iic_send_byte
ct_iic_wait_ack
ct_iic_stop
ct_iic_read_byte
tp_dev
lcddev
sys_gpio_set
ct_iic_init
sys_gpio_pin_set
delay_ms
strcmp
printf
