ARM GAS  /tmp/cc83C5OS.s 			page 1


   1              		.cpu cortex-m4
   2              		.eabi_attribute 27, 1
   3              		.eabi_attribute 28, 1
   4              		.eabi_attribute 20, 1
   5              		.eabi_attribute 21, 1
   6              		.eabi_attribute 23, 3
   7              		.eabi_attribute 24, 1
   8              		.eabi_attribute 25, 1
   9              		.eabi_attribute 26, 1
  10              		.eabi_attribute 30, 1
  11              		.eabi_attribute 34, 1
  12              		.eabi_attribute 18, 4
  13              		.file	"lcd.c"
  14              		.text
  15              	.Ltext0:
  16              		.cfi_sections	.debug_frame
  17              		.section	.text.LCD_WR_REG,"ax",%progbits
  18              		.align	1
  19              		.global	LCD_WR_REG
  20              		.arch armv7e-m
  21              		.syntax unified
  22              		.thumb
  23              		.thumb_func
  24              		.fpu fpv4-sp-d16
  26              	LCD_WR_REG:
  27              	.LVL0:
  28              	.LFB126:
  29              		.file 1 "HADRWARE/LCD/lcd.c"
   1:HADRWARE/LCD/lcd.c **** #include "lcd.h"
   2:HADRWARE/LCD/lcd.c **** #include "stdlib.h"
   3:HADRWARE/LCD/lcd.c **** #include "font.h" 
   4:HADRWARE/LCD/lcd.c **** #include "usart.h"	 
   5:HADRWARE/LCD/lcd.c **** #include "ltdc.h"
   6:HADRWARE/LCD/lcd.c **** #include "delay.h"	 
   7:HADRWARE/LCD/lcd.c **** #include "stm32f4xx.h"
   8:HADRWARE/LCD/lcd.c **** #include <stdarg.h>
   9:HADRWARE/LCD/lcd.c **** //////////////////////////////////////////////////////////////////////////////////	 
  10:HADRWARE/LCD/lcd.c **** 	 
  11:HADRWARE/LCD/lcd.c **** //********************************************************************************
  12:HADRWARE/LCD/lcd.c **** //升级说明
  13:HADRWARE/LCD/lcd.c **** //V1.1
  14:HADRWARE/LCD/lcd.c **** //新增对RGBLCD屏的支持(使用LTDC).
  15:HADRWARE/LCD/lcd.c **** //////////////////////////////////////////////////////////////////////////////////	 
  16:HADRWARE/LCD/lcd.c **** 
  17:HADRWARE/LCD/lcd.c **** //LCD的画笔颜色和背景色	   
  18:HADRWARE/LCD/lcd.c **** u32 POINT_COLOR=0xFF000000;		//画笔颜色
  19:HADRWARE/LCD/lcd.c **** u32 BACK_COLOR =0xFFFFFFFF;  	//背景色 
  20:HADRWARE/LCD/lcd.c ****   
  21:HADRWARE/LCD/lcd.c **** //管理LCD重要参数
  22:HADRWARE/LCD/lcd.c **** //默认为竖屏
  23:HADRWARE/LCD/lcd.c **** _lcd_dev lcddev;
  24:HADRWARE/LCD/lcd.c **** 	 
  25:HADRWARE/LCD/lcd.c **** //写寄存器函数
  26:HADRWARE/LCD/lcd.c **** //regval:寄存器值
  27:HADRWARE/LCD/lcd.c **** void LCD_WR_REG(vu16 regval)
  28:HADRWARE/LCD/lcd.c **** {   
  30              		.loc 1 28 1 view -0
ARM GAS  /tmp/cc83C5OS.s 			page 2


  31              		.cfi_startproc
  32              		@ args = 0, pretend = 0, frame = 8
  33              		@ frame_needed = 0, uses_anonymous_args = 0
  34              		@ link register save eliminated.
  35              		.loc 1 28 1 is_stmt 0 view .LVU1
  36 0000 82B0     		sub	sp, sp, #8
  37              	.LCFI0:
  38              		.cfi_def_cfa_offset 8
  39 0002 ADF80600 		strh	r0, [sp, #6]	@ movhi
  29:HADRWARE/LCD/lcd.c **** 	regval=regval;		//使用-O2优化的时候,必须插入的延时
  40              		.loc 1 29 2 is_stmt 1 view .LVU2
  41              		.loc 1 29 8 is_stmt 0 view .LVU3
  42 0006 BDF80630 		ldrh	r3, [sp, #6]
  43 000a 9BB2     		uxth	r3, r3
  44 000c ADF80630 		strh	r3, [sp, #6]	@ movhi
  30:HADRWARE/LCD/lcd.c **** 	LCD->LCD_REG=regval;//写入要写的寄存器序号	 
  45              		.loc 1 30 2 is_stmt 1 view .LVU4
  46              		.loc 1 30 14 is_stmt 0 view .LVU5
  47 0010 BDF80630 		ldrh	r3, [sp, #6]
  48 0014 9BB2     		uxth	r3, r3
  49 0016 024A     		ldr	r2, .L3
  50 0018 A2F8FE30 		strh	r3, [r2, #254]	@ movhi
  31:HADRWARE/LCD/lcd.c **** }
  51              		.loc 1 31 1 view .LVU6
  52 001c 02B0     		add	sp, sp, #8
  53              	.LCFI1:
  54              		.cfi_def_cfa_offset 0
  55              		@ sp needed
  56 001e 7047     		bx	lr
  57              	.L4:
  58              		.align	2
  59              	.L3:
  60 0020 00FF0760 		.word	1611136768
  61              		.cfi_endproc
  62              	.LFE126:
  64              		.section	.text.LCD_WR_DATA,"ax",%progbits
  65              		.align	1
  66              		.global	LCD_WR_DATA
  67              		.syntax unified
  68              		.thumb
  69              		.thumb_func
  70              		.fpu fpv4-sp-d16
  72              	LCD_WR_DATA:
  73              	.LVL1:
  74              	.LFB127:
  32:HADRWARE/LCD/lcd.c **** //写LCD数据
  33:HADRWARE/LCD/lcd.c **** //data:要写入的值
  34:HADRWARE/LCD/lcd.c **** void LCD_WR_DATA(vu16 data)
  35:HADRWARE/LCD/lcd.c **** {	  
  75              		.loc 1 35 1 is_stmt 1 view -0
  76              		.cfi_startproc
  77              		@ args = 0, pretend = 0, frame = 8
  78              		@ frame_needed = 0, uses_anonymous_args = 0
  79              		@ link register save eliminated.
  80              		.loc 1 35 1 is_stmt 0 view .LVU8
  81 0000 82B0     		sub	sp, sp, #8
  82              	.LCFI2:
ARM GAS  /tmp/cc83C5OS.s 			page 3


  83              		.cfi_def_cfa_offset 8
  84 0002 ADF80600 		strh	r0, [sp, #6]	@ movhi
  36:HADRWARE/LCD/lcd.c **** 	data=data;			//使用-O2优化的时候,必须插入的延时
  85              		.loc 1 36 2 is_stmt 1 view .LVU9
  86              		.loc 1 36 6 is_stmt 0 view .LVU10
  87 0006 BDF80630 		ldrh	r3, [sp, #6]
  88 000a 9BB2     		uxth	r3, r3
  89 000c ADF80630 		strh	r3, [sp, #6]	@ movhi
  37:HADRWARE/LCD/lcd.c **** 	LCD->LCD_RAM=data;		 
  90              		.loc 1 37 2 is_stmt 1 view .LVU11
  91              		.loc 1 37 14 is_stmt 0 view .LVU12
  92 0010 BDF80630 		ldrh	r3, [sp, #6]
  93 0014 9BB2     		uxth	r3, r3
  94 0016 024A     		ldr	r2, .L7
  95 0018 A2F80031 		strh	r3, [r2, #256]	@ movhi
  38:HADRWARE/LCD/lcd.c **** }
  96              		.loc 1 38 1 view .LVU13
  97 001c 02B0     		add	sp, sp, #8
  98              	.LCFI3:
  99              		.cfi_def_cfa_offset 0
 100              		@ sp needed
 101 001e 7047     		bx	lr
 102              	.L8:
 103              		.align	2
 104              	.L7:
 105 0020 00FF0760 		.word	1611136768
 106              		.cfi_endproc
 107              	.LFE127:
 109              		.section	.text.LCD_RD_DATA,"ax",%progbits
 110              		.align	1
 111              		.global	LCD_RD_DATA
 112              		.syntax unified
 113              		.thumb
 114              		.thumb_func
 115              		.fpu fpv4-sp-d16
 117              	LCD_RD_DATA:
 118              	.LFB128:
  39:HADRWARE/LCD/lcd.c **** //读LCD数据
  40:HADRWARE/LCD/lcd.c **** //返回值:读到的值
  41:HADRWARE/LCD/lcd.c **** u16 LCD_RD_DATA(void)
  42:HADRWARE/LCD/lcd.c **** {
 119              		.loc 1 42 1 is_stmt 1 view -0
 120              		.cfi_startproc
 121              		@ args = 0, pretend = 0, frame = 8
 122              		@ frame_needed = 0, uses_anonymous_args = 0
 123              		@ link register save eliminated.
 124 0000 82B0     		sub	sp, sp, #8
 125              	.LCFI4:
 126              		.cfi_def_cfa_offset 8
  43:HADRWARE/LCD/lcd.c **** 	vu16 ram;			//防止被优化
 127              		.loc 1 43 2 view .LVU15
  44:HADRWARE/LCD/lcd.c **** 	ram=LCD->LCD_RAM;	
 128              		.loc 1 44 2 view .LVU16
 129              		.loc 1 44 9 is_stmt 0 view .LVU17
 130 0002 054B     		ldr	r3, .L11
 131 0004 B3F80031 		ldrh	r3, [r3, #256]
 132 0008 9BB2     		uxth	r3, r3
ARM GAS  /tmp/cc83C5OS.s 			page 4


 133              		.loc 1 44 5 view .LVU18
 134 000a ADF80630 		strh	r3, [sp, #6]	@ movhi
  45:HADRWARE/LCD/lcd.c **** 	return ram;	 
 135              		.loc 1 45 2 is_stmt 1 view .LVU19
 136              		.loc 1 45 9 is_stmt 0 view .LVU20
 137 000e BDF80600 		ldrh	r0, [sp, #6]
  46:HADRWARE/LCD/lcd.c **** }					   
 138              		.loc 1 46 1 view .LVU21
 139 0012 80B2     		uxth	r0, r0
 140 0014 02B0     		add	sp, sp, #8
 141              	.LCFI5:
 142              		.cfi_def_cfa_offset 0
 143              		@ sp needed
 144 0016 7047     		bx	lr
 145              	.L12:
 146              		.align	2
 147              	.L11:
 148 0018 00FF0760 		.word	1611136768
 149              		.cfi_endproc
 150              	.LFE128:
 152              		.section	.text.LCD_WriteReg,"ax",%progbits
 153              		.align	1
 154              		.global	LCD_WriteReg
 155              		.syntax unified
 156              		.thumb
 157              		.thumb_func
 158              		.fpu fpv4-sp-d16
 160              	LCD_WriteReg:
 161              	.LVL2:
 162              	.LFB129:
  47:HADRWARE/LCD/lcd.c **** //写寄存器
  48:HADRWARE/LCD/lcd.c **** //LCD_Reg:寄存器地址
  49:HADRWARE/LCD/lcd.c **** //LCD_RegValue:要写入的数据
  50:HADRWARE/LCD/lcd.c **** void LCD_WriteReg(u16 LCD_Reg,u16 LCD_RegValue)
  51:HADRWARE/LCD/lcd.c **** {	
 163              		.loc 1 51 1 is_stmt 1 view -0
 164              		.cfi_startproc
 165              		@ args = 0, pretend = 0, frame = 0
 166              		@ frame_needed = 0, uses_anonymous_args = 0
 167              		@ link register save eliminated.
  52:HADRWARE/LCD/lcd.c **** 	LCD->LCD_REG = LCD_Reg;		//写入要写的寄存器序号	 
 168              		.loc 1 52 2 view .LVU23
 169              		.loc 1 52 15 is_stmt 0 view .LVU24
 170 0000 024B     		ldr	r3, .L14
 171 0002 A3F8FE00 		strh	r0, [r3, #254]	@ movhi
  53:HADRWARE/LCD/lcd.c **** 	LCD->LCD_RAM = LCD_RegValue;//写入数据	    		 
 172              		.loc 1 53 2 is_stmt 1 view .LVU25
 173              		.loc 1 53 15 is_stmt 0 view .LVU26
 174 0006 A3F80011 		strh	r1, [r3, #256]	@ movhi
  54:HADRWARE/LCD/lcd.c **** }	   
 175              		.loc 1 54 1 view .LVU27
 176 000a 7047     		bx	lr
 177              	.L15:
 178              		.align	2
 179              	.L14:
 180 000c 00FF0760 		.word	1611136768
 181              		.cfi_endproc
ARM GAS  /tmp/cc83C5OS.s 			page 5


 182              	.LFE129:
 184              		.section	.text.LCD_ReadReg,"ax",%progbits
 185              		.align	1
 186              		.global	LCD_ReadReg
 187              		.syntax unified
 188              		.thumb
 189              		.thumb_func
 190              		.fpu fpv4-sp-d16
 192              	LCD_ReadReg:
 193              	.LVL3:
 194              	.LFB130:
  55:HADRWARE/LCD/lcd.c **** //读寄存器
  56:HADRWARE/LCD/lcd.c **** //LCD_Reg:寄存器地址
  57:HADRWARE/LCD/lcd.c **** //返回值:读到的数据
  58:HADRWARE/LCD/lcd.c **** u16 LCD_ReadReg(u16 LCD_Reg)
  59:HADRWARE/LCD/lcd.c **** {										   
 195              		.loc 1 59 1 is_stmt 1 view -0
 196              		.cfi_startproc
 197              		@ args = 0, pretend = 0, frame = 0
 198              		@ frame_needed = 0, uses_anonymous_args = 0
 199              		.loc 1 59 1 is_stmt 0 view .LVU29
 200 0000 08B5     		push	{r3, lr}
 201              	.LCFI6:
 202              		.cfi_def_cfa_offset 8
 203              		.cfi_offset 3, -8
 204              		.cfi_offset 14, -4
  60:HADRWARE/LCD/lcd.c **** 	LCD_WR_REG(LCD_Reg);		//写入要读的寄存器序号
 205              		.loc 1 60 2 is_stmt 1 view .LVU30
 206 0002 FFF7FEFF 		bl	LCD_WR_REG
 207              	.LVL4:
  61:HADRWARE/LCD/lcd.c **** 	delay_us(5);		  
 208              		.loc 1 61 2 view .LVU31
 209 0006 0520     		movs	r0, #5
 210 0008 FFF7FEFF 		bl	delay_us
 211              	.LVL5:
  62:HADRWARE/LCD/lcd.c **** 	return LCD_RD_DATA();		//返回读到的值
 212              		.loc 1 62 2 view .LVU32
 213              		.loc 1 62 9 is_stmt 0 view .LVU33
 214 000c FFF7FEFF 		bl	LCD_RD_DATA
 215              	.LVL6:
  63:HADRWARE/LCD/lcd.c **** }   
 216              		.loc 1 63 1 view .LVU34
 217 0010 08BD     		pop	{r3, pc}
 218              		.cfi_endproc
 219              	.LFE130:
 221              		.section	.text.LCD_WriteRAM_Prepare,"ax",%progbits
 222              		.align	1
 223              		.global	LCD_WriteRAM_Prepare
 224              		.syntax unified
 225              		.thumb
 226              		.thumb_func
 227              		.fpu fpv4-sp-d16
 229              	LCD_WriteRAM_Prepare:
 230              	.LFB131:
  64:HADRWARE/LCD/lcd.c **** //开始写GRAM
  65:HADRWARE/LCD/lcd.c **** void LCD_WriteRAM_Prepare(void)
  66:HADRWARE/LCD/lcd.c **** {
ARM GAS  /tmp/cc83C5OS.s 			page 6


 231              		.loc 1 66 1 is_stmt 1 view -0
 232              		.cfi_startproc
 233              		@ args = 0, pretend = 0, frame = 0
 234              		@ frame_needed = 0, uses_anonymous_args = 0
 235              		@ link register save eliminated.
  67:HADRWARE/LCD/lcd.c ****  	LCD->LCD_REG=lcddev.wramcmd;	  
 236              		.loc 1 67 3 view .LVU36
 237              		.loc 1 67 22 is_stmt 0 view .LVU37
 238 0000 024B     		ldr	r3, .L19
 239 0002 1A89     		ldrh	r2, [r3, #8]
 240              		.loc 1 67 15 view .LVU38
 241 0004 024B     		ldr	r3, .L19+4
 242 0006 A3F8FE20 		strh	r2, [r3, #254]	@ movhi
  68:HADRWARE/LCD/lcd.c **** }	 
 243              		.loc 1 68 1 view .LVU39
 244 000a 7047     		bx	lr
 245              	.L20:
 246              		.align	2
 247              	.L19:
 248 000c 00000000 		.word	.LANCHOR0
 249 0010 00FF0760 		.word	1611136768
 250              		.cfi_endproc
 251              	.LFE131:
 253              		.section	.text.LCD_WriteRAM,"ax",%progbits
 254              		.align	1
 255              		.global	LCD_WriteRAM
 256              		.syntax unified
 257              		.thumb
 258              		.thumb_func
 259              		.fpu fpv4-sp-d16
 261              	LCD_WriteRAM:
 262              	.LVL7:
 263              	.LFB132:
  69:HADRWARE/LCD/lcd.c **** //LCD写GRAM
  70:HADRWARE/LCD/lcd.c **** //RGB_Code:颜色值
  71:HADRWARE/LCD/lcd.c **** void LCD_WriteRAM(u16 RGB_Code)
  72:HADRWARE/LCD/lcd.c **** {							    
 264              		.loc 1 72 1 is_stmt 1 view -0
 265              		.cfi_startproc
 266              		@ args = 0, pretend = 0, frame = 0
 267              		@ frame_needed = 0, uses_anonymous_args = 0
 268              		@ link register save eliminated.
  73:HADRWARE/LCD/lcd.c **** 	LCD->LCD_RAM = RGB_Code;//写十六位GRAM
 269              		.loc 1 73 2 view .LVU41
 270              		.loc 1 73 15 is_stmt 0 view .LVU42
 271 0000 014B     		ldr	r3, .L22
 272 0002 A3F80001 		strh	r0, [r3, #256]	@ movhi
  74:HADRWARE/LCD/lcd.c **** }
 273              		.loc 1 74 1 view .LVU43
 274 0006 7047     		bx	lr
 275              	.L23:
 276              		.align	2
 277              	.L22:
 278 0008 00FF0760 		.word	1611136768
 279              		.cfi_endproc
 280              	.LFE132:
 282              		.section	.text.LCD_BGR2RGB,"ax",%progbits
ARM GAS  /tmp/cc83C5OS.s 			page 7


 283              		.align	1
 284              		.global	LCD_BGR2RGB
 285              		.syntax unified
 286              		.thumb
 287              		.thumb_func
 288              		.fpu fpv4-sp-d16
 290              	LCD_BGR2RGB:
 291              	.LVL8:
 292              	.LFB133:
  75:HADRWARE/LCD/lcd.c **** //从ILI93xx读出的数据为GBR格式，而我们写入的时候为RGB格式。
  76:HADRWARE/LCD/lcd.c **** //通过该函数转换
  77:HADRWARE/LCD/lcd.c **** //c:GBR格式的颜色值
  78:HADRWARE/LCD/lcd.c **** //返回值：RGB格式的颜色值
  79:HADRWARE/LCD/lcd.c **** u16 LCD_BGR2RGB(u16 c)
  80:HADRWARE/LCD/lcd.c **** {
 293              		.loc 1 80 1 is_stmt 1 view -0
 294              		.cfi_startproc
 295              		@ args = 0, pretend = 0, frame = 0
 296              		@ frame_needed = 0, uses_anonymous_args = 0
 297              		@ link register save eliminated.
  81:HADRWARE/LCD/lcd.c **** 	u16  r,g,b,rgb;   
 298              		.loc 1 81 2 view .LVU45
  82:HADRWARE/LCD/lcd.c **** 	b=(c>>0)&0x1f;
 299              		.loc 1 82 2 view .LVU46
  83:HADRWARE/LCD/lcd.c **** 	g=(c>>5)&0x3f;
 300              		.loc 1 83 2 view .LVU47
 301              		.loc 1 83 10 is_stmt 0 view .LVU48
 302 0000 4309     		lsrs	r3, r0, #5
 303              	.LVL9:
  84:HADRWARE/LCD/lcd.c **** 	r=(c>>11)&0x1f;	 
 304              		.loc 1 84 2 is_stmt 1 view .LVU49
  85:HADRWARE/LCD/lcd.c **** 	rgb=(b<<11)+(g<<5)+(r<<0);		 
 305              		.loc 1 85 2 view .LVU50
 306              		.loc 1 85 16 is_stmt 0 view .LVU51
 307 0002 5B01     		lsls	r3, r3, #5
 308              	.LVL10:
 309              		.loc 1 85 16 view .LVU52
 310 0004 03F4FC63 		and	r3, r3, #2016
 311              		.loc 1 85 13 view .LVU53
 312 0008 03EBC023 		add	r3, r3, r0, lsl #11
 313 000c 9BB2     		uxth	r3, r3
 314              		.loc 1 85 5 view .LVU54
 315 000e 03EBD020 		add	r0, r3, r0, lsr #11
 316              	.LVL11:
  86:HADRWARE/LCD/lcd.c **** 	return(rgb);
 317              		.loc 1 86 2 is_stmt 1 view .LVU55
  87:HADRWARE/LCD/lcd.c **** } 
 318              		.loc 1 87 1 is_stmt 0 view .LVU56
 319 0012 80B2     		uxth	r0, r0
 320              		.loc 1 87 1 view .LVU57
 321 0014 7047     		bx	lr
 322              		.cfi_endproc
 323              	.LFE133:
 325              		.section	.text.opt_delay,"ax",%progbits
 326              		.align	1
 327              		.global	opt_delay
 328              		.syntax unified
ARM GAS  /tmp/cc83C5OS.s 			page 8


 329              		.thumb
 330              		.thumb_func
 331              		.fpu fpv4-sp-d16
 333              	opt_delay:
 334              	.LFB134:
  88:HADRWARE/LCD/lcd.c **** //当mdk -O1时间优化时需要设置
  89:HADRWARE/LCD/lcd.c **** //延时i
  90:HADRWARE/LCD/lcd.c **** void opt_delay(u8 i)
  91:HADRWARE/LCD/lcd.c **** {
 335              		.loc 1 91 1 is_stmt 1 view -0
 336              		.cfi_startproc
 337              		@ args = 0, pretend = 0, frame = 0
 338              		@ frame_needed = 0, uses_anonymous_args = 0
 339              		@ link register save eliminated.
 340              	.LVL12:
 341              	.L26:
  92:HADRWARE/LCD/lcd.c **** 	while(i--);
 342              		.loc 1 92 12 discriminator 1 view .LVU59
 343              		.loc 1 92 7 discriminator 1 view .LVU60
 344 0000 0346     		mov	r3, r0
 345              		.loc 1 92 9 is_stmt 0 discriminator 1 view .LVU61
 346 0002 0138     		subs	r0, r0, #1
 347 0004 C0B2     		uxtb	r0, r0
 348              	.LVL13:
 349              		.loc 1 92 7 discriminator 1 view .LVU62
 350 0006 002B     		cmp	r3, #0
 351 0008 FAD1     		bne	.L26
  93:HADRWARE/LCD/lcd.c **** }
 352              		.loc 1 93 1 view .LVU63
 353 000a 7047     		bx	lr
 354              		.cfi_endproc
 355              	.LFE134:
 357              		.section	.text.LCD_ReadPoint,"ax",%progbits
 358              		.align	1
 359              		.global	LCD_ReadPoint
 360              		.syntax unified
 361              		.thumb
 362              		.thumb_func
 363              		.fpu fpv4-sp-d16
 365              	LCD_ReadPoint:
 366              	.LVL14:
 367              	.LFB135:
  94:HADRWARE/LCD/lcd.c **** //读取个某点的颜色值	 
  95:HADRWARE/LCD/lcd.c **** //x,y:坐标
  96:HADRWARE/LCD/lcd.c **** //返回值:此点的颜色
  97:HADRWARE/LCD/lcd.c **** u32 LCD_ReadPoint(u16 x,u16 y)
  98:HADRWARE/LCD/lcd.c **** {
 368              		.loc 1 98 1 is_stmt 1 view -0
 369              		.cfi_startproc
 370              		@ args = 0, pretend = 0, frame = 0
 371              		@ frame_needed = 0, uses_anonymous_args = 0
 372              		.loc 1 98 1 is_stmt 0 view .LVU65
 373 0000 08B5     		push	{r3, lr}
 374              	.LCFI7:
 375              		.cfi_def_cfa_offset 8
 376              		.cfi_offset 3, -8
 377              		.cfi_offset 14, -4
ARM GAS  /tmp/cc83C5OS.s 			page 9


  99:HADRWARE/LCD/lcd.c ****  	u16 r=0,g=0,b=0;
 378              		.loc 1 99 3 is_stmt 1 view .LVU66
 379              	.LVL15:
 100:HADRWARE/LCD/lcd.c **** 	if(x>=lcddev.width||y>=lcddev.height)return 0;	//超过了范围,直接返回
 380              		.loc 1 100 2 view .LVU67
 381              		.loc 1 100 14 is_stmt 0 view .LVU68
 382 0002 094B     		ldr	r3, .L34
 383 0004 1B88     		ldrh	r3, [r3]
 384              		.loc 1 100 4 view .LVU69
 385 0006 8342     		cmp	r3, r0
 386 0008 0AD9     		bls	.L30
 387              		.loc 1 100 31 discriminator 2 view .LVU70
 388 000a 074B     		ldr	r3, .L34
 389 000c 5B88     		ldrh	r3, [r3, #2]
 390              		.loc 1 100 20 discriminator 2 view .LVU71
 391 000e 8B42     		cmp	r3, r1
 392 0010 08D9     		bls	.L31
 101:HADRWARE/LCD/lcd.c **** 	if(lcdltdc.pwidth!=0)							//如果是RGB屏
 393              		.loc 1 101 2 is_stmt 1 view .LVU72
 394              		.loc 1 101 12 is_stmt 0 view .LVU73
 395 0012 064B     		ldr	r3, .L34+4
 396 0014 1B68     		ldr	r3, [r3]
 397              		.loc 1 101 4 view .LVU74
 398 0016 03B9     		cbnz	r3, .L33
 399              	.LVL16:
 400              	.L27:
 102:HADRWARE/LCD/lcd.c **** 	{
 103:HADRWARE/LCD/lcd.c **** 		return LTDC_Read_Point(x,y);
 104:HADRWARE/LCD/lcd.c **** 	}
 105:HADRWARE/LCD/lcd.c **** 	
 106:HADRWARE/LCD/lcd.c **** }			 
 401              		.loc 1 106 1 view .LVU75
 402 0018 08BD     		pop	{r3, pc}
 403              	.LVL17:
 404              	.L33:
 103:HADRWARE/LCD/lcd.c **** 	}
 405              		.loc 1 103 3 is_stmt 1 view .LVU76
 103:HADRWARE/LCD/lcd.c **** 	}
 406              		.loc 1 103 10 is_stmt 0 view .LVU77
 407 001a FFF7FEFF 		bl	LTDC_Read_Point
 408              	.LVL18:
 103:HADRWARE/LCD/lcd.c **** 	}
 409              		.loc 1 103 10 view .LVU78
 410 001e FBE7     		b	.L27
 411              	.LVL19:
 412              	.L30:
 100:HADRWARE/LCD/lcd.c **** 	if(lcdltdc.pwidth!=0)							//如果是RGB屏
 413              		.loc 1 100 46 view .LVU79
 414 0020 0020     		movs	r0, #0
 415              	.LVL20:
 100:HADRWARE/LCD/lcd.c **** 	if(lcdltdc.pwidth!=0)							//如果是RGB屏
 416              		.loc 1 100 46 view .LVU80
 417 0022 F9E7     		b	.L27
 418              	.LVL21:
 419              	.L31:
 100:HADRWARE/LCD/lcd.c **** 	if(lcdltdc.pwidth!=0)							//如果是RGB屏
 420              		.loc 1 100 46 view .LVU81
ARM GAS  /tmp/cc83C5OS.s 			page 10


 421 0024 0020     		movs	r0, #0
 422              	.LVL22:
 100:HADRWARE/LCD/lcd.c **** 	if(lcdltdc.pwidth!=0)							//如果是RGB屏
 423              		.loc 1 100 46 view .LVU82
 424 0026 F7E7     		b	.L27
 425              	.L35:
 426              		.align	2
 427              	.L34:
 428 0028 00000000 		.word	.LANCHOR0
 429 002c 00000000 		.word	lcdltdc
 430              		.cfi_endproc
 431              	.LFE135:
 433              		.section	.text.LCD_DisplayOn,"ax",%progbits
 434              		.align	1
 435              		.global	LCD_DisplayOn
 436              		.syntax unified
 437              		.thumb
 438              		.thumb_func
 439              		.fpu fpv4-sp-d16
 441              	LCD_DisplayOn:
 442              	.LFB136:
 107:HADRWARE/LCD/lcd.c **** //LCD开启显示
 108:HADRWARE/LCD/lcd.c **** void LCD_DisplayOn(void)
 109:HADRWARE/LCD/lcd.c **** {					   
 443              		.loc 1 109 1 is_stmt 1 view -0
 444              		.cfi_startproc
 445              		@ args = 0, pretend = 0, frame = 0
 446              		@ frame_needed = 0, uses_anonymous_args = 0
 447 0000 08B5     		push	{r3, lr}
 448              	.LCFI8:
 449              		.cfi_def_cfa_offset 8
 450              		.cfi_offset 3, -8
 451              		.cfi_offset 14, -4
 110:HADRWARE/LCD/lcd.c **** 	if(lcdltdc.pwidth!=0)LTDC_Switch(1);//开启LCD
 452              		.loc 1 110 2 view .LVU84
 453              		.loc 1 110 12 is_stmt 0 view .LVU85
 454 0002 114B     		ldr	r3, .L43
 455 0004 1B68     		ldr	r3, [r3]
 456              		.loc 1 110 4 view .LVU86
 457 0006 B3B9     		cbnz	r3, .L42
 111:HADRWARE/LCD/lcd.c **** 	else if(lcddev.id==0X9341||lcddev.id==0X5310||lcddev.id==0X1963)LCD_WR_REG(0X29);	//开启显示
 458              		.loc 1 111 7 is_stmt 1 view .LVU87
 459              		.loc 1 111 16 is_stmt 0 view .LVU88
 460 0008 104B     		ldr	r3, .L43+4
 461 000a 9B88     		ldrh	r3, [r3, #4]
 462              		.loc 1 111 9 view .LVU89
 463 000c 49F24132 		movw	r2, #37697
 464 0010 9342     		cmp	r3, r2
 465 0012 14D0     		beq	.L39
 466              		.loc 1 111 27 discriminator 2 view .LVU90
 467 0014 45F21032 		movw	r2, #21264
 468 0018 9342     		cmp	r3, r2
 469 001a 10D0     		beq	.L39
 470              		.loc 1 111 46 discriminator 4 view .LVU91
 471 001c 41F66312 		movw	r2, #6499
 472 0020 9342     		cmp	r3, r2
 473 0022 0CD0     		beq	.L39
ARM GAS  /tmp/cc83C5OS.s 			page 11


 112:HADRWARE/LCD/lcd.c **** 	else if(lcddev.id==0X5510)LCD_WR_REG(0X2900);	//开启显示
 474              		.loc 1 112 7 is_stmt 1 view .LVU92
 475              		.loc 1 112 9 is_stmt 0 view .LVU93
 476 0024 45F21052 		movw	r2, #21776
 477 0028 9342     		cmp	r3, r2
 478 002a 0BD1     		bne	.L36
 479              		.loc 1 112 28 is_stmt 1 discriminator 1 view .LVU94
 480 002c 4FF42450 		mov	r0, #10496
 481 0030 FFF7FEFF 		bl	LCD_WR_REG
 482              	.LVL23:
 113:HADRWARE/LCD/lcd.c **** }	 
 483              		.loc 1 113 1 is_stmt 0 discriminator 1 view .LVU95
 484 0034 06E0     		b	.L36
 485              	.L42:
 110:HADRWARE/LCD/lcd.c **** 	else if(lcddev.id==0X9341||lcddev.id==0X5310||lcddev.id==0X1963)LCD_WR_REG(0X29);	//开启显示
 486              		.loc 1 110 23 is_stmt 1 discriminator 1 view .LVU96
 487 0036 0120     		movs	r0, #1
 488 0038 FFF7FEFF 		bl	LTDC_Switch
 489              	.LVL24:
 490 003c 02E0     		b	.L36
 491              	.L39:
 111:HADRWARE/LCD/lcd.c **** 	else if(lcddev.id==0X5510)LCD_WR_REG(0X2900);	//开启显示
 492              		.loc 1 111 66 discriminator 5 view .LVU97
 493 003e 2920     		movs	r0, #41
 494 0040 FFF7FEFF 		bl	LCD_WR_REG
 495              	.LVL25:
 496              	.L36:
 497              		.loc 1 113 1 is_stmt 0 view .LVU98
 498 0044 08BD     		pop	{r3, pc}
 499              	.L44:
 500 0046 00BF     		.align	2
 501              	.L43:
 502 0048 00000000 		.word	lcdltdc
 503 004c 00000000 		.word	.LANCHOR0
 504              		.cfi_endproc
 505              	.LFE136:
 507              		.section	.text.LCD_DisplayOff,"ax",%progbits
 508              		.align	1
 509              		.global	LCD_DisplayOff
 510              		.syntax unified
 511              		.thumb
 512              		.thumb_func
 513              		.fpu fpv4-sp-d16
 515              	LCD_DisplayOff:
 516              	.LFB137:
 114:HADRWARE/LCD/lcd.c **** //LCD关闭显示
 115:HADRWARE/LCD/lcd.c **** void LCD_DisplayOff(void)
 116:HADRWARE/LCD/lcd.c **** {	   
 517              		.loc 1 116 1 is_stmt 1 view -0
 518              		.cfi_startproc
 519              		@ args = 0, pretend = 0, frame = 0
 520              		@ frame_needed = 0, uses_anonymous_args = 0
 521 0000 08B5     		push	{r3, lr}
 522              	.LCFI9:
 523              		.cfi_def_cfa_offset 8
 524              		.cfi_offset 3, -8
 525              		.cfi_offset 14, -4
ARM GAS  /tmp/cc83C5OS.s 			page 12


 117:HADRWARE/LCD/lcd.c **** 	if(lcdltdc.pwidth!=0)LTDC_Switch(0);//关闭LCD
 526              		.loc 1 117 2 view .LVU100
 527              		.loc 1 117 12 is_stmt 0 view .LVU101
 528 0002 114B     		ldr	r3, .L52
 529 0004 1B68     		ldr	r3, [r3]
 530              		.loc 1 117 4 view .LVU102
 531 0006 B3B9     		cbnz	r3, .L51
 118:HADRWARE/LCD/lcd.c **** 	else if(lcddev.id==0X9341||lcddev.id==0X5310||lcddev.id==0X1963)LCD_WR_REG(0X28);	//关闭显示
 532              		.loc 1 118 7 is_stmt 1 view .LVU103
 533              		.loc 1 118 16 is_stmt 0 view .LVU104
 534 0008 104B     		ldr	r3, .L52+4
 535 000a 9B88     		ldrh	r3, [r3, #4]
 536              		.loc 1 118 9 view .LVU105
 537 000c 49F24132 		movw	r2, #37697
 538 0010 9342     		cmp	r3, r2
 539 0012 14D0     		beq	.L48
 540              		.loc 1 118 27 discriminator 2 view .LVU106
 541 0014 45F21032 		movw	r2, #21264
 542 0018 9342     		cmp	r3, r2
 543 001a 10D0     		beq	.L48
 544              		.loc 1 118 46 discriminator 4 view .LVU107
 545 001c 41F66312 		movw	r2, #6499
 546 0020 9342     		cmp	r3, r2
 547 0022 0CD0     		beq	.L48
 119:HADRWARE/LCD/lcd.c **** 	else if(lcddev.id==0X5510)LCD_WR_REG(0X2800);	//关闭显示
 548              		.loc 1 119 7 is_stmt 1 view .LVU108
 549              		.loc 1 119 9 is_stmt 0 view .LVU109
 550 0024 45F21052 		movw	r2, #21776
 551 0028 9342     		cmp	r3, r2
 552 002a 0BD1     		bne	.L45
 553              		.loc 1 119 28 is_stmt 1 discriminator 1 view .LVU110
 554 002c 4FF42050 		mov	r0, #10240
 555 0030 FFF7FEFF 		bl	LCD_WR_REG
 556              	.LVL26:
 120:HADRWARE/LCD/lcd.c **** }   
 557              		.loc 1 120 1 is_stmt 0 discriminator 1 view .LVU111
 558 0034 06E0     		b	.L45
 559              	.L51:
 117:HADRWARE/LCD/lcd.c **** 	else if(lcddev.id==0X9341||lcddev.id==0X5310||lcddev.id==0X1963)LCD_WR_REG(0X28);	//关闭显示
 560              		.loc 1 117 23 is_stmt 1 discriminator 1 view .LVU112
 561 0036 0020     		movs	r0, #0
 562 0038 FFF7FEFF 		bl	LTDC_Switch
 563              	.LVL27:
 564 003c 02E0     		b	.L45
 565              	.L48:
 118:HADRWARE/LCD/lcd.c **** 	else if(lcddev.id==0X5510)LCD_WR_REG(0X2800);	//关闭显示
 566              		.loc 1 118 66 discriminator 5 view .LVU113
 567 003e 2820     		movs	r0, #40
 568 0040 FFF7FEFF 		bl	LCD_WR_REG
 569              	.LVL28:
 570              	.L45:
 571              		.loc 1 120 1 is_stmt 0 view .LVU114
 572 0044 08BD     		pop	{r3, pc}
 573              	.L53:
 574 0046 00BF     		.align	2
 575              	.L52:
 576 0048 00000000 		.word	lcdltdc
ARM GAS  /tmp/cc83C5OS.s 			page 13


 577 004c 00000000 		.word	.LANCHOR0
 578              		.cfi_endproc
 579              	.LFE137:
 581              		.section	.text.LCD_DrawPoint,"ax",%progbits
 582              		.align	1
 583              		.global	LCD_DrawPoint
 584              		.syntax unified
 585              		.thumb
 586              		.thumb_func
 587              		.fpu fpv4-sp-d16
 589              	LCD_DrawPoint:
 590              	.LVL29:
 591              	.LFB138:
 121:HADRWARE/LCD/lcd.c ****  		 
 122:HADRWARE/LCD/lcd.c ****      
 123:HADRWARE/LCD/lcd.c **** //画点
 124:HADRWARE/LCD/lcd.c **** //x,y:坐标
 125:HADRWARE/LCD/lcd.c **** //POINT_COLOR:此点的颜色
 126:HADRWARE/LCD/lcd.c **** void LCD_DrawPoint(u16 x,u16 y)
 127:HADRWARE/LCD/lcd.c **** {
 592              		.loc 1 127 1 is_stmt 1 view -0
 593              		.cfi_startproc
 594              		@ args = 0, pretend = 0, frame = 0
 595              		@ frame_needed = 0, uses_anonymous_args = 0
 596              		.loc 1 127 1 is_stmt 0 view .LVU116
 597 0000 08B5     		push	{r3, lr}
 598              	.LCFI10:
 599              		.cfi_def_cfa_offset 8
 600              		.cfi_offset 3, -8
 601              		.cfi_offset 14, -4
 128:HADRWARE/LCD/lcd.c **** 	if(lcdltdc.pwidth!=0)//如果是RGB屏
 602              		.loc 1 128 2 is_stmt 1 view .LVU117
 603              		.loc 1 128 12 is_stmt 0 view .LVU118
 604 0002 044B     		ldr	r3, .L58
 605 0004 1B68     		ldr	r3, [r3]
 606              		.loc 1 128 4 view .LVU119
 607 0006 03B9     		cbnz	r3, .L57
 608              	.LVL30:
 609              	.L54:
 129:HADRWARE/LCD/lcd.c **** 	{
 130:HADRWARE/LCD/lcd.c **** 		LTDC_Draw_Point(x,y,POINT_COLOR);
 131:HADRWARE/LCD/lcd.c **** 	}
 132:HADRWARE/LCD/lcd.c **** }
 610              		.loc 1 132 1 view .LVU120
 611 0008 08BD     		pop	{r3, pc}
 612              	.LVL31:
 613              	.L57:
 130:HADRWARE/LCD/lcd.c **** 	}
 614              		.loc 1 130 3 is_stmt 1 view .LVU121
 615 000a 034B     		ldr	r3, .L58+4
 616 000c 1A68     		ldr	r2, [r3]
 617 000e FFF7FEFF 		bl	LTDC_Draw_Point
 618              	.LVL32:
 619              		.loc 1 132 1 is_stmt 0 view .LVU122
 620 0012 F9E7     		b	.L54
 621              	.L59:
 622              		.align	2
ARM GAS  /tmp/cc83C5OS.s 			page 14


 623              	.L58:
 624 0014 00000000 		.word	lcdltdc
 625 0018 00000000 		.word	.LANCHOR1
 626              		.cfi_endproc
 627              	.LFE138:
 629              		.section	.text.LCD_Fast_DrawPoint,"ax",%progbits
 630              		.align	1
 631              		.global	LCD_Fast_DrawPoint
 632              		.syntax unified
 633              		.thumb
 634              		.thumb_func
 635              		.fpu fpv4-sp-d16
 637              	LCD_Fast_DrawPoint:
 638              	.LVL33:
 639              	.LFB139:
 133:HADRWARE/LCD/lcd.c **** //快速画点
 134:HADRWARE/LCD/lcd.c **** //x,y:坐标
 135:HADRWARE/LCD/lcd.c **** //color:颜色
 136:HADRWARE/LCD/lcd.c **** void LCD_Fast_DrawPoint(u16 x,u16 y,u32 color)
 137:HADRWARE/LCD/lcd.c **** {	   
 640              		.loc 1 137 1 is_stmt 1 view -0
 641              		.cfi_startproc
 642              		@ args = 0, pretend = 0, frame = 0
 643              		@ frame_needed = 0, uses_anonymous_args = 0
 644              		.loc 1 137 1 is_stmt 0 view .LVU124
 645 0000 08B5     		push	{r3, lr}
 646              	.LCFI11:
 647              		.cfi_def_cfa_offset 8
 648              		.cfi_offset 3, -8
 649              		.cfi_offset 14, -4
 138:HADRWARE/LCD/lcd.c **** 	if(lcdltdc.pwidth!=0)//如果是RGB屏
 650              		.loc 1 138 2 is_stmt 1 view .LVU125
 651              		.loc 1 138 12 is_stmt 0 view .LVU126
 652 0002 034B     		ldr	r3, .L64
 653 0004 1B68     		ldr	r3, [r3]
 654              		.loc 1 138 4 view .LVU127
 655 0006 03B9     		cbnz	r3, .L63
 656              	.LVL34:
 657              	.L60:
 139:HADRWARE/LCD/lcd.c **** 	{
 140:HADRWARE/LCD/lcd.c **** 		LTDC_Draw_Point(x,y,color);
 141:HADRWARE/LCD/lcd.c **** 		return;
 142:HADRWARE/LCD/lcd.c **** 	}		 
 143:HADRWARE/LCD/lcd.c **** }	 
 658              		.loc 1 143 1 view .LVU128
 659 0008 08BD     		pop	{r3, pc}
 660              	.LVL35:
 661              	.L63:
 140:HADRWARE/LCD/lcd.c **** 		return;
 662              		.loc 1 140 3 is_stmt 1 view .LVU129
 663 000a FFF7FEFF 		bl	LTDC_Draw_Point
 664              	.LVL36:
 141:HADRWARE/LCD/lcd.c **** 	}		 
 665              		.loc 1 141 3 view .LVU130
 666 000e FBE7     		b	.L60
 667              	.L65:
 668              		.align	2
ARM GAS  /tmp/cc83C5OS.s 			page 15


 669              	.L64:
 670 0010 00000000 		.word	lcdltdc
 671              		.cfi_endproc
 672              	.LFE139:
 674              		.global	__aeabi_i2d
 675              		.global	__aeabi_dmul
 676              		.global	__aeabi_d2uiz
 677              		.section	.text.LCD_SSD_BackLightSet,"ax",%progbits
 678              		.align	1
 679              		.global	LCD_SSD_BackLightSet
 680              		.syntax unified
 681              		.thumb
 682              		.thumb_func
 683              		.fpu fpv4-sp-d16
 685              	LCD_SSD_BackLightSet:
 686              	.LVL37:
 687              	.LFB140:
 144:HADRWARE/LCD/lcd.c **** //SSD1963 背光设置
 145:HADRWARE/LCD/lcd.c **** //pwm:背光等级,0~100.越大越亮.
 146:HADRWARE/LCD/lcd.c **** void LCD_SSD_BackLightSet(u8 pwm)
 147:HADRWARE/LCD/lcd.c **** {	
 688              		.loc 1 147 1 view -0
 689              		.cfi_startproc
 690              		@ args = 0, pretend = 0, frame = 0
 691              		@ frame_needed = 0, uses_anonymous_args = 0
 692              		.loc 1 147 1 is_stmt 0 view .LVU132
 693 0000 10B5     		push	{r4, lr}
 694              	.LCFI12:
 695              		.cfi_def_cfa_offset 8
 696              		.cfi_offset 4, -8
 697              		.cfi_offset 14, -4
 698 0002 0446     		mov	r4, r0
 148:HADRWARE/LCD/lcd.c **** 	LCD_WR_REG(0xBE);	//配置PWM输出
 699              		.loc 1 148 2 is_stmt 1 view .LVU133
 700 0004 BE20     		movs	r0, #190
 701              	.LVL38:
 702              		.loc 1 148 2 is_stmt 0 view .LVU134
 703 0006 FFF7FEFF 		bl	LCD_WR_REG
 704              	.LVL39:
 149:HADRWARE/LCD/lcd.c **** 	LCD_WR_DATA(0x05);	//1设置PWM频率
 705              		.loc 1 149 2 is_stmt 1 view .LVU135
 706 000a 0520     		movs	r0, #5
 707 000c FFF7FEFF 		bl	LCD_WR_DATA
 708              	.LVL40:
 150:HADRWARE/LCD/lcd.c **** 	LCD_WR_DATA(pwm*2.55);//2设置PWM占空比
 709              		.loc 1 150 2 view .LVU136
 710              		.loc 1 150 17 is_stmt 0 view .LVU137
 711 0010 2046     		mov	r0, r4
 712 0012 FFF7FEFF 		bl	__aeabi_i2d
 713              	.LVL41:
 714 0016 0CA3     		adr	r3, .L68
 715 0018 D3E90023 		ldrd	r2, [r3]
 716 001c FFF7FEFF 		bl	__aeabi_dmul
 717              	.LVL42:
 718              		.loc 1 150 2 view .LVU138
 719 0020 FFF7FEFF 		bl	__aeabi_d2uiz
 720              	.LVL43:
ARM GAS  /tmp/cc83C5OS.s 			page 16


 721 0024 80B2     		uxth	r0, r0
 722 0026 FFF7FEFF 		bl	LCD_WR_DATA
 723              	.LVL44:
 151:HADRWARE/LCD/lcd.c **** 	LCD_WR_DATA(0x01);	//3设置C
 724              		.loc 1 151 2 is_stmt 1 view .LVU139
 725 002a 0120     		movs	r0, #1
 726 002c FFF7FEFF 		bl	LCD_WR_DATA
 727              	.LVL45:
 152:HADRWARE/LCD/lcd.c **** 	LCD_WR_DATA(0xFF);	//4设置D
 728              		.loc 1 152 2 view .LVU140
 729 0030 FF20     		movs	r0, #255
 730 0032 FFF7FEFF 		bl	LCD_WR_DATA
 731              	.LVL46:
 153:HADRWARE/LCD/lcd.c **** 	LCD_WR_DATA(0x00);	//5设置E
 732              		.loc 1 153 2 view .LVU141
 733 0036 0020     		movs	r0, #0
 734 0038 FFF7FEFF 		bl	LCD_WR_DATA
 735              	.LVL47:
 154:HADRWARE/LCD/lcd.c **** 	LCD_WR_DATA(0x00);	//6设置F
 736              		.loc 1 154 2 view .LVU142
 737 003c 0020     		movs	r0, #0
 738 003e FFF7FEFF 		bl	LCD_WR_DATA
 739              	.LVL48:
 155:HADRWARE/LCD/lcd.c **** }
 740              		.loc 1 155 1 is_stmt 0 view .LVU143
 741 0042 10BD     		pop	{r4, pc}
 742              	.L69:
 743 0044 AFF30080 		.align	3
 744              	.L68:
 745 0048 66666666 		.word	1717986918
 746 004c 66660440 		.word	1074030182
 747              		.cfi_endproc
 748              	.LFE140:
 750              		.section	.text.LCD_Display_Dir,"ax",%progbits
 751              		.align	1
 752              		.global	LCD_Display_Dir
 753              		.syntax unified
 754              		.thumb
 755              		.thumb_func
 756              		.fpu fpv4-sp-d16
 758              	LCD_Display_Dir:
 759              	.LVL49:
 760              	.LFB141:
 156:HADRWARE/LCD/lcd.c **** 
 157:HADRWARE/LCD/lcd.c **** //设置LCD显示方向
 158:HADRWARE/LCD/lcd.c **** //dir:0,竖屏；1,横屏
 159:HADRWARE/LCD/lcd.c **** void LCD_Display_Dir(u8 dir)
 160:HADRWARE/LCD/lcd.c **** {
 761              		.loc 1 160 1 is_stmt 1 view -0
 762              		.cfi_startproc
 763              		@ args = 0, pretend = 0, frame = 0
 764              		@ frame_needed = 0, uses_anonymous_args = 0
 765              		.loc 1 160 1 is_stmt 0 view .LVU145
 766 0000 08B5     		push	{r3, lr}
 767              	.LCFI13:
 768              		.cfi_def_cfa_offset 8
 769              		.cfi_offset 3, -8
ARM GAS  /tmp/cc83C5OS.s 			page 17


 770              		.cfi_offset 14, -4
 161:HADRWARE/LCD/lcd.c **** 	lcddev.dir=dir;		//竖屏/横屏
 771              		.loc 1 161 2 is_stmt 1 view .LVU146
 772              		.loc 1 161 12 is_stmt 0 view .LVU147
 773 0002 074B     		ldr	r3, .L74
 774 0004 9871     		strb	r0, [r3, #6]
 162:HADRWARE/LCD/lcd.c **** 	if(lcdltdc.pwidth!=0)//如果是RGB屏
 775              		.loc 1 162 2 is_stmt 1 view .LVU148
 776              		.loc 1 162 12 is_stmt 0 view .LVU149
 777 0006 074B     		ldr	r3, .L74+4
 778 0008 1B68     		ldr	r3, [r3]
 779              		.loc 1 162 4 view .LVU150
 780 000a 03B9     		cbnz	r3, .L73
 781              	.LVL50:
 782              	.L70:
 163:HADRWARE/LCD/lcd.c **** 	{
 164:HADRWARE/LCD/lcd.c **** 		LTDC_Display_Dir(dir);
 165:HADRWARE/LCD/lcd.c **** 		lcddev.width=lcdltdc.width;
 166:HADRWARE/LCD/lcd.c **** 		lcddev.height=lcdltdc.height;
 167:HADRWARE/LCD/lcd.c **** 		return;
 168:HADRWARE/LCD/lcd.c **** 	}
 169:HADRWARE/LCD/lcd.c **** }	 
 783              		.loc 1 169 1 view .LVU151
 784 000c 08BD     		pop	{r3, pc}
 785              	.LVL51:
 786              	.L73:
 164:HADRWARE/LCD/lcd.c **** 		lcddev.width=lcdltdc.width;
 787              		.loc 1 164 3 is_stmt 1 view .LVU152
 788 000e FFF7FEFF 		bl	LTDC_Display_Dir
 789              	.LVL52:
 165:HADRWARE/LCD/lcd.c **** 		lcddev.height=lcdltdc.height;
 790              		.loc 1 165 3 view .LVU153
 165:HADRWARE/LCD/lcd.c **** 		lcddev.height=lcdltdc.height;
 791              		.loc 1 165 23 is_stmt 0 view .LVU154
 792 0012 044A     		ldr	r2, .L74+4
 793 0014 D18A     		ldrh	r1, [r2, #22]
 165:HADRWARE/LCD/lcd.c **** 		lcddev.height=lcdltdc.height;
 794              		.loc 1 165 15 view .LVU155
 795 0016 024B     		ldr	r3, .L74
 796 0018 1980     		strh	r1, [r3]	@ movhi
 166:HADRWARE/LCD/lcd.c **** 		return;
 797              		.loc 1 166 3 is_stmt 1 view .LVU156
 166:HADRWARE/LCD/lcd.c **** 		return;
 798              		.loc 1 166 24 is_stmt 0 view .LVU157
 799 001a 128B     		ldrh	r2, [r2, #24]
 166:HADRWARE/LCD/lcd.c **** 		return;
 800              		.loc 1 166 16 view .LVU158
 801 001c 5A80     		strh	r2, [r3, #2]	@ movhi
 167:HADRWARE/LCD/lcd.c **** 	}
 802              		.loc 1 167 3 is_stmt 1 view .LVU159
 803 001e F5E7     		b	.L70
 804              	.L75:
 805              		.align	2
 806              	.L74:
 807 0020 00000000 		.word	.LANCHOR0
 808 0024 00000000 		.word	lcdltdc
 809              		.cfi_endproc
ARM GAS  /tmp/cc83C5OS.s 			page 18


 810              	.LFE141:
 812              		.section	.text.LCD_Clear,"ax",%progbits
 813              		.align	1
 814              		.global	LCD_Clear
 815              		.syntax unified
 816              		.thumb
 817              		.thumb_func
 818              		.fpu fpv4-sp-d16
 820              	LCD_Clear:
 821              	.LVL53:
 822              	.LFB143:
 170:HADRWARE/LCD/lcd.c **** 
 171:HADRWARE/LCD/lcd.c **** //初始化lcd
 172:HADRWARE/LCD/lcd.c **** //该初始化函数可以初始化各种型号的LCD(详见本.c文件最前面的描述)
 173:HADRWARE/LCD/lcd.c **** void LCD_Init(void)
 174:HADRWARE/LCD/lcd.c **** { 	 
 175:HADRWARE/LCD/lcd.c **** 	lcddev.id=LTDC_PanelID_Read();	//检查是否有RGB屏接入
 176:HADRWARE/LCD/lcd.c **** 	if(lcddev.id!=0)
 177:HADRWARE/LCD/lcd.c **** 	{
 178:HADRWARE/LCD/lcd.c **** 		__LTDC_Init();				//ID非零,说明有RGB屏接入. 
 179:HADRWARE/LCD/lcd.c **** 	}
 180:HADRWARE/LCD/lcd.c **** 	//初始化完成以后,提速
 181:HADRWARE/LCD/lcd.c **** 	if(lcddev.id==0X9341||lcddev.id==0X5310||lcddev.id==0X5510||lcddev.id==0X1963)//如果是这几个
 182:HADRWARE/LCD/lcd.c **** 	{
 183:HADRWARE/LCD/lcd.c **** 		//重新配置写时序控制寄存器的时序   	 							    
 184:HADRWARE/LCD/lcd.c **** 		FMC_Bank1E->BWTR[0]&=~(0XF<<0);	//地址建立时间(ADDSET)清零 	 
 185:HADRWARE/LCD/lcd.c **** 		FMC_Bank1E->BWTR[0]&=~(0XF<<8);	//数据保存时间清零
 186:HADRWARE/LCD/lcd.c **** 		FMC_Bank1E->BWTR[0]|=4<<0;	 	//地址建立时间(ADDSET)为4个HCLK =21ns  	 
 187:HADRWARE/LCD/lcd.c **** 		FMC_Bank1E->BWTR[0]|=4<<8; 		//数据保存时间(DATAST)为5.2ns*4个HCLK=21ns
 188:HADRWARE/LCD/lcd.c **** 	} 
 189:HADRWARE/LCD/lcd.c **** 	LCD_Display_Dir(1);		//默认为竖屏
 190:HADRWARE/LCD/lcd.c **** 	LCD_LED=1;				//点亮背光
 191:HADRWARE/LCD/lcd.c **** 	LCD_Clear(WHITE);
 192:HADRWARE/LCD/lcd.c **** }  
 193:HADRWARE/LCD/lcd.c **** //清屏函数
 194:HADRWARE/LCD/lcd.c **** //color:要清屏的填充色
 195:HADRWARE/LCD/lcd.c **** void LCD_Clear(u32 color)
 196:HADRWARE/LCD/lcd.c **** {
 823              		.loc 1 196 1 view -0
 824              		.cfi_startproc
 825              		@ args = 0, pretend = 0, frame = 0
 826              		@ frame_needed = 0, uses_anonymous_args = 0
 827              		.loc 1 196 1 is_stmt 0 view .LVU161
 828 0000 08B5     		push	{r3, lr}
 829              	.LCFI14:
 830              		.cfi_def_cfa_offset 8
 831              		.cfi_offset 3, -8
 832              		.cfi_offset 14, -4
 197:HADRWARE/LCD/lcd.c **** 	u32 index=0;      
 833              		.loc 1 197 2 is_stmt 1 view .LVU162
 834              	.LVL54:
 198:HADRWARE/LCD/lcd.c **** 	u32 totalpoint=lcddev.width;
 835              		.loc 1 198 2 view .LVU163
 199:HADRWARE/LCD/lcd.c **** 	if(lcdltdc.pwidth!=0)	//如果是RGB屏
 836              		.loc 1 199 2 view .LVU164
 837              		.loc 1 199 12 is_stmt 0 view .LVU165
 838 0002 034B     		ldr	r3, .L80
ARM GAS  /tmp/cc83C5OS.s 			page 19


 839 0004 1B68     		ldr	r3, [r3]
 840              		.loc 1 199 4 view .LVU166
 841 0006 03B9     		cbnz	r3, .L79
 842              	.LVL55:
 843              	.L76:
 200:HADRWARE/LCD/lcd.c **** 	{
 201:HADRWARE/LCD/lcd.c **** 		LTDC_Clear(color);
 202:HADRWARE/LCD/lcd.c **** 	}
 203:HADRWARE/LCD/lcd.c **** }  
 844              		.loc 1 203 1 view .LVU167
 845 0008 08BD     		pop	{r3, pc}
 846              	.LVL56:
 847              	.L79:
 201:HADRWARE/LCD/lcd.c **** 	}
 848              		.loc 1 201 3 is_stmt 1 view .LVU168
 849 000a FFF7FEFF 		bl	LTDC_Clear
 850              	.LVL57:
 851              		.loc 1 203 1 is_stmt 0 view .LVU169
 852 000e FBE7     		b	.L76
 853              	.L81:
 854              		.align	2
 855              	.L80:
 856 0010 00000000 		.word	lcdltdc
 857              		.cfi_endproc
 858              	.LFE143:
 860              		.section	.text.LCD_Init,"ax",%progbits
 861              		.align	1
 862              		.global	LCD_Init
 863              		.syntax unified
 864              		.thumb
 865              		.thumb_func
 866              		.fpu fpv4-sp-d16
 868              	LCD_Init:
 869              	.LFB142:
 174:HADRWARE/LCD/lcd.c **** 	lcddev.id=LTDC_PanelID_Read();	//检查是否有RGB屏接入
 870              		.loc 1 174 1 is_stmt 1 view -0
 871              		.cfi_startproc
 872              		@ args = 0, pretend = 0, frame = 0
 873              		@ frame_needed = 0, uses_anonymous_args = 0
 874 0000 08B5     		push	{r3, lr}
 875              	.LCFI15:
 876              		.cfi_def_cfa_offset 8
 877              		.cfi_offset 3, -8
 878              		.cfi_offset 14, -4
 175:HADRWARE/LCD/lcd.c **** 	if(lcddev.id!=0)
 879              		.loc 1 175 2 view .LVU171
 175:HADRWARE/LCD/lcd.c **** 	if(lcddev.id!=0)
 880              		.loc 1 175 12 is_stmt 0 view .LVU172
 881 0002 FFF7FEFF 		bl	LTDC_PanelID_Read
 882              	.LVL58:
 175:HADRWARE/LCD/lcd.c **** 	if(lcddev.id!=0)
 883              		.loc 1 175 11 view .LVU173
 884 0006 1A4B     		ldr	r3, .L88
 885 0008 9880     		strh	r0, [r3, #4]	@ movhi
 176:HADRWARE/LCD/lcd.c **** 	{
 886              		.loc 1 176 2 is_stmt 1 view .LVU174
 176:HADRWARE/LCD/lcd.c **** 	{
ARM GAS  /tmp/cc83C5OS.s 			page 20


 887              		.loc 1 176 4 is_stmt 0 view .LVU175
 888 000a 70BB     		cbnz	r0, .L87
 889              	.L83:
 181:HADRWARE/LCD/lcd.c **** 	{
 890              		.loc 1 181 2 is_stmt 1 view .LVU176
 181:HADRWARE/LCD/lcd.c **** 	{
 891              		.loc 1 181 11 is_stmt 0 view .LVU177
 892 000c 184B     		ldr	r3, .L88
 893 000e 9B88     		ldrh	r3, [r3, #4]
 181:HADRWARE/LCD/lcd.c **** 	{
 894              		.loc 1 181 4 view .LVU178
 895 0010 49F24132 		movw	r2, #37697
 896 0014 9342     		cmp	r3, r2
 897 0016 0BD0     		beq	.L84
 181:HADRWARE/LCD/lcd.c **** 	{
 898              		.loc 1 181 22 discriminator 1 view .LVU179
 899 0018 45F21032 		movw	r2, #21264
 900 001c 9342     		cmp	r3, r2
 901 001e 07D0     		beq	.L84
 181:HADRWARE/LCD/lcd.c **** 	{
 902              		.loc 1 181 41 discriminator 2 view .LVU180
 903 0020 45F21052 		movw	r2, #21776
 904 0024 9342     		cmp	r3, r2
 905 0026 03D0     		beq	.L84
 181:HADRWARE/LCD/lcd.c **** 	{
 906              		.loc 1 181 60 discriminator 3 view .LVU181
 907 0028 41F66312 		movw	r2, #6499
 908 002c 9342     		cmp	r3, r2
 909 002e 10D1     		bne	.L85
 910              	.L84:
 184:HADRWARE/LCD/lcd.c **** 		FMC_Bank1E->BWTR[0]&=~(0XF<<8);	//数据保存时间清零
 911              		.loc 1 184 3 is_stmt 1 view .LVU182
 184:HADRWARE/LCD/lcd.c **** 		FMC_Bank1E->BWTR[0]&=~(0XF<<8);	//数据保存时间清零
 912              		.loc 1 184 22 is_stmt 0 view .LVU183
 913 0030 104B     		ldr	r3, .L88+4
 914 0032 5A68     		ldr	r2, [r3, #4]
 915 0034 22F00F02 		bic	r2, r2, #15
 916 0038 5A60     		str	r2, [r3, #4]
 185:HADRWARE/LCD/lcd.c **** 		FMC_Bank1E->BWTR[0]|=4<<0;	 	//地址建立时间(ADDSET)为4个HCLK =21ns  	 
 917              		.loc 1 185 3 is_stmt 1 view .LVU184
 185:HADRWARE/LCD/lcd.c **** 		FMC_Bank1E->BWTR[0]|=4<<0;	 	//地址建立时间(ADDSET)为4个HCLK =21ns  	 
 918              		.loc 1 185 22 is_stmt 0 view .LVU185
 919 003a 5A68     		ldr	r2, [r3, #4]
 920 003c 22F47062 		bic	r2, r2, #3840
 921 0040 5A60     		str	r2, [r3, #4]
 186:HADRWARE/LCD/lcd.c **** 		FMC_Bank1E->BWTR[0]|=4<<8; 		//数据保存时间(DATAST)为5.2ns*4个HCLK=21ns
 922              		.loc 1 186 3 is_stmt 1 view .LVU186
 186:HADRWARE/LCD/lcd.c **** 		FMC_Bank1E->BWTR[0]|=4<<8; 		//数据保存时间(DATAST)为5.2ns*4个HCLK=21ns
 923              		.loc 1 186 22 is_stmt 0 view .LVU187
 924 0042 5A68     		ldr	r2, [r3, #4]
 925 0044 42F00402 		orr	r2, r2, #4
 926 0048 5A60     		str	r2, [r3, #4]
 187:HADRWARE/LCD/lcd.c **** 	} 
 927              		.loc 1 187 3 is_stmt 1 view .LVU188
 187:HADRWARE/LCD/lcd.c **** 	} 
 928              		.loc 1 187 22 is_stmt 0 view .LVU189
 929 004a 5A68     		ldr	r2, [r3, #4]
ARM GAS  /tmp/cc83C5OS.s 			page 21


 930 004c 42F48062 		orr	r2, r2, #1024
 931 0050 5A60     		str	r2, [r3, #4]
 932              	.L85:
 189:HADRWARE/LCD/lcd.c **** 	LCD_LED=1;				//点亮背光
 933              		.loc 1 189 2 is_stmt 1 view .LVU190
 934 0052 0120     		movs	r0, #1
 935 0054 FFF7FEFF 		bl	LCD_Display_Dir
 936              	.LVL59:
 190:HADRWARE/LCD/lcd.c **** 	LCD_Clear(WHITE);
 937              		.loc 1 190 2 view .LVU191
 190:HADRWARE/LCD/lcd.c **** 	LCD_Clear(WHITE);
 938              		.loc 1 190 9 is_stmt 0 view .LVU192
 939 0058 074B     		ldr	r3, .L88+8
 940 005a 0122     		movs	r2, #1
 941 005c C3F89422 		str	r2, [r3, #660]
 191:HADRWARE/LCD/lcd.c **** }  
 942              		.loc 1 191 2 is_stmt 1 view .LVU193
 943 0060 4FF6FF70 		movw	r0, #65535
 944 0064 FFF7FEFF 		bl	LCD_Clear
 945              	.LVL60:
 192:HADRWARE/LCD/lcd.c **** //清屏函数
 946              		.loc 1 192 1 is_stmt 0 view .LVU194
 947 0068 08BD     		pop	{r3, pc}
 948              	.L87:
 178:HADRWARE/LCD/lcd.c **** 	}
 949              		.loc 1 178 3 is_stmt 1 view .LVU195
 950 006a FFF7FEFF 		bl	__LTDC_Init
 951              	.LVL61:
 952 006e CDE7     		b	.L83
 953              	.L89:
 954              		.align	2
 955              	.L88:
 956 0070 00000000 		.word	.LANCHOR0
 957 0074 000100A0 		.word	-1610612480
 958 0078 00804042 		.word	1111523328
 959              		.cfi_endproc
 960              	.LFE142:
 962              		.section	.text.LCD_Fill,"ax",%progbits
 963              		.align	1
 964              		.global	LCD_Fill
 965              		.syntax unified
 966              		.thumb
 967              		.thumb_func
 968              		.fpu fpv4-sp-d16
 970              	LCD_Fill:
 971              	.LVL62:
 972              	.LFB144:
 204:HADRWARE/LCD/lcd.c **** //在指定区域内填充单个颜色
 205:HADRWARE/LCD/lcd.c **** //(sx,sy),(ex,ey):填充矩形对角坐标,区域大小为:(ex-sx+1)*(ey-sy+1)   
 206:HADRWARE/LCD/lcd.c **** //color:要填充的颜色
 207:HADRWARE/LCD/lcd.c **** void LCD_Fill(u16 sx,u16 sy,u16 ex,u16 ey,u32 color)
 208:HADRWARE/LCD/lcd.c **** {          
 973              		.loc 1 208 1 view -0
 974              		.cfi_startproc
 975              		@ args = 4, pretend = 0, frame = 0
 976              		@ frame_needed = 0, uses_anonymous_args = 0
 977              		.loc 1 208 1 is_stmt 0 view .LVU197
ARM GAS  /tmp/cc83C5OS.s 			page 22


 978 0000 10B5     		push	{r4, lr}
 979              	.LCFI16:
 980              		.cfi_def_cfa_offset 8
 981              		.cfi_offset 4, -8
 982              		.cfi_offset 14, -4
 983 0002 82B0     		sub	sp, sp, #8
 984              	.LCFI17:
 985              		.cfi_def_cfa_offset 16
 209:HADRWARE/LCD/lcd.c **** 	u16 i,j;
 986              		.loc 1 209 2 is_stmt 1 view .LVU198
 210:HADRWARE/LCD/lcd.c **** 	u16 xlen=0;
 987              		.loc 1 210 2 view .LVU199
 988              	.LVL63:
 211:HADRWARE/LCD/lcd.c **** 	if(lcdltdc.pwidth!=0)	//如果是RGB屏
 989              		.loc 1 211 2 view .LVU200
 990              		.loc 1 211 12 is_stmt 0 view .LVU201
 991 0004 044C     		ldr	r4, .L94
 992 0006 2468     		ldr	r4, [r4]
 993              		.loc 1 211 4 view .LVU202
 994 0008 0CB9     		cbnz	r4, .L93
 995              	.LVL64:
 996              	.L90:
 212:HADRWARE/LCD/lcd.c **** 	{
 213:HADRWARE/LCD/lcd.c **** 		LTDC_Fill(sx,sy,ex,ey,color);
 214:HADRWARE/LCD/lcd.c **** 	}
 215:HADRWARE/LCD/lcd.c **** }  
 997              		.loc 1 215 1 view .LVU203
 998 000a 02B0     		add	sp, sp, #8
 999              	.LCFI18:
 1000              		.cfi_remember_state
 1001              		.cfi_def_cfa_offset 8
 1002              		@ sp needed
 1003 000c 10BD     		pop	{r4, pc}
 1004              	.LVL65:
 1005              	.L93:
 1006              	.LCFI19:
 1007              		.cfi_restore_state
 213:HADRWARE/LCD/lcd.c **** 	}
 1008              		.loc 1 213 3 is_stmt 1 view .LVU204
 1009 000e 049C     		ldr	r4, [sp, #16]
 1010 0010 0094     		str	r4, [sp]
 1011 0012 FFF7FEFF 		bl	LTDC_Fill
 1012              	.LVL66:
 1013              		.loc 1 215 1 is_stmt 0 view .LVU205
 1014 0016 F8E7     		b	.L90
 1015              	.L95:
 1016              		.align	2
 1017              	.L94:
 1018 0018 00000000 		.word	lcdltdc
 1019              		.cfi_endproc
 1020              	.LFE144:
 1022              		.section	.text.LCD_Color_Fill,"ax",%progbits
 1023              		.align	1
 1024              		.global	LCD_Color_Fill
 1025              		.syntax unified
 1026              		.thumb
 1027              		.thumb_func
ARM GAS  /tmp/cc83C5OS.s 			page 23


 1028              		.fpu fpv4-sp-d16
 1030              	LCD_Color_Fill:
 1031              	.LVL67:
 1032              	.LFB145:
 216:HADRWARE/LCD/lcd.c **** //在指定区域内填充指定颜色块			 
 217:HADRWARE/LCD/lcd.c **** //(sx,sy),(ex,ey):填充矩形对角坐标,区域大小为:(ex-sx+1)*(ey-sy+1)   
 218:HADRWARE/LCD/lcd.c **** //color:要填充的颜色
 219:HADRWARE/LCD/lcd.c **** void LCD_Color_Fill(u16 sx,u16 sy,u16 ex,u16 ey,u16 *color)
 220:HADRWARE/LCD/lcd.c **** {  
 1033              		.loc 1 220 1 is_stmt 1 view -0
 1034              		.cfi_startproc
 1035              		@ args = 4, pretend = 0, frame = 0
 1036              		@ frame_needed = 0, uses_anonymous_args = 0
 1037              		.loc 1 220 1 is_stmt 0 view .LVU207
 1038 0000 10B5     		push	{r4, lr}
 1039              	.LCFI20:
 1040              		.cfi_def_cfa_offset 8
 1041              		.cfi_offset 4, -8
 1042              		.cfi_offset 14, -4
 1043 0002 82B0     		sub	sp, sp, #8
 1044              	.LCFI21:
 1045              		.cfi_def_cfa_offset 16
 221:HADRWARE/LCD/lcd.c **** 	u16 height,width;
 1046              		.loc 1 221 2 is_stmt 1 view .LVU208
 222:HADRWARE/LCD/lcd.c **** 	u16 i,j;
 1047              		.loc 1 222 2 view .LVU209
 223:HADRWARE/LCD/lcd.c **** 	if(lcdltdc.pwidth!=0)	//如果是RGB屏
 1048              		.loc 1 223 2 view .LVU210
 1049              		.loc 1 223 12 is_stmt 0 view .LVU211
 1050 0004 044C     		ldr	r4, .L100
 1051 0006 2468     		ldr	r4, [r4]
 1052              		.loc 1 223 4 view .LVU212
 1053 0008 0CB9     		cbnz	r4, .L99
 1054              	.LVL68:
 1055              	.L96:
 224:HADRWARE/LCD/lcd.c **** 	{
 225:HADRWARE/LCD/lcd.c **** 		LTDC_Color_Fill(sx,sy,ex,ey,color);
 226:HADRWARE/LCD/lcd.c **** 	}	
 227:HADRWARE/LCD/lcd.c **** }  
 1056              		.loc 1 227 1 view .LVU213
 1057 000a 02B0     		add	sp, sp, #8
 1058              	.LCFI22:
 1059              		.cfi_remember_state
 1060              		.cfi_def_cfa_offset 8
 1061              		@ sp needed
 1062 000c 10BD     		pop	{r4, pc}
 1063              	.LVL69:
 1064              	.L99:
 1065              	.LCFI23:
 1066              		.cfi_restore_state
 225:HADRWARE/LCD/lcd.c **** 	}	
 1067              		.loc 1 225 3 is_stmt 1 view .LVU214
 1068 000e 049C     		ldr	r4, [sp, #16]
 1069 0010 0094     		str	r4, [sp]
 1070 0012 FFF7FEFF 		bl	LTDC_Color_Fill
 1071              	.LVL70:
 1072              		.loc 1 227 1 is_stmt 0 view .LVU215
ARM GAS  /tmp/cc83C5OS.s 			page 24


 1073 0016 F8E7     		b	.L96
 1074              	.L101:
 1075              		.align	2
 1076              	.L100:
 1077 0018 00000000 		.word	lcdltdc
 1078              		.cfi_endproc
 1079              	.LFE145:
 1081              		.section	.text.LCD_DrawLine,"ax",%progbits
 1082              		.align	1
 1083              		.global	LCD_DrawLine
 1084              		.syntax unified
 1085              		.thumb
 1086              		.thumb_func
 1087              		.fpu fpv4-sp-d16
 1089              	LCD_DrawLine:
 1090              	.LVL71:
 1091              	.LFB146:
 228:HADRWARE/LCD/lcd.c **** //画线
 229:HADRWARE/LCD/lcd.c **** //x1,y1:起点坐标
 230:HADRWARE/LCD/lcd.c **** //x2,y2:终点坐标  
 231:HADRWARE/LCD/lcd.c **** void LCD_DrawLine(u16 x1, u16 y1, u16 x2, u16 y2)
 232:HADRWARE/LCD/lcd.c **** {
 1092              		.loc 1 232 1 is_stmt 1 view -0
 1093              		.cfi_startproc
 1094              		@ args = 0, pretend = 0, frame = 8
 1095              		@ frame_needed = 0, uses_anonymous_args = 0
 1096              		.loc 1 232 1 is_stmt 0 view .LVU217
 1097 0000 2DE9F04F 		push	{r4, r5, r6, r7, r8, r9, r10, fp, lr}
 1098              	.LCFI24:
 1099              		.cfi_def_cfa_offset 36
 1100              		.cfi_offset 4, -36
 1101              		.cfi_offset 5, -32
 1102              		.cfi_offset 6, -28
 1103              		.cfi_offset 7, -24
 1104              		.cfi_offset 8, -20
 1105              		.cfi_offset 9, -16
 1106              		.cfi_offset 10, -12
 1107              		.cfi_offset 11, -8
 1108              		.cfi_offset 14, -4
 1109 0004 83B0     		sub	sp, sp, #12
 1110              	.LCFI25:
 1111              		.cfi_def_cfa_offset 48
 233:HADRWARE/LCD/lcd.c **** 	u16 t; 
 1112              		.loc 1 233 2 is_stmt 1 view .LVU218
 234:HADRWARE/LCD/lcd.c **** 	int xerr=0,yerr=0,delta_x,delta_y,distance; 
 1113              		.loc 1 234 2 view .LVU219
 1114              	.LVL72:
 235:HADRWARE/LCD/lcd.c **** 	int incx,incy,uRow,uCol; 
 1115              		.loc 1 235 2 view .LVU220
 236:HADRWARE/LCD/lcd.c **** 	delta_x=x2-x1; //计算坐标增量 
 1116              		.loc 1 236 2 view .LVU221
 1117              		.loc 1 236 12 is_stmt 0 view .LVU222
 1118 0006 8046     		mov	r8, r0
 1119              		.loc 1 236 9 view .LVU223
 1120 0008 A2EB000A 		sub	r10, r2, r0
 1121              	.LVL73:
 237:HADRWARE/LCD/lcd.c **** 	delta_y=y2-y1; 
ARM GAS  /tmp/cc83C5OS.s 			page 25


 1122              		.loc 1 237 2 is_stmt 1 view .LVU224
 1123              		.loc 1 237 12 is_stmt 0 view .LVU225
 1124 000c 8946     		mov	r9, r1
 1125              		.loc 1 237 9 view .LVU226
 1126 000e A3EB010B 		sub	fp, r3, r1
 1127              	.LVL74:
 238:HADRWARE/LCD/lcd.c **** 	uRow=x1; 
 1128              		.loc 1 238 2 is_stmt 1 view .LVU227
 239:HADRWARE/LCD/lcd.c **** 	uCol=y1; 
 1129              		.loc 1 239 2 view .LVU228
 240:HADRWARE/LCD/lcd.c **** 	if(delta_x>0)incx=1; //设置单步方向 
 1130              		.loc 1 240 2 view .LVU229
 1131              		.loc 1 240 4 is_stmt 0 view .LVU230
 1132 0012 BAF1000F 		cmp	r10, #0
 1133 0016 0DDD     		ble	.L116
 1134              		.loc 1 240 19 view .LVU231
 1135 0018 0122     		movs	r2, #1
 1136              	.LVL75:
 1137              		.loc 1 240 19 view .LVU232
 1138 001a 0092     		str	r2, [sp]
 1139              	.L103:
 1140              	.LVL76:
 241:HADRWARE/LCD/lcd.c **** 	else if(delta_x==0)incx=0;//垂直线 
 242:HADRWARE/LCD/lcd.c **** 	else {incx=-1;delta_x=-delta_x;} 
 243:HADRWARE/LCD/lcd.c **** 	if(delta_y>0)incy=1; 
 1141              		.loc 1 243 2 is_stmt 1 view .LVU233
 1142              		.loc 1 243 4 is_stmt 0 view .LVU234
 1143 001c BBF1000F 		cmp	fp, #0
 1144 0020 14DD     		ble	.L117
 1145              		.loc 1 243 19 view .LVU235
 1146 0022 0123     		movs	r3, #1
 1147              	.LVL77:
 1148              		.loc 1 243 19 view .LVU236
 1149 0024 0193     		str	r3, [sp, #4]
 1150              	.L104:
 1151              	.LVL78:
 244:HADRWARE/LCD/lcd.c **** 	else if(delta_y==0)incy=0;//水平线 
 245:HADRWARE/LCD/lcd.c **** 	else{incy=-1;delta_y=-delta_y;} 
 246:HADRWARE/LCD/lcd.c **** 	if( delta_x>delta_y)distance=delta_x; //选取基本增量坐标轴 
 1152              		.loc 1 246 2 is_stmt 1 view .LVU237
 1153              		.loc 1 246 4 is_stmt 0 view .LVU238
 1154 0026 DA45     		cmp	r10, fp
 1155 0028 1CDD     		ble	.L114
 1156              		.loc 1 246 30 view .LVU239
 1157 002a 5646     		mov	r6, r10
 1158              	.L105:
 1159              	.LVL79:
 247:HADRWARE/LCD/lcd.c **** 	else distance=delta_y; 
 248:HADRWARE/LCD/lcd.c **** 	for(t=0;t<=distance+1;t++ )//画线输出 
 1160              		.loc 1 248 2 is_stmt 1 view .LVU240
 234:HADRWARE/LCD/lcd.c **** 	int incx,incy,uRow,uCol; 
 1161              		.loc 1 234 13 is_stmt 0 view .LVU241
 1162 002c 0025     		movs	r5, #0
 234:HADRWARE/LCD/lcd.c **** 	int incx,incy,uRow,uCol; 
 1163              		.loc 1 234 6 view .LVU242
 1164 002e 2F46     		mov	r7, r5
 1165              		.loc 1 248 7 view .LVU243
ARM GAS  /tmp/cc83C5OS.s 			page 26


 1166 0030 2C46     		mov	r4, r5
 1167              		.loc 1 248 2 view .LVU244
 1168 0032 1BE0     		b	.L106
 1169              	.LVL80:
 1170              	.L116:
 241:HADRWARE/LCD/lcd.c **** 	else {incx=-1;delta_x=-delta_x;} 
 1171              		.loc 1 241 7 is_stmt 1 view .LVU245
 241:HADRWARE/LCD/lcd.c **** 	else {incx=-1;delta_x=-delta_x;} 
 1172              		.loc 1 241 9 is_stmt 0 view .LVU246
 1173 0034 BAF1000F 		cmp	r10, #0
 1174 0038 05D0     		beq	.L111
 242:HADRWARE/LCD/lcd.c **** 	if(delta_y>0)incy=1; 
 1175              		.loc 1 242 8 is_stmt 1 view .LVU247
 1176              	.LVL81:
 242:HADRWARE/LCD/lcd.c **** 	if(delta_y>0)incy=1; 
 1177              		.loc 1 242 16 view .LVU248
 242:HADRWARE/LCD/lcd.c **** 	if(delta_y>0)incy=1; 
 1178              		.loc 1 242 23 is_stmt 0 view .LVU249
 1179 003a A0EB020A 		sub	r10, r0, r2
 1180              	.LVL82:
 242:HADRWARE/LCD/lcd.c **** 	if(delta_y>0)incy=1; 
 1181              		.loc 1 242 12 view .LVU250
 1182 003e 4FF0FF32 		mov	r2, #-1
 1183              	.LVL83:
 242:HADRWARE/LCD/lcd.c **** 	if(delta_y>0)incy=1; 
 1184              		.loc 1 242 12 view .LVU251
 1185 0042 0092     		str	r2, [sp]
 1186 0044 EAE7     		b	.L103
 1187              	.LVL84:
 1188              	.L111:
 241:HADRWARE/LCD/lcd.c **** 	else {incx=-1;delta_x=-delta_x;} 
 1189              		.loc 1 241 25 view .LVU252
 1190 0046 CDF800A0 		str	r10, [sp]
 1191 004a E7E7     		b	.L103
 1192              	.LVL85:
 1193              	.L117:
 244:HADRWARE/LCD/lcd.c **** 	else{incy=-1;delta_y=-delta_y;} 
 1194              		.loc 1 244 7 is_stmt 1 view .LVU253
 244:HADRWARE/LCD/lcd.c **** 	else{incy=-1;delta_y=-delta_y;} 
 1195              		.loc 1 244 9 is_stmt 0 view .LVU254
 1196 004c BBF1000F 		cmp	fp, #0
 1197 0050 05D0     		beq	.L113
 245:HADRWARE/LCD/lcd.c **** 	if( delta_x>delta_y)distance=delta_x; //选取基本增量坐标轴 
 1198              		.loc 1 245 7 is_stmt 1 view .LVU255
 1199              	.LVL86:
 245:HADRWARE/LCD/lcd.c **** 	if( delta_x>delta_y)distance=delta_x; //选取基本增量坐标轴 
 1200              		.loc 1 245 15 view .LVU256
 245:HADRWARE/LCD/lcd.c **** 	if( delta_x>delta_y)distance=delta_x; //选取基本增量坐标轴 
 1201              		.loc 1 245 22 is_stmt 0 view .LVU257
 1202 0052 A1EB030B 		sub	fp, r1, r3
 1203              	.LVL87:
 245:HADRWARE/LCD/lcd.c **** 	if( delta_x>delta_y)distance=delta_x; //选取基本增量坐标轴 
 1204              		.loc 1 245 11 view .LVU258
 1205 0056 4FF0FF33 		mov	r3, #-1
 1206              	.LVL88:
 245:HADRWARE/LCD/lcd.c **** 	if( delta_x>delta_y)distance=delta_x; //选取基本增量坐标轴 
 1207              		.loc 1 245 11 view .LVU259
ARM GAS  /tmp/cc83C5OS.s 			page 27


 1208 005a 0193     		str	r3, [sp, #4]
 1209 005c E3E7     		b	.L104
 1210              	.LVL89:
 1211              	.L113:
 244:HADRWARE/LCD/lcd.c **** 	else{incy=-1;delta_y=-delta_y;} 
 1212              		.loc 1 244 25 view .LVU260
 1213 005e CDF804B0 		str	fp, [sp, #4]
 1214 0062 E0E7     		b	.L104
 1215              	.LVL90:
 1216              	.L114:
 247:HADRWARE/LCD/lcd.c **** 	for(t=0;t<=distance+1;t++ )//画线输出 
 1217              		.loc 1 247 15 view .LVU261
 1218 0064 5E46     		mov	r6, fp
 1219 0066 E1E7     		b	.L105
 1220              	.LVL91:
 1221              	.L108:
 1222              		.loc 1 248 24 is_stmt 1 discriminator 2 view .LVU262
 1223              		.loc 1 248 25 is_stmt 0 discriminator 2 view .LVU263
 1224 0068 0134     		adds	r4, r4, #1
 1225              	.LVL92:
 1226              		.loc 1 248 25 discriminator 2 view .LVU264
 1227 006a A4B2     		uxth	r4, r4
 1228              	.LVL93:
 1229              	.L106:
 1230              		.loc 1 248 10 is_stmt 1 discriminator 1 view .LVU265
 1231              		.loc 1 248 21 is_stmt 0 discriminator 1 view .LVU266
 1232 006c 731C     		adds	r3, r6, #1
 1233              		.loc 1 248 2 discriminator 1 view .LVU267
 1234 006e 9C42     		cmp	r4, r3
 1235 0070 12DC     		bgt	.L118
 249:HADRWARE/LCD/lcd.c **** 	{  
 250:HADRWARE/LCD/lcd.c **** 		LCD_DrawPoint(uRow,uCol);//画点 
 1236              		.loc 1 250 3 is_stmt 1 view .LVU268
 1237 0072 1FFA89F1 		uxth	r1, r9
 1238 0076 1FFA88F0 		uxth	r0, r8
 1239 007a FFF7FEFF 		bl	LCD_DrawPoint
 1240              	.LVL94:
 251:HADRWARE/LCD/lcd.c **** 		xerr+=delta_x ; 
 1241              		.loc 1 251 3 view .LVU269
 1242              		.loc 1 251 7 is_stmt 0 view .LVU270
 1243 007e 5744     		add	r7, r7, r10
 1244              	.LVL95:
 252:HADRWARE/LCD/lcd.c **** 		yerr+=delta_y ; 
 1245              		.loc 1 252 3 is_stmt 1 view .LVU271
 1246              		.loc 1 252 7 is_stmt 0 view .LVU272
 1247 0080 5D44     		add	r5, r5, fp
 1248              	.LVL96:
 253:HADRWARE/LCD/lcd.c **** 		if(xerr>distance) 
 1249              		.loc 1 253 3 is_stmt 1 view .LVU273
 1250              		.loc 1 253 5 is_stmt 0 view .LVU274
 1251 0082 BE42     		cmp	r6, r7
 1252 0084 02DA     		bge	.L107
 254:HADRWARE/LCD/lcd.c **** 		{ 
 255:HADRWARE/LCD/lcd.c **** 			xerr-=distance; 
 1253              		.loc 1 255 4 is_stmt 1 view .LVU275
 1254              		.loc 1 255 8 is_stmt 0 view .LVU276
 1255 0086 BF1B     		subs	r7, r7, r6
ARM GAS  /tmp/cc83C5OS.s 			page 28


 1256              	.LVL97:
 256:HADRWARE/LCD/lcd.c **** 			uRow+=incx; 
 1257              		.loc 1 256 4 is_stmt 1 view .LVU277
 1258              		.loc 1 256 8 is_stmt 0 view .LVU278
 1259 0088 009B     		ldr	r3, [sp]
 1260 008a 9844     		add	r8, r8, r3
 1261              	.LVL98:
 1262              	.L107:
 257:HADRWARE/LCD/lcd.c **** 		} 
 258:HADRWARE/LCD/lcd.c **** 		if(yerr>distance) 
 1263              		.loc 1 258 3 is_stmt 1 view .LVU279
 1264              		.loc 1 258 5 is_stmt 0 view .LVU280
 1265 008c AE42     		cmp	r6, r5
 1266 008e EBDA     		bge	.L108
 259:HADRWARE/LCD/lcd.c **** 		{ 
 260:HADRWARE/LCD/lcd.c **** 			yerr-=distance; 
 1267              		.loc 1 260 4 is_stmt 1 view .LVU281
 1268              		.loc 1 260 8 is_stmt 0 view .LVU282
 1269 0090 AD1B     		subs	r5, r5, r6
 1270              	.LVL99:
 261:HADRWARE/LCD/lcd.c **** 			uCol+=incy; 
 1271              		.loc 1 261 4 is_stmt 1 view .LVU283
 1272              		.loc 1 261 8 is_stmt 0 view .LVU284
 1273 0092 019B     		ldr	r3, [sp, #4]
 1274 0094 9944     		add	r9, r9, r3
 1275              	.LVL100:
 1276              		.loc 1 261 8 view .LVU285
 1277 0096 E7E7     		b	.L108
 1278              	.L118:
 262:HADRWARE/LCD/lcd.c **** 		} 
 263:HADRWARE/LCD/lcd.c **** 	}  
 264:HADRWARE/LCD/lcd.c **** }    
 1279              		.loc 1 264 1 view .LVU286
 1280 0098 03B0     		add	sp, sp, #12
 1281              	.LCFI26:
 1282              		.cfi_def_cfa_offset 36
 1283              	.LVL101:
 1284              		.loc 1 264 1 view .LVU287
 1285              		@ sp needed
 1286 009a BDE8F08F 		pop	{r4, r5, r6, r7, r8, r9, r10, fp, pc}
 1287              		.loc 1 264 1 view .LVU288
 1288              		.cfi_endproc
 1289              	.LFE146:
 1291              		.section	.text.LCD_DrawRectangle,"ax",%progbits
 1292              		.align	1
 1293              		.global	LCD_DrawRectangle
 1294              		.syntax unified
 1295              		.thumb
 1296              		.thumb_func
 1297              		.fpu fpv4-sp-d16
 1299              	LCD_DrawRectangle:
 1300              	.LVL102:
 1301              	.LFB147:
 265:HADRWARE/LCD/lcd.c **** //画矩形	  
 266:HADRWARE/LCD/lcd.c **** void LCD_DrawRectangle(u16 x, u16 y, u16 w, u16 h)
 267:HADRWARE/LCD/lcd.c **** {
 1302              		.loc 1 267 1 is_stmt 1 view -0
ARM GAS  /tmp/cc83C5OS.s 			page 29


 1303              		.cfi_startproc
 1304              		@ args = 0, pretend = 0, frame = 0
 1305              		@ frame_needed = 0, uses_anonymous_args = 0
 1306              		.loc 1 267 1 is_stmt 0 view .LVU290
 1307 0000 F8B5     		push	{r3, r4, r5, r6, r7, lr}
 1308              	.LCFI27:
 1309              		.cfi_def_cfa_offset 24
 1310              		.cfi_offset 3, -24
 1311              		.cfi_offset 4, -20
 1312              		.cfi_offset 5, -16
 1313              		.cfi_offset 6, -12
 1314              		.cfi_offset 7, -8
 1315              		.cfi_offset 14, -4
 1316 0002 0646     		mov	r6, r0
 1317 0004 0F46     		mov	r7, r1
 1318 0006 1C46     		mov	r4, r3
 268:HADRWARE/LCD/lcd.c **** 	LCD_DrawLine(x,y,x+w,y);
 1319              		.loc 1 268 2 is_stmt 1 view .LVU291
 1320 0008 0244     		add	r2, r2, r0
 1321              	.LVL103:
 1322              		.loc 1 268 2 is_stmt 0 view .LVU292
 1323 000a 95B2     		uxth	r5, r2
 1324 000c 0B46     		mov	r3, r1
 1325              	.LVL104:
 1326              		.loc 1 268 2 view .LVU293
 1327 000e 2A46     		mov	r2, r5
 1328 0010 FFF7FEFF 		bl	LCD_DrawLine
 1329              	.LVL105:
 269:HADRWARE/LCD/lcd.c **** 	LCD_DrawLine(x,y,x,y+h);
 1330              		.loc 1 269 2 is_stmt 1 view .LVU294
 1331 0014 3C44     		add	r4, r4, r7
 1332 0016 A4B2     		uxth	r4, r4
 1333 0018 2346     		mov	r3, r4
 1334 001a 3246     		mov	r2, r6
 1335 001c 3946     		mov	r1, r7
 1336 001e 3046     		mov	r0, r6
 1337 0020 FFF7FEFF 		bl	LCD_DrawLine
 1338              	.LVL106:
 270:HADRWARE/LCD/lcd.c **** 	LCD_DrawLine(x+w,y,x+w,y+h);
 1339              		.loc 1 270 2 view .LVU295
 1340 0024 2346     		mov	r3, r4
 1341 0026 2A46     		mov	r2, r5
 1342 0028 3946     		mov	r1, r7
 1343 002a 2846     		mov	r0, r5
 1344 002c FFF7FEFF 		bl	LCD_DrawLine
 1345              	.LVL107:
 271:HADRWARE/LCD/lcd.c **** 	LCD_DrawLine(x,y+h,x+w,y+h);
 1346              		.loc 1 271 2 view .LVU296
 1347 0030 2346     		mov	r3, r4
 1348 0032 2A46     		mov	r2, r5
 1349 0034 2146     		mov	r1, r4
 1350 0036 3046     		mov	r0, r6
 1351 0038 FFF7FEFF 		bl	LCD_DrawLine
 1352              	.LVL108:
 272:HADRWARE/LCD/lcd.c **** }
 1353              		.loc 1 272 1 is_stmt 0 view .LVU297
 1354 003c F8BD     		pop	{r3, r4, r5, r6, r7, pc}
ARM GAS  /tmp/cc83C5OS.s 			page 30


 1355              		.cfi_endproc
 1356              	.LFE147:
 1358              		.section	.text.LCD_Draw_Circle,"ax",%progbits
 1359              		.align	1
 1360              		.global	LCD_Draw_Circle
 1361              		.syntax unified
 1362              		.thumb
 1363              		.thumb_func
 1364              		.fpu fpv4-sp-d16
 1366              	LCD_Draw_Circle:
 1367              	.LVL109:
 1368              	.LFB148:
 273:HADRWARE/LCD/lcd.c **** //在指定位置画一个指定大小的圆
 274:HADRWARE/LCD/lcd.c **** //(x,y):中心点
 275:HADRWARE/LCD/lcd.c **** //r    :半径
 276:HADRWARE/LCD/lcd.c **** void LCD_Draw_Circle(u16 x0,u16 y0,u8 r)
 277:HADRWARE/LCD/lcd.c **** {
 1369              		.loc 1 277 1 is_stmt 1 view -0
 1370              		.cfi_startproc
 1371              		@ args = 0, pretend = 0, frame = 16
 1372              		@ frame_needed = 0, uses_anonymous_args = 0
 1373              		.loc 1 277 1 is_stmt 0 view .LVU299
 1374 0000 2DE9F04F 		push	{r4, r5, r6, r7, r8, r9, r10, fp, lr}
 1375              	.LCFI28:
 1376              		.cfi_def_cfa_offset 36
 1377              		.cfi_offset 4, -36
 1378              		.cfi_offset 5, -32
 1379              		.cfi_offset 6, -28
 1380              		.cfi_offset 7, -24
 1381              		.cfi_offset 8, -20
 1382              		.cfi_offset 9, -16
 1383              		.cfi_offset 10, -12
 1384              		.cfi_offset 11, -8
 1385              		.cfi_offset 14, -4
 1386 0004 85B0     		sub	sp, sp, #20
 1387              	.LCFI29:
 1388              		.cfi_def_cfa_offset 56
 1389 0006 8046     		mov	r8, r0
 1390 0008 0F46     		mov	r7, r1
 1391 000a 0092     		str	r2, [sp]
 278:HADRWARE/LCD/lcd.c **** 	int a,b;
 1392              		.loc 1 278 2 is_stmt 1 view .LVU300
 279:HADRWARE/LCD/lcd.c **** 	int di;
 1393              		.loc 1 279 2 view .LVU301
 280:HADRWARE/LCD/lcd.c **** 	a=0;b=r;	  
 1394              		.loc 1 280 2 view .LVU302
 1395              	.LVL110:
 1396              		.loc 1 280 6 view .LVU303
 281:HADRWARE/LCD/lcd.c **** 	di=3-(r<<1);             //判断下个点位置的标志
 1397              		.loc 1 281 2 view .LVU304
 1398              		.loc 1 281 9 is_stmt 0 view .LVU305
 1399 000c 5300     		lsls	r3, r2, #1
 1400              		.loc 1 281 4 view .LVU306
 1401 000e C3F10303 		rsb	r3, r3, #3
 1402 0012 0193     		str	r3, [sp, #4]
 1403              	.LVL111:
 282:HADRWARE/LCD/lcd.c **** 	while(a<=b)
ARM GAS  /tmp/cc83C5OS.s 			page 31


 1404              		.loc 1 282 2 is_stmt 1 view .LVU307
 280:HADRWARE/LCD/lcd.c **** 	a=0;b=r;	  
 1405              		.loc 1 280 3 is_stmt 0 view .LVU308
 1406 0014 0026     		movs	r6, #0
 1407              		.loc 1 282 7 view .LVU309
 1408 0016 08E0     		b	.L122
 1409              	.LVL112:
 1410              	.L123:
 283:HADRWARE/LCD/lcd.c **** 	{
 284:HADRWARE/LCD/lcd.c **** 		LCD_DrawPoint(x0+a,y0-b);             //5
 285:HADRWARE/LCD/lcd.c ****  		LCD_DrawPoint(x0+b,y0-a);             //0           
 286:HADRWARE/LCD/lcd.c **** 		LCD_DrawPoint(x0+b,y0+a);             //4               
 287:HADRWARE/LCD/lcd.c **** 		LCD_DrawPoint(x0+a,y0+b);             //6 
 288:HADRWARE/LCD/lcd.c **** 		LCD_DrawPoint(x0-a,y0+b);             //1       
 289:HADRWARE/LCD/lcd.c ****  		LCD_DrawPoint(x0-b,y0+a);             
 290:HADRWARE/LCD/lcd.c **** 		LCD_DrawPoint(x0-a,y0-b);             //2             
 291:HADRWARE/LCD/lcd.c ****   		LCD_DrawPoint(x0-b,y0-a);             //7     	         
 292:HADRWARE/LCD/lcd.c **** 		a++;
 293:HADRWARE/LCD/lcd.c **** 		//使用Bresenham算法画圆     
 294:HADRWARE/LCD/lcd.c **** 		if(di<0)di +=4*a+6;	  
 295:HADRWARE/LCD/lcd.c **** 		else
 296:HADRWARE/LCD/lcd.c **** 		{
 297:HADRWARE/LCD/lcd.c **** 			di+=10+4*(a-b);   
 1411              		.loc 1 297 4 is_stmt 1 view .LVU310
 1412              		.loc 1 297 15 is_stmt 0 view .LVU311
 1413 0018 009A     		ldr	r2, [sp]
 1414 001a B31A     		subs	r3, r6, r2
 1415              		.loc 1 297 12 view .LVU312
 1416 001c 9B00     		lsls	r3, r3, #2
 1417              		.loc 1 297 10 view .LVU313
 1418 001e 0A33     		adds	r3, r3, #10
 1419              		.loc 1 297 6 view .LVU314
 1420 0020 0199     		ldr	r1, [sp, #4]
 1421 0022 1944     		add	r1, r1, r3
 1422 0024 0191     		str	r1, [sp, #4]
 1423              	.LVL113:
 298:HADRWARE/LCD/lcd.c **** 			b--;
 1424              		.loc 1 298 4 is_stmt 1 view .LVU315
 1425              		.loc 1 298 5 is_stmt 0 view .LVU316
 1426 0026 531E     		subs	r3, r2, #1
 1427 0028 0093     		str	r3, [sp]
 1428              	.LVL114:
 1429              	.L122:
 282:HADRWARE/LCD/lcd.c **** 	while(a<=b)
 1430              		.loc 1 282 7 is_stmt 1 view .LVU317
 1431 002a 009B     		ldr	r3, [sp]
 1432 002c 9E42     		cmp	r6, r3
 1433 002e 47DC     		bgt	.L127
 284:HADRWARE/LCD/lcd.c ****  		LCD_DrawPoint(x0+b,y0-a);             //0           
 1434              		.loc 1 284 3 view .LVU318
 1435 0030 B5B2     		uxth	r5, r6
 1436 0032 05EB080B 		add	fp, r5, r8
 1437 0036 1FFA8BFB 		uxth	fp, fp
 1438 003a BDF80040 		ldrh	r4, [sp]
 1439 003e 3B1B     		subs	r3, r7, r4
 1440 0040 9BB2     		uxth	r3, r3
 1441 0042 0293     		str	r3, [sp, #8]
ARM GAS  /tmp/cc83C5OS.s 			page 32


 1442 0044 1946     		mov	r1, r3
 1443 0046 5846     		mov	r0, fp
 1444 0048 FFF7FEFF 		bl	LCD_DrawPoint
 1445              	.LVL115:
 285:HADRWARE/LCD/lcd.c **** 		LCD_DrawPoint(x0+b,y0+a);             //4               
 1446              		.loc 1 285 4 view .LVU319
 1447 004c 04EB080A 		add	r10, r4, r8
 1448 0050 1FFA8AFA 		uxth	r10, r10
 1449 0054 7B1B     		subs	r3, r7, r5
 1450 0056 9AB2     		uxth	r2, r3
 1451 0058 0392     		str	r2, [sp, #12]
 1452 005a 1146     		mov	r1, r2
 1453 005c 5046     		mov	r0, r10
 1454 005e FFF7FEFF 		bl	LCD_DrawPoint
 1455              	.LVL116:
 286:HADRWARE/LCD/lcd.c **** 		LCD_DrawPoint(x0+a,y0+b);             //6 
 1456              		.loc 1 286 3 view .LVU320
 1457 0062 05EB0709 		add	r9, r5, r7
 1458 0066 1FFA89F9 		uxth	r9, r9
 1459 006a 4946     		mov	r1, r9
 1460 006c 5046     		mov	r0, r10
 1461 006e FFF7FEFF 		bl	LCD_DrawPoint
 1462              	.LVL117:
 287:HADRWARE/LCD/lcd.c **** 		LCD_DrawPoint(x0-a,y0+b);             //1       
 1463              		.loc 1 287 3 view .LVU321
 1464 0072 04EB070A 		add	r10, r4, r7
 1465 0076 1FFA8AFA 		uxth	r10, r10
 1466 007a 5146     		mov	r1, r10
 1467 007c 5846     		mov	r0, fp
 1468 007e FFF7FEFF 		bl	LCD_DrawPoint
 1469              	.LVL118:
 288:HADRWARE/LCD/lcd.c ****  		LCD_DrawPoint(x0-b,y0+a);             
 1470              		.loc 1 288 3 view .LVU322
 1471 0082 A8EB0505 		sub	r5, r8, r5
 1472 0086 ADB2     		uxth	r5, r5
 1473 0088 5146     		mov	r1, r10
 1474 008a 2846     		mov	r0, r5
 1475 008c FFF7FEFF 		bl	LCD_DrawPoint
 1476              	.LVL119:
 289:HADRWARE/LCD/lcd.c **** 		LCD_DrawPoint(x0-a,y0-b);             //2             
 1477              		.loc 1 289 4 view .LVU323
 1478 0090 A8EB0404 		sub	r4, r8, r4
 1479 0094 A4B2     		uxth	r4, r4
 1480 0096 4946     		mov	r1, r9
 1481 0098 2046     		mov	r0, r4
 1482 009a FFF7FEFF 		bl	LCD_DrawPoint
 1483              	.LVL120:
 290:HADRWARE/LCD/lcd.c ****   		LCD_DrawPoint(x0-b,y0-a);             //7     	         
 1484              		.loc 1 290 3 view .LVU324
 1485 009e 0299     		ldr	r1, [sp, #8]
 1486 00a0 2846     		mov	r0, r5
 1487 00a2 FFF7FEFF 		bl	LCD_DrawPoint
 1488              	.LVL121:
 291:HADRWARE/LCD/lcd.c **** 		a++;
 1489              		.loc 1 291 5 view .LVU325
 1490 00a6 0399     		ldr	r1, [sp, #12]
 1491 00a8 2046     		mov	r0, r4
ARM GAS  /tmp/cc83C5OS.s 			page 33


 1492 00aa FFF7FEFF 		bl	LCD_DrawPoint
 1493              	.LVL122:
 292:HADRWARE/LCD/lcd.c **** 		//使用Bresenham算法画圆     
 1494              		.loc 1 292 3 view .LVU326
 292:HADRWARE/LCD/lcd.c **** 		//使用Bresenham算法画圆     
 1495              		.loc 1 292 4 is_stmt 0 view .LVU327
 1496 00ae 0136     		adds	r6, r6, #1
 1497              	.LVL123:
 294:HADRWARE/LCD/lcd.c **** 		else
 1498              		.loc 1 294 3 is_stmt 1 view .LVU328
 294:HADRWARE/LCD/lcd.c **** 		else
 1499              		.loc 1 294 5 is_stmt 0 view .LVU329
 1500 00b0 019A     		ldr	r2, [sp, #4]
 1501 00b2 002A     		cmp	r2, #0
 1502 00b4 B0DA     		bge	.L123
 294:HADRWARE/LCD/lcd.c **** 		else
 1503              		.loc 1 294 11 is_stmt 1 discriminator 1 view .LVU330
 294:HADRWARE/LCD/lcd.c **** 		else
 1504              		.loc 1 294 17 is_stmt 0 discriminator 1 view .LVU331
 1505 00b6 B300     		lsls	r3, r6, #2
 294:HADRWARE/LCD/lcd.c **** 		else
 1506              		.loc 1 294 19 discriminator 1 view .LVU332
 1507 00b8 0633     		adds	r3, r3, #6
 294:HADRWARE/LCD/lcd.c **** 		else
 1508              		.loc 1 294 14 discriminator 1 view .LVU333
 1509 00ba 1A44     		add	r2, r2, r3
 1510 00bc 0192     		str	r2, [sp, #4]
 1511              	.LVL124:
 294:HADRWARE/LCD/lcd.c **** 		else
 1512              		.loc 1 294 14 discriminator 1 view .LVU334
 1513 00be B4E7     		b	.L122
 1514              	.LVL125:
 1515              	.L127:
 299:HADRWARE/LCD/lcd.c **** 		} 						    
 300:HADRWARE/LCD/lcd.c **** 	}
 301:HADRWARE/LCD/lcd.c **** } 									  
 1516              		.loc 1 301 1 view .LVU335
 1517 00c0 05B0     		add	sp, sp, #20
 1518              	.LCFI30:
 1519              		.cfi_def_cfa_offset 36
 1520              		@ sp needed
 1521 00c2 BDE8F08F 		pop	{r4, r5, r6, r7, r8, r9, r10, fp, pc}
 1522              		.loc 1 301 1 view .LVU336
 1523              		.cfi_endproc
 1524              	.LFE148:
 1526              		.section	.text.LCD_ShowChar,"ax",%progbits
 1527              		.align	1
 1528              		.global	LCD_ShowChar
 1529              		.syntax unified
 1530              		.thumb
 1531              		.thumb_func
 1532              		.fpu fpv4-sp-d16
 1534              	LCD_ShowChar:
 1535              	.LVL126:
 1536              	.LFB149:
 302:HADRWARE/LCD/lcd.c **** //在指定位置显示一个字符
 303:HADRWARE/LCD/lcd.c **** //x,y:起始坐标
ARM GAS  /tmp/cc83C5OS.s 			page 34


 304:HADRWARE/LCD/lcd.c **** //num:要显示的字符:" "--->"~"
 305:HADRWARE/LCD/lcd.c **** //size:字体大小 12/16/24/32
 306:HADRWARE/LCD/lcd.c **** //mode:叠加方式(1)还是非叠加方式(0)
 307:HADRWARE/LCD/lcd.c **** void LCD_ShowChar(u16 x,u16 y,u8 num,u8 size,u8 mode)
 308:HADRWARE/LCD/lcd.c **** {  							  
 1537              		.loc 1 308 1 is_stmt 1 view -0
 1538              		.cfi_startproc
 1539              		@ args = 4, pretend = 0, frame = 8
 1540              		@ frame_needed = 0, uses_anonymous_args = 0
 1541              		.loc 1 308 1 is_stmt 0 view .LVU338
 1542 0000 2DE9F04F 		push	{r4, r5, r6, r7, r8, r9, r10, fp, lr}
 1543              	.LCFI31:
 1544              		.cfi_def_cfa_offset 36
 1545              		.cfi_offset 4, -36
 1546              		.cfi_offset 5, -32
 1547              		.cfi_offset 6, -28
 1548              		.cfi_offset 7, -24
 1549              		.cfi_offset 8, -20
 1550              		.cfi_offset 9, -16
 1551              		.cfi_offset 10, -12
 1552              		.cfi_offset 11, -8
 1553              		.cfi_offset 14, -4
 1554 0004 83B0     		sub	sp, sp, #12
 1555              	.LCFI32:
 1556              		.cfi_def_cfa_offset 48
 1557 0006 8246     		mov	r10, r0
 1558 0008 8846     		mov	r8, r1
 1559 000a 1F46     		mov	r7, r3
 1560 000c 9DF830B0 		ldrb	fp, [sp, #48]	@ zero_extendqisi2
 309:HADRWARE/LCD/lcd.c ****     u8 temp,t1,t;
 1561              		.loc 1 309 5 is_stmt 1 view .LVU339
 310:HADRWARE/LCD/lcd.c **** 	u16 y0=y;
 1562              		.loc 1 310 2 view .LVU340
 1563              	.LVL127:
 311:HADRWARE/LCD/lcd.c **** 	u8 csize=(size/8+((size%8)?1:0))*(size/2);		//得到字体一个字符对应点阵集所占的字
 1564              		.loc 1 311 2 view .LVU341
 1565              		.loc 1 311 30 is_stmt 0 view .LVU342
 1566 0010 13F00703 		ands	r3, r3, #7
 1567              	.LVL128:
 1568              		.loc 1 311 30 view .LVU343
 1569 0014 18BF     		it	ne
 1570 0016 0123     		movne	r3, #1
 1571              		.loc 1 311 18 view .LVU344
 1572 0018 03EBD703 		add	r3, r3, r7, lsr #3
 1573              		.loc 1 311 5 view .LVU345
 1574 001c 7908     		lsrs	r1, r7, #1
 1575              	.LVL129:
 1576              		.loc 1 311 5 view .LVU346
 1577 001e 11FB03F3 		smulbb	r3, r1, r3
 1578 0022 DBB2     		uxtb	r3, r3
 1579 0024 0093     		str	r3, [sp]
 1580              	.LVL130:
 312:HADRWARE/LCD/lcd.c ****  	num=num-' ';//得到偏移后的值（ASCII字库是从空格开始取模，所以-' '就是对
 1581              		.loc 1 312 3 is_stmt 1 view .LVU347
 1582              		.loc 1 312 6 is_stmt 0 view .LVU348
 1583 0026 203A     		subs	r2, r2, #32
 1584              	.LVL131:
ARM GAS  /tmp/cc83C5OS.s 			page 35


 1585              		.loc 1 312 6 view .LVU349
 1586 0028 D3B2     		uxtb	r3, r2
 1587 002a 0193     		str	r3, [sp, #4]
 1588              	.LVL132:
 313:HADRWARE/LCD/lcd.c **** 	for(t=0;t<csize;t++)
 1589              		.loc 1 313 2 is_stmt 1 view .LVU350
 1590              		.loc 1 313 2 is_stmt 0 view .LVU351
 1591 002c 4446     		mov	r4, r8
 1592              		.loc 1 313 7 view .LVU352
 1593 002e 4FF00009 		mov	r9, #0
 1594              		.loc 1 313 2 view .LVU353
 1595 0032 49E0     		b	.L129
 1596              	.LVL133:
 1597              	.L145:
 314:HADRWARE/LCD/lcd.c **** 	{   
 315:HADRWARE/LCD/lcd.c **** 		if(size==12)temp=asc2_1206[num][t]; 	 	//调用1206字体
 1598              		.loc 1 315 15 is_stmt 1 discriminator 1 view .LVU354
 1599              		.loc 1 315 19 is_stmt 0 discriminator 1 view .LVU355
 1600 0034 019B     		ldr	r3, [sp, #4]
 1601 0036 03EB4303 		add	r3, r3, r3, lsl #1
 1602 003a 2E4A     		ldr	r2, .L148
 1603 003c 02EB8303 		add	r3, r2, r3, lsl #2
 1604 0040 13F80950 		ldrb	r5, [r3, r9]	@ zero_extendqisi2
 1605              	.LVL134:
 1606              	.L131:
 308:HADRWARE/LCD/lcd.c ****     u8 temp,t1,t;
 1607              		.loc 1 308 1 discriminator 1 view .LVU356
 1608 0044 0026     		movs	r6, #0
 1609 0046 23E0     		b	.L134
 1610              	.LVL135:
 1611              	.L146:
 316:HADRWARE/LCD/lcd.c **** 		else if(size==16)temp=asc2_1608[num][t];	//调用1608字体
 1612              		.loc 1 316 20 is_stmt 1 discriminator 1 view .LVU357
 1613              		.loc 1 316 24 is_stmt 0 discriminator 1 view .LVU358
 1614 0048 2B4B     		ldr	r3, .L148+4
 1615 004a 019A     		ldr	r2, [sp, #4]
 1616 004c 03EB0213 		add	r3, r3, r2, lsl #4
 1617 0050 13F80950 		ldrb	r5, [r3, r9]	@ zero_extendqisi2
 1618              	.LVL136:
 1619              		.loc 1 316 24 discriminator 1 view .LVU359
 1620 0054 F6E7     		b	.L131
 1621              	.LVL137:
 1622              	.L147:
 317:HADRWARE/LCD/lcd.c **** 		else if(size==24)temp=asc2_2412[num][t];	//调用2412字体
 1623              		.loc 1 317 20 is_stmt 1 discriminator 1 view .LVU360
 1624              		.loc 1 317 24 is_stmt 0 discriminator 1 view .LVU361
 1625 0056 019B     		ldr	r3, [sp, #4]
 1626 0058 03EBC303 		add	r3, r3, r3, lsl #3
 1627 005c 274A     		ldr	r2, .L148+8
 1628 005e 02EB8303 		add	r3, r2, r3, lsl #2
 1629 0062 13F80950 		ldrb	r5, [r3, r9]	@ zero_extendqisi2
 1630              	.LVL138:
 1631              		.loc 1 317 24 discriminator 1 view .LVU362
 1632 0066 EDE7     		b	.L131
 1633              	.LVL139:
 1634              	.L144:
 318:HADRWARE/LCD/lcd.c **** 		else if(size==32)temp=asc2_3216[num][t];	//调用3216字体
ARM GAS  /tmp/cc83C5OS.s 			page 36


 319:HADRWARE/LCD/lcd.c **** 		else return;								//没有的字库
 320:HADRWARE/LCD/lcd.c **** 		for(t1=0;t1<8;t1++)
 321:HADRWARE/LCD/lcd.c **** 		{			    
 322:HADRWARE/LCD/lcd.c **** 			if(temp&0x80)LTDC_Draw_Point(x,y,POINT_COLOR);//LCD_Fast_DrawPoint(x,y,POINT_COLOR);
 1635              		.loc 1 322 17 is_stmt 1 discriminator 1 view .LVU363
 1636 0068 254B     		ldr	r3, .L148+12
 1637 006a 1A68     		ldr	r2, [r3]
 1638 006c 2146     		mov	r1, r4
 1639 006e 5046     		mov	r0, r10
 1640 0070 FFF7FEFF 		bl	LTDC_Draw_Point
 1641              	.LVL140:
 1642              	.L137:
 323:HADRWARE/LCD/lcd.c **** 			else if(mode==0)LTDC_Draw_Point(x,y,BACK_COLOR);
 324:HADRWARE/LCD/lcd.c **** 			temp<<=1;
 1643              		.loc 1 324 4 view .LVU364
 1644              		.loc 1 324 8 is_stmt 0 view .LVU365
 1645 0074 6D00     		lsls	r5, r5, #1
 1646              	.LVL141:
 1647              		.loc 1 324 8 view .LVU366
 1648 0076 EDB2     		uxtb	r5, r5
 1649              	.LVL142:
 325:HADRWARE/LCD/lcd.c **** 			y++;
 1650              		.loc 1 325 4 is_stmt 1 view .LVU367
 1651              		.loc 1 325 5 is_stmt 0 view .LVU368
 1652 0078 0134     		adds	r4, r4, #1
 1653              	.LVL143:
 1654              		.loc 1 325 5 view .LVU369
 1655 007a A4B2     		uxth	r4, r4
 1656              	.LVL144:
 326:HADRWARE/LCD/lcd.c **** 			if(y>=lcddev.height)return;		//超区域了
 1657              		.loc 1 326 4 is_stmt 1 view .LVU370
 1658              		.loc 1 326 16 is_stmt 0 view .LVU371
 1659 007c 214B     		ldr	r3, .L148+16
 1660 007e 5B88     		ldrh	r3, [r3, #2]
 1661              		.loc 1 326 6 view .LVU372
 1662 0080 A342     		cmp	r3, r4
 1663 0082 33D9     		bls	.L128
 327:HADRWARE/LCD/lcd.c **** 			if((y-y0)==size)
 1664              		.loc 1 327 4 is_stmt 1 view .LVU373
 1665              		.loc 1 327 9 is_stmt 0 view .LVU374
 1666 0084 A4EB0803 		sub	r3, r4, r8
 1667              		.loc 1 327 6 view .LVU375
 1668 0088 BB42     		cmp	r3, r7
 1669 008a 10D0     		beq	.L143
 320:HADRWARE/LCD/lcd.c **** 		{			    
 1670              		.loc 1 320 17 is_stmt 1 discriminator 2 view .LVU376
 320:HADRWARE/LCD/lcd.c **** 		{			    
 1671              		.loc 1 320 19 is_stmt 0 discriminator 2 view .LVU377
 1672 008c 0136     		adds	r6, r6, #1
 1673              	.LVL145:
 320:HADRWARE/LCD/lcd.c **** 		{			    
 1674              		.loc 1 320 19 discriminator 2 view .LVU378
 1675 008e F6B2     		uxtb	r6, r6
 1676              	.LVL146:
 1677              	.L134:
 320:HADRWARE/LCD/lcd.c **** 		{			    
 1678              		.loc 1 320 12 is_stmt 1 discriminator 1 view .LVU379
ARM GAS  /tmp/cc83C5OS.s 			page 37


 320:HADRWARE/LCD/lcd.c **** 		{			    
 1679              		.loc 1 320 3 is_stmt 0 discriminator 1 view .LVU380
 1680 0090 072E     		cmp	r6, #7
 1681 0092 15D8     		bhi	.L139
 322:HADRWARE/LCD/lcd.c **** 			else if(mode==0)LTDC_Draw_Point(x,y,BACK_COLOR);
 1682              		.loc 1 322 4 is_stmt 1 view .LVU381
 322:HADRWARE/LCD/lcd.c **** 			else if(mode==0)LTDC_Draw_Point(x,y,BACK_COLOR);
 1683              		.loc 1 322 6 is_stmt 0 view .LVU382
 1684 0094 15F0800F 		tst	r5, #128
 1685 0098 E6D1     		bne	.L144
 323:HADRWARE/LCD/lcd.c **** 			temp<<=1;
 1686              		.loc 1 323 9 is_stmt 1 view .LVU383
 323:HADRWARE/LCD/lcd.c **** 			temp<<=1;
 1687              		.loc 1 323 11 is_stmt 0 view .LVU384
 1688 009a BBF1000F 		cmp	fp, #0
 1689 009e E9D1     		bne	.L137
 323:HADRWARE/LCD/lcd.c **** 			temp<<=1;
 1690              		.loc 1 323 20 is_stmt 1 discriminator 1 view .LVU385
 1691 00a0 194B     		ldr	r3, .L148+20
 1692 00a2 1A68     		ldr	r2, [r3]
 1693 00a4 2146     		mov	r1, r4
 1694 00a6 5046     		mov	r0, r10
 1695 00a8 FFF7FEFF 		bl	LTDC_Draw_Point
 1696              	.LVL147:
 1697 00ac E2E7     		b	.L137
 1698              	.L143:
 328:HADRWARE/LCD/lcd.c **** 			{
 329:HADRWARE/LCD/lcd.c **** 				y=y0;
 1699              		.loc 1 329 5 view .LVU386
 1700              	.LVL148:
 330:HADRWARE/LCD/lcd.c **** 				x++;
 1701              		.loc 1 330 5 view .LVU387
 1702              		.loc 1 330 6 is_stmt 0 view .LVU388
 1703 00ae 0AF1010A 		add	r10, r10, #1
 1704              	.LVL149:
 1705              		.loc 1 330 6 view .LVU389
 1706 00b2 1FFA8AFA 		uxth	r10, r10
 1707              	.LVL150:
 331:HADRWARE/LCD/lcd.c **** 				if(x>=lcddev.width)return;	//超区域了
 1708              		.loc 1 331 5 is_stmt 1 view .LVU390
 1709              		.loc 1 331 17 is_stmt 0 view .LVU391
 1710 00b6 134B     		ldr	r3, .L148+16
 1711 00b8 1B88     		ldrh	r3, [r3]
 1712              		.loc 1 331 7 view .LVU392
 1713 00ba 5345     		cmp	r3, r10
 1714 00bc 16D9     		bls	.L128
 329:HADRWARE/LCD/lcd.c **** 				x++;
 1715              		.loc 1 329 6 view .LVU393
 1716 00be 4446     		mov	r4, r8
 1717              	.LVL151:
 1718              	.L139:
 313:HADRWARE/LCD/lcd.c **** 	{   
 1719              		.loc 1 313 18 is_stmt 1 discriminator 2 view .LVU394
 313:HADRWARE/LCD/lcd.c **** 	{   
 1720              		.loc 1 313 19 is_stmt 0 discriminator 2 view .LVU395
 1721 00c0 09F10109 		add	r9, r9, #1
 1722              	.LVL152:
ARM GAS  /tmp/cc83C5OS.s 			page 38


 313:HADRWARE/LCD/lcd.c **** 	{   
 1723              		.loc 1 313 19 discriminator 2 view .LVU396
 1724 00c4 5FFA89F9 		uxtb	r9, r9
 1725              	.LVL153:
 1726              	.L129:
 313:HADRWARE/LCD/lcd.c **** 	{   
 1727              		.loc 1 313 10 is_stmt 1 discriminator 1 view .LVU397
 313:HADRWARE/LCD/lcd.c **** 	{   
 1728              		.loc 1 313 2 is_stmt 0 discriminator 1 view .LVU398
 1729 00c8 009B     		ldr	r3, [sp]
 1730 00ca 9945     		cmp	r9, r3
 1731 00cc 0ED2     		bcs	.L128
 315:HADRWARE/LCD/lcd.c **** 		else if(size==16)temp=asc2_1608[num][t];	//调用1608字体
 1732              		.loc 1 315 3 is_stmt 1 view .LVU399
 315:HADRWARE/LCD/lcd.c **** 		else if(size==16)temp=asc2_1608[num][t];	//调用1608字体
 1733              		.loc 1 315 5 is_stmt 0 view .LVU400
 1734 00ce 0C2F     		cmp	r7, #12
 1735 00d0 B0D0     		beq	.L145
 316:HADRWARE/LCD/lcd.c **** 		else if(size==24)temp=asc2_2412[num][t];	//调用2412字体
 1736              		.loc 1 316 8 is_stmt 1 view .LVU401
 316:HADRWARE/LCD/lcd.c **** 		else if(size==24)temp=asc2_2412[num][t];	//调用2412字体
 1737              		.loc 1 316 10 is_stmt 0 view .LVU402
 1738 00d2 102F     		cmp	r7, #16
 1739 00d4 B8D0     		beq	.L146
 317:HADRWARE/LCD/lcd.c **** 		else if(size==32)temp=asc2_3216[num][t];	//调用3216字体
 1740              		.loc 1 317 8 is_stmt 1 view .LVU403
 317:HADRWARE/LCD/lcd.c **** 		else if(size==32)temp=asc2_3216[num][t];	//调用3216字体
 1741              		.loc 1 317 10 is_stmt 0 view .LVU404
 1742 00d6 182F     		cmp	r7, #24
 1743 00d8 BDD0     		beq	.L147
 318:HADRWARE/LCD/lcd.c **** 		else return;								//没有的字库
 1744              		.loc 1 318 8 is_stmt 1 view .LVU405
 318:HADRWARE/LCD/lcd.c **** 		else return;								//没有的字库
 1745              		.loc 1 318 10 is_stmt 0 view .LVU406
 1746 00da 202F     		cmp	r7, #32
 1747 00dc 06D1     		bne	.L128
 318:HADRWARE/LCD/lcd.c **** 		else return;								//没有的字库
 1748              		.loc 1 318 20 is_stmt 1 discriminator 1 view .LVU407
 318:HADRWARE/LCD/lcd.c **** 		else return;								//没有的字库
 1749              		.loc 1 318 24 is_stmt 0 discriminator 1 view .LVU408
 1750 00de 0B4B     		ldr	r3, .L148+24
 1751 00e0 019A     		ldr	r2, [sp, #4]
 1752 00e2 03EBC213 		add	r3, r3, r2, lsl #7
 1753 00e6 13F80950 		ldrb	r5, [r3, r9]	@ zero_extendqisi2
 1754              	.LVL154:
 318:HADRWARE/LCD/lcd.c **** 		else return;								//没有的字库
 1755              		.loc 1 318 24 discriminator 1 view .LVU409
 1756 00ea ABE7     		b	.L131
 1757              	.LVL155:
 1758              	.L128:
 332:HADRWARE/LCD/lcd.c **** 				break;
 333:HADRWARE/LCD/lcd.c **** 			}
 334:HADRWARE/LCD/lcd.c **** 		}  	 
 335:HADRWARE/LCD/lcd.c **** 	}  	    	   	 	  
 336:HADRWARE/LCD/lcd.c **** }   
 1759              		.loc 1 336 1 view .LVU410
 1760 00ec 03B0     		add	sp, sp, #12
ARM GAS  /tmp/cc83C5OS.s 			page 39


 1761              	.LCFI33:
 1762              		.cfi_def_cfa_offset 36
 1763              	.LVL156:
 1764              		.loc 1 336 1 view .LVU411
 1765              		@ sp needed
 1766 00ee BDE8F08F 		pop	{r4, r5, r6, r7, r8, r9, r10, fp, pc}
 1767              	.LVL157:
 1768              	.L149:
 1769              		.loc 1 336 1 view .LVU412
 1770 00f2 00BF     		.align	2
 1771              	.L148:
 1772 00f4 00000000 		.word	.LANCHOR2
 1773 00f8 00000000 		.word	.LANCHOR3
 1774 00fc 00000000 		.word	.LANCHOR4
 1775 0100 00000000 		.word	.LANCHOR1
 1776 0104 00000000 		.word	.LANCHOR0
 1777 0108 00000000 		.word	.LANCHOR5
 1778 010c 00000000 		.word	asc2_3216
 1779              		.cfi_endproc
 1780              	.LFE149:
 1782              		.section	.text.LCD_Pow,"ax",%progbits
 1783              		.align	1
 1784              		.global	LCD_Pow
 1785              		.syntax unified
 1786              		.thumb
 1787              		.thumb_func
 1788              		.fpu fpv4-sp-d16
 1790              	LCD_Pow:
 1791              	.LVL158:
 1792              	.LFB150:
 337:HADRWARE/LCD/lcd.c **** //m^n函数
 338:HADRWARE/LCD/lcd.c **** //返回值:m^n次方.
 339:HADRWARE/LCD/lcd.c **** u32 LCD_Pow(u8 m,u8 n)
 340:HADRWARE/LCD/lcd.c **** {
 1793              		.loc 1 340 1 is_stmt 1 view -0
 1794              		.cfi_startproc
 1795              		@ args = 0, pretend = 0, frame = 0
 1796              		@ frame_needed = 0, uses_anonymous_args = 0
 1797              		@ link register save eliminated.
 1798              		.loc 1 340 1 is_stmt 0 view .LVU414
 1799 0000 0246     		mov	r2, r0
 341:HADRWARE/LCD/lcd.c **** 	u32 result=1;	 
 1800              		.loc 1 341 2 is_stmt 1 view .LVU415
 1801              	.LVL159:
 342:HADRWARE/LCD/lcd.c **** 	while(n--)result*=m;    
 1802              		.loc 1 342 2 view .LVU416
 341:HADRWARE/LCD/lcd.c **** 	u32 result=1;	 
 1803              		.loc 1 341 6 is_stmt 0 view .LVU417
 1804 0002 0120     		movs	r0, #1
 1805              	.LVL160:
 1806              		.loc 1 342 7 view .LVU418
 1807 0004 02E0     		b	.L151
 1808              	.LVL161:
 1809              	.L152:
 1810              		.loc 1 342 12 is_stmt 1 discriminator 2 view .LVU419
 1811              		.loc 1 342 18 is_stmt 0 discriminator 2 view .LVU420
 1812 0006 02FB00F0 		mul	r0, r2, r0
ARM GAS  /tmp/cc83C5OS.s 			page 40


 1813              	.LVL162:
 1814              		.loc 1 342 9 discriminator 2 view .LVU421
 1815 000a 1946     		mov	r1, r3
 1816              	.LVL163:
 1817              	.L151:
 1818              		.loc 1 342 7 is_stmt 1 discriminator 1 view .LVU422
 1819              		.loc 1 342 9 is_stmt 0 discriminator 1 view .LVU423
 1820 000c 4B1E     		subs	r3, r1, #1
 1821 000e DBB2     		uxtb	r3, r3
 1822              	.LVL164:
 1823              		.loc 1 342 7 discriminator 1 view .LVU424
 1824 0010 0029     		cmp	r1, #0
 1825 0012 F8D1     		bne	.L152
 343:HADRWARE/LCD/lcd.c **** 	return result;
 1826              		.loc 1 343 2 is_stmt 1 view .LVU425
 344:HADRWARE/LCD/lcd.c **** }			 
 1827              		.loc 1 344 1 is_stmt 0 view .LVU426
 1828 0014 7047     		bx	lr
 1829              		.cfi_endproc
 1830              	.LFE150:
 1832              		.section	.text.LCD_ShowNum,"ax",%progbits
 1833              		.align	1
 1834              		.global	LCD_ShowNum
 1835              		.syntax unified
 1836              		.thumb
 1837              		.thumb_func
 1838              		.fpu fpv4-sp-d16
 1840              	LCD_ShowNum:
 1841              	.LVL165:
 1842              	.LFB151:
 345:HADRWARE/LCD/lcd.c **** //显示数字,高位为0,则不显示
 346:HADRWARE/LCD/lcd.c **** //x,y :起点坐标	 
 347:HADRWARE/LCD/lcd.c **** //len :数字的位数
 348:HADRWARE/LCD/lcd.c **** //size:字体大小
 349:HADRWARE/LCD/lcd.c **** //color:颜色 
 350:HADRWARE/LCD/lcd.c **** //num:数值(0~4294967295);	 
 351:HADRWARE/LCD/lcd.c **** void LCD_ShowNum(u16 x,u16 y,u32 num,u8 len,u8 size)
 352:HADRWARE/LCD/lcd.c **** {         	
 1843              		.loc 1 352 1 is_stmt 1 view -0
 1844              		.cfi_startproc
 1845              		@ args = 4, pretend = 0, frame = 0
 1846              		@ frame_needed = 0, uses_anonymous_args = 0
 1847              		.loc 1 352 1 is_stmt 0 view .LVU428
 1848 0000 2DE9F047 		push	{r4, r5, r6, r7, r8, r9, r10, lr}
 1849              	.LCFI34:
 1850              		.cfi_def_cfa_offset 32
 1851              		.cfi_offset 4, -32
 1852              		.cfi_offset 5, -28
 1853              		.cfi_offset 6, -24
 1854              		.cfi_offset 7, -20
 1855              		.cfi_offset 8, -16
 1856              		.cfi_offset 9, -12
 1857              		.cfi_offset 10, -8
 1858              		.cfi_offset 14, -4
 1859 0004 82B0     		sub	sp, sp, #8
 1860              	.LCFI35:
 1861              		.cfi_def_cfa_offset 40
ARM GAS  /tmp/cc83C5OS.s 			page 41


 1862 0006 8246     		mov	r10, r0
 1863 0008 8946     		mov	r9, r1
 1864 000a 9046     		mov	r8, r2
 1865 000c 1D46     		mov	r5, r3
 1866 000e 9DF82860 		ldrb	r6, [sp, #40]	@ zero_extendqisi2
 353:HADRWARE/LCD/lcd.c **** 	u8 t,temp;
 1867              		.loc 1 353 2 is_stmt 1 view .LVU429
 354:HADRWARE/LCD/lcd.c **** 	u8 enshow=0;						   
 1868              		.loc 1 354 2 view .LVU430
 1869              	.LVL166:
 355:HADRWARE/LCD/lcd.c **** 	for(t=0;t<len;t++)
 1870              		.loc 1 355 2 view .LVU431
 354:HADRWARE/LCD/lcd.c **** 	u8 enshow=0;						   
 1871              		.loc 1 354 5 is_stmt 0 view .LVU432
 1872 0012 0027     		movs	r7, #0
 1873              		.loc 1 355 7 view .LVU433
 1874 0014 3C46     		mov	r4, r7
 1875              		.loc 1 355 2 view .LVU434
 1876 0016 19E0     		b	.L154
 1877              	.LVL167:
 1878              	.L161:
 356:HADRWARE/LCD/lcd.c **** 	{
 357:HADRWARE/LCD/lcd.c **** 		temp=(num/LCD_Pow(10,len-t-1))%10;
 358:HADRWARE/LCD/lcd.c **** 		if(enshow==0&&t<(len-1))
 359:HADRWARE/LCD/lcd.c **** 		{
 360:HADRWARE/LCD/lcd.c **** 			if(temp==0)
 361:HADRWARE/LCD/lcd.c **** 			{
 362:HADRWARE/LCD/lcd.c **** 				LCD_ShowChar(x+(size/2)*t,y,' ',size,0);
 1879              		.loc 1 362 5 is_stmt 1 view .LVU435
 1880              		.loc 1 362 28 is_stmt 0 view .LVU436
 1881 0018 7008     		lsrs	r0, r6, #1
 1882              		.loc 1 362 5 view .LVU437
 1883 001a 00FB04A0 		mla	r0, r0, r4, r10
 1884 001e 0023     		movs	r3, #0
 1885 0020 0093     		str	r3, [sp]
 1886 0022 3346     		mov	r3, r6
 1887 0024 2022     		movs	r2, #32
 1888              	.LVL168:
 1889              		.loc 1 362 5 view .LVU438
 1890 0026 4946     		mov	r1, r9
 1891 0028 80B2     		uxth	r0, r0
 1892 002a FFF7FEFF 		bl	LCD_ShowChar
 1893              	.LVL169:
 363:HADRWARE/LCD/lcd.c **** 				continue;
 1894              		.loc 1 363 5 is_stmt 1 view .LVU439
 1895 002e 0BE0     		b	.L156
 1896              	.LVL170:
 1897              	.L155:
 364:HADRWARE/LCD/lcd.c **** 			}else enshow=1; 
 365:HADRWARE/LCD/lcd.c **** 		 	 
 366:HADRWARE/LCD/lcd.c **** 		}
 367:HADRWARE/LCD/lcd.c **** 	 	LCD_ShowChar(x+(size/2)*t,y,temp+'0',size,0); 
 1898              		.loc 1 367 4 view .LVU440
 1899              		.loc 1 367 27 is_stmt 0 view .LVU441
 1900 0030 7008     		lsrs	r0, r6, #1
 1901              		.loc 1 367 4 view .LVU442
 1902 0032 3032     		adds	r2, r2, #48
ARM GAS  /tmp/cc83C5OS.s 			page 42


 1903              	.LVL171:
 1904              		.loc 1 367 4 view .LVU443
 1905 0034 00FB04A0 		mla	r0, r0, r4, r10
 1906 0038 0023     		movs	r3, #0
 1907 003a 0093     		str	r3, [sp]
 1908 003c 3346     		mov	r3, r6
 1909 003e D2B2     		uxtb	r2, r2
 1910              	.LVL172:
 1911              		.loc 1 367 4 view .LVU444
 1912 0040 4946     		mov	r1, r9
 1913 0042 80B2     		uxth	r0, r0
 1914 0044 FFF7FEFF 		bl	LCD_ShowChar
 1915              	.LVL173:
 1916              	.L156:
 355:HADRWARE/LCD/lcd.c **** 	{
 1917              		.loc 1 355 16 is_stmt 1 discriminator 2 view .LVU445
 355:HADRWARE/LCD/lcd.c **** 	{
 1918              		.loc 1 355 17 is_stmt 0 discriminator 2 view .LVU446
 1919 0048 0134     		adds	r4, r4, #1
 1920              	.LVL174:
 355:HADRWARE/LCD/lcd.c **** 	{
 1921              		.loc 1 355 17 discriminator 2 view .LVU447
 1922 004a E4B2     		uxtb	r4, r4
 1923              	.LVL175:
 1924              	.L154:
 355:HADRWARE/LCD/lcd.c **** 	{
 1925              		.loc 1 355 10 is_stmt 1 discriminator 1 view .LVU448
 355:HADRWARE/LCD/lcd.c **** 	{
 1926              		.loc 1 355 2 is_stmt 0 discriminator 1 view .LVU449
 1927 004c AC42     		cmp	r4, r5
 1928 004e 1CD2     		bcs	.L160
 357:HADRWARE/LCD/lcd.c **** 		if(enshow==0&&t<(len-1))
 1929              		.loc 1 357 3 is_stmt 1 view .LVU450
 357:HADRWARE/LCD/lcd.c **** 		if(enshow==0&&t<(len-1))
 1930              		.loc 1 357 27 is_stmt 0 view .LVU451
 1931 0050 291B     		subs	r1, r5, r4
 1932 0052 C9B2     		uxtb	r1, r1
 357:HADRWARE/LCD/lcd.c **** 		if(enshow==0&&t<(len-1))
 1933              		.loc 1 357 13 view .LVU452
 1934 0054 0139     		subs	r1, r1, #1
 1935 0056 C9B2     		uxtb	r1, r1
 1936 0058 0A20     		movs	r0, #10
 1937 005a FFF7FEFF 		bl	LCD_Pow
 1938              	.LVL176:
 357:HADRWARE/LCD/lcd.c **** 		if(enshow==0&&t<(len-1))
 1939              		.loc 1 357 12 view .LVU453
 1940 005e B8FBF0F0 		udiv	r0, r8, r0
 357:HADRWARE/LCD/lcd.c **** 		if(enshow==0&&t<(len-1))
 1941              		.loc 1 357 33 view .LVU454
 1942 0062 0B4A     		ldr	r2, .L162
 1943 0064 A2FB003C 		umull	r3, ip, r2, r0
 1944 0068 4FEADC0C 		lsr	ip, ip, #3
 1945 006c 0CEB8C0C 		add	ip, ip, ip, lsl #2
 1946 0070 A0EB4C0C 		sub	ip, r0, ip, lsl #1
 357:HADRWARE/LCD/lcd.c **** 		if(enshow==0&&t<(len-1))
 1947              		.loc 1 357 7 view .LVU455
 1948 0074 5FFA8CF2 		uxtb	r2, ip
ARM GAS  /tmp/cc83C5OS.s 			page 43


 1949              	.LVL177:
 358:HADRWARE/LCD/lcd.c **** 		{
 1950              		.loc 1 358 3 is_stmt 1 view .LVU456
 358:HADRWARE/LCD/lcd.c **** 		{
 1951              		.loc 1 358 5 is_stmt 0 view .LVU457
 1952 0078 002F     		cmp	r7, #0
 1953 007a D9D1     		bne	.L155
 358:HADRWARE/LCD/lcd.c **** 		{
 1954              		.loc 1 358 23 discriminator 1 view .LVU458
 1955 007c 6B1E     		subs	r3, r5, #1
 358:HADRWARE/LCD/lcd.c **** 		{
 1956              		.loc 1 358 15 discriminator 1 view .LVU459
 1957 007e 9C42     		cmp	r4, r3
 1958 0080 D6DA     		bge	.L155
 360:HADRWARE/LCD/lcd.c **** 			{
 1959              		.loc 1 360 4 is_stmt 1 view .LVU460
 360:HADRWARE/LCD/lcd.c **** 			{
 1960              		.loc 1 360 6 is_stmt 0 view .LVU461
 1961 0082 002A     		cmp	r2, #0
 1962 0084 C8D0     		beq	.L161
 364:HADRWARE/LCD/lcd.c **** 		 	 
 1963              		.loc 1 364 16 view .LVU462
 1964 0086 0127     		movs	r7, #1
 1965              	.LVL178:
 364:HADRWARE/LCD/lcd.c **** 		 	 
 1966              		.loc 1 364 16 view .LVU463
 1967 0088 D2E7     		b	.L155
 1968              	.LVL179:
 1969              	.L160:
 368:HADRWARE/LCD/lcd.c **** 	}
 369:HADRWARE/LCD/lcd.c **** } 
 1970              		.loc 1 369 1 view .LVU464
 1971 008a 02B0     		add	sp, sp, #8
 1972              	.LCFI36:
 1973              		.cfi_def_cfa_offset 32
 1974              		@ sp needed
 1975 008c BDE8F087 		pop	{r4, r5, r6, r7, r8, r9, r10, pc}
 1976              	.LVL180:
 1977              	.L163:
 1978              		.loc 1 369 1 view .LVU465
 1979              		.align	2
 1980              	.L162:
 1981 0090 CDCCCCCC 		.word	-858993459
 1982              		.cfi_endproc
 1983              	.LFE151:
 1985              		.section	.text.LCD_ShowxNum,"ax",%progbits
 1986              		.align	1
 1987              		.global	LCD_ShowxNum
 1988              		.syntax unified
 1989              		.thumb
 1990              		.thumb_func
 1991              		.fpu fpv4-sp-d16
 1993              	LCD_ShowxNum:
 1994              	.LVL181:
 1995              	.LFB152:
 370:HADRWARE/LCD/lcd.c **** //显示数字,高位为0,还是显示
 371:HADRWARE/LCD/lcd.c **** //x,y:起点坐标
ARM GAS  /tmp/cc83C5OS.s 			page 44


 372:HADRWARE/LCD/lcd.c **** //num:数值(0~999999999);	 
 373:HADRWARE/LCD/lcd.c **** //len:长度(即要显示的位数)
 374:HADRWARE/LCD/lcd.c **** //size:字体大小
 375:HADRWARE/LCD/lcd.c **** //mode:
 376:HADRWARE/LCD/lcd.c **** //[7]:0,不填充;1,填充0.
 377:HADRWARE/LCD/lcd.c **** //[6:1]:保留
 378:HADRWARE/LCD/lcd.c **** //[0]:0,非叠加显示;1,叠加显示.
 379:HADRWARE/LCD/lcd.c **** void LCD_ShowxNum(u16 x,u16 y,u32 num,u8 len,u8 size,u8 mode)
 380:HADRWARE/LCD/lcd.c **** {  
 1996              		.loc 1 380 1 is_stmt 1 view -0
 1997              		.cfi_startproc
 1998              		@ args = 8, pretend = 0, frame = 0
 1999              		@ frame_needed = 0, uses_anonymous_args = 0
 2000              		.loc 1 380 1 is_stmt 0 view .LVU467
 2001 0000 2DE9F04F 		push	{r4, r5, r6, r7, r8, r9, r10, fp, lr}
 2002              	.LCFI37:
 2003              		.cfi_def_cfa_offset 36
 2004              		.cfi_offset 4, -36
 2005              		.cfi_offset 5, -32
 2006              		.cfi_offset 6, -28
 2007              		.cfi_offset 7, -24
 2008              		.cfi_offset 8, -20
 2009              		.cfi_offset 9, -16
 2010              		.cfi_offset 10, -12
 2011              		.cfi_offset 11, -8
 2012              		.cfi_offset 14, -4
 2013 0004 83B0     		sub	sp, sp, #12
 2014              	.LCFI38:
 2015              		.cfi_def_cfa_offset 48
 2016 0006 8246     		mov	r10, r0
 2017 0008 8946     		mov	r9, r1
 2018 000a 9046     		mov	r8, r2
 2019 000c 1D46     		mov	r5, r3
 2020 000e 9DF83060 		ldrb	r6, [sp, #48]	@ zero_extendqisi2
 2021 0012 9DF834B0 		ldrb	fp, [sp, #52]	@ zero_extendqisi2
 381:HADRWARE/LCD/lcd.c **** 	u8 t,temp;
 2022              		.loc 1 381 2 is_stmt 1 view .LVU468
 382:HADRWARE/LCD/lcd.c **** 	u8 enshow=0;						   
 2023              		.loc 1 382 2 view .LVU469
 2024              	.LVL182:
 383:HADRWARE/LCD/lcd.c **** 	for(t=0;t<len;t++)
 2025              		.loc 1 383 2 view .LVU470
 382:HADRWARE/LCD/lcd.c **** 	u8 enshow=0;						   
 2026              		.loc 1 382 5 is_stmt 0 view .LVU471
 2027 0016 0027     		movs	r7, #0
 2028              		.loc 1 383 7 view .LVU472
 2029 0018 3C46     		mov	r4, r7
 2030              		.loc 1 383 2 view .LVU473
 2031 001a 2BE0     		b	.L165
 2032              	.LVL183:
 2033              	.L175:
 384:HADRWARE/LCD/lcd.c **** 	{
 385:HADRWARE/LCD/lcd.c **** 		temp=(num/LCD_Pow(10,len-t-1))%10;
 386:HADRWARE/LCD/lcd.c **** 		if(enshow==0&&t<(len-1))
 387:HADRWARE/LCD/lcd.c **** 		{
 388:HADRWARE/LCD/lcd.c **** 			if(temp==0)
 389:HADRWARE/LCD/lcd.c **** 			{
ARM GAS  /tmp/cc83C5OS.s 			page 45


 390:HADRWARE/LCD/lcd.c **** 				if(mode&0X80)LCD_ShowChar(x+(size/2)*t,y,'0',size,mode&0X01);  
 2034              		.loc 1 390 5 is_stmt 1 view .LVU474
 2035              		.loc 1 390 7 is_stmt 0 view .LVU475
 2036 001c 1BF0800F 		tst	fp, #128
 2037 0020 0CD1     		bne	.L173
 391:HADRWARE/LCD/lcd.c **** 				else LCD_ShowChar(x+(size/2)*t,y,' ',size,mode&0X01);  
 2038              		.loc 1 391 10 is_stmt 1 view .LVU476
 2039              		.loc 1 391 33 is_stmt 0 view .LVU477
 2040 0022 7008     		lsrs	r0, r6, #1
 2041              		.loc 1 391 10 view .LVU478
 2042 0024 00FB04A0 		mla	r0, r0, r4, r10
 2043 0028 0BF00103 		and	r3, fp, #1
 2044 002c 0093     		str	r3, [sp]
 2045 002e 3346     		mov	r3, r6
 2046 0030 2022     		movs	r2, #32
 2047              	.LVL184:
 2048              		.loc 1 391 10 view .LVU479
 2049 0032 4946     		mov	r1, r9
 2050 0034 80B2     		uxth	r0, r0
 2051 0036 FFF7FEFF 		bl	LCD_ShowChar
 2052              	.LVL185:
 392:HADRWARE/LCD/lcd.c ****  				continue;
 2053              		.loc 1 392 6 is_stmt 1 view .LVU480
 2054 003a 19E0     		b	.L169
 2055              	.LVL186:
 2056              	.L173:
 390:HADRWARE/LCD/lcd.c **** 				else LCD_ShowChar(x+(size/2)*t,y,' ',size,mode&0X01);  
 2057              		.loc 1 390 18 discriminator 1 view .LVU481
 390:HADRWARE/LCD/lcd.c **** 				else LCD_ShowChar(x+(size/2)*t,y,' ',size,mode&0X01);  
 2058              		.loc 1 390 41 is_stmt 0 discriminator 1 view .LVU482
 2059 003c 7008     		lsrs	r0, r6, #1
 390:HADRWARE/LCD/lcd.c **** 				else LCD_ShowChar(x+(size/2)*t,y,' ',size,mode&0X01);  
 2060              		.loc 1 390 18 discriminator 1 view .LVU483
 2061 003e 00FB04A0 		mla	r0, r0, r4, r10
 2062 0042 0BF00103 		and	r3, fp, #1
 2063 0046 0093     		str	r3, [sp]
 2064 0048 3346     		mov	r3, r6
 2065 004a 3022     		movs	r2, #48
 2066              	.LVL187:
 390:HADRWARE/LCD/lcd.c **** 				else LCD_ShowChar(x+(size/2)*t,y,' ',size,mode&0X01);  
 2067              		.loc 1 390 18 discriminator 1 view .LVU484
 2068 004c 4946     		mov	r1, r9
 2069 004e 80B2     		uxth	r0, r0
 2070 0050 FFF7FEFF 		bl	LCD_ShowChar
 2071              	.LVL188:
 2072 0054 0CE0     		b	.L169
 2073              	.LVL189:
 2074              	.L166:
 393:HADRWARE/LCD/lcd.c **** 			}else enshow=1; 
 394:HADRWARE/LCD/lcd.c **** 		 	 
 395:HADRWARE/LCD/lcd.c **** 		}
 396:HADRWARE/LCD/lcd.c **** 	 	LCD_ShowChar(x+(size/2)*t,y,temp+'0',size,mode&0X01); 
 2075              		.loc 1 396 4 is_stmt 1 view .LVU485
 2076              		.loc 1 396 27 is_stmt 0 view .LVU486
 2077 0056 7008     		lsrs	r0, r6, #1
 2078              		.loc 1 396 4 view .LVU487
 2079 0058 3032     		adds	r2, r2, #48
ARM GAS  /tmp/cc83C5OS.s 			page 46


 2080              	.LVL190:
 2081              		.loc 1 396 4 view .LVU488
 2082 005a 00FB04A0 		mla	r0, r0, r4, r10
 2083 005e 0BF00103 		and	r3, fp, #1
 2084 0062 0093     		str	r3, [sp]
 2085 0064 3346     		mov	r3, r6
 2086 0066 D2B2     		uxtb	r2, r2
 2087              	.LVL191:
 2088              		.loc 1 396 4 view .LVU489
 2089 0068 4946     		mov	r1, r9
 2090 006a 80B2     		uxth	r0, r0
 2091 006c FFF7FEFF 		bl	LCD_ShowChar
 2092              	.LVL192:
 2093              	.L169:
 383:HADRWARE/LCD/lcd.c **** 	{
 2094              		.loc 1 383 16 is_stmt 1 discriminator 2 view .LVU490
 383:HADRWARE/LCD/lcd.c **** 	{
 2095              		.loc 1 383 17 is_stmt 0 discriminator 2 view .LVU491
 2096 0070 0134     		adds	r4, r4, #1
 2097              	.LVL193:
 383:HADRWARE/LCD/lcd.c **** 	{
 2098              		.loc 1 383 17 discriminator 2 view .LVU492
 2099 0072 E4B2     		uxtb	r4, r4
 2100              	.LVL194:
 2101              	.L165:
 383:HADRWARE/LCD/lcd.c **** 	{
 2102              		.loc 1 383 10 is_stmt 1 discriminator 1 view .LVU493
 383:HADRWARE/LCD/lcd.c **** 	{
 2103              		.loc 1 383 2 is_stmt 0 discriminator 1 view .LVU494
 2104 0074 AC42     		cmp	r4, r5
 2105 0076 1AD2     		bcs	.L174
 385:HADRWARE/LCD/lcd.c **** 		if(enshow==0&&t<(len-1))
 2106              		.loc 1 385 3 is_stmt 1 view .LVU495
 385:HADRWARE/LCD/lcd.c **** 		if(enshow==0&&t<(len-1))
 2107              		.loc 1 385 27 is_stmt 0 view .LVU496
 2108 0078 291B     		subs	r1, r5, r4
 2109 007a C9B2     		uxtb	r1, r1
 385:HADRWARE/LCD/lcd.c **** 		if(enshow==0&&t<(len-1))
 2110              		.loc 1 385 13 view .LVU497
 2111 007c 0139     		subs	r1, r1, #1
 2112 007e C9B2     		uxtb	r1, r1
 2113 0080 0A20     		movs	r0, #10
 2114 0082 FFF7FEFF 		bl	LCD_Pow
 2115              	.LVL195:
 385:HADRWARE/LCD/lcd.c **** 		if(enshow==0&&t<(len-1))
 2116              		.loc 1 385 12 view .LVU498
 2117 0086 B8FBF0F0 		udiv	r0, r8, r0
 385:HADRWARE/LCD/lcd.c **** 		if(enshow==0&&t<(len-1))
 2118              		.loc 1 385 33 view .LVU499
 2119 008a 0A4A     		ldr	r2, .L176
 2120 008c A2FB0032 		umull	r3, r2, r2, r0
 2121 0090 D208     		lsrs	r2, r2, #3
 2122 0092 02EB8202 		add	r2, r2, r2, lsl #2
 2123 0096 A0EB4202 		sub	r2, r0, r2, lsl #1
 385:HADRWARE/LCD/lcd.c **** 		if(enshow==0&&t<(len-1))
 2124              		.loc 1 385 7 view .LVU500
 2125 009a D2B2     		uxtb	r2, r2
ARM GAS  /tmp/cc83C5OS.s 			page 47


 2126              	.LVL196:
 386:HADRWARE/LCD/lcd.c **** 		{
 2127              		.loc 1 386 3 is_stmt 1 view .LVU501
 386:HADRWARE/LCD/lcd.c **** 		{
 2128              		.loc 1 386 5 is_stmt 0 view .LVU502
 2129 009c 002F     		cmp	r7, #0
 2130 009e DAD1     		bne	.L166
 386:HADRWARE/LCD/lcd.c **** 		{
 2131              		.loc 1 386 23 discriminator 1 view .LVU503
 2132 00a0 6B1E     		subs	r3, r5, #1
 386:HADRWARE/LCD/lcd.c **** 		{
 2133              		.loc 1 386 15 discriminator 1 view .LVU504
 2134 00a2 9C42     		cmp	r4, r3
 2135 00a4 D7DA     		bge	.L166
 388:HADRWARE/LCD/lcd.c **** 			{
 2136              		.loc 1 388 4 is_stmt 1 view .LVU505
 388:HADRWARE/LCD/lcd.c **** 			{
 2137              		.loc 1 388 6 is_stmt 0 view .LVU506
 2138 00a6 002A     		cmp	r2, #0
 2139 00a8 B8D0     		beq	.L175
 393:HADRWARE/LCD/lcd.c **** 		 	 
 2140              		.loc 1 393 16 view .LVU507
 2141 00aa 0127     		movs	r7, #1
 2142              	.LVL197:
 393:HADRWARE/LCD/lcd.c **** 		 	 
 2143              		.loc 1 393 16 view .LVU508
 2144 00ac D3E7     		b	.L166
 2145              	.LVL198:
 2146              	.L174:
 397:HADRWARE/LCD/lcd.c **** 	}
 398:HADRWARE/LCD/lcd.c **** } 
 2147              		.loc 1 398 1 view .LVU509
 2148 00ae 03B0     		add	sp, sp, #12
 2149              	.LCFI39:
 2150              		.cfi_def_cfa_offset 36
 2151              		@ sp needed
 2152 00b0 BDE8F08F 		pop	{r4, r5, r6, r7, r8, r9, r10, fp, pc}
 2153              	.LVL199:
 2154              	.L177:
 2155              		.loc 1 398 1 view .LVU510
 2156              		.align	2
 2157              	.L176:
 2158 00b4 CDCCCCCC 		.word	-858993459
 2159              		.cfi_endproc
 2160              	.LFE152:
 2162              		.section	.text.LCD_ShowString,"ax",%progbits
 2163              		.align	1
 2164              		.global	LCD_ShowString
 2165              		.syntax unified
 2166              		.thumb
 2167              		.thumb_func
 2168              		.fpu fpv4-sp-d16
 2170              	LCD_ShowString:
 2171              	.LVL200:
 2172              	.LFB153:
 399:HADRWARE/LCD/lcd.c **** //显示字符串
 400:HADRWARE/LCD/lcd.c **** //x,y:起点坐标
ARM GAS  /tmp/cc83C5OS.s 			page 48


 401:HADRWARE/LCD/lcd.c **** //width,height:区域大小  
 402:HADRWARE/LCD/lcd.c **** //size:字体大小
 403:HADRWARE/LCD/lcd.c **** //*p:字符串起始地址		  
 404:HADRWARE/LCD/lcd.c **** void LCD_ShowString(u16 x,u16 y,u16 width,u16 height,u8 size,u8 *p)
 405:HADRWARE/LCD/lcd.c **** {         
 2173              		.loc 1 405 1 is_stmt 1 view -0
 2174              		.cfi_startproc
 2175              		@ args = 8, pretend = 0, frame = 0
 2176              		@ frame_needed = 0, uses_anonymous_args = 0
 2177              		.loc 1 405 1 is_stmt 0 view .LVU512
 2178 0000 2DE9F047 		push	{r4, r5, r6, r7, r8, r9, r10, lr}
 2179              	.LCFI40:
 2180              		.cfi_def_cfa_offset 32
 2181              		.cfi_offset 4, -32
 2182              		.cfi_offset 5, -28
 2183              		.cfi_offset 6, -24
 2184              		.cfi_offset 7, -20
 2185              		.cfi_offset 8, -16
 2186              		.cfi_offset 9, -12
 2187              		.cfi_offset 10, -8
 2188              		.cfi_offset 14, -4
 2189 0004 82B0     		sub	sp, sp, #8
 2190              	.LCFI41:
 2191              		.cfi_def_cfa_offset 40
 2192 0006 8246     		mov	r10, r0
 2193 0008 0D46     		mov	r5, r1
 2194 000a 9DF82870 		ldrb	r7, [sp, #40]	@ zero_extendqisi2
 2195 000e 0B9E     		ldr	r6, [sp, #44]
 406:HADRWARE/LCD/lcd.c **** 	u8 x0=x;
 2196              		.loc 1 406 2 is_stmt 1 view .LVU513
 2197              	.LVL201:
 407:HADRWARE/LCD/lcd.c **** 	width+=x;
 2198              		.loc 1 407 2 view .LVU514
 2199              		.loc 1 407 7 is_stmt 0 view .LVU515
 2200 0010 0244     		add	r2, r2, r0
 2201              	.LVL202:
 2202              		.loc 1 407 7 view .LVU516
 2203 0012 1FFA82F9 		uxth	r9, r2
 2204              	.LVL203:
 408:HADRWARE/LCD/lcd.c **** 	height+=y;
 2205              		.loc 1 408 2 is_stmt 1 view .LVU517
 2206              		.loc 1 408 8 is_stmt 0 view .LVU518
 2207 0016 0B44     		add	r3, r3, r1
 2208              	.LVL204:
 2209              		.loc 1 408 8 view .LVU519
 2210 0018 1FFA83F8 		uxth	r8, r3
 2211              	.LVL205:
 409:HADRWARE/LCD/lcd.c ****     while((*p<='~')&&(*p>=' '))//判断是不是非法字符!
 2212              		.loc 1 409 5 is_stmt 1 view .LVU520
 2213              		.loc 1 409 10 is_stmt 0 view .LVU521
 2214 001c 0446     		mov	r4, r0
 2215 001e 0CE0     		b	.L179
 2216              	.LVL206:
 2217              	.L180:
 410:HADRWARE/LCD/lcd.c ****     {       
 411:HADRWARE/LCD/lcd.c ****         if(x>=width){x=x0;y+=size;}
 412:HADRWARE/LCD/lcd.c ****         if(y>=height)break;//退出
ARM GAS  /tmp/cc83C5OS.s 			page 49


 2218              		.loc 1 412 9 is_stmt 1 view .LVU522
 2219              		.loc 1 412 11 is_stmt 0 view .LVU523
 2220 0020 4545     		cmp	r5, r8
 2221 0022 17D2     		bcs	.L178
 413:HADRWARE/LCD/lcd.c ****         LCD_ShowChar(x,y,*p,size,0);
 2222              		.loc 1 413 9 is_stmt 1 view .LVU524
 2223 0024 0023     		movs	r3, #0
 2224 0026 0093     		str	r3, [sp]
 2225 0028 3B46     		mov	r3, r7
 2226 002a 2946     		mov	r1, r5
 2227 002c 2046     		mov	r0, r4
 2228 002e FFF7FEFF 		bl	LCD_ShowChar
 2229              	.LVL207:
 414:HADRWARE/LCD/lcd.c ****         x+=size/2;
 2230              		.loc 1 414 9 view .LVU525
 2231              		.loc 1 414 10 is_stmt 0 view .LVU526
 2232 0032 04EB5704 		add	r4, r4, r7, lsr #1
 2233              	.LVL208:
 2234              		.loc 1 414 10 view .LVU527
 2235 0036 A4B2     		uxth	r4, r4
 2236              	.LVL209:
 415:HADRWARE/LCD/lcd.c ****         p++;
 2237              		.loc 1 415 9 is_stmt 1 view .LVU528
 2238              		.loc 1 415 10 is_stmt 0 view .LVU529
 2239 0038 0136     		adds	r6, r6, #1
 2240              	.LVL210:
 2241              	.L179:
 409:HADRWARE/LCD/lcd.c ****     {       
 2242              		.loc 1 409 10 is_stmt 1 view .LVU530
 409:HADRWARE/LCD/lcd.c ****     {       
 2243              		.loc 1 409 12 is_stmt 0 view .LVU531
 2244 003a 3278     		ldrb	r2, [r6]	@ zero_extendqisi2
 409:HADRWARE/LCD/lcd.c ****     {       
 2245              		.loc 1 409 20 view .LVU532
 2246 003c A2F12003 		sub	r3, r2, #32
 2247 0040 DBB2     		uxtb	r3, r3
 409:HADRWARE/LCD/lcd.c ****     {       
 2248              		.loc 1 409 10 view .LVU533
 2249 0042 5E2B     		cmp	r3, #94
 2250 0044 06D8     		bhi	.L178
 411:HADRWARE/LCD/lcd.c ****         if(y>=height)break;//退出
 2251              		.loc 1 411 9 is_stmt 1 view .LVU534
 411:HADRWARE/LCD/lcd.c ****         if(y>=height)break;//退出
 2252              		.loc 1 411 11 is_stmt 0 view .LVU535
 2253 0046 4C45     		cmp	r4, r9
 2254 0048 EAD3     		bcc	.L180
 411:HADRWARE/LCD/lcd.c ****         if(y>=height)break;//退出
 2255              		.loc 1 411 22 is_stmt 1 discriminator 1 view .LVU536
 2256 004a 5FFA8AF4 		uxtb	r4, r10
 2257              	.LVL211:
 411:HADRWARE/LCD/lcd.c ****         if(y>=height)break;//退出
 2258              		.loc 1 411 27 discriminator 1 view .LVU537
 411:HADRWARE/LCD/lcd.c ****         if(y>=height)break;//退出
 2259              		.loc 1 411 28 is_stmt 0 discriminator 1 view .LVU538
 2260 004e 3D44     		add	r5, r5, r7
 2261              	.LVL212:
 411:HADRWARE/LCD/lcd.c ****         if(y>=height)break;//退出
ARM GAS  /tmp/cc83C5OS.s 			page 50


 2262              		.loc 1 411 28 discriminator 1 view .LVU539
 2263 0050 ADB2     		uxth	r5, r5
 2264              	.LVL213:
 411:HADRWARE/LCD/lcd.c ****         if(y>=height)break;//退出
 2265              		.loc 1 411 28 discriminator 1 view .LVU540
 2266 0052 E5E7     		b	.L180
 2267              	.L178:
 416:HADRWARE/LCD/lcd.c ****     }  
 417:HADRWARE/LCD/lcd.c **** }
 2268              		.loc 1 417 1 view .LVU541
 2269 0054 02B0     		add	sp, sp, #8
 2270              	.LCFI42:
 2271              		.cfi_def_cfa_offset 32
 2272              		@ sp needed
 2273 0056 BDE8F087 		pop	{r4, r5, r6, r7, r8, r9, r10, pc}
 2274              		.loc 1 417 1 view .LVU542
 2275              		.cfi_endproc
 2276              	.LFE153:
 2278              		.section	.text.LCD_ShowChinese,"ax",%progbits
 2279              		.align	1
 2280              		.global	LCD_ShowChinese
 2281              		.syntax unified
 2282              		.thumb
 2283              		.thumb_func
 2284              		.fpu fpv4-sp-d16
 2286              	LCD_ShowChinese:
 2287              	.LVL214:
 2288              	.LFB154:
 418:HADRWARE/LCD/lcd.c **** 
 419:HADRWARE/LCD/lcd.c **** void LCD_ShowChinese(u16 x,u16 y,u16 width,u16 height,u8 size,u8 *p)
 420:HADRWARE/LCD/lcd.c **** {
 2289              		.loc 1 420 1 is_stmt 1 view -0
 2290              		.cfi_startproc
 2291              		@ args = 8, pretend = 0, frame = 0
 2292              		@ frame_needed = 0, uses_anonymous_args = 0
 2293              		@ link register save eliminated.
 421:HADRWARE/LCD/lcd.c **** 
 422:HADRWARE/LCD/lcd.c **** }
 2294              		.loc 1 422 1 view .LVU544
 2295 0000 7047     		bx	lr
 2296              		.cfi_endproc
 2297              	.LFE154:
 2299              		.section	.text.Printf,"ax",%progbits
 2300              		.align	1
 2301              		.global	Printf
 2302              		.syntax unified
 2303              		.thumb
 2304              		.thumb_func
 2305              		.fpu fpv4-sp-d16
 2307              	Printf:
 2308              	.LVL215:
 2309              	.LFB155:
 423:HADRWARE/LCD/lcd.c **** 
 424:HADRWARE/LCD/lcd.c **** /// @brief 参考江科大--oled
 425:HADRWARE/LCD/lcd.c **** /// @param x x坐标
 426:HADRWARE/LCD/lcd.c **** /// @param y y坐标
 427:HADRWARE/LCD/lcd.c **** /// @param width 区域大小
ARM GAS  /tmp/cc83C5OS.s 			page 51


 428:HADRWARE/LCD/lcd.c **** /// @param height 区域大小
 429:HADRWARE/LCD/lcd.c **** /// @param size 字体大小
 430:HADRWARE/LCD/lcd.c **** /// @param mode 输出是否叠加
 431:HADRWARE/LCD/lcd.c **** /// @param format 字符串
 432:HADRWARE/LCD/lcd.c **** /// @param  
 433:HADRWARE/LCD/lcd.c **** void Printf(u16 x,u16 y,u16 width,u16 height,u8 size,u8 mode,char *format, ...)
 434:HADRWARE/LCD/lcd.c **** {
 2310              		.loc 1 434 1 view -0
 2311              		.cfi_startproc
 2312              		@ args = 12, pretend = 0, frame = 264
 2313              		@ frame_needed = 0, uses_anonymous_args = 1
 2314              		.loc 1 434 1 is_stmt 0 view .LVU546
 2315 0000 2DE9F04F 		push	{r4, r5, r6, r7, r8, r9, r10, fp, lr}
 2316              	.LCFI43:
 2317              		.cfi_def_cfa_offset 36
 2318              		.cfi_offset 4, -36
 2319              		.cfi_offset 5, -32
 2320              		.cfi_offset 6, -28
 2321              		.cfi_offset 7, -24
 2322              		.cfi_offset 8, -20
 2323              		.cfi_offset 9, -16
 2324              		.cfi_offset 10, -12
 2325              		.cfi_offset 11, -8
 2326              		.cfi_offset 14, -4
 2327 0004 C5B0     		sub	sp, sp, #276
 2328              	.LCFI44:
 2329              		.cfi_def_cfa_offset 312
 2330 0006 8246     		mov	r10, r0
 2331 0008 0D46     		mov	r5, r1
 2332 000a 9146     		mov	r9, r2
 2333 000c 9846     		mov	r8, r3
 2334 000e 9DF83871 		ldrb	r7, [sp, #312]	@ zero_extendqisi2
 2335 0012 9DF83CB1 		ldrb	fp, [sp, #316]	@ zero_extendqisi2
 435:HADRWARE/LCD/lcd.c **** 	char String[256];						//定义字符数组
 2336              		.loc 1 435 2 is_stmt 1 view .LVU547
 436:HADRWARE/LCD/lcd.c **** 	va_list arg;							//定义可变参数列表数据类型的变量arg
 2337              		.loc 1 436 2 view .LVU548
 437:HADRWARE/LCD/lcd.c **** 	va_start(arg, format);					//从format开始，接收参数列表到arg变量
 2338              		.loc 1 437 2 view .LVU549
 2339 0016 51AA     		add	r2, sp, #324
 2340              	.LVL216:
 2341              		.loc 1 437 2 is_stmt 0 view .LVU550
 2342 0018 0392     		str	r2, [sp, #12]
 438:HADRWARE/LCD/lcd.c **** 	vsprintf(String, format, arg);			//使用vsprintf打印格式化字符串和参数列表到字符
 2343              		.loc 1 438 2 is_stmt 1 view .LVU551
 2344 001a 5099     		ldr	r1, [sp, #320]
 2345              	.LVL217:
 2346              		.loc 1 438 2 is_stmt 0 view .LVU552
 2347 001c 04A8     		add	r0, sp, #16
 2348              	.LVL218:
 2349              		.loc 1 438 2 view .LVU553
 2350 001e FFF7FEFF 		bl	vsprintf
 2351              	.LVL219:
 439:HADRWARE/LCD/lcd.c **** 	va_end(arg);							//结束变量arg
 2352              		.loc 1 439 2 is_stmt 1 view .LVU554
 440:HADRWARE/LCD/lcd.c **** 
 441:HADRWARE/LCD/lcd.c **** 	u8 x0=x;
ARM GAS  /tmp/cc83C5OS.s 			page 52


 2353              		.loc 1 441 2 view .LVU555
 442:HADRWARE/LCD/lcd.c **** 	u8 *p=String;
 2354              		.loc 1 442 2 view .LVU556
 443:HADRWARE/LCD/lcd.c **** 	width+=x;
 2355              		.loc 1 443 2 view .LVU557
 2356              		.loc 1 443 7 is_stmt 0 view .LVU558
 2357 0022 D144     		add	r9, r9, r10
 2358 0024 1FFA89F9 		uxth	r9, r9
 2359              	.LVL220:
 444:HADRWARE/LCD/lcd.c **** 	height+=y;
 2360              		.loc 1 444 2 is_stmt 1 view .LVU559
 2361              		.loc 1 444 8 is_stmt 0 view .LVU560
 2362 0028 A844     		add	r8, r8, r5
 2363 002a 1FFA88F8 		uxth	r8, r8
 2364              	.LVL221:
 445:HADRWARE/LCD/lcd.c ****     while((*p<='~')&&(*p>=' '))//判断是不是非法字符!
 2365              		.loc 1 445 5 is_stmt 1 view .LVU561
 2366              		.loc 1 445 10 is_stmt 0 view .LVU562
 2367 002e 5446     		mov	r4, r10
 442:HADRWARE/LCD/lcd.c **** 	width+=x;
 2368              		.loc 1 442 6 view .LVU563
 2369 0030 04AE     		add	r6, sp, #16
 2370              	.LVL222:
 2371              		.loc 1 445 10 view .LVU564
 2372 0032 0CE0     		b	.L186
 2373              	.LVL223:
 2374              	.L187:
 446:HADRWARE/LCD/lcd.c ****     {       
 447:HADRWARE/LCD/lcd.c ****         if(x>=width){x=x0;y+=size;}
 448:HADRWARE/LCD/lcd.c ****         if(y>=height)break;//退出
 2375              		.loc 1 448 9 is_stmt 1 view .LVU565
 2376              		.loc 1 448 11 is_stmt 0 view .LVU566
 2377 0034 4545     		cmp	r5, r8
 2378 0036 17D2     		bcs	.L185
 449:HADRWARE/LCD/lcd.c ****         LCD_ShowChar(x,y,*p,size,mode);
 2379              		.loc 1 449 9 is_stmt 1 view .LVU567
 2380 0038 CDF800B0 		str	fp, [sp]
 2381 003c 3B46     		mov	r3, r7
 2382 003e 2946     		mov	r1, r5
 2383 0040 2046     		mov	r0, r4
 2384 0042 FFF7FEFF 		bl	LCD_ShowChar
 2385              	.LVL224:
 450:HADRWARE/LCD/lcd.c ****         x+=size/2;
 2386              		.loc 1 450 9 view .LVU568
 2387              		.loc 1 450 10 is_stmt 0 view .LVU569
 2388 0046 04EB5704 		add	r4, r4, r7, lsr #1
 2389              	.LVL225:
 2390              		.loc 1 450 10 view .LVU570
 2391 004a A4B2     		uxth	r4, r4
 2392              	.LVL226:
 451:HADRWARE/LCD/lcd.c ****         p++;
 2393              		.loc 1 451 9 is_stmt 1 view .LVU571
 2394              		.loc 1 451 10 is_stmt 0 view .LVU572
 2395 004c 0136     		adds	r6, r6, #1
 2396              	.LVL227:
 2397              	.L186:
 445:HADRWARE/LCD/lcd.c ****     {       
ARM GAS  /tmp/cc83C5OS.s 			page 53


 2398              		.loc 1 445 10 is_stmt 1 view .LVU573
 445:HADRWARE/LCD/lcd.c ****     {       
 2399              		.loc 1 445 12 is_stmt 0 view .LVU574
 2400 004e 3278     		ldrb	r2, [r6]	@ zero_extendqisi2
 445:HADRWARE/LCD/lcd.c ****     {       
 2401              		.loc 1 445 20 view .LVU575
 2402 0050 A2F12003 		sub	r3, r2, #32
 2403 0054 DBB2     		uxtb	r3, r3
 445:HADRWARE/LCD/lcd.c ****     {       
 2404              		.loc 1 445 10 view .LVU576
 2405 0056 5E2B     		cmp	r3, #94
 2406 0058 06D8     		bhi	.L185
 447:HADRWARE/LCD/lcd.c ****         if(y>=height)break;//退出
 2407              		.loc 1 447 9 is_stmt 1 view .LVU577
 447:HADRWARE/LCD/lcd.c ****         if(y>=height)break;//退出
 2408              		.loc 1 447 11 is_stmt 0 view .LVU578
 2409 005a 4C45     		cmp	r4, r9
 2410 005c EAD3     		bcc	.L187
 447:HADRWARE/LCD/lcd.c ****         if(y>=height)break;//退出
 2411              		.loc 1 447 22 is_stmt 1 discriminator 1 view .LVU579
 2412 005e 5FFA8AF4 		uxtb	r4, r10
 2413              	.LVL228:
 447:HADRWARE/LCD/lcd.c ****         if(y>=height)break;//退出
 2414              		.loc 1 447 27 discriminator 1 view .LVU580
 447:HADRWARE/LCD/lcd.c ****         if(y>=height)break;//退出
 2415              		.loc 1 447 28 is_stmt 0 discriminator 1 view .LVU581
 2416 0062 3D44     		add	r5, r5, r7
 2417              	.LVL229:
 447:HADRWARE/LCD/lcd.c ****         if(y>=height)break;//退出
 2418              		.loc 1 447 28 discriminator 1 view .LVU582
 2419 0064 ADB2     		uxth	r5, r5
 2420              	.LVL230:
 447:HADRWARE/LCD/lcd.c ****         if(y>=height)break;//退出
 2421              		.loc 1 447 28 discriminator 1 view .LVU583
 2422 0066 E5E7     		b	.L187
 2423              	.L185:
 452:HADRWARE/LCD/lcd.c ****     }  
 453:HADRWARE/LCD/lcd.c **** }
 2424              		.loc 1 453 1 view .LVU584
 2425 0068 45B0     		add	sp, sp, #276
 2426              	.LCFI45:
 2427              		.cfi_def_cfa_offset 36
 2428              		@ sp needed
 2429 006a BDE8F08F 		pop	{r4, r5, r6, r7, r8, r9, r10, fp, pc}
 2430              		.loc 1 453 1 view .LVU585
 2431              		.cfi_endproc
 2432              	.LFE155:
 2434              		.global	lcddev
 2435              		.global	BACK_COLOR
 2436              		.global	POINT_COLOR
 2437              		.global	asc2_3216
 2438              		.global	asc2_2412
 2439              		.global	asc2_1608
 2440              		.global	asc2_1206
 2441              		.section	.bss.lcddev,"aw",%nobits
 2442              		.align	2
 2443              		.set	.LANCHOR0,. + 0
ARM GAS  /tmp/cc83C5OS.s 			page 54


 2446              	lcddev:
 2447 0000 00000000 		.space	14
 2447      00000000 
 2447      00000000 
 2447      0000
 2448              		.section	.data.BACK_COLOR,"aw"
 2449              		.align	2
 2450              		.set	.LANCHOR5,. + 0
 2453              	BACK_COLOR:
 2454 0000 FFFFFFFF 		.word	-1
 2455              		.section	.data.POINT_COLOR,"aw"
 2456              		.align	2
 2457              		.set	.LANCHOR1,. + 0
 2460              	POINT_COLOR:
 2461 0000 000000FF 		.word	-16777216
 2462              		.section	.rodata.asc2_1206,"a"
 2463              		.align	2
 2464              		.set	.LANCHOR2,. + 0
 2467              	asc2_1206:
 2468 0000 00000000 		.ascii	"\000\000\000\000\000\000\000\000\000\000\000\000"
 2468      00000000 
 2468      00000000 
 2469 000c 00000000 		.ascii	"\000\000\000\000?@\000\000\000\000\000\000"
 2469      3F400000 
 2469      00000000 
 2470 0018 00003000 		.ascii	"\000\0000\000@\0000\000@\000\000\000"
 2470      40003000 
 2470      40000000 
 2471 0024 09000BC0 		.ascii	"\011\000\013\300=\000\013\300=\000\011\000"
 2471      3D000BC0 
 2471      3D000900 
 2472 0030 18C02440 		.ascii	"\030\300$@\177\340\"@1\200\000\000"
 2472      7FE02240 
 2472      31800000 
 2473 003c 180024C0 		.ascii	"\030\000$\300\033\000\015\2002@\001\200"
 2473      1B000D80 
 2473      32400180 
 2474 0048 03801C40 		.ascii	"\003\200\034@'@\034\200\007@\000@"
 2474      27401C80 
 2474      07400040 
 2475 0054 10006000 		.ascii	"\020\000`\000\000\000\000\000\000\000\000\000"
 2475      00000000 
 2475      00000000 
 2476 0060 00000000 		.ascii	"\000\000\000\000\000\000\037\200 @@ "
 2476      00001F80 
 2476      20404020 
 2477 006c 00004020 		.ascii	"\000\000@  @\037\200\000\000\000\000"
 2477      20401F80 
 2477      00000000 
 2478 0078 09000600 		.ascii	"\011\000\006\000\037\200\006\000\011\000\000\000"
 2478      1F800600 
 2478      09000000 
 2479 0084 04000400 		.ascii	"\004\000\004\000?\200\004\000\004\000\000\000"
 2479      3F800400 
 2479      04000000 
 2480 0090 00100060 		.ascii	"\000\020\000`\000\000\000\000\000\000\000\000"
 2480      00000000 
ARM GAS  /tmp/cc83C5OS.s 			page 55


 2480      00000000 
 2481 009c 04000400 		.ascii	"\004\000\004\000\004\000\004\000\004\000\000\000"
 2481      04000400 
 2481      04000000 
 2482 00a8 00000040 		.ascii	"\000\000\000@\000\000\000\000\000\000\000\000"
 2482      00000000 
 2482      00000000 
 2483 00b4 002001C0 		.ascii	"\000 \001\300\006\0008\000@\000\000\000"
 2483      06003800 
 2483      40000000 
 2484 00c0 1F802040 		.ascii	"\037\200 @ @ @\037\200\000\000"
 2484      20402040 
 2484      1F800000 
 2485 00cc 00001040 		.ascii	"\000\000\020@?\300\000@\000\000\000\000"
 2485      3FC00040 
 2485      00000000 
 2486 00d8 18C02140 		.ascii	"\030\300!@\"@$@\030@\000\000"
 2486      22402440 
 2486      18400000 
 2487 00e4 10802040 		.ascii	"\020\200 @$@$@\033\200\000\000"
 2487      24402440 
 2487      1B800000 
 2488 00f0 02000D00 		.ascii	"\002\000\015\000\021\000?\300\001@\000\000"
 2488      11003FC0 
 2488      01400000 
 2489 00fc 3C802440 		.ascii	"<\200$@$@$@#\200\000\000"
 2489      24402440 
 2489      23800000 
 2490 0108 1F802440 		.ascii	"\037\200$@$@4@\003\200\000\000"
 2490      24403440 
 2490      03800000 
 2491 0114 30002000 		.ascii	"0\000 \000'\3008\000 \000\000\000"
 2491      27C03800 
 2491      20000000 
 2492 0120 1B802440 		.ascii	"\033\200$@$@$@\033\200\000\000"
 2492      24402440 
 2492      1B800000 
 2493 012c 1C0022C0 		.ascii	"\034\000\"\300\"@\"@\037\200\000\000"
 2493      22402240 
 2493      1F800000 
 2494 0138 00000000 		.ascii	"\000\000\000\000\010@\000\000\000\000\000\000"
 2494      08400000 
 2494      00000000 
 2495 0144 00000000 		.ascii	"\000\000\000\000\004`\000\000\000\000\000\000"
 2495      04600000 
 2495      00000000 
 2496 0150 00000400 		.ascii	"\000\000\004\000\012\000\021\000 \200@@"
 2496      0A001100 
 2496      20804040 
 2497 015c 09000900 		.ascii	"\011\000\011\000\011\000\011\000\011\000\000\000"
 2497      09000900 
 2497      09000000 
 2498 0168 00004040 		.ascii	"\000\000@@ \200\021\000\012\000\004\000"
 2498      20801100 
 2498      0A000400 
 2499 0174 18002000 		.ascii	"\030\000 \000#@$\000\030\000\000\000"
 2499      23402400 
ARM GAS  /tmp/cc83C5OS.s 			page 56


 2499      18000000 
 2500 0180 1F802040 		.ascii	"\037\200 @'@)@\037@\000\000"
 2500      27402940 
 2500      1F400000 
 2501 018c 004007C0 		.ascii	"\000@\007\3009\000\017\000\001\300\000@"
 2501      39000F00 
 2501      01C00040 
 2502 0198 20403FC0 		.ascii	" @?\300$@$@\033\200\000\000"
 2502      24402440 
 2502      1B800000 
 2503 01a4 1F802040 		.ascii	"\037\200 @ @ @0\200\000\000"
 2503      20402040 
 2503      30800000 
 2504 01b0 20403FC0 		.ascii	" @?\300 @ @\037\200\000\000"
 2504      20402040 
 2504      1F800000 
 2505 01bc 20403FC0 		.ascii	" @?\300$@.@0\300\000\000"
 2505      24402E40 
 2505      30C00000 
 2506 01c8 20403FC0 		.ascii	" @?\300$@.\0000\000\000\000"
 2506      24402E00 
 2506      30000000 
 2507 01d4 0F001080 		.ascii	"\017\000\020\200 @\"@3\200\002\000"
 2507      20402240 
 2507      33800200 
 2508 01e0 20403FC0 		.ascii	" @?\300\004\000\004\000?\300 @"
 2508      04000400 
 2508      3FC02040 
 2509 01ec 20402040 		.ascii	" @ @?\300 @ @\000\000"
 2509      3FC02040 
 2509      20400000 
 2510 01f8 00602020 		.ascii	"\000`    ?\300 \000 \000"
 2510      20203FC0 
 2510      20002000 
 2511 0204 20403FC0 		.ascii	" @?\300$@\013\0000\300 @"
 2511      24400B00 
 2511      30C02040 
 2512 0210 20403FC0 		.ascii	" @?\300 @\000@\000@\000\300"
 2512      20400040 
 2512      004000C0 
 2513 021c 3FC03C00 		.ascii	"?\300<\000\003\300<\000?\300\000\000"
 2513      03C03C00 
 2513      3FC00000 
 2514 0228 20403FC0 		.ascii	" @?\300\014@#\000?\300 \000"
 2514      0C402300 
 2514      3FC02000 
 2515 0234 1F802040 		.ascii	"\037\200 @ @ @\037\200\000\000"
 2515      20402040 
 2515      1F800000 
 2516 0240 20403FC0 		.ascii	" @?\300$@$\000\030\000\000\000"
 2516      24402400 
 2516      18000000 
 2517 024c 1F802140 		.ascii	"\037\200!@!@ \340\037\240\000\000"
 2517      214020E0 
 2517      1FA00000 
 2518 0258 20403FC0 		.ascii	" @?\300$@&\000\031\300\000@"
 2518      24402600 
ARM GAS  /tmp/cc83C5OS.s 			page 57


 2518      19C00040 
 2519 0264 18C02440 		.ascii	"\030\300$@$@\"@1\200\000\000"
 2519      24402240 
 2519      31800000 
 2520 0270 30002040 		.ascii	"0\000 @?\300 @0\000\000\000"
 2520      3FC02040 
 2520      30000000 
 2521 027c 20003F80 		.ascii	" \000?\200\000@\000@?\200 \000"
 2521      00400040 
 2521      3F802000 
 2522 0288 20003E00 		.ascii	" \000>\000\001\300\007\0008\000 \000"
 2522      01C00700 
 2522      38002000 
 2523 0294 380007C0 		.ascii	"8\000\007\300<\000\007\3008\000\000\000"
 2523      3C0007C0 
 2523      38000000 
 2524 02a0 204039C0 		.ascii	" @9\300\006\0009\300 @\000\000"
 2524      060039C0 
 2524      20400000 
 2525 02ac 20003840 		.ascii	" \0008@\007\3008@ \000\000\000"
 2525      07C03840 
 2525      20000000 
 2526 02b8 304021C0 		.ascii	"0@!\300&@8@ \300\000\000"
 2526      26403840 
 2526      20C00000 
 2527 02c4 00000000 		.ascii	"\000\000\000\000\177\340@ @ \000\000"
 2527      7FE04020 
 2527      40200000 
 2528 02d0 00007000 		.ascii	"\000\000p\000\014\000\003\200\000@\000\000"
 2528      0C000380 
 2528      00400000 
 2529 02dc 00004020 		.ascii	"\000\000@ @ \177\340\000\000\000\000"
 2529      40207FE0 
 2529      00000000 
 2530 02e8 00002000 		.ascii	"\000\000 \000@\000 \000\000\000\000\000"
 2530      40002000 
 2530      00000000 
 2531 02f4 00100010 		.ascii	"\000\020\000\020\000\020\000\020\000\020\000\020"
 2531      00100010 
 2531      00100010 
 2532 0300 00000000 		.ascii	"\000\000\000\000@\000\000\000\000\000\000\000"
 2532      40000000 
 2532      00000000 
 2533 030c 00000280 		.ascii	"\000\000\002\200\005@\005@\003\300\000@"
 2533      05400540 
 2533      03C00040 
 2534 0318 20003FC0 		.ascii	" \000?\300\004@\004@\003\200\000\000"
 2534      04400440 
 2534      03800000 
 2535 0324 00000380 		.ascii	"\000\000\003\200\004@\004@\006@\000\000"
 2535      04400440 
 2535      06400000 
 2536 0330 00000380 		.ascii	"\000\000\003\200\004@$@?\300\000@"
 2536      04402440 
 2536      3FC00040 
 2537 033c 00000380 		.ascii	"\000\000\003\200\005@\005@\003@\000\000"
 2537      05400540 
ARM GAS  /tmp/cc83C5OS.s 			page 58


 2537      03400000 
 2538 0348 00000440 		.ascii	"\000\000\004@\037\300$@$@ \000"
 2538      1FC02440 
 2538      24402000 
 2539 0354 000002E0 		.ascii	"\000\000\002\340\005P\005P\006P\004 "
 2539      05500550 
 2539      06500420 
 2540 0360 20403FC0 		.ascii	" @?\300\004@\004\000\003\300\000@"
 2540      04400400 
 2540      03C00040 
 2541 036c 00000440 		.ascii	"\000\000\004@'\300\000@\000\000\000\000"
 2541      27C00040 
 2541      00000000 
 2542 0378 00100010 		.ascii	"\000\020\000\020\004\020'\340\000\000\000\000"
 2542      041027E0 
 2542      00000000 
 2543 0384 20403FC0 		.ascii	" @?\300\001@\007\000\004\300\004@"
 2543      01400700 
 2543      04C00440 
 2544 0390 20402040 		.ascii	" @ @?\300\000@\000@\000\000"
 2544      3FC00040 
 2544      00400000 
 2545 039c 07C00400 		.ascii	"\007\300\004\000\007\300\004\000\003\300\000\000"
 2545      07C00400 
 2545      03C00000 
 2546 03a8 044007C0 		.ascii	"\004@\007\300\004@\004\000\003\300\000@"
 2546      04400400 
 2546      03C00040 
 2547 03b4 00000380 		.ascii	"\000\000\003\200\004@\004@\003\200\000\000"
 2547      04400440 
 2547      03800000 
 2548 03c0 041007F0 		.ascii	"\004\020\007\360\004P\004@\003\200\000\000"
 2548      04500440 
 2548      03800000 
 2549 03cc 00000380 		.ascii	"\000\000\003\200\004@\004P\007\360\000\020"
 2549      04400450 
 2549      07F00010 
 2550 03d8 044007C0 		.ascii	"\004@\007\300\002@\004\000\004\000\000\000"
 2550      02400400 
 2550      04000000 
 2551 03e4 00000640 		.ascii	"\000\000\006@\005@\005@\004\300\000\000"
 2551      05400540 
 2551      04C00000 
 2552 03f0 00000400 		.ascii	"\000\000\004\000\037\200\004@\000@\000\000"
 2552      1F800440 
 2552      00400000 
 2553 03fc 04000780 		.ascii	"\004\000\007\200\000@\004@\007\300\000@"
 2553      00400440 
 2553      07C00040 
 2554 0408 04000700 		.ascii	"\004\000\007\000\004\300\001\200\006\000\004\000"
 2554      04C00180 
 2554      06000400 
 2555 0414 060001C0 		.ascii	"\006\000\001\300\007\000\001\300\006\000\000\000"
 2555      070001C0 
 2555      06000000 
 2556 0420 044006C0 		.ascii	"\004@\006\300\001\000\006\300\004@\000\000"
 2556      010006C0 
ARM GAS  /tmp/cc83C5OS.s 			page 59


 2556      04400000 
 2557 042c 04100710 		.ascii	"\004\020\007\020\004\340\001\200\006\000\004\000"
 2557      04E00180 
 2557      06000400 
 2558 0438 00000440 		.ascii	"\000\000\004@\005\300\006@\004@\000\000"
 2558      05C00640 
 2558      04400000 
 2559 0444 00000000 		.ascii	"\000\000\000\000\004\000{\340@ \000\000"
 2559      04007BE0 
 2559      40200000 
 2560 0450 00000000 		.ascii	"\000\000\000\000\000\000\377\360\000\000\000\000"
 2560      0000FFF0 
 2560      00000000 
 2561 045c 00004020 		.ascii	"\000\000@ {\340\004\000\000\000\000\000"
 2561      7BE00400 
 2561      00000000 
 2562 0468 40008000 		.ascii	"@\000\200\000@\000 \000 \000@\000"
 2562      40002000 
 2562      20004000 
 2563              		.section	.rodata.asc2_1608,"a"
 2564              		.align	2
 2565              		.set	.LANCHOR3,. + 0
 2568              	asc2_1608:
 2569 0000 00000000 		.ascii	"\000\000\000\000\000\000\000\000\000\000\000\000\000"
 2569      00000000 
 2569      00000000 
 2569      00
 2570 000d 000000   		.ascii	"\000\000\000"
 2571 0010 00000000 		.ascii	"\000\000\000\000\000\000\037\314\000\014\000\000\000"
 2571      00001FCC 
 2571      000C0000 
 2571      00
 2572 001d 000000   		.ascii	"\000\000\000"
 2573 0020 00000800 		.ascii	"\000\000\010\0000\000`\000\010\0000\000`\000\000\000"
 2573      30006000 
 2573      08003000 
 2573      60000000 
 2574 0030 022003FC 		.ascii	"\002 \003\374\036 \002 \003\374\036 \002 \000\000"
 2574      1E200220 
 2574      03FC1E20 
 2574      02200000 
 2575 0040 00000E18 		.ascii	"\000\000\016\030\021\004?\377\020\204\014x\000\000\000"
 2575      11043FFF 
 2575      10840C78 
 2575      000000
 2576 004f 00       		.ascii	"\000"
 2577 0050 0F001084 		.ascii	"\017\000\020\204\0178\000\300\007x\030\204\000x\000"
 2577      0F3800C0 
 2577      07781884 
 2577      007800
 2578 005f 00       		.ascii	"\000"
 2579 0060 00780F84 		.ascii	"\000x\017\204\020\304\021$\016\230\000\344\000\204\000"
 2579      10C41124 
 2579      0E9800E4 
 2579      008400
 2580 006f 08       		.ascii	"\010"
 2581 0070 08006800 		.ascii	"\010\000h\000p\000\000\000\000\000\000\000\000\000\000"
ARM GAS  /tmp/cc83C5OS.s 			page 60


 2581      70000000 
 2581      00000000 
 2581      000000
 2582 007f 00       		.ascii	"\000"
 2583 0080 00000000 		.ascii	"\000\000\000\000\000\000\007\340\030\030 \004@\002\000"
 2583      000007E0 
 2583      18182004 
 2583      400200
 2584 008f 00       		.ascii	"\000"
 2585 0090 00004002 		.ascii	"\000\000@\002 \004\030\030\007\340\000\000\000\000\000"
 2585      20041818 
 2585      07E00000 
 2585      000000
 2586 009f 00       		.ascii	"\000"
 2587 00a0 02400240 		.ascii	"\002@\002@\001\200\017\360\001\200\002@\002@\000\000"
 2587      01800FF0 
 2587      01800240 
 2587      02400000 
 2588 00b0 00800080 		.ascii	"\000\200\000\200\000\200\017\370\000\200\000\200\000"
 2588      00800FF8 
 2588      00800080 
 2588      00
 2589 00bd 800000   		.ascii	"\200\000\000"
 2590 00c0 0001000D 		.ascii	"\000\001\000\015\000\016\000\000\000\000\000\000\000"
 2590      000E0000 
 2590      00000000 
 2590      00
 2591 00cd 000000   		.ascii	"\000\000\000"
 2592 00d0 00000080 		.ascii	"\000\000\000\200\000\200\000\200\000\200\000\200\000"
 2592      00800080 
 2592      00800080 
 2592      00
 2593 00dd 800080   		.ascii	"\200\000\200"
 2594 00e0 0000000C 		.ascii	"\000\000\000\014\000\014\000\000\000\000\000\000\000"
 2594      000C0000 
 2594      00000000 
 2594      00
 2595 00ed 000000   		.ascii	"\000\000\000"
 2596 00f0 00000006 		.ascii	"\000\000\000\006\000\030\000`\001\200\006\000\030\000"
 2596      00180060 
 2596      01800600 
 2596      1800
 2597 00fe 2000     		.ascii	" \000"
 2598 0100 000007F0 		.ascii	"\000\000\007\360\010\010\020\004\020\004\010\010\007"
 2598      08081004 
 2598      10040808 
 2598      07
 2599 010d F00000   		.ascii	"\360\000\000"
 2600 0110 00000804 		.ascii	"\000\000\010\004\010\004\037\374\000\004\000\004\000"
 2600      08041FFC 
 2600      00040004 
 2600      00
 2601 011d 000000   		.ascii	"\000\000\000"
 2602 0120 00000E0C 		.ascii	"\000\000\016\014\020\024\020$\020D\021\204\016\014\000"
 2602      10141024 
 2602      10441184 
 2602      0E0C00
ARM GAS  /tmp/cc83C5OS.s 			page 61


 2603 012f 00       		.ascii	"\000"
 2604 0130 00000C18 		.ascii	"\000\000\014\030\020\004\021\004\021\004\022\210\014"
 2604      10041104 
 2604      11041288 
 2604      0C
 2605 013d 700000   		.ascii	"p\000\000"
 2606 0140 000000E0 		.ascii	"\000\000\000\340\003 \004$\010$\037\374\000$\000\000"
 2606      03200424 
 2606      08241FFC 
 2606      00240000 
 2607 0150 00001F98 		.ascii	"\000\000\037\230\020\204\021\004\021\004\020\210\020"
 2607      10841104 
 2607      11041088 
 2607      10
 2608 015d 700000   		.ascii	"p\000\000"
 2609 0160 000007F0 		.ascii	"\000\000\007\360\010\210\021\004\021\004\030\210\000"
 2609      08881104 
 2609      11041888 
 2609      00
 2610 016d 700000   		.ascii	"p\000\000"
 2611 0170 00001C00 		.ascii	"\000\000\034\000\020\000\020\374\023\000\034\000\020"
 2611      100010FC 
 2611      13001C00 
 2611      10
 2612 017d 000000   		.ascii	"\000\000\000"
 2613 0180 00000E38 		.ascii	"\000\000\0168\021D\020\204\020\204\021D\0168\000\000"
 2613      11441084 
 2613      10841144 
 2613      0E380000 
 2614 0190 00000700 		.ascii	"\000\000\007\000\010\214\020D\020D\010\210\007\360\000"
 2614      088C1044 
 2614      10440888 
 2614      07F000
 2615 019f 00       		.ascii	"\000"
 2616 01a0 00000000 		.ascii	"\000\000\000\000\000\000\003\014\003\014\000\000\000"
 2616      0000030C 
 2616      030C0000 
 2616      00
 2617 01ad 000000   		.ascii	"\000\000\000"
 2618 01b0 00000000 		.ascii	"\000\000\000\000\000\001\001\006\000\000\000\000\000"
 2618      00010106 
 2618      00000000 
 2618      00
 2619 01bd 000000   		.ascii	"\000\000\000"
 2620 01c0 00000080 		.ascii	"\000\000\000\200\001@\002 \004\020\010\010\020\004\000"
 2620      01400220 
 2620      04100808 
 2620      100400
 2621 01cf 00       		.ascii	"\000"
 2622 01d0 02200220 		.ascii	"\002 \002 \002 \002 \002 \002 \002 \000\000"
 2622      02200220 
 2622      02200220 
 2622      02200000 
 2623 01e0 00001004 		.ascii	"\000\000\020\004\010\010\004\020\002 \001@\000\200\000"
 2623      08080410 
 2623      02200140 
 2623      008000
ARM GAS  /tmp/cc83C5OS.s 			page 62


 2624 01ef 00       		.ascii	"\000"
 2625 01f0 00000E00 		.ascii	"\000\000\016\000\022\000\020\014\020l\020\200\017\000"
 2625      1200100C 
 2625      106C1080 
 2625      0F00
 2626 01fe 0000     		.ascii	"\000\000"
 2627 0200 03E00C18 		.ascii	"\003\340\014\030\023\344\024$\027\304\010(\007\320\000"
 2627      13E41424 
 2627      17C40828 
 2627      07D000
 2628 020f 00       		.ascii	"\000"
 2629 0210 0004003C 		.ascii	"\000\004\000<\003\304\034@\007@\000\344\000\034\000"
 2629      03C41C40 
 2629      074000E4 
 2629      001C00
 2630 021f 04       		.ascii	"\004"
 2631 0220 10041FFC 		.ascii	"\020\004\037\374\021\004\021\004\021\004\016\210\000"
 2631      11041104 
 2631      11040E88 
 2631      00
 2632 022d 700000   		.ascii	"p\000\000"
 2633 0230 03E00C18 		.ascii	"\003\340\014\030\020\004\020\004\020\004\020\010\034"
 2633      10041004 
 2633      10041008 
 2633      1C
 2634 023d 100000   		.ascii	"\020\000\000"
 2635 0240 10041FFC 		.ascii	"\020\004\037\374\020\004\020\004\020\004\010\010\007"
 2635      10041004 
 2635      10040808 
 2635      07
 2636 024d F00000   		.ascii	"\360\000\000"
 2637 0250 10041FFC 		.ascii	"\020\004\037\374\021\004\021\004\027\304\020\004\010"
 2637      11041104 
 2637      17C41004 
 2637      08
 2638 025d 180000   		.ascii	"\030\000\000"
 2639 0260 10041FFC 		.ascii	"\020\004\037\374\021\004\021\000\027\300\020\000\010"
 2639      11041100 
 2639      17C01000 
 2639      08
 2640 026d 000000   		.ascii	"\000\000\000"
 2641 0270 03E00C18 		.ascii	"\003\340\014\030\020\004\020\004\020D\034x\000@\000"
 2641      10041004 
 2641      10441C78 
 2641      004000
 2642 027f 00       		.ascii	"\000"
 2643 0280 10041FFC 		.ascii	"\020\004\037\374\020\204\000\200\000\200\020\204\037"
 2643      10840080 
 2643      00801084 
 2643      1F
 2644 028d FC1004   		.ascii	"\374\020\004"
 2645 0290 00001004 		.ascii	"\000\000\020\004\020\004\037\374\020\004\020\004\000"
 2645      10041FFC 
 2645      10041004 
 2645      00
 2646 029d 000000   		.ascii	"\000\000\000"
 2647 02a0 00030001 		.ascii	"\000\003\000\001\020\001\020\001\037\376\020\000\020"
ARM GAS  /tmp/cc83C5OS.s 			page 63


 2647      10011001 
 2647      1FFE1000 
 2647      10
 2648 02ad 000000   		.ascii	"\000\000\000"
 2649 02b0 10041FFC 		.ascii	"\020\004\037\374\021\004\003\200\024d\030\034\020\004"
 2649      11040380 
 2649      1464181C 
 2649      1004
 2650 02be 0000     		.ascii	"\000\000"
 2651 02c0 10041FFC 		.ascii	"\020\004\037\374\020\004\000\004\000\004\000\004\000"
 2651      10040004 
 2651      00040004 
 2651      00
 2652 02cd 0C0000   		.ascii	"\014\000\000"
 2653 02d0 10041FFC 		.ascii	"\020\004\037\374\037\000\000\374\037\000\037\374\020"
 2653      1F0000FC 
 2653      1F001FFC 
 2653      10
 2654 02dd 040000   		.ascii	"\004\000\000"
 2655 02e0 10041FFC 		.ascii	"\020\004\037\374\014\004\003\000\000\340\020\030\037"
 2655      0C040300 
 2655      00E01018 
 2655      1F
 2656 02ed FC1000   		.ascii	"\374\020\000"
 2657 02f0 07F00808 		.ascii	"\007\360\010\010\020\004\020\004\020\004\010\010\007"
 2657      10041004 
 2657      10040808 
 2657      07
 2658 02fd F00000   		.ascii	"\360\000\000"
 2659 0300 10041FFC 		.ascii	"\020\004\037\374\020\204\020\200\020\200\020\200\017"
 2659      10841080 
 2659      10801080 
 2659      0F
 2660 030d 000000   		.ascii	"\000\000\000"
 2661 0310 07F00818 		.ascii	"\007\360\010\030\020$\020$\020\034\010\012\007\362\000"
 2661      10241024 
 2661      101C080A 
 2661      07F200
 2662 031f 00       		.ascii	"\000"
 2663 0320 10041FFC 		.ascii	"\020\004\037\374\021\004\021\000\021\300\0210\016\014"
 2663      11041100 
 2663      11C01130 
 2663      0E0C
 2664 032e 0004     		.ascii	"\000\004"
 2665 0330 00000E1C 		.ascii	"\000\000\016\034\021\004\020\204\020\204\020D\0348\000"
 2665      11041084 
 2665      10841044 
 2665      1C3800
 2666 033f 00       		.ascii	"\000"
 2667 0340 18001000 		.ascii	"\030\000\020\000\020\004\037\374\020\004\020\000\030"
 2667      10041FFC 
 2667      10041000 
 2667      18
 2668 034d 000000   		.ascii	"\000\000\000"
 2669 0350 10001FF8 		.ascii	"\020\000\037\370\020\004\000\004\000\004\020\004\037"
 2669      10040004 
 2669      00041004 
ARM GAS  /tmp/cc83C5OS.s 			page 64


 2669      1F
 2670 035d F81000   		.ascii	"\370\020\000"
 2671 0360 10001E00 		.ascii	"\020\000\036\000\021\340\000\034\000p\023\200\034\000"
 2671      11E0001C 
 2671      00701380 
 2671      1C00
 2672 036e 1000     		.ascii	"\020\000"
 2673 0370 1FC0103C 		.ascii	"\037\300\020<\000\340\037\000\000\340\020<\037\300\000"
 2673      00E01F00 
 2673      00E0103C 
 2673      1FC000
 2674 037f 00       		.ascii	"\000"
 2675 0380 1004180C 		.ascii	"\020\004\030\014\0264\001\300\001\300\0264\030\014\020"
 2675      163401C0 
 2675      01C01634 
 2675      180C10
 2676 038f 04       		.ascii	"\004"
 2677 0390 10001C00 		.ascii	"\020\000\034\000\023\004\000\374\023\004\034\000\020"
 2677      130400FC 
 2677      13041C00 
 2677      10
 2678 039d 000000   		.ascii	"\000\000\000"
 2679 03a0 0804101C 		.ascii	"\010\004\020\034\020d\020\204\023\004\034\004\020\030"
 2679      10641084 
 2679      13041C04 
 2679      1018
 2680 03ae 0000     		.ascii	"\000\000"
 2681 03b0 00000000 		.ascii	"\000\000\000\000\000\000\177\376@\002@\002@\002\000"
 2681      00007FFE 
 2681      40024002 
 2681      400200
 2682 03bf 00       		.ascii	"\000"
 2683 03c0 00003000 		.ascii	"\000\0000\000\014\000\003\200\000`\000\034\000\003\000"
 2683      0C000380 
 2683      0060001C 
 2683      000300
 2684 03cf 00       		.ascii	"\000"
 2685 03d0 00004002 		.ascii	"\000\000@\002@\002@\002\177\376\000\000\000\000\000"
 2685      40024002 
 2685      7FFE0000 
 2685      000000
 2686 03df 00       		.ascii	"\000"
 2687 03e0 00000000 		.ascii	"\000\000\000\000 \000@\000@\000@\000 \000\000\000"
 2687      20004000 
 2687      40004000 
 2687      20000000 
 2688 03f0 00010001 		.ascii	"\000\001\000\001\000\001\000\001\000\001\000\001\000"
 2688      00010001 
 2688      00010001 
 2688      00
 2689 03fd 010001   		.ascii	"\001\000\001"
 2690 0400 00004000 		.ascii	"\000\000@\000@\000 \000\000\000\000\000\000\000\000"
 2690      40002000 
 2690      00000000 
 2690      000000
 2691 040f 00       		.ascii	"\000"
 2692 0410 00000098 		.ascii	"\000\000\000\230\001$\001D\001D\001D\000\374\000\004"
ARM GAS  /tmp/cc83C5OS.s 			page 65


 2692      01240144 
 2692      01440144 
 2692      00FC0004 
 2693 0420 10001FFC 		.ascii	"\020\000\037\374\000\210\001\004\001\004\000\210\000"
 2693      00880104 
 2693      01040088 
 2693      00
 2694 042d 700000   		.ascii	"p\000\000"
 2695 0430 00000070 		.ascii	"\000\000\000p\000\210\001\004\001\004\001\004\000\210"
 2695      00880104 
 2695      01040104 
 2695      0088
 2696 043e 0000     		.ascii	"\000\000"
 2697 0440 00000070 		.ascii	"\000\000\000p\000\210\001\004\001\004\021\010\037\374"
 2697      00880104 
 2697      01041108 
 2697      1FFC
 2698 044e 0004     		.ascii	"\000\004"
 2699 0450 000000F8 		.ascii	"\000\000\000\370\001D\001D\001D\001D\000\310\000\000"
 2699      01440144 
 2699      01440144 
 2699      00C80000 
 2700 0460 00000104 		.ascii	"\000\000\001\004\001\004\017\374\021\004\021\004\021"
 2700      01040FFC 
 2700      11041104 
 2700      11
 2701 046d 001800   		.ascii	"\000\030\000"
 2702 0470 000000D6 		.ascii	"\000\000\000\326\001)\001)\001)\001\311\001\006\000"
 2702      01290129 
 2702      012901C9 
 2702      010600
 2703 047f 00       		.ascii	"\000"
 2704 0480 10041FFC 		.ascii	"\020\004\037\374\000\204\001\000\001\000\001\004\000"
 2704      00840100 
 2704      01000104 
 2704      00
 2705 048d FC0004   		.ascii	"\374\000\004"
 2706 0490 00000104 		.ascii	"\000\000\001\004\031\004\031\374\000\004\000\004\000"
 2706      190419FC 
 2706      00040004 
 2706      00
 2707 049d 000000   		.ascii	"\000\000\000"
 2708 04a0 00000003 		.ascii	"\000\000\000\003\000\001\001\001\031\001\031\376\000"
 2708      00010101 
 2708      190119FE 
 2708      00
 2709 04ad 000000   		.ascii	"\000\000\000"
 2710 04b0 10041FFC 		.ascii	"\020\004\037\374\000$\000@\001\264\001\014\001\004\000"
 2710      00240040 
 2710      01B4010C 
 2710      010400
 2711 04bf 00       		.ascii	"\000"
 2712 04c0 00001004 		.ascii	"\000\000\020\004\020\004\037\374\000\004\000\004\000"
 2712      10041FFC 
 2712      00040004 
 2712      00
 2713 04cd 000000   		.ascii	"\000\000\000"
ARM GAS  /tmp/cc83C5OS.s 			page 66


 2714 04d0 010401FC 		.ascii	"\001\004\001\374\001\004\001\000\001\374\001\004\001"
 2714      01040100 
 2714      01FC0104 
 2714      01
 2715 04dd 0000FC   		.ascii	"\000\000\374"
 2716 04e0 010401FC 		.ascii	"\001\004\001\374\000\204\001\000\001\000\001\004\000"
 2716      00840100 
 2716      01000104 
 2716      00
 2717 04ed FC0004   		.ascii	"\374\000\004"
 2718 04f0 000000F8 		.ascii	"\000\000\000\370\001\004\001\004\001\004\001\004\000"
 2718      01040104 
 2718      01040104 
 2718      00
 2719 04fd F80000   		.ascii	"\370\000\000"
 2720 0500 010101FF 		.ascii	"\001\001\001\377\000\205\001\004\001\004\000\210\000"
 2720      00850104 
 2720      01040088 
 2720      00
 2721 050d 700000   		.ascii	"p\000\000"
 2722 0510 00000070 		.ascii	"\000\000\000p\000\210\001\004\001\004\001\005\001\377"
 2722      00880104 
 2722      01040105 
 2722      01FF
 2723 051e 0001     		.ascii	"\000\001"
 2724 0520 01040104 		.ascii	"\001\004\001\004\001\374\000\204\001\004\001\000\001"
 2724      01FC0084 
 2724      01040100 
 2724      01
 2725 052d 800000   		.ascii	"\200\000\000"
 2726 0530 000000CC 		.ascii	"\000\000\000\314\001$\001$\001$\001$\001\230\000\000"
 2726      01240124 
 2726      01240124 
 2726      01980000 
 2727 0540 00000100 		.ascii	"\000\000\001\000\001\000\007\370\001\004\001\004\000"
 2727      010007F8 
 2727      01040104 
 2727      00
 2728 054d 000000   		.ascii	"\000\000\000"
 2729 0550 010001F8 		.ascii	"\001\000\001\370\000\004\000\004\000\004\001\010\001"
 2729      00040004 
 2729      00040108 
 2729      01
 2730 055d FC0004   		.ascii	"\374\000\004"
 2731 0560 01000180 		.ascii	"\001\000\001\200\001p\000\014\000\020\001`\001\200\001"
 2731      0170000C 
 2731      00100160 
 2731      018001
 2732 056f 00       		.ascii	"\000"
 2733 0570 01F0010C 		.ascii	"\001\360\001\014\0000\001\300\0000\001\014\001\360\001"
 2733      003001C0 
 2733      0030010C 
 2733      01F001
 2734 057f 00       		.ascii	"\000"
 2735 0580 00000104 		.ascii	"\000\000\001\004\001\214\000t\001p\001\214\001\004\000"
 2735      018C0074 
 2735      0170018C 
ARM GAS  /tmp/cc83C5OS.s 			page 67


 2735      010400
 2736 058f 00       		.ascii	"\000"
 2737 0590 01010181 		.ascii	"\001\001\001\201\001q\000\016\000\030\001`\001\200\001"
 2737      0171000E 
 2737      00180160 
 2737      018001
 2738 059f 00       		.ascii	"\000"
 2739 05a0 00000184 		.ascii	"\000\000\001\204\001\014\0014\001D\001\204\001\014\000"
 2739      010C0134 
 2739      01440184 
 2739      010C00
 2740 05af 00       		.ascii	"\000"
 2741 05b0 00000000 		.ascii	"\000\000\000\000\000\000\000\000\001\000>\374@\002@"
 2741      00000000 
 2741      01003EFC 
 2741      400240
 2742 05bf 02       		.ascii	"\002"
 2743 05c0 00000000 		.ascii	"\000\000\000\000\000\000\000\000\377\377\000\000\000"
 2743      00000000 
 2743      FFFF0000 
 2743      00
 2744 05cd 000000   		.ascii	"\000\000\000"
 2745 05d0 00004002 		.ascii	"\000\000@\002@\002>\374\001\000\000\000\000\000\000"
 2745      40023EFC 
 2745      01000000 
 2745      000000
 2746 05df 00       		.ascii	"\000"
 2747 05e0 00006000 		.ascii	"\000\000`\000\200\000\200\000@\000@\000 \000 \000"
 2747      80008000 
 2747      40004000 
 2747      20002000 
 2748              		.section	.rodata.asc2_2412,"a"
 2749              		.align	2
 2750              		.set	.LANCHOR4,. + 0
 2753              	asc2_2412:
 2754 0000 00000000 		.ascii	"\000\000\000\000\000\000\000\000\000\000\000\000\000"
 2754      00000000 
 2754      00000000 
 2754      00
 2755 000d 00000000 		.ascii	"\000\000\000\000\000\000\000\000\000\000\000\000\000"
 2755      00000000 
 2755      00000000 
 2755      00
 2756 001a 00000000 		.ascii	"\000\000\000\000\000\000\000\000\000\000"
 2756      00000000 
 2756      0000
 2757 0024 00000000 		.ascii	"\000\000\000\000\000\000\000\000\000\000\000\000\000"
 2757      00000000 
 2757      00000000 
 2757      00
 2758 0031 00000F80 		.ascii	"\000\000\017\2008\017\3768\017\2008\000\000\000\000"
 2758      380FFE38 
 2758      0F803800 
 2758      000000
 2759 0040 00000000 		.ascii	"\000\000\000\000\000\000\000\000"
 2759      00000000 
 2760 0048 00000000 		.ascii	"\000\000\000\000\000\000\001\000\000\006\000\000\014"
ARM GAS  /tmp/cc83C5OS.s 			page 68


 2760      00000100 
 2760      00060000 
 2760      0C
 2761 0055 00003800 		.ascii	"\000\0008\000\0001\000\000\006\000\000\014\000\0008"
 2761      00310000 
 2761      0600000C 
 2761      000038
 2762 0064 00003000 		.ascii	"\000\0000\000\000\000\000\000"
 2762      00000000 
 2763 006c 00000000 		.ascii	"\000\000\000\000a\200\000g\370\007\371\200\000a\200"
 2763      61800067 
 2763      F807F980 
 2763      006180
 2764 007b 00618000 		.ascii	"\000a\200\000a\200\000a\200\000g\370\007\371\200\000"
 2764      61800061 
 2764      800067F8 
 2764      07F98000 
 2765 008b 61800000 		.ascii	"a\200\000\000\000"
 2765      00
 2766 0090 00000000 		.ascii	"\000\000\000\000\000\000\001\300\340\003\340\360\006"
 2766      000001C0 
 2766      E003E0F0 
 2766      06
 2767 009d 30080418 		.ascii	"0\010\004\030\010\037\377\376\004\016\010\007\207\360"
 2767      081FFFFE 
 2767      040E0807 
 2767      87F0
 2768 00ab 0381E000 		.ascii	"\003\201\340\000\000\000\000\000\000"
 2768      00000000 
 2768      00
 2769 00b4 01F00006 		.ascii	"\001\360\000\006\014\000\004\004\010\006\014p\001\371"
 2769      0C000404 
 2769      08060C70 
 2769      01F9
 2770 00c2 C0000E00 		.ascii	"\300\000\016\000\000;\340\000\354\030\007\010\010\004"
 2770      003BE000 
 2770      EC180708 
 2770      0804
 2771 00d0 0C180003 		.ascii	"\014\030\000\003\340\000\000\000"
 2771      E0000000 
 2772 00d8 0001E000 		.ascii	"\000\001\340\000\007\360\003\370\030\004\034\010\004"
 2772      07F003F8 
 2772      18041C08 
 2772      04
 2773 00e5 170807E1 		.ascii	"\027\010\007\341\320\003\300\340\000#\260\000<\010\000"
 2773      D003C0E0 
 2773      0023B000 
 2773      3C0800
 2774 00f4 20080000 		.ascii	" \010\000\000\020\000\000\000"
 2774      10000000 
 2775 00fc 00000001 		.ascii	"\000\000\000\001\000\0001\000\0002\000\000\034\000\000"
 2775      00003100 
 2775      00320000 
 2775      1C0000
 2776 010b 00000000 		.ascii	"\000\000\000\000\000\000\000\000\000\000\000\000\000"
 2776      00000000 
 2776      00000000 
ARM GAS  /tmp/cc83C5OS.s 			page 69


 2776      00
 2777 0118 00000000 		.ascii	"\000\000\000\000\000\000\000\000"
 2777      00000000 
 2778 0120 00000000 		.ascii	"\000\000\000\000\000\000\000\000\000\000\000\000\000"
 2778      00000000 
 2778      00000000 
 2778      00
 2779 012d 0000007F 		.ascii	"\000\000\000\177\000\001\377\300\007\200\360\014\000"
 2779      0001FFC0 
 2779      0780F00C 
 2779      00
 2780 013a 18100004 		.ascii	"\030\020\000\004 \000\002\000\000\000"
 2780      20000200 
 2780      0000
 2781 0144 00000020 		.ascii	"\000\000\000 \000\002\020\000\004\014\000\030\007\200"
 2781      00021000 
 2781      040C0018 
 2781      0780
 2782 0152 F001FFC0 		.ascii	"\360\001\377\300\000\177\000\000\000\000\000\000\000"
 2782      007F0000 
 2782      00000000 
 2782      00
 2783 015f 00000000 		.ascii	"\000\000\000\000\000\000\000\000\000"
 2783      00000000 
 2783      00
 2784 0168 00000000 		.ascii	"\000\000\000\000B\000\000f\000\000f\000\000<\000\000"
 2784      42000066 
 2784      00006600 
 2784      003C0000 
 2785 0178 180003FF 		.ascii	"\030\000\003\377\300\000\030\000\000<\000\000f\000\000"
 2785      C0001800 
 2785      003C0000 
 2785      660000
 2786 0187 66000042 		.ascii	"f\000\000B\000"
 2786      00
 2787 018c 00000000 		.ascii	"\000\000\000\000\010\000\000\010\000\000\010\000\000"
 2787      08000008 
 2787      00000800 
 2787      00
 2788 0199 08000008 		.ascii	"\010\000\000\010\000\001\377\300\000\010\000\000\010"
 2788      0001FFC0 
 2788      00080000 
 2788      08
 2789 01a6 00000800 		.ascii	"\000\000\010\000\000\010\000\000\010\000"
 2789      00080000 
 2789      0800
 2790 01b0 00000000 		.ascii	"\000\000\000\000\000\001\000\0001\000\0002\000\000\034"
 2790      00010000 
 2790      31000032 
 2790      00001C
 2791 01bf 00000000 		.ascii	"\000\000\000\000\000\000\000\000\000\000\000\000\000"
 2791      00000000 
 2791      00000000 
 2791      00
 2792 01cc 00000000 		.ascii	"\000\000\000\000\000\000\000\000"
 2792      00000000 
 2793 01d4 00000000 		.ascii	"\000\000\000\000\010\000\000\010\000\000\010\000\000"
ARM GAS  /tmp/cc83C5OS.s 			page 70


 2793      08000008 
 2793      00000800 
 2793      00
 2794 01e1 08000008 		.ascii	"\010\000\000\010\000\000\010\000\000\010\000\000\010"
 2794      00000800 
 2794      00080000 
 2794      08
 2795 01ee 00000800 		.ascii	"\000\000\010\000\000\010\000\000\000\000"
 2795      00080000 
 2795      0000
 2796 01f8 00000000 		.ascii	"\000\000\000\000\000\000\000\0008\000\0008\000\0008"
 2796      00000000 
 2796      38000038 
 2796      000038
 2797 0207 00000000 		.ascii	"\000\000\000\000\000\000\000\000\000\000\000\000\000"
 2797      00000000 
 2797      00000000 
 2797      00
 2798 0214 00000000 		.ascii	"\000\000\000\000\000\000\000\000"
 2798      00000000 
 2799 021c 00000000 		.ascii	"\000\000\000\000\000\006\000\000\034\000\000p\000\001"
 2799      00060000 
 2799      1C000070 
 2799      0001
 2800 022a 80000E00 		.ascii	"\200\000\016\000\0008\000\000\300\000\007\000\000\034"
 2800      00380000 
 2800      C0000700 
 2800      001C
 2801 0238 00003000 		.ascii	"\000\0000\000\000\000\000\000"
 2801      00000000 
 2802 0240 00000000 		.ascii	"\000\000\000\000\177\200\001\377\340\003\200p\006\000"
 2802      7F8001FF 
 2802      E0038070 
 2802      0600
 2803 024e 18040008 		.ascii	"\030\004\000\010\004\000\010\006\000\030\003\200p\001"
 2803      04000806 
 2803      00180380 
 2803      7001
 2804 025c FFE0007F 		.ascii	"\377\340\000\177\200\000\000\000"
 2804      80000000 
 2805 0264 00000000 		.ascii	"\000\000\000\000\000\000\001\000\010\001\000\010\001"
 2805      00000100 
 2805      08010008 
 2805      01
 2806 0271 000803FF 		.ascii	"\000\010\003\377\370\007\377\370\000\000\010\000\000"
 2806      F807FFF8 
 2806      00000800 
 2806      00
 2807 027e 08000008 		.ascii	"\010\000\000\010\000\000\000\000\000\000"
 2807      00000000 
 2807      0000
 2808 0288 00000001 		.ascii	"\000\000\000\001\3008\002\300X\004\000\230\004\001\030"
 2808      C03802C0 
 2808      58040098 
 2808      040118
 2809 0297 04021804 		.ascii	"\004\002\030\004\004\030\006\034\030\003\370\030\001"
 2809      0418061C 
ARM GAS  /tmp/cc83C5OS.s 			page 71


 2809      1803F818 
 2809      01
 2810 02a4 E0F80000 		.ascii	"\340\370\000\000\000\000\000\000"
 2810      00000000 
 2811 02ac 00000001 		.ascii	"\000\000\000\001\300\340\003\300\360\004\000\010\004"
 2811      C0E003C0 
 2811      F0040008 
 2811      04
 2812 02b9 08080408 		.ascii	"\010\010\004\010\010\006\030\010\003\364\030\001\347"
 2812      08061808 
 2812      03F41801 
 2812      E7
 2813 02c6 F00001E0 		.ascii	"\360\000\001\340\000\000\000\000\000\000"
 2813      00000000 
 2813      0000
 2814 02d0 00000000 		.ascii	"\000\000\000\000\003\000\000\015\000\000\021\000\000"
 2814      0300000D 
 2814      00001100 
 2814      00
 2815 02dd 61000081 		.ascii	"a\000\000\201\010\003\001\010\007\377\370\017\377\370"
 2815      08030108 
 2815      07FFF80F 
 2815      FFF8
 2816 02eb 00010800 		.ascii	"\000\001\010\000\001\010\000\000\000"
 2816      01080000 
 2816      00
 2817 02f4 00000000 		.ascii	"\000\000\000\000\000\340\007\374\320\006\010\010\006"
 2817      00E007FC 
 2817      D0060808 
 2817      06
 2818 0301 10080610 		.ascii	"\020\010\006\020\010\006\020\010\006\0308\006\017\360"
 2818      08061008 
 2818      06183806 
 2818      0FF0
 2819 030f 0607C000 		.ascii	"\006\007\300\000\000\000\000\000\000"
 2819      00000000 
 2819      00
 2820 0318 00000000 		.ascii	"\000\000\000\000?\200\001\377\340\003\2040\002\010\030"
 2820      3F8001FF 
 2820      E0038430 
 2820      020818
 2821 0327 04100804 		.ascii	"\004\020\010\004\020\010\004\020\010\007\030\020\003"
 2821      10080410 
 2821      08071810 
 2821      03
 2822 0334 0FF00007 		.ascii	"\017\360\000\007\300\000\000\000"
 2822      C0000000 
 2823 033c 00000000 		.ascii	"\000\000\000\000\000\000\003\300\000\007\000\000\006"
 2823      000003C0 
 2823      00070000 
 2823      06
 2824 0349 00000600 		.ascii	"\000\000\006\000\370\006\007\370\006\030\000\006\340"
 2824      F80607F8 
 2824      06180006 
 2824      E0
 2825 0356 00070000 		.ascii	"\000\007\000\000\006\000\000\000\000\000"
 2825      06000000 
ARM GAS  /tmp/cc83C5OS.s 			page 72


 2825      0000
 2826 0360 00000001 		.ascii	"\000\000\000\001\341\340\003\367\360\0064\020\004\030"
 2826      E1E003F7 
 2826      F0063410 
 2826      0418
 2827 036e 08041808 		.ascii	"\010\004\030\010\004\014\010\004\014\010\006\026\030"
 2827      040C0804 
 2827      0C080616 
 2827      18
 2828 037b 03F3F001 		.ascii	"\003\363\360\001\301\340\000\000\000"
 2828      C1E00000 
 2828      00
 2829 0384 00000000 		.ascii	"\000\000\000\000\370\000\003\3740\003\0068\004\002\010"
 2829      F80003FC 
 2829      30030638 
 2829      040208
 2830 0393 04020804 		.ascii	"\004\002\010\004\002\010\004\004\020\003\010\360\001"
 2830      02080404 
 2830      100308F0 
 2830      01
 2831 03a0 FFC0007F 		.ascii	"\377\300\000\177\000\000\000\000"
 2831      00000000 
 2832 03a8 00000000 		.ascii	"\000\000\000\000\000\000\000\000\000\000\000\000\000"
 2832      00000000 
 2832      00000000 
 2832      00
 2833 03b5 00000070 		.ascii	"\000\000\000p8\000p8\000p8\000\000\000\000\000\000\000"
 2833      38007038 
 2833      00703800 
 2833      00000000 
 2833      0000
 2834 03c7 00000000 		.ascii	"\000\000\000\000\000"
 2834      00
 2835 03cc 00000000 		.ascii	"\000\000\000\000\000\000\000\000\000\000\000\000\000"
 2835      00000000 
 2835      00000000 
 2835      00
 2836 03d9 00000030 		.ascii	"\000\000\0000\032\0000\034\000\000\000\000\000\000\000"
 2836      1A00301C 
 2836      00000000 
 2836      000000
 2837 03e8 00000000 		.ascii	"\000\000\000\000\000\000\000\000"
 2837      00000000 
 2838 03f0 00000000 		.ascii	"\000\000\000\000\000\000\000\010\000\000\024\000\000"
 2838      00000008 
 2838      00001400 
 2838      00
 2839 03fd 22000041 		.ascii	"\"\000\000A\000\000\200\200\001\000@\002\000 \004\000"
 2839      00008080 
 2839      01004002 
 2839      00200400 
 2840 040d 10080008 		.ascii	"\020\010\000\010\000\000\000"
 2840      000000
 2841 0414 00000000 		.ascii	"\000\000\000\000!\000\000!\000\000!\000\000!\000\000"
 2841      21000021 
 2841      00002100 
 2841      00210000 
ARM GAS  /tmp/cc83C5OS.s 			page 73


 2842 0424 21000021 		.ascii	"!\000\000!\000\000!\000\000!\000\000!\000\000!\000\000"
 2842      00002100 
 2842      00210000 
 2842      21000021 
 2842      0000
 2843 0436 0000     		.ascii	"\000\000"
 2844 0438 00000000 		.ascii	"\000\000\000\000\000\000\010\000\010\004\000\020\002"
 2844      00000800 
 2844      08040010 
 2844      02
 2845 0445 00200100 		.ascii	"\000 \001\000@\000\200\200\000A\000\000\"\000\000\024"
 2845      40008080 
 2845      00410000 
 2845      22000014 
 2846 0455 00000800 		.ascii	"\000\000\010\000\000\000\000"
 2846      000000
 2847 045c 00000003 		.ascii	"\000\000\000\003\300\000\004\300\000\004\000\000\010"
 2847      C00004C0 
 2847      00040000 
 2847      08
 2848 0469 0038080F 		.ascii	"\0008\010\0178\010\0108\010\020\000\0140\000\007\340"
 2848      38080838 
 2848      0810000C 
 2848      300007E0 
 2849 0479 0003C000 		.ascii	"\000\003\300\000\000\000\000"
 2849      000000
 2850 0480 00000000 		.ascii	"\000\000\000\000?\200\000\377\340\003\200p\002\017\020"
 2850      3F8000FF 
 2850      E0038070 
 2850      020F10
 2851 048f 06708804 		.ascii	"\006p\210\004\300\210\004\203\010\004\177\210\002\300"
 2851      C0880483 
 2851      08047F88 
 2851      02C0
 2852 049d 90030120 		.ascii	"\220\003\001 \000\376@"
 2852      00FE40
 2853 04a4 00000800 		.ascii	"\000\000\010\000\000\030\000\001\370\000>\010\001\302"
 2853      00180001 
 2853      F8003E08 
 2853      01C2
 2854 04b2 00070200 		.ascii	"\000\007\002\000\007\342\000\000\376\000\000\037\310"
 2854      07E20000 
 2854      FE00001F 
 2854      C8
 2855 04bf 0001F800 		.ascii	"\000\001\370\000\0008\000\000\010"
 2855      00380000 
 2855      08
 2856 04c8 04000807 		.ascii	"\004\000\010\007\377\370\007\377\370\004\010\010\004"
 2856      FFF807FF 
 2856      F8040808 
 2856      04
 2857 04d5 08080408 		.ascii	"\010\010\004\010\010\004\010\010\006\030\010\003\364"
 2857      08040808 
 2857      06180803 
 2857      F4
 2858 04e2 1801E7F0 		.ascii	"\030\001\347\360\000\001\340\000\000\000"
 2858      0001E000 
ARM GAS  /tmp/cc83C5OS.s 			page 74


 2858      0000
 2859 04ec 00000000 		.ascii	"\000\000\000\000?\200\001\377\340\003\200p\002\000\030"
 2859      3F8001FF 
 2859      E0038070 
 2859      020018
 2860 04fb 04000804 		.ascii	"\004\000\010\004\000\010\004\000\010\004\000\020\006"
 2860      00080400 
 2860      08040010 
 2860      06
 2861 0508 00200780 		.ascii	"\000 \007\200\300\000\000\000"
 2861      C0000000 
 2862 0510 04000807 		.ascii	"\004\000\010\007\377\370\007\377\370\004\000\010\004"
 2862      FFF807FF 
 2862      F8040008 
 2862      04
 2863 051d 00080400 		.ascii	"\000\010\004\000\010\004\000\030\002\000\020\003\200"
 2863      08040018 
 2863      02001003 
 2863      80
 2864 052a 7001FFE0 		.ascii	"p\001\377\340\000\177\200\000\000\000"
 2864      007F8000 
 2864      0000
 2865 0534 04000807 		.ascii	"\004\000\010\007\377\370\007\377\370\004\010\010\004"
 2865      FFF807FF 
 2865      F8040808 
 2865      04
 2866 0541 08080408 		.ascii	"\010\010\004\010\010\004\010\010\004>\010\004\000\010"
 2866      08040808 
 2866      043E0804 
 2866      0008
 2867 054f 06001801 		.ascii	"\006\000\030\001\000`\000\000\000"
 2867      00600000 
 2867      00
 2868 0558 04000807 		.ascii	"\004\000\010\007\377\370\007\377\370\004\010\010\004"
 2868      FFF807FF 
 2868      F8040808 
 2868      04
 2869 0565 08000408 		.ascii	"\010\000\004\010\000\004\010\000\004>\000\006\000\000"
 2869      00040800 
 2869      043E0006 
 2869      0000
 2870 0573 06000001 		.ascii	"\006\000\000\001\200\000\000\000\000"
 2870      80000000 
 2870      00
 2871 057c 00000000 		.ascii	"\000\000\000\000?\200\001\377\340\003\200p\006\000\030"
 2871      3F8001FF 
 2871      E0038070 
 2871      060018
 2872 058b 04000804 		.ascii	"\004\000\010\004\002\010\004\002\010\002\003\360\007"
 2872      02080402 
 2872      080203F0 
 2872      07
 2873 0598 83F00002 		.ascii	"\203\360\000\002\000\000\002\000"
 2873      00000200 
 2874 05a0 04000807 		.ascii	"\004\000\010\007\377\370\007\377\370\004\010\010\000"
 2874      FFF807FF 
 2874      F8040808 
ARM GAS  /tmp/cc83C5OS.s 			page 75


 2874      00
 2875 05ad 08000008 		.ascii	"\010\000\000\010\000\000\010\000\000\010\000\004\010"
 2875      00000800 
 2875      00080004 
 2875      08
 2876 05ba 0807FFF8 		.ascii	"\010\007\377\370\007\377\370\004\000\010"
 2876      07FFF804 
 2876      0008
 2877 05c4 00000000 		.ascii	"\000\000\000\000\000\000\004\000\010\004\000\010\004"
 2877      00000400 
 2877      08040008 
 2877      04
 2878 05d1 000807FF 		.ascii	"\000\010\007\377\370\007\377\370\004\000\010\004\000"
 2878      F807FFF8 
 2878      04000804 
 2878      00
 2879 05de 08040008 		.ascii	"\010\004\000\010\000\000\000\000\000\000"
 2879      00000000 
 2879      0000
 2880 05e8 00000000 		.ascii	"\000\000\000\000\000\006\000\000\007\000\000\001\004"
 2880      00060000 
 2880      07000001 
 2880      04
 2881 05f5 00010400 		.ascii	"\000\001\004\000\001\004\000\003\007\377\376\007\377"
 2881      01040003 
 2881      07FFFE07 
 2881      FF
 2882 0602 FC040000 		.ascii	"\374\004\000\000\004\000\000\004\000\000"
 2882      04000004 
 2882      0000
 2883 060c 04000807 		.ascii	"\004\000\010\007\377\370\007\377\370\004\014\010\000"
 2883      FFF807FF 
 2883      F8040C08 
 2883      00
 2884 0619 1800003E 		.ascii	"\030\000\000>\000\004\307\200\005\003\310\006\000\370"
 2884      0004C780 
 2884      0503C806 
 2884      00F8
 2885 0627 04003804 		.ascii	"\004\0008\004\000\030\000\000\010"
 2885      00180000 
 2885      08
 2886 0630 04000807 		.ascii	"\004\000\010\007\377\370\007\377\370\004\000\010\000"
 2886      FFF807FF 
 2886      F8040008 
 2886      00
 2887 063d 00080000 		.ascii	"\000\010\000\000\010\000\000\010\000\000\010\000\000"
 2887      08000008 
 2887      00000800 
 2887      00
 2888 064a 08000018 		.ascii	"\010\000\000\030\000\000`\000\000\000"
 2888      00006000 
 2888      0000
 2889 0654 04000807 		.ascii	"\004\000\010\007\377\370\007\200\010\007\374\000\000"
 2889      FFF80780 
 2889      0807FC00 
 2889      00
 2890 0661 7FC00003 		.ascii	"\177\300\000\003\370\000\007\300\000x\000\007\200\010"
ARM GAS  /tmp/cc83C5OS.s 			page 76


 2890      F80007C0 
 2890      00780007 
 2890      8008
 2891 066f 07FFF807 		.ascii	"\007\377\370\007\377\370\004\000\010"
 2891      FFF80400 
 2891      08
 2892 0678 04000807 		.ascii	"\004\000\010\007\377\370\007\000\010\003\300\000\000"
 2892      FFF80700 
 2892      0803C000 
 2892      00
 2893 0685 E0000038 		.ascii	"\340\000\0008\000\000\036\000\000\007\000\000\001\300"
 2893      00001E00 
 2893      00070000 
 2893      01C0
 2894 0693 0400F007 		.ascii	"\004\000\360\007\377\370\004\000\000"
 2894      FFF80400 
 2894      00
 2895 069c 00000000 		.ascii	"\000\000\000\000\177\200\001\377\340\003\200p\006\000"
 2895      7F8001FF 
 2895      E0038070 
 2895      0600
 2896 06aa 18040008 		.ascii	"\030\004\000\010\004\000\010\006\000\030\003\0000\001"
 2896      04000806 
 2896      00180300 
 2896      3001
 2897 06b8 FFE0007F 		.ascii	"\377\340\000\177\200\000\000\000"
 2897      80000000 
 2898 06c0 04000807 		.ascii	"\004\000\010\007\377\370\007\377\370\004\004\010\004"
 2898      FFF807FF 
 2898      F8040408 
 2898      04
 2899 06cd 04000404 		.ascii	"\004\000\004\004\000\004\004\000\004\004\000\006\014"
 2899      00040400 
 2899      04040006 
 2899      0C
 2900 06da 0003F800 		.ascii	"\000\003\370\000\001\360\000\000\000\000"
 2900      01F00000 
 2900      0000
 2901 06e4 00000000 		.ascii	"\000\000\000\000\177\200\001\377\340\003\200p\006\000"
 2901      7F8001FF 
 2901      E0038070 
 2901      0600
 2902 06f2 88040088 		.ascii	"\210\004\000\210\004\000\310\006\000<\003\000>\001\377"
 2902      0400C806 
 2902      003C0300 
 2902      3E01FF
 2903 0701 E6007F84 		.ascii	"\346\000\177\204\000\000\000"
 2903      000000
 2904 0708 04000807 		.ascii	"\004\000\010\007\377\370\007\377\370\004\010\010\004"
 2904      FFF807FF 
 2904      F8040808 
 2904      04
 2905 0715 0800040C 		.ascii	"\010\000\004\014\000\004\017\000\004\013\300\006\020"
 2905      00040F00 
 2905      040BC006 
 2905      10
 2906 0722 F003F038 		.ascii	"\360\003\3608\001\340\010\000\000\010"
ARM GAS  /tmp/cc83C5OS.s 			page 77


 2906      01E00800 
 2906      0008
 2907 072c 00000001 		.ascii	"\000\000\000\001\340\370\003\3600\0060\020\004\030\010"
 2907      E0F803F0 
 2907      30063010 
 2907      041808
 2908 073b 04180804 		.ascii	"\004\030\010\004\014\010\004\014\010\002\006\030\002"
 2908      0C08040C 
 2908      08020618 
 2908      02
 2909 0748 07F00781 		.ascii	"\007\360\007\201\340\000\000\000"
 2909      E0000000 
 2910 0750 01800006 		.ascii	"\001\200\000\006\000\000\004\000\000\004\000\000\004"
 2910      00000400 
 2910      00040000 
 2910      04
 2911 075d 000807FF 		.ascii	"\000\010\007\377\370\007\377\370\004\000\010\004\000"
 2911      F807FFF8 
 2911      04000804 
 2911      00
 2912 076a 00040000 		.ascii	"\000\004\000\000\006\000\000\001\200\000"
 2912      06000001 
 2912      8000
 2913 0774 04000007 		.ascii	"\004\000\000\007\377\340\007\377\360\004\000\030\000"
 2913      FFE007FF 
 2913      F0040018 
 2913      00
 2914 0781 00080000 		.ascii	"\000\010\000\000\010\000\000\010\000\000\010\000\000"
 2914      08000008 
 2914      00000800 
 2914      00
 2915 078e 08040010 		.ascii	"\010\004\000\020\007\377\340\004\000\000"
 2915      07FFE004 
 2915      0000
 2916 0798 04000006 		.ascii	"\004\000\000\006\000\000\007\340\000\007\376\000\004"
 2916      000007E0 
 2916      0007FE00 
 2916      04
 2917 07a5 1FE00001 		.ascii	"\037\340\000\001\370\000\0008\000\001\340\004>\000\007"
 2917      F8000038 
 2917      0001E004 
 2917      3E0007
 2918 07b4 C0000600 		.ascii	"\300\000\006\000\000\004\000\000"
 2918      00040000 
 2919 07bc 04000007 		.ascii	"\004\000\000\007\340\000\007\377\300\004\037\370\000"
 2919      E00007FF 
 2919      C0041FF8 
 2919      00
 2920 07c9 07C007F8 		.ascii	"\007\300\007\370\000\007\377\200\004?\370\000\007\300"
 2920      0007FF80 
 2920      043FF800 
 2920      07C0
 2921 07d7 04F80007 		.ascii	"\004\370\000\007\000\000\004\000\000"
 2921      00000400 
 2921      00
 2922 07e0 00000004 		.ascii	"\000\000\000\004\000\010\006\000\030\007\300x\005\361"
 2922      00080600 
ARM GAS  /tmp/cc83C5OS.s 			page 78


 2922      1807C078 
 2922      05F1
 2923 07ee C8003E00 		.ascii	"\310\000>\000\000\037\200\004c\350\007\200\370\006\000"
 2923      001F8004 
 2923      63E80780 
 2923      F80600
 2924 07fd 18040008 		.ascii	"\030\004\000\010\000\000\000"
 2924      000000
 2925 0804 04000006 		.ascii	"\004\000\000\006\000\000\007\200\000\007\340\010\004"
 2925      00000780 
 2925      0007E008 
 2925      04
 2926 0811 7C08001F 		.ascii	"|\010\000\037\370\000\007\370\000\030\010\004\340\010"
 2926      F80007F8 
 2926      00180804 
 2926      E008
 2927 081f 07000006 		.ascii	"\007\000\000\006\000\000\004\000\000"
 2927      00000400 
 2927      00
 2928 0828 00000001 		.ascii	"\000\000\000\001\000\010\006\0008\004\000\370\004\003"
 2928      00080600 
 2928      380400F8 
 2928      0403
 2929 0836 E8040F08 		.ascii	"\350\004\017\010\004|\010\005\360\010\007\300\010\007"
 2929      047C0805 
 2929      F00807C0 
 2929      0807
 2930 0844 00180400 		.ascii	"\000\030\004\000`\000\000\000"
 2930      60000000 
 2931 084c 00000000 		.ascii	"\000\000\000\000\000\000\000\000\000\000\000\000\000"
 2931      00000000 
 2931      00000000 
 2931      00
 2932 0859 00003FFF 		.ascii	"\000\000?\377\376 \000\002 \000\002 \000\002 \000\002"
 2932      FE200002 
 2932      20000220 
 2932      00022000 
 2932      02
 2933 086a 20000200 		.ascii	" \000\002\000\000\000"
 2933      0000
 2934 0870 00000000 		.ascii	"\000\000\000\000\000\000\010\000\000\007\000\000\000"
 2934      00000800 
 2934      00070000 
 2934      00
 2935 087d C0000038 		.ascii	"\300\000\0008\000\000\006\000\000\001\300\000\0000\000"
 2935      00000600 
 2935      0001C000 
 2935      003000
 2936 088c 000E0000 		.ascii	"\000\016\000\000\001\000\000\000"
 2936      01000000 
 2937 0894 00000000 		.ascii	"\000\000\000\000\000\000 \000\002 \000\002 \000\002"
 2937      00002000 
 2937      02200002 
 2937      200002
 2938 08a3 20000220 		.ascii	" \000\002 \000\002?\377\376\000\000\000\000\000\000"
 2938      00023FFF 
 2938      FE000000 
ARM GAS  /tmp/cc83C5OS.s 			page 79


 2938      000000
 2939 08b2 00000000 		.ascii	"\000\000\000\000\000\000"
 2939      0000
 2940 08b8 00000000 		.ascii	"\000\000\000\000\000\000\000\000\000\010\000\000\020"
 2940      00000000 
 2940      00080000 
 2940      10
 2941 08c5 00003000 		.ascii	"\000\0000\000\000 \000\0000\000\000\020\000\000\010"
 2941      00200000 
 2941      30000010 
 2941      000008
 2942 08d4 00000000 		.ascii	"\000\000\000\000\000\000\000\000"
 2942      00000000 
 2943 08dc 00000100 		.ascii	"\000\000\001\000\000\001\000\000\001\000\000\001\000"
 2943      00010000 
 2943      01000001 
 2943      00
 2944 08e9 00010000 		.ascii	"\000\001\000\000\001\000\000\001\000\000\001\000\000"
 2944      01000001 
 2944      00000100 
 2944      00
 2945 08f6 01000001 		.ascii	"\001\000\000\001\000\000\001\000\000\001"
 2945      00000100 
 2945      0001
 2946 0900 00000000 		.ascii	"\000\000\000\000\000\000\000\000\000 \000\000 \000\000"
 2946      00000000 
 2946      00200000 
 2946      200000
 2947 090f 10000010 		.ascii	"\020\000\000\020\000\000\000\000\000\000\000\000\000"
 2947      00000000 
 2947      00000000 
 2947      00
 2948 091c 00000000 		.ascii	"\000\000\000\000\000\000\000\000"
 2948      00000000 
 2949 0924 00000000 		.ascii	"\000\000\000\000\000\360\000\031\370\000\033\030\000"
 2949      00F00019 
 2949      F8001B18 
 2949      00
 2950 0931 22080026 		.ascii	"\"\010\000&\010\000$\010\000$\020\000?\370\000\037\370"
 2950      08002408 
 2950      00241000 
 2950      3FF8001F 
 2950      F8
 2951 0942 00000800 		.ascii	"\000\000\010\000\000\030"
 2951      0018
 2952 0948 00000004 		.ascii	"\000\000\000\004\000\000\007\377\370\017\377\360\000"
 2952      000007FF 
 2952      F80FFFF0 
 2952      00
 2953 0955 18180010 		.ascii	"\030\030\000\020\010\000 \010\000 \010\0000\030\000"
 2953      08002008 
 2953      00200800 
 2953      301800
 2954 0964 1FF0000F 		.ascii	"\037\360\000\017\300\000\000\000"
 2954      C0000000 
 2955 096c 00000000 		.ascii	"\000\000\000\000\007\300\000\037\360\000\0300\000 \010"
 2955      07C0001F 
ARM GAS  /tmp/cc83C5OS.s 			page 80


 2955      F0001830 
 2955      002008
 2956 097b 00200800 		.ascii	"\000 \010\000 \010\000<\010\000\034\020\000\000`\000"
 2956      2008003C 
 2956      08001C10 
 2956      00006000 
 2957 098b 00000000 		.ascii	"\000\000\000\000\000"
 2957      00
 2958 0990 00000000 		.ascii	"\000\000\000\000\007\300\000\037\360\0008\030\000 \010"
 2958      07C0001F 
 2958      F0003818 
 2958      002008
 2959 099f 00200800 		.ascii	"\000 \010\000 \010\004\020\020\007\377\370\017\377\360"
 2959      20080410 
 2959      1007FFF8 
 2959      0FFFF0
 2960 09ae 00001000 		.ascii	"\000\000\020\000\000\000"
 2960      0000
 2961 09b4 00000000 		.ascii	"\000\000\000\000\000\000\000\007\300\000\037\360\000"
 2961      00000007 
 2961      C0001FF0 
 2961      00
 2962 09c1 12300022 		.ascii	"\0220\000\"\030\000\"\010\000\"\010\0002\010\000\036"
 2962      18002208 
 2962      00220800 
 2962      3208001E 
 2963 09d1 10000E20 		.ascii	"\020\000\016 \000\000\000"
 2963      000000
 2964 09d8 00000000 		.ascii	"\000\000\000\000 \000\000 \010\000 \010\001\377\370"
 2964      20000020 
 2964      08002008 
 2964      01FFF8
 2965 09e7 03FFF806 		.ascii	"\003\377\370\006 \010\004 \010\004 \010\007 \000\003"
 2965      20080420 
 2965      08042008 
 2965      07200003 
 2966 09f7 00000000 		.ascii	"\000\000\000\000\000"
 2966      00
 2967 09fc 00000000 		.ascii	"\000\000\000\000\000\016\000\016n\000\037\363\0001\261"
 2967      000E000E 
 2967      6E001FF3 
 2967      0031B1
 2968 0a0b 0020B100 		.ascii	"\000 \261\000 \261\0001\221\000\037\023\000.\036\000"
 2968      20B10031 
 2968      91001F13 
 2968      002E1E00 
 2969 0a1b 200E0030 		.ascii	" \016\0000\000"
 2969      00
 2970 0a20 00000004 		.ascii	"\000\000\000\004\000\010\007\377\370\017\377\370\000"
 2970      000807FF 
 2970      F80FFFF8 
 2970      00
 2971 0a2d 10080020 		.ascii	"\020\010\000 \000\000 \000\000 \010\000?\370\000\037"
 2971      00002000 
 2971      00200800 
 2971      3FF8001F 
 2972 0a3d F8000008 		.ascii	"\370\000\000\010\000\000\000"
ARM GAS  /tmp/cc83C5OS.s 			page 81


 2972      000000
 2973 0a44 00000000 		.ascii	"\000\000\000\000\000\000\000 \010\000 \010\000 \010"
 2973      00000020 
 2973      08002008 
 2973      002008
 2974 0a53 063FF806 		.ascii	"\006?\370\006?\370\000\000\010\000\000\010\000\000\010"
 2974      3FF80000 
 2974      08000008 
 2974      000008
 2975 0a62 00000000 		.ascii	"\000\000\000\000\000\000"
 2975      0000
 2976 0a68 00000000 		.ascii	"\000\000\000\000\000\000\000\000\003\000\000\003\000"
 2976      00000000 
 2976      03000003 
 2976      00
 2977 0a75 20010020 		.ascii	" \001\000 \001\000 \003\006?\376\006?\374\000\000\000"
 2977      01002003 
 2977      063FFE06 
 2977      3FFC0000 
 2977      00
 2978 0a86 00000000 		.ascii	"\000\000\000\000\000\000"
 2978      0000
 2979 0a8c 00000004 		.ascii	"\000\000\000\004\000\010\007\377\370\017\377\370\000"
 2979      000807FF 
 2979      F80FFFF8 
 2979      00
 2980 0a99 01880003 		.ascii	"\001\210\000\003\000\000/\300\0008\370\000 8\000 \010"
 2980      00002FC0 
 2980      0038F800 
 2980      20380020 
 2980      08
 2981 0aaa 00000800 		.ascii	"\000\000\010\000\000\000"
 2981      0000
 2982 0ab0 00000000 		.ascii	"\000\000\000\000\000\000\004\000\010\004\000\010\004"
 2982      00000400 
 2982      08040008 
 2982      04
 2983 0abd 000807FF 		.ascii	"\000\010\007\377\370\017\377\370\000\000\010\000\000"
 2983      F80FFFF8 
 2983      00000800 
 2983      00
 2984 0aca 08000008 		.ascii	"\010\000\000\010\000\000\000\000\000\000"
 2984      00000000 
 2984      0000
 2985 0ad4 00200800 		.ascii	"\000 \010\000?\370\000?\370\000\020\010\000 \000\000"
 2985      3FF8003F 
 2985      F8001008 
 2985      00200000 
 2986 0ae4 3FF8003F 		.ascii	"?\370\000?\370\000\020\010\000 \000\000?\370\000?\370"
 2986      F8001008 
 2986      00200000 
 2986      3FF8003F 
 2986      F8
 2987 0af5 000008   		.ascii	"\000\000\010"
 2988 0af8 00000000 		.ascii	"\000\000\000\000 \010\000?\370\000?\370\000\020\010"
 2988      2008003F 
 2988      F8003FF8 
ARM GAS  /tmp/cc83C5OS.s 			page 82


 2988      001008
 2989 0b07 00100000 		.ascii	"\000\020\000\000 \000\000 \010\000?\370\000\037\370"
 2989      20000020 
 2989      08003FF8 
 2989      001FF8
 2990 0b16 00000800 		.ascii	"\000\000\010\000\000\000"
 2990      0000
 2991 0b1c 00000000 		.ascii	"\000\000\000\000\007\300\000\017\360\000\0300\0000\010"
 2991      07C0000F 
 2991      F0001830 
 2991      003008
 2992 0b2b 00200800 		.ascii	"\000 \010\000 \010\0000\010\000\0300\000\017\360\000"
 2992      20080030 
 2992      08001830 
 2992      000FF000 
 2993 0b3b 07C00000 		.ascii	"\007\300\000\000\000"
 2993      00
 2994 0b40 00000000 		.ascii	"\000\000\000\000 \001\000?\377\000?\377\000\020\021"
 2994      2001003F 
 2994      FF003FFF 
 2994      001011
 2995 0b4f 00200900 		.ascii	"\000 \011\000 \010\000 \010\00008\000\037\360\000\017"
 2995      20080020 
 2995      08003038 
 2995      001FF000 
 2995      0F
 2996 0b60 C0000000 		.ascii	"\300\000\000\000"
 2997 0b64 00000000 		.ascii	"\000\000\000\000\007\300\000\037\360\0008\030\000 \010"
 2997      07C0001F 
 2997      F0003818 
 2997      002008
 2998 0b73 00200800 		.ascii	"\000 \010\000 \011\000\020\021\000\037\377\000?\377"
 2998      20090010 
 2998      11001FFF 
 2998      003FFF
 2999 0b82 00000100 		.ascii	"\000\000\001\000\000\000"
 2999      0000
 3000 0b88 00200800 		.ascii	"\000 \010\000 \010\000 \010\000?\370\000?\370\000\010"
 3000      20080020 
 3000      08003FF8 
 3000      003FF800 
 3000      08
 3001 0b99 08001008 		.ascii	"\010\000\020\010\000 \010\000 \000\0000\000\0000\000"
 3001      00200800 
 3001      20000030 
 3001      00003000 
 3002 0ba9 000000   		.ascii	"\000\000\000"
 3003 0bac 00000000 		.ascii	"\000\000\000\000\000\000\000\014x\000\036\030\0003\010"
 3003      0000000C 
 3003      78001E18 
 3003      003308
 3004 0bbb 00230800 		.ascii	"\000#\010\000!\010\000!\210\000!\230\0000\360\0008`"
 3004      21080021 
 3004      88002198 
 3004      0030F000 
 3004      3860
 3005 0bcd 000000   		.ascii	"\000\000\000"
ARM GAS  /tmp/cc83C5OS.s 			page 83


 3006 0bd0 00000000 		.ascii	"\000\000\000\000 \000\000 \000\000 \000\000\377\360"
 3006      20000020 
 3006      00002000 
 3006      00FFF0
 3007 0bdf 03FFF800 		.ascii	"\003\377\370\000 \010\000 \010\000 \010\000\0000\000"
 3007      20080020 
 3007      08002008 
 3007      00003000 
 3008 0bef 00000000 		.ascii	"\000\000\000\000\000"
 3008      00
 3009 0bf4 00000000 		.ascii	"\000\000\000\000 \000\000?\360\000\177\370\000\000\030"
 3009      2000003F 
 3009      F0007FF8 
 3009      000018
 3010 0c03 00000800 		.ascii	"\000\000\010\000\000\010\000 \020\000?\370\000\177\360"
 3010      00080020 
 3010      10003FF8 
 3010      007FF0
 3011 0c12 00001000 		.ascii	"\000\000\020\000\000\000"
 3011      0000
 3012 0c18 00000000 		.ascii	"\000\000\000\000 \000\0000\000\000<\000\000?\200\000"
 3012      20000030 
 3012      00003C00 
 3012      003F8000 
 3013 0c28 23F00000 		.ascii	"#\360\000\000x\000\000p\000#\200\000<\000\0000\000\000"
 3013      78000070 
 3013      00238000 
 3013      3C000030 
 3013      0000
 3014 0c3a 2000     		.ascii	" \000"
 3015 0c3c 00200000 		.ascii	"\000 \000\000<\000\000?\340\000#\370\000\000\340\000"
 3015      3C00003F 
 3015      E00023F8 
 3015      0000E000 
 3016 0c4c 2700003E 		.ascii	"'\000\000>\000\000?\340\000!\370\000\001\340\000>\000"
 3016      00003FE0 
 3016      0021F800 
 3016      01E0003E 
 3016      00
 3017 0c5d 002000   		.ascii	"\000 \000"
 3018 0c60 00000000 		.ascii	"\000\000\000\000 \010\000 \010\00088\000>h\000'\200"
 3018      20080020 
 3018      08003838 
 3018      003E6800 
 3018      2780
 3019 0c72 0003C800 		.ascii	"\000\003\310\000,\370\00088\000 \030\000 \010\000\000"
 3019      2CF80038 
 3019      38002018 
 3019      00200800 
 3019      00
 3020 0c83 00       		.ascii	"\000"
 3021 0c84 00000000 		.ascii	"\000\000\000\000 \000\0000\003\000<\001\000?\203\000"
 3021      20000030 
 3021      03003C01 
 3021      003F8300 
 3022 0c94 23EC0000 		.ascii	"#\354\000\000p\000#\200\000<\000\000 \000\000 \000\000"
 3022      70002380 
ARM GAS  /tmp/cc83C5OS.s 			page 84


 3022      003C0000 
 3022      20000020 
 3022      0000
 3023 0ca6 0000     		.ascii	"\000\000"
 3024 0ca8 00000000 		.ascii	"\000\000\000\000\000\000\0008\010\000 8\000 \370\000"
 3024      00000038 
 3024      08002038 
 3024      0020F800 
 3025 0cb8 23E8002F 		.ascii	"#\350\000/\210\000>\010\0008\010\000 \030\000\000p\000"
 3025      88003E08 
 3025      00380800 
 3025      20180000 
 3025      7000
 3026 0cca 0000     		.ascii	"\000\000"
 3027 0ccc 00000000 		.ascii	"\000\000\000\000\000\000\000\000\000\000\000\000\000"
 3027      00000000 
 3027      00000000 
 3027      00
 3028 0cd9 00000008 		.ascii	"\000\000\000\010\000\000\024\000\037\367\3740\000\006"
 3028      00001400 
 3028      1FF7FC30 
 3028      0006
 3029 0ce7 20000200 		.ascii	" \000\002\000\000\000\000\000\000"
 3029      00000000 
 3029      00
 3030 0cf0 00000000 		.ascii	"\000\000\000\000\000\000\000\000\000\000\000\000\000"
 3030      00000000 
 3030      00000000 
 3030      00
 3031 0cfd 00000000 		.ascii	"\000\000\000\000\000\377\377\377\000\000\000\000\000"
 3031      00FFFFFF 
 3031      00000000 
 3031      00
 3032 0d0a 00000000 		.ascii	"\000\000\000\000\000\000\000\000\000\000"
 3032      00000000 
 3032      0000
 3033 0d14 00000000 		.ascii	"\000\000\000\000\000\000 \000\0020\000\006\037\367\374"
 3033      00002000 
 3033      02300006 
 3033      1FF7FC
 3034 0d23 00140000 		.ascii	"\000\024\000\000\010\000\000\000\000\000\000\000\000"
 3034      08000000 
 3034      00000000 
 3034      00
 3035 0d30 00000000 		.ascii	"\000\000\000\000\000\000\000\000"
 3035      00000000 
 3036 0d38 00000018 		.ascii	"\000\000\000\030\000\000`\000\000@\000\000@\000\000"
 3036      00006000 
 3036      00400000 
 3036      400000
 3037 0d47 20000010 		.ascii	" \000\000\020\000\000\010\000\000\004\000\000\004\000"
 3037      00000800 
 3037      00040000 
 3037      0400
 3038 0d55 000C0000 		.ascii	"\000\014\000\000\020\000\000"
 3038      100000
 3039              		.section	.rodata.asc2_3216,"a"
ARM GAS  /tmp/cc83C5OS.s 			page 85


 3040              		.align	2
 3043              	asc2_3216:
 3044 0000 00000000 		.ascii	"\000\000\000\000\000\000\000\000\000\000\000\000\000"
 3044      00000000 
 3044      00000000 
 3044      00
 3045 000d 00000000 		.ascii	"\000\000\000\000\000\000\000\000\000\000\000\000\000"
 3045      00000000 
 3045      00000000 
 3045      00
 3046 001a 00000000 		.ascii	"\000\000\000\000\000\000\000\000\000\000\000\000\000"
 3046      00000000 
 3046      00000000 
 3046      00
 3047 0027 00000000 		.ascii	"\000\000\000\000\000\000\000\000\000\000\000\000\000"
 3047      00000000 
 3047      00000000 
 3047      00
 3048 0034 00000000 		.ascii	"\000\000\000\000\000\000\000\000\000\000\000\000\000"
 3048      00000000 
 3048      00000000 
 3048      00
 3049 0041 00000000 		.space	63
 3049      00000000 
 3049      00000000 
 3049      00000000 
 3049      00000000 
 3050 0080 00000000 		.ascii	"\000\000\000\000\000\000\000\000\000\000\000\000\000"
 3050      00000000 
 3050      00000000 
 3050      00
 3051 008d 00000000 		.ascii	"\000\000\000\000\000\000\000\000\000\000\000\007\360"
 3051      00000000 
 3051      00000007 
 3051      F0
 3052 009a 00C007FF 		.ascii	"\000\300\007\377\341\340\007\360\001\340\000\000\000"
 3052      E1E007F0 
 3052      01E00000 
 3052      00
 3053 00a7 C0000000 		.ascii	"\300\000\000\000\000\000\000\000\000\000\000\000\000"
 3053      00000000 
 3053      00000000 
 3053      00
 3054 00b4 00000000 		.ascii	"\000\000\000\000\000\000\000\000\000\000\000\000\000"
 3054      00000000 
 3054      00000000 
 3054      00
 3055 00c1 00000000 		.space	63
 3055      00000000 
 3055      00000000 
 3055      00000000 
 3055      00000000 
 3056 0100 00000000 		.ascii	"\000\000\000\000\000\000\000\000\000 \000\000\001\300"
 3056      00000000 
 3056      00200000 
 3056      01C0
 3057 010e 00000780 		.ascii	"\000\000\007\200\000\000\037\000\000\000\036\000\000"
ARM GAS  /tmp/cc83C5OS.s 			page 86


 3057      00001F00 
 3057      00001E00 
 3057      00
 3058 011b 001C2000 		.ascii	"\000\034 \000\000\001\300\000\000\007\200\000\000\037"
 3058      0001C000 
 3058      00078000 
 3058      001F
 3059 0129 0000001E 		.ascii	"\000\000\000\036\000\000\000\034\000\000\000\000\000"
 3059      0000001C 
 3059      00000000 
 3059      00
 3060 0136 00000000 		.ascii	"\000\000\000\000\000\000\000\000\000\000\000"
 3060      00000000 
 3060      000000
 3061 0141 00000000 		.space	63
 3061      00000000 
 3061      00000000 
 3061      00000000 
 3061      00000000 
 3062 0180 00000000 		.ascii	"\000\000\000\000\000\030\014\000\000\030\014\000\000"
 3062      00180C00 
 3062      00180C00 
 3062      00
 3063 018d 180FE000 		.ascii	"\030\017\340\000\037\374\000\003\370\014\000\000\030"
 3063      1FFC0003 
 3063      F80C0000 
 3063      18
 3064 019a 0C000018 		.ascii	"\014\000\000\030\014\000\000\030\014\000\000\030\014"
 3064      0C000018 
 3064      0C000018 
 3064      0C
 3065 01a7 0000180F 		.ascii	"\000\000\030\017\340\000\037\374\000\003\370\014\000"
 3065      E0001FFC 
 3065      0003F80C 
 3065      00
 3066 01b4 00180C00 		.ascii	"\000\030\014\000\000\030\014\000\000\000\000\000\000"
 3066      00180C00 
 3066      00000000 
 3066      00
 3067 01c1 00000000 		.space	63
 3067      00000000 
 3067      00000000 
 3067      00000000 
 3067      00000000 
 3068 0200 00000000 		.ascii	"\000\000\000\000\000\000\000\000\000\000\007\200\000"
 3068      00000000 
 3068      00000780 
 3068      00
 3069 020d 7807C000 		.ascii	"x\007\300\000\374\006@\001\016\000 \003\007\000 \002"
 3069      FC064001 
 3069      0E002003 
 3069      07002002 
 3070 021d 0380200F 		.ascii	"\003\200 \017\377\377\374\002\001\300 \002\000\340`"
 3070      FFFFFC02 
 3070      01C02002 
 3070      00E060
 3071 022c 01307040 		.ascii	"\0010p@\001\360?\200\000\360\037\000\000\000\000\000"
ARM GAS  /tmp/cc83C5OS.s 			page 87


 3071      01F03F80 
 3071      00F01F00 
 3071      00000000 
 3072 023c 00000000 		.ascii	"\000\000\000\000\000"
 3072      00
 3073 0241 00000000 		.space	63
 3073      00000000 
 3073      00000000 
 3073      00000000 
 3073      00000000 
 3074 0280 00FE0000 		.ascii	"\000\376\000\000\001\377\000\000\003\001\200\000\002"
 3074      01FF0000 
 3074      03018000 
 3074      02
 3075 028d 00806003 		.ascii	"\000\200`\003\001\201\300\001\377\007\000\000\376\030"
 3075      0181C001 
 3075      FF070000 
 3075      FE18
 3076 029b 000000E0 		.ascii	"\000\000\000\340\000\000\003\277\000\000\014\377\300"
 3076      000003BF 
 3076      00000CFF 
 3076      C0
 3077 02a8 00718060 		.ascii	"\000q\200`\001\301\000 \003\001\200`\000\000\377\300"
 3077      01C10020 
 3077      03018060 
 3077      0000FFC0 
 3078 02b8 00003F00 		.ascii	"\000\000?\000\000\000\000\000\000"
 3078      00000000 
 3078      00
 3079 02c1 00000000 		.space	63
 3079      00000000 
 3079      00000000 
 3079      00000000 
 3079      00000000 
 3080 0300 00001F00 		.ascii	"\000\000\037\000\000\000\177\300\000\374\300\300\001"
 3080      00007FC0 
 3080      00FCC0C0 
 3080      01
 3081 030d FF806003 		.ascii	"\377\200`\003\003\340 \002\002x \002\006\036 \003\374"
 3081      03E02002 
 3081      02782002 
 3081      061E2003 
 3081      FC
 3082 031e 074001F0 		.ascii	"\007@\001\360\003\200\000\001\003\300\000\001\034`\000"
 3082      03800001 
 3082      03C00001 
 3082      1C6000
 3083 032d 01E02000 		.ascii	"\001\340 \000\001\000 \000\001\000@\000\000\001\200"
 3083      01002000 
 3083      01004000 
 3083      000180
 3084 033c 00000000 		.ascii	"\000\000\000\000\000"
 3084      00
 3085 0341 00000000 		.space	63
 3085      00000000 
 3085      00000000 
 3085      00000000 
ARM GAS  /tmp/cc83C5OS.s 			page 88


 3085      00000000 
 3086 0380 00000000 		.ascii	"\000\000\000\000\000 \000\000\034`\000\000\034@\000"
 3086      00200000 
 3086      1C600000 
 3086      1C4000
 3087 038f 001F8000 		.ascii	"\000\037\200\000\000\017\000\000\000\000\000\000\000"
 3087      000F0000 
 3087      00000000 
 3087      00
 3088 039c 00000000 		.ascii	"\000\000\000\000\000\000\000\000\000\000\000\000\000"
 3088      00000000 
 3088      00000000 
 3088      00
 3089 03a9 00000000 		.ascii	"\000\000\000\000\000\000\000\000\000\000\000\000\000"
 3089      00000000 
 3089      00000000 
 3089      00
 3090 03b6 00000000 		.ascii	"\000\000\000\000\000\000\000\000\000\000\000"
 3090      00000000 
 3090      000000
 3091 03c1 00000000 		.space	63
 3091      00000000 
 3091      00000000 
 3091      00000000 
 3091      00000000 
 3092 0400 00000000 		.ascii	"\000\000\000\000\000\000\000\000\000\000\000\000\000"
 3092      00000000 
 3092      00000000 
 3092      00
 3093 040d 00000000 		.ascii	"\000\000\000\000\000\000\000\000\000\000\000\000\000"
 3093      00000000 
 3093      00000000 
 3093      00
 3094 041a 00000007 		.ascii	"\000\000\000\007\370\000\000?\377\000\000x\007\300\001"
 3094      F800003F 
 3094      FF000078 
 3094      07C001
 3095 0429 C000E003 		.ascii	"\300\000\340\003\000\0000\004\000\000\010\010\000\000"
 3095      00003004 
 3095      00000808 
 3095      0000
 3096 0437 04100000 		.ascii	"\004\020\000\000\002\000\000\000\000\000"
 3096      02000000 
 3096      0000
 3097 0441 00000000 		.space	63
 3097      00000000 
 3097      00000000 
 3097      00000000 
 3097      00000000 
 3098 0480 00000000 		.ascii	"\000\000\000\000\020\000\000\002\010\000\000\004\004"
 3098      10000002 
 3098      08000004 
 3098      04
 3099 048d 00000803 		.ascii	"\000\000\010\003\000\0000\001\300\000\340\000x\007\300"
 3099      00003001 
 3099      C000E000 
 3099      7807C0
ARM GAS  /tmp/cc83C5OS.s 			page 89


 3100 049c 003FFF00 		.ascii	"\000?\377\000\000\007\370\000\000\000\000\000\000\000"
 3100      0007F800 
 3100      00000000 
 3100      0000
 3101 04aa 00000000 		.ascii	"\000\000\000\000\000\000\000\000\000\000\000\000\000"
 3101      00000000 
 3101      00000000 
 3101      00
 3102 04b7 00000000 		.ascii	"\000\000\000\000\000\000\000\000\000\000"
 3102      00000000 
 3102      0000
 3103 04c1 00000000 		.space	63
 3103      00000000 
 3103      00000000 
 3103      00000000 
 3103      00000000 
 3104 0500 00000000 		.ascii	"\000\000\000\000\000\000\000\000\000\014\030\000\000"
 3104      00000000 
 3104      000C1800 
 3104      00
 3105 050d 0E380000 		.ascii	"\0168\000\000\0168\000\000\0060\000\000\003`\000\000"
 3105      0E380000 
 3105      06300000 
 3105      03600000 
 3106 051d 61438000 		.ascii	"aC\200\000\377\377\200\000aC\000\000\003`\000\000\006"
 3106      FFFF8000 
 3106      61430000 
 3106      03600000 
 3106      06
 3107 052e 3000000E 		.ascii	"0\000\000\0168\000\000\0168\000\000\014\030\000\000"
 3107      3800000E 
 3107      3800000C 
 3107      180000
 3108 053d 00000000 		.ascii	"\000\000\000\000"
 3109 0541 00000000 		.space	63
 3109      00000000 
 3109      00000000 
 3109      00000000 
 3109      00000000 
 3110 0580 00000000 		.ascii	"\000\000\000\000\000\000\000\000\000\000\200\000\000"
 3110      00000000 
 3110      00008000 
 3110      00
 3111 058d 00800000 		.ascii	"\000\200\000\000\000\200\000\000\000\200\000\000\000"
 3111      00800000 
 3111      00800000 
 3111      00
 3112 059a 80000000 		.ascii	"\200\000\000\000\200\000\000\177\377\000\000\000\200"
 3112      8000007F 
 3112      FF000000 
 3112      80
 3113 05a7 00000080 		.ascii	"\000\000\000\200\000\000\000\200\000\000\000\200\000"
 3113      00000080 
 3113      00000080 
 3113      00
 3114 05b4 00008000 		.ascii	"\000\000\200\000\000\000\200\000\000\000\000\000\000"
 3114      00008000 
ARM GAS  /tmp/cc83C5OS.s 			page 90


 3114      00000000 
 3114      00
 3115 05c1 00000000 		.space	63
 3115      00000000 
 3115      00000000 
 3115      00000000 
 3115      00000000 
 3116 0600 00000000 		.ascii	"\000\000\000\000\000\000\000\001\000\000\000\343\000"
 3116      00000001 
 3116      000000E3 
 3116      00
 3117 060d 0000E200 		.ascii	"\000\000\342\000\000\000\374\000\000\000x\000\000\000"
 3117      0000FC00 
 3117      00007800 
 3117      0000
 3118 061b 00000000 		.ascii	"\000\000\000\000\000\000\000\000\000\000\000\000\000"
 3118      00000000 
 3118      00000000 
 3118      00
 3119 0628 00000000 		.ascii	"\000\000\000\000\000\000\000\000\000\000\000\000\000"
 3119      00000000 
 3119      00000000 
 3119      00
 3120 0635 00000000 		.ascii	"\000\000\000\000\000\000\000\000\000\000\000\000"
 3120      00000000 
 3120      00000000 
 3121 0641 00000000 		.space	63
 3121      00000000 
 3121      00000000 
 3121      00000000 
 3121      00000000 
 3122 0680 00000000 		.ascii	"\000\000\000\000\000\000\200\000\000\000\200\000\000"
 3122      00008000 
 3122      00008000 
 3122      00
 3123 068d 00800000 		.ascii	"\000\200\000\000\000\200\000\000\000\200\000\000\000"
 3123      00800000 
 3123      00800000 
 3123      00
 3124 069a 80000000 		.ascii	"\200\000\000\000\200\000\000\000\200\000\000\000\200"
 3124      80000000 
 3124      80000000 
 3124      80
 3125 06a7 00000080 		.ascii	"\000\000\000\200\000\000\000\200\000\000\000\200\000"
 3125      00000080 
 3125      00000080 
 3125      00
 3126 06b4 00008000 		.ascii	"\000\000\200\000\000\000\200\000\000\000\000\000\000"
 3126      00008000 
 3126      00000000 
 3126      00
 3127 06c1 00000000 		.space	63
 3127      00000000 
 3127      00000000 
 3127      00000000 
 3127      00000000 
 3128 0700 00000000 		.ascii	"\000\000\000\000\000\000\000\000\000\000\000\300\000"
ARM GAS  /tmp/cc83C5OS.s 			page 91


 3128      00000000 
 3128      000000C0 
 3128      00
 3129 070d 0001E000 		.ascii	"\000\001\340\000\000\001\340\000\000\000\300\000\000"
 3129      0001E000 
 3129      0000C000 
 3129      00
 3130 071a 00000000 		.ascii	"\000\000\000\000\000\000\000\000\000\000\000\000\000"
 3130      00000000 
 3130      00000000 
 3130      00
 3131 0727 00000000 		.ascii	"\000\000\000\000\000\000\000\000\000\000\000\000\000"
 3131      00000000 
 3131      00000000 
 3131      00
 3132 0734 00000000 		.ascii	"\000\000\000\000\000\000\000\000\000\000\000\000\000"
 3132      00000000 
 3132      00000000 
 3132      00
 3133 0741 00000000 		.space	63
 3133      00000000 
 3133      00000000 
 3133      00000000 
 3133      00000000 
 3134 0780 00000000 		.ascii	"\000\000\000\000\000\000\000\014\000\000\0008\000\000"
 3134      0000000C 
 3134      00000038 
 3134      0000
 3135 078e 00E00000 		.ascii	"\000\340\000\000\003\200\000\000\016\000\000\0008\000"
 3135      03800000 
 3135      0E000000 
 3135      3800
 3136 079c 0000E000 		.ascii	"\000\000\340\000\000\003\200\000\000\016\000\000\000"
 3136      00038000 
 3136      000E0000 
 3136      00
 3137 07a9 38000000 		.ascii	"8\000\000\000\340\000\000\003\200\000\000\016\000\000"
 3137      E0000003 
 3137      8000000E 
 3137      0000
 3138 07b7 00180000 		.ascii	"\000\030\000\000\000\000\000\000\000\000"
 3138      00000000 
 3138      0000
 3139 07c1 00000000 		.space	63
 3139      00000000 
 3139      00000000 
 3139      00000000 
 3139      00000000 
 3140 0800 00000000 		.ascii	"\000\000\000\000\000\000\000\000\000\017\370\000\000"
 3140      00000000 
 3140      000FF800 
 3140      00
 3141 080d 7FFF0000 		.ascii	"\177\377\000\000\360\007\200\001\200\000\300\003\000"
 3141      F0078001 
 3141      8000C003 
 3141      00
 3142 081a 00600200 		.ascii	"\000`\002\000\000 \002\000\000 \002\000\000 \003\000"
ARM GAS  /tmp/cc83C5OS.s 			page 92


 3142      00200200 
 3142      00200200 
 3142      00200300 
 3143 082a 00600180 		.ascii	"\000`\001\200\000\300\000\340\003\200\000\177\377\000"
 3143      00C000E0 
 3143      0380007F 
 3143      FF00
 3144 0838 000FF800 		.ascii	"\000\017\370\000\000\000\000\000\000"
 3144      00000000 
 3144      00
 3145 0841 00000000 		.space	63
 3145      00000000 
 3145      00000000 
 3145      00000000 
 3145      00000000 
 3146 0880 00000000 		.ascii	"\000\000\000\000\000\000\000\000\000\000\000\000\000"
 3146      00000000 
 3146      00000000 
 3146      00
 3147 088d 80002000 		.ascii	"\200\000 \000\200\000 \000\200\000 \000\200\000`\001"
 3147      80002000 
 3147      80002000 
 3147      80006001 
 3148 089d FFFFE003 		.ascii	"\377\377\340\003\377\377\340\000\000\000`\000\000\000"
 3148      FFFFE000 
 3148      00006000 
 3148      0000
 3149 08ab 20000000 		.ascii	" \000\000\000 \000\000\000 \000\000\000\000\000\000"
 3149      20000000 
 3149      20000000 
 3149      000000
 3150 08ba 00000000 		.ascii	"\000\000\000\000\000\000\000"
 3150      000000
 3151 08c1 00000000 		.space	63
 3151      00000000 
 3151      00000000 
 3151      00000000 
 3151      00000000 
 3152 0900 00000000 		.ascii	"\000\000\000\000\000\000\000\000\000x\000\340\000\230"
 3152      00000000 
 3152      007800E0 
 3152      0098
 3153 090e 01600100 		.ascii	"\001`\001\000\002`\002\000\004`\002\000\010`\002\000"
 3153      02600200 
 3153      04600200 
 3153      08600200 
 3154 091e 10600200 		.ascii	"\020`\002\000 `\002\000@`\003\000\200`\001\203\000`"
 3154      20600200 
 3154      40600300 
 3154      80600183 
 3154      0060
 3155 0930 01FE00E0 		.ascii	"\001\376\000\340\000|\007\200\000\000\000\000\000\000"
 3155      007C0780 
 3155      00000000 
 3155      0000
 3156 093e 000000   		.ascii	"\000\000\000"
 3157 0941 00000000 		.space	63
ARM GAS  /tmp/cc83C5OS.s 			page 93


 3157      00000000 
 3157      00000000 
 3157      00000000 
 3157      00000000 
 3158 0980 00000000 		.ascii	"\000\000\000\000\000\000\000\000\000\360\007\200\001"
 3158      00000000 
 3158      00F00780 
 3158      01
 3159 098d F007C001 		.ascii	"\360\007\300\001\000\000@\002\000\000 \002\001\000 "
 3159      00004002 
 3159      00002002 
 3159      010020
 3160 099c 02010020 		.ascii	"\002\001\000 \002\001\000 \003\003\200 \001\206\200"
 3160      02010020 
 3160      03038020 
 3160      018680
 3161 09ab 4001FCC0 		.ascii	"@\001\374\300\300\000x\177\200\000\000\036\000\000\000"
 3161      C000787F 
 3161      8000001E 
 3161      000000
 3162 09ba 00000000 		.ascii	"\000\000\000\000\000\000\000"
 3162      000000
 3163 09c1 00000000 		.space	63
 3163      00000000 
 3163      00000000 
 3163      00000000 
 3163      00000000 
 3164 0a00 00000000 		.ascii	"\000\000\000\000\000\000\010\000\000\0008\000\000\000"
 3164      00000800 
 3164      00003800 
 3164      0000
 3165 0a0e 48000001 		.ascii	"H\000\000\001\210\000\000\006\010\000\000\014\010\020"
 3165      88000006 
 3165      0800000C 
 3165      0810
 3166 0a1c 00300810 		.ascii	"\0000\010\020\000@\010\020\001\377\377\360\003\377\377"
 3166      00400810 
 3166      01FFFFF0 
 3166      03FFFF
 3167 0a2b F003FFFF 		.ascii	"\360\003\377\377\360\000\000\010\020\000\000\010\020"
 3167      F0000008 
 3167      10000008 
 3167      10
 3168 0a38 00000810 		.ascii	"\000\000\010\020\000\000\000\000\000"
 3168      00000000 
 3168      00
 3169 0a41 00000000 		.space	63
 3169      00000000 
 3169      00000000 
 3169      00000000 
 3169      00000000 
 3170 0a80 00000000 		.ascii	"\000\000\000\000\000\000\000\000\000\000\007\200\000"
 3170      00000000 
 3170      00000780 
 3170      00
 3171 0a8d 1F864003 		.ascii	"\037\206@\003\341\000 \003\002\000 \003\004\000 \003"
 3171      E1002003 
ARM GAS  /tmp/cc83C5OS.s 			page 94


 3171      02002003 
 3171      04002003 
 3172 0a9d 04002003 		.ascii	"\004\000 \003\004\000 \003\004\000 \003\006\000@\003"
 3172      04002003 
 3172      04002003 
 3172      06004003 
 3173 0aad 0301C003 		.ascii	"\003\001\300\003\001\377\200\003\000~\000\000\000\000"
 3173      01FF8003 
 3173      007E0000 
 3173      0000
 3174 0abb 00000000 		.ascii	"\000\000\000\000\000\000"
 3174      0000
 3175 0ac1 00000000 		.space	63
 3175      00000000 
 3175      00000000 
 3175      00000000 
 3175      00000000 
 3176 0b00 00000000 		.ascii	"\000\000\000\000\000\000\000\000\000\007\374\000\000"
 3176      00000000 
 3176      0007FC00 
 3176      00
 3177 0b0d 3FFF0000 		.ascii	"?\377\000\000p\303\200\000\201\200\300\001\001\000`"
 3177      70C38000 
 3177      8180C001 
 3177      010060
 3178 0b1c 03020020 		.ascii	"\003\002\000 \002\002\000 \002\002\000 \002\002\000"
 3178      02020020 
 3178      02020020 
 3178      020200
 3179 0b2b 20020300 		.ascii	" \002\003\000@\001\301\200\300\000\300\377\200\000\000"
 3179      4001C180 
 3179      C000C0FF 
 3179      800000
 3180 0b3a 7E000000 		.ascii	"~\000\000\000\000\000\000"
 3180      000000
 3181 0b41 00000000 		.space	63
 3181      00000000 
 3181      00000000 
 3181      00000000 
 3181      00000000 
 3182 0b80 00000000 		.ascii	"\000\000\000\000\000\000\000\000\000\360\000\000\003"
 3182      00000000 
 3182      00F00000 
 3182      03
 3183 0b8d C0000003 		.ascii	"\300\000\000\003\200\000\000\003\000\000\000\003\000"
 3183      80000003 
 3183      00000003 
 3183      00
 3184 0b9a 07E00300 		.ascii	"\007\340\003\000?\340\003\001\300\000\003\006\000\000"
 3184      3FE00301 
 3184      C0000306 
 3184      0000
 3185 0ba8 03180000 		.ascii	"\003\030\000\000\003`\000\000\003\200\000\000\003\000"
 3185      03600000 
 3185      03800000 
 3185      0300
 3186 0bb6 00000000 		.ascii	"\000\000\000\000\000\000\000\000\000\000\000"
ARM GAS  /tmp/cc83C5OS.s 			page 95


 3186      00000000 
 3186      000000
 3187 0bc1 00000000 		.space	63
 3187      00000000 
 3187      00000000 
 3187      00000000 
 3187      00000000 
 3188 0c00 00000000 		.ascii	"\000\000\000\000\000\000\037\000\000x?\200\000\374`"
 3188      00001F00 
 3188      00783F80 
 3188      00FC60
 3189 0c0f C0018EC0 		.ascii	"\300\001\216\300@\003\007\200 \002\003\000 \002\001"
 3189      40030780 
 3189      20020300 
 3189      200201
 3190 0c1e 80200201 		.ascii	"\200 \002\001\200 \002\001\300 \003\001\340@\001\206"
 3190      80200201 
 3190      C0200301 
 3190      E0400186 
 3191 0c2e 70C000FC 		.ascii	"p\300\000\374?\200\000x\037\000\000\000\000\000\000"
 3191      3F800078 
 3191      1F000000 
 3191      000000
 3192 0c3d 00000000 		.ascii	"\000\000\000\000"
 3193 0c41 00000000 		.space	63
 3193      00000000 
 3193      00000000 
 3193      00000000 
 3193      00000000 
 3194 0c80 00000000 		.ascii	"\000\000\000\000\000?\000\000\000\377\201\300\001\300"
 3194      003F0000 
 3194      00FF81C0 
 3194      01C0
 3195 0c8e C1C00100 		.ascii	"\301\300\001\000` \002\000  \002\000  \002\000  \002"
 3195      60200200 
 3195      20200200 
 3195      20200200 
 3195      202002
 3196 0ca1 00206002 		.ascii	"\000 `\002\000@\300\001\000\301\200\000\301\217\000"
 3196      0040C001 
 3196      00C18000 
 3196      C18F00
 3197 0cb0 007FFE00 		.ascii	"\000\177\376\000\000\037\360\000\000\000\000\000\000"
 3197      001FF000 
 3197      00000000 
 3197      00
 3198 0cbd 00000000 		.ascii	"\000\000\000\000"
 3199 0cc1 00000000 		.space	63
 3199      00000000 
 3199      00000000 
 3199      00000000 
 3199      00000000 
 3200 0d00 00000000 		.ascii	"\000\000\000\000\000\000\000\000\000\000\000\000\000"
 3200      00000000 
 3200      00000000 
 3200      00
 3201 0d0d 00000000 		.ascii	"\000\000\000\000\000\000\000\000\000\000\000\000\003"
ARM GAS  /tmp/cc83C5OS.s 			page 96


 3201      00000000 
 3201      00000000 
 3201      03
 3202 0d1a 00C00007 		.ascii	"\000\300\000\007\201\340\000\007\201\340\000\003\000"
 3202      81E00007 
 3202      81E00003 
 3202      00
 3203 0d27 C0000000 		.ascii	"\300\000\000\000\000\000\000\000\000\000\000\000\000"
 3203      00000000 
 3203      00000000 
 3203      00
 3204 0d34 00000000 		.ascii	"\000\000\000\000\000\000\000\000\000\000\000\000\000"
 3204      00000000 
 3204      00000000 
 3204      00
 3205 0d41 00000000 		.space	63
 3205      00000000 
 3205      00000000 
 3205      00000000 
 3205      00000000 
 3206 0d80 00000000 		.ascii	"\000\000\000\000\000\000\000\000\000\000\000\000\000"
 3206      00000000 
 3206      00000000 
 3206      00
 3207 0d8d 00000000 		.ascii	"\000\000\000\000\000\000\000\000\000\000\000\000\006"
 3207      00000000 
 3207      00000000 
 3207      06
 3208 0d9a 00660006 		.ascii	"\000f\000\006\000x\000\000\000\000\000\000\000\000\000"
 3208      00780000 
 3208      00000000 
 3208      000000
 3209 0da9 00000000 		.ascii	"\000\000\000\000\000\000\000\000\000\000\000\000\000"
 3209      00000000 
 3209      00000000 
 3209      00
 3210 0db6 00000000 		.ascii	"\000\000\000\000\000\000\000\000\000\000\000"
 3210      00000000 
 3210      000000
 3211 0dc1 00000000 		.space	63
 3211      00000000 
 3211      00000000 
 3211      00000000 
 3211      00000000 
 3212 0e00 00000000 		.ascii	"\000\000\000\000\000\000\000\000\000\000\200\000\000"
 3212      00000000 
 3212      00008000 
 3212      00
 3213 0e0d 01C00000 		.ascii	"\001\300\000\000\003`\000\000\0060\000\000\014\030\000"
 3213      03600000 
 3213      06300000 
 3213      0C1800
 3214 0e1c 00180C00 		.ascii	"\000\030\014\000\0000\006\000\000`\003\000\000\300\001"
 3214      00300600 
 3214      00600300 
 3214      00C001
 3215 0e2b 80010000 		.ascii	"\200\001\000\000@\002\000\000 \004\000\000\020\000\000"
ARM GAS  /tmp/cc83C5OS.s 			page 97


 3215      40020000 
 3215      20040000 
 3215      100000
 3216 0e3a 00000000 		.ascii	"\000\000\000\000\000\000\000"
 3216      000000
 3217 0e41 00000000 		.space	63
 3217      00000000 
 3217      00000000 
 3217      00000000 
 3217      00000000 
 3218 0e80 00000000 		.ascii	"\000\000\000\000\000\004\020\000\000\004\020\000\000"
 3218      00041000 
 3218      00041000 
 3218      00
 3219 0e8d 04100000 		.ascii	"\004\020\000\000\004\020\000\000\004\020\000\000\004"
 3219      04100000 
 3219      04100000 
 3219      04
 3220 0e9a 10000004 		.ascii	"\020\000\000\004\020\000\000\004\020\000\000\004\020"
 3220      10000004 
 3220      10000004 
 3220      10
 3221 0ea7 00000410 		.ascii	"\000\000\004\020\000\000\004\020\000\000\004\020\000"
 3221      00000410 
 3221      00000410 
 3221      00
 3222 0eb4 00041000 		.ascii	"\000\004\020\000\000\004\020\000\000\000\000\000\000"
 3222      00041000 
 3222      00000000 
 3222      00
 3223 0ec1 00000000 		.space	63
 3223      00000000 
 3223      00000000 
 3223      00000000 
 3223      00000000 
 3224 0f00 00000000 		.ascii	"\000\000\000\000\000\000\000\000\004\000\000\020\002"
 3224      00000000 
 3224      04000010 
 3224      02
 3225 0f0d 00002001 		.ascii	"\000\000 \001\000\000@\000\300\001\200\000`\003\000"
 3225      00004000 
 3225      C0018000 
 3225      600300
 3226 0f1c 00300600 		.ascii	"\0000\006\000\000\030\014\000\000\014\030\000\000\006"
 3226      00180C00 
 3226      000C1800 
 3226      0006
 3227 0f2a 30000003 		.ascii	"0\000\000\003`\000\000\001\300\000\000\000\200\000\000"
 3227      60000001 
 3227      C0000000 
 3227      800000
 3228 0f39 00000000 		.ascii	"\000\000\000\000\000\000\000\000"
 3228      00000000 
 3229 0f41 00000000 		.space	63
 3229      00000000 
 3229      00000000 
 3229      00000000 
ARM GAS  /tmp/cc83C5OS.s 			page 98


 3229      00000000 
 3230 0f80 00000000 		.ascii	"\000\000\000\000\000\000\000\000\000x\000\000\001\370"
 3230      00000000 
 3230      00780000 
 3230      01F8
 3231 0f8e 00000238 		.ascii	"\000\000\0028\000\000\002\000\000\000\004\000\000\300"
 3231      00000200 
 3231      00000400 
 3231      00C0
 3232 0f9c 040079E0 		.ascii	"\004\000y\340\004\000\201\340\004\001\000\300\004\003"
 3232      040081E0 
 3232      040100C0 
 3232      0403
 3233 0faa 00000202 		.ascii	"\000\000\002\002\000\000\003\006\000\000\001\374\000"
 3233      00000306 
 3233      000001FC 
 3233      00
 3234 0fb7 0000F800 		.ascii	"\000\000\370\000\000\000\000\000\000\000"
 3234      00000000 
 3234      0000
 3235 0fc1 00000000 		.space	63
 3235      00000000 
 3235      00000000 
 3235      00000000 
 3235      00000000 
 3236 1000 00000000 		.ascii	"\000\000\000\000\000\017\370\000\000?\376\000\000p\007"
 3236      000FF800 
 3236      003FFE00 
 3236      007007
 3237 100f 8000C000 		.ascii	"\200\000\300\000\300\001\001\370@\003\007\374 \002\036"
 3237      C00101F8 
 3237      400307FC 
 3237      20021E
 3238 101e 04200230 		.ascii	"\004 \0020\010 \002 0 \002?\374 \001?\004@\001\200\014"
 3238      08200220 
 3238      3020023F 
 3238      FC20013F 
 3238      04400180 
 3239 1033 C000E031 		.ascii	"\300\000\3401\200\000\037\302\000\000\000\000\000\000"
 3239      80001FC2 
 3239      00000000 
 3239      0000
 3240 1041 00000000 		.space	63
 3240      00000000 
 3240      00000000 
 3240      00000000 
 3240      00000000 
 3241 1080 00000020 		.ascii	"\000\000\000 \000\000\000`\000\000\003\340\000\000>"
 3241      00000060 
 3241      000003E0 
 3241      00003E
 3242 108f 200003E0 		.ascii	" \000\003\340 \000> \000\003\340 \000\003\200 \000\007"
 3242      20003E20 
 3242      0003E020 
 3242      00038020 
 3242      0007
 3243 10a1 FC200000 		.ascii	"\374 \000\000?\340\000\000\003\376 \000\000?\340\000"
ARM GAS  /tmp/cc83C5OS.s 			page 99


 3243      3FE00000 
 3243      03FE2000 
 3243      003FE000 
 3244 10b1 0001E000 		.ascii	"\000\001\340\000\000\000 \000\000\000 \000\000\000\000"
 3244      00002000 
 3244      00002000 
 3244      000000
 3245 10c0 00       		.ascii	"\000"
 3246 10c1 00000000 		.space	63
 3246      00000000 
 3246      00000000 
 3246      00000000 
 3246      00000000 
 3247 1100 00000000 		.ascii	"\000\000\000\000\002\000\000 \002\000\000 \003\377\377"
 3247      02000020 
 3247      02000020 
 3247      03FFFF
 3248 110f E003FFFF 		.ascii	"\340\003\377\377\340\002\001\000 \002\001\000 \002\001"
 3248      E0020100 
 3248      20020100 
 3248      200201
 3249 111e 00200201 		.ascii	"\000 \002\001\000 \002\001\000 \003\003\000 \001\206"
 3249      00200201 
 3249      00200303 
 3249      00200186 
 3250 112e 806001FC 		.ascii	"\200`\001\374\300\300\000\370\177\200\000\000\037\000"
 3250      C0C000F8 
 3250      7F800000 
 3250      1F00
 3251 113c 00000000 		.ascii	"\000\000\000\000\000"
 3251      00
 3252 1141 00000000 		.space	63
 3252      00000000 
 3252      00000000 
 3252      00000000 
 3252      00000000 
 3253 1180 00000000 		.ascii	"\000\000\000\000\000\007\370\000\000?\377\000\000p\007"
 3253      0007F800 
 3253      003FFF00 
 3253      007007
 3254 118f 8000C000 		.ascii	"\200\000\300\000\300\001\000\000@\003\000\000 \002\000"
 3254      C0010000 
 3254      40030000 
 3254      200200
 3255 119e 00200200 		.ascii	"\000 \002\000\000 \002\000\000 \002\000\000 \001\000"
 3255      00200200 
 3255      00200200 
 3255      00200100 
 3256 11ae 00400180 		.ascii	"\000@\001\200\000\300\003\300\001\200\0000\006\000\000"
 3256      00C003C0 
 3256      01800030 
 3256      060000
 3257 11bd 00000000 		.ascii	"\000\000\000\000"
 3258 11c1 00000000 		.space	63
 3258      00000000 
 3258      00000000 
 3258      00000000 
ARM GAS  /tmp/cc83C5OS.s 			page 100


 3258      00000000 
 3259 1200 00000000 		.ascii	"\000\000\000\000\002\000\000 \002\000\000 \003\377\377"
 3259      02000020 
 3259      02000020 
 3259      03FFFF
 3260 120f E003FFFF 		.ascii	"\340\003\377\377\340\002\000\000 \002\000\000 \002\000"
 3260      E0020000 
 3260      20020000 
 3260      200200
 3261 121e 00200200 		.ascii	"\000 \002\000\000 \003\000\000`\001\000\000@\001\200"
 3261      00200300 
 3261      00600100 
 3261      00400180 
 3262 122e 00C000F0 		.ascii	"\000\300\000\360\007\200\000\177\376\000\000\017\370"
 3262      0780007F 
 3262      FE00000F 
 3262      F8
 3263 123b 00000000 		.ascii	"\000\000\000\000\000\000"
 3263      0000
 3264 1241 00000000 		.space	63
 3264      00000000 
 3264      00000000 
 3264      00000000 
 3264      00000000 
 3265 1280 00000000 		.ascii	"\000\000\000\000\002\000\000 \002\000\000 \003\377\377"
 3265      02000020 
 3265      02000020 
 3265      03FFFF
 3266 128f E003FFFF 		.ascii	"\340\003\377\377\340\002\001\000 \002\001\000 \002\001"
 3266      E0020100 
 3266      20020100 
 3266      200201
 3267 129e 00200201 		.ascii	"\000 \002\001\000 \002\001\000 \002\003\200 \002\017"
 3267      00200201 
 3267      00200203 
 3267      8020020F 
 3268 12ae E0200300 		.ascii	"\340 \003\000\000`\003\300\000\340\000`\003\000\000"
 3268      006003C0 
 3268      00E00060 
 3268      030000
 3269 12bd 00000000 		.ascii	"\000\000\000\000"
 3270 12c1 00000000 		.space	63
 3270      00000000 
 3270      00000000 
 3270      00000000 
 3270      00000000 
 3271 1300 00000000 		.ascii	"\000\000\000\000\002\000\000 \002\000\000 \003\377\377"
 3271      02000020 
 3271      02000020 
 3271      03FFFF
 3272 130f E003FFFF 		.ascii	"\340\003\377\377\340\002\001\000 \002\001\000 \002\001"
 3272      E0020100 
 3272      20020100 
 3272      200201
 3273 131e 00000201 		.ascii	"\000\000\002\001\000\000\002\001\000\000\002\001\000"
 3273      00000201 
 3273      00000201 
ARM GAS  /tmp/cc83C5OS.s 			page 101


 3273      00
 3274 132b 00020380 		.ascii	"\000\002\003\200\000\003\017\340\000\003\000\000\000"
 3274      00030FE0 
 3274      00030000 
 3274      00
 3275 1338 03C00000 		.ascii	"\003\300\000\000\000`\000\000\000"
 3275      00600000 
 3275      00
 3276 1341 00000000 		.space	63
 3276      00000000 
 3276      00000000 
 3276      00000000 
 3276      00000000 
 3277 1380 00000000 		.ascii	"\000\000\000\000\000\007\370\000\000?\376\000\000p\007"
 3277      0007F800 
 3277      003FFE00 
 3277      007007
 3278 138f 8001C001 		.ascii	"\200\001\300\001\300\001\000\000@\003\000\000 \002\000"
 3278      C0010000 
 3278      40030000 
 3278      200200
 3279 139e 00200200 		.ascii	"\000 \002\000\000 \002\000\000 \001\000  \001\000 @"
 3279      00200200 
 3279      00200100 
 3279      20200100 
 3279      2040
 3280 13b0 03C03F80 		.ascii	"\003\300?\200\0000?\200\000\000 \000\000\000 \000\000"
 3280      00303F80 
 3280      00002000 
 3280      00002000 
 3280      00
 3281 13c1 00000000 		.space	63
 3281      00000000 
 3281      00000000 
 3281      00000000 
 3281      00000000 
 3282 1400 02000020 		.ascii	"\002\000\000 \002\000\000 \003\377\377\340\003\377\377"
 3282      02000020 
 3282      03FFFFE0 
 3282      03FFFF
 3283 140f E0020080 		.ascii	"\340\002\000\200 \002\000\200 \000\000\200\000\000\000"
 3283      20020080 
 3283      20000080 
 3283      000000
 3284 141e 80000000 		.ascii	"\200\000\000\000\200\000\002\000\200 \002\000\200 \003"
 3284      80000200 
 3284      80200200 
 3284      802003
 3285 142d FFFFE003 		.ascii	"\377\377\340\003\377\377\340\002\000\000 \002\000\000"
 3285      FFFFE002 
 3285      00002002 
 3285      0000
 3286 143b 20000000 		.ascii	" \000\000\000\000\000"
 3286      0000
 3287 1441 00000000 		.space	63
 3287      00000000 
 3287      00000000 
ARM GAS  /tmp/cc83C5OS.s 			page 102


 3287      00000000 
 3287      00000000 
 3288 1480 00000000 		.ascii	"\000\000\000\000\000\000\000\000\000\000\000\000\002"
 3288      00000000 
 3288      00000000 
 3288      02
 3289 148d 00002002 		.ascii	"\000\000 \002\000\000 \002\000\000 \002\000\000 \003"
 3289      00002002 
 3289      00002002 
 3289      00002003 
 3290 149d FFFFE003 		.ascii	"\377\377\340\003\377\377\340\002\000\000 \002\000\000"
 3290      FFFFE002 
 3290      00002002 
 3290      0000
 3291 14ab 20020000 		.ascii	" \002\000\000 \002\000\000 \000\000\000\000\000\000"
 3291      20020000 
 3291      20000000 
 3291      000000
 3292 14ba 00000000 		.ascii	"\000\000\000\000\000\000\000"
 3292      000000
 3293 14c1 00000000 		.space	63
 3293      00000000 
 3293      00000000 
 3293      00000000 
 3293      00000000 
 3294 1500 00000000 		.ascii	"\000\000\000\000\000\000\000\016\000\000\000\017\000"
 3294      0000000E 
 3294      0000000F 
 3294      00
 3295 150d 00000F00 		.ascii	"\000\000\017\000\000\000\001\002\000\000\001\002\000"
 3295      00000102 
 3295      00000102 
 3295      00
 3296 151a 00010200 		.ascii	"\000\001\002\000\000\003\002\000\000\006\003\377\377"
 3296      00030200 
 3296      000603FF 
 3296      FF
 3297 1527 FC03FFFF 		.ascii	"\374\003\377\377\370\002\000\000\000\002\000\000\000"
 3297      F8020000 
 3297      00020000 
 3297      00
 3298 1534 02000000 		.ascii	"\002\000\000\000\002\000\000\000\000\000\000\000\000"
 3298      02000000 
 3298      00000000 
 3298      00
 3299 1541 00000000 		.space	63
 3299      00000000 
 3299      00000000 
 3299      00000000 
 3299      00000000 
 3300 1580 00000000 		.ascii	"\000\000\000\000\002\000\000 \002\000\000 \003\377\377"
 3300      02000020 
 3300      02000020 
 3300      03FFFF
 3301 158f E003FFFF 		.ascii	"\340\003\377\377\340\002\000\300 \002\001\000 \000\007"
 3301      E00200C0 
 3301      20020100 
ARM GAS  /tmp/cc83C5OS.s 			page 103


 3301      200007
 3302 159e 8000000F 		.ascii	"\200\000\000\017\340\000\0000\370\000\002`> \003\200"
 3302      E0000030 
 3302      F8000260 
 3302      3E200380 
 3303 15ae 0F200300 		.ascii	"\017 \003\000\003\340\002\000\000\340\002\000\000 \000"
 3303      03E00200 
 3303      00E00200 
 3303      002000
 3304 15bd 00002000 		.ascii	"\000\000 \000"
 3305 15c1 00000000 		.space	63
 3305      00000000 
 3305      00000000 
 3305      00000000 
 3305      00000000 
 3306 1600 00000000 		.ascii	"\000\000\000\000\002\000\000 \002\000\000 \003\377\377"
 3306      02000020 
 3306      02000020 
 3306      03FFFF
 3307 160f E003FFFF 		.ascii	"\340\003\377\377\340\002\000\000 \002\000\000 \000\000"
 3307      E0020000 
 3307      20020000 
 3307      200000
 3308 161e 00200000 		.ascii	"\000 \000\000\000 \000\000\000 \000\000\000 \000\000"
 3308      00200000 
 3308      00200000 
 3308      00200000 
 3309 162e 00200000 		.ascii	"\000 \000\000\000`\000\000\000\340\000\000\003\000\000"
 3309      00600000 
 3309      00E00000 
 3309      030000
 3310 163d 00000000 		.ascii	"\000\000\000\000"
 3311 1641 00000000 		.space	63
 3311      00000000 
 3311      00000000 
 3311      00000000 
 3311      00000000 
 3312 1680 02000020 		.ascii	"\002\000\000 \002\000\000 \003\377\377\340\003\340\000"
 3312      02000020 
 3312      03FFFFE0 
 3312      03E000
 3313 168f 2003FF00 		.ascii	" \003\377\000 \000\037\360\000\000\001\377\200\000\000"
 3313      20001FF0 
 3313      000001FF 
 3313      800000
 3314 169e 0FE00000 		.ascii	"\017\340\000\000\036\000\000\003\340\000\000>\000 \003"
 3314      1E000003 
 3314      E000003E 
 3314      002003
 3315 16ad E0002003 		.ascii	"\340\000 \003\377\377\340\003\377\377\340\002\000\000"
 3315      FFFFE003 
 3315      FFFFE002 
 3315      0000
 3316 16bb 20020000 		.ascii	" \002\000\000 \000"
 3316      2000
 3317 16c1 00000000 		.space	63
 3317      00000000 
ARM GAS  /tmp/cc83C5OS.s 			page 104


 3317      00000000 
 3317      00000000 
 3317      00000000 
 3318 1700 02000020 		.ascii	"\002\000\000 \002\000\000 \003\377\377\340\003\200\000"
 3318      02000020 
 3318      03FFFFE0 
 3318      038000
 3319 170f 2003F000 		.ascii	" \003\360\000 \000\374\000\000\000\037\000\000\000\007"
 3319      2000FC00 
 3319      00001F00 
 3319      000007
 3320 171e C0000001 		.ascii	"\300\000\000\001\360\000\000\000|\000\002\000\037\200"
 3320      F0000000 
 3320      7C000200 
 3320      1F80
 3321 172c 020007E0 		.ascii	"\002\000\007\340\003\377\377\340\002\000\000\000\002"
 3321      03FFFFE0 
 3321      02000000 
 3321      02
 3322 1739 00000000 		.ascii	"\000\000\000\000\000\000\000\000"
 3322      00000000 
 3323 1741 00000000 		.space	63
 3323      00000000 
 3323      00000000 
 3323      00000000 
 3323      00000000 
 3324 1780 00000000 		.ascii	"\000\000\000\000\000\017\370\000\000?\376\000\000\360"
 3324      000FF800 
 3324      003FFE00 
 3324      00F0
 3325 178e 07800180 		.ascii	"\007\200\001\200\000\300\001\000\000@\002\000\000 \002"
 3325      00C00100 
 3325      00400200 
 3325      002002
 3326 179d 00002002 		.ascii	"\000\000 \002\000\000 \002\000\000 \001\000\000@\001"
 3326      00002002 
 3326      00002001 
 3326      00004001 
 3327 17ad 8000C000 		.ascii	"\200\000\300\000\360\003\200\000?\376\000\000\017\370"
 3327      F0038000 
 3327      3FFE0000 
 3327      0FF8
 3328 17bb 00000000 		.ascii	"\000\000\000\000\000\000"
 3328      0000
 3329 17c1 00000000 		.space	63
 3329      00000000 
 3329      00000000 
 3329      00000000 
 3329      00000000 
 3330 1800 00000000 		.ascii	"\000\000\000\000\002\000\000 \002\000\000 \003\377\377"
 3330      02000020 
 3330      02000020 
 3330      03FFFF
 3331 180f E003FFFF 		.ascii	"\340\003\377\377\340\002\000\200 \002\000\200 \002\000"
 3331      E0020080 
 3331      20020080 
 3331      200200
ARM GAS  /tmp/cc83C5OS.s 			page 105


 3332 181e 80000200 		.ascii	"\200\000\002\000\200\000\002\000\200\000\002\000\200"
 3332      80000200 
 3332      80000200 
 3332      80
 3333 182b 00030180 		.ascii	"\000\003\001\200\000\001\203\000\000\000\376\000\000"
 3333      00018300 
 3333      0000FE00 
 3333      00
 3334 1838 007C0000 		.ascii	"\000|\000\000\000\000\000\000\000"
 3334      00000000 
 3334      00
 3335 1841 00000000 		.space	63
 3335      00000000 
 3335      00000000 
 3335      00000000 
 3335      00000000 
 3336 1880 00000000 		.ascii	"\000\000\000\000\000\017\370\000\000\177\377\000\000"
 3336      000FF800 
 3336      007FFF00 
 3336      00
 3337 188d F0038001 		.ascii	"\360\003\200\001\200\001\300\001\000\006@\002\000\004"
 3337      8001C001 
 3337      00064002 
 3337      0004
 3338 189b 20020004 		.ascii	" \002\000\004 \002\000\006 \002\000\003\340\001\000"
 3338      20020006 
 3338      20020003 
 3338      E00100
 3339 18aa 00F80180 		.ascii	"\000\370\001\200\000\\\000\340\003\214\000?\377\014"
 3339      005C00E0 
 3339      038C003F 
 3339      FF0C
 3340 18b8 000FFC18 		.ascii	"\000\017\374\030\000\000\000\000\000"
 3340      00000000 
 3340      00
 3341 18c1 00000000 		.space	63
 3341      00000000 
 3341      00000000 
 3341      00000000 
 3341      00000000 
 3342 1900 00000000 		.ascii	"\000\000\000\000\002\000\000 \002\000\000 \003\377\377"
 3342      02000020 
 3342      02000020 
 3342      03FFFF
 3343 190f E003FFFF 		.ascii	"\340\003\377\377\340\002\001\000 \002\001\000 \002\001"
 3343      E0020100 
 3343      20020100 
 3343      200201
 3344 191e 80000201 		.ascii	"\200\000\002\001\340\000\002\001\374\000\003\003?\200"
 3344      E0000201 
 3344      FC000303 
 3344      3F80
 3345 192c 018607E0 		.ascii	"\001\206\007\340\001\374\000\340\000\370\000 \000\000"
 3345      01FC00E0 
 3345      00F80020 
 3345      0000
 3346 193a 00200000 		.ascii	"\000 \000\000\000\000\000"
ARM GAS  /tmp/cc83C5OS.s 			page 106


 3346      000000
 3347 1941 00000000 		.space	63
 3347      00000000 
 3347      00000000 
 3347      00000000 
 3347      00000000 
 3348 1980 00000000 		.ascii	"\000\000\000\000\000\000\000\000\000x\006\000\000\376"
 3348      00000000 
 3348      00780600 
 3348      00FE
 3349 198e 01E00186 		.ascii	"\001\340\001\206\000\300\003\003\000@\002\003\000 \002"
 3349      00C00303 
 3349      00400203 
 3349      002002
 3350 199d 01802002 		.ascii	"\001\200 \002\001\200 \002\001\300 \002\000\300 \001"
 3350      01802002 
 3350      01C02002 
 3350      00C02001 
 3351 19ad 00E06001 		.ascii	"\000\340`\001\200p\300\003\340?\200\000\000\037\000"
 3351      8070C003 
 3351      E03F8000 
 3351      001F00
 3352 19bc 00000000 		.ascii	"\000\000\000\000\000"
 3352      00
 3353 19c1 00000000 		.space	63
 3353      00000000 
 3353      00000000 
 3353      00000000 
 3353      00000000 
 3354 1a00 00000000 		.ascii	"\000\000\000\000\000`\000\000\003\200\000\000\003\000"
 3354      00600000 
 3354      03800000 
 3354      0300
 3355 1a0e 00000200 		.ascii	"\000\000\002\000\000\000\002\000\000 \002\000\000 \003"
 3355      00000200 
 3355      00200200 
 3355      002003
 3356 1a1d FFFFE003 		.ascii	"\377\377\340\003\377\377\340\002\000\000 \002\000\000"
 3356      FFFFE002 
 3356      00002002 
 3356      0000
 3357 1a2b 20020000 		.ascii	" \002\000\000\000\002\000\000\000\003\200\000\000\000"
 3357      00020000 
 3357      00038000 
 3357      0000
 3358 1a39 E0000000 		.ascii	"\340\000\000\000\000\000\000\000"
 3358      00000000 
 3359 1a41 00000000 		.space	63
 3359      00000000 
 3359      00000000 
 3359      00000000 
 3359      00000000 
 3360 1a80 02000000 		.ascii	"\002\000\000\000\002\000\000\000\003\377\377\000\003"
 3360      02000000 
 3360      03FFFF00 
 3360      03
 3361 1a8d FFFFC002 		.ascii	"\377\377\300\002\000\000@\002\000\000`\000\000\000 "
ARM GAS  /tmp/cc83C5OS.s 			page 107


 3361      00004002 
 3361      00006000 
 3361      000020
 3362 1a9c 00000020 		.ascii	"\000\000\000 \000\000\000 \000\000\000 \002\000\000"
 3362      00000020 
 3362      00000020 
 3362      020000
 3363 1aab 40020000 		.ascii	"@\002\000\000\200\003\377\377\000\002\000\000\000\002"
 3363      8003FFFF 
 3363      00020000 
 3363      0002
 3364 1ab9 00000000 		.ascii	"\000\000\000\000\000\000\000\000"
 3364      00000000 
 3365 1ac1 00000000 		.space	63
 3365      00000000 
 3365      00000000 
 3365      00000000 
 3365      00000000 
 3366 1b00 00000000 		.ascii	"\000\000\000\000\002\000\000\000\002\000\000\000\003"
 3366      02000000 
 3366      02000000 
 3366      03
 3367 1b0d C0000003 		.ascii	"\300\000\000\003\374\000\000\002?\300\000\000\003\370"
 3367      FC000002 
 3367      3FC00000 
 3367      03F8
 3368 1b1b 0000007F 		.ascii	"\000\000\000\177\200\000\000\007\340\000\000\007\200"
 3368      80000007 
 3368      E0000007 
 3368      80
 3369 1b28 00007800 		.ascii	"\000\000x\000\002\003\300\000\002<\000\000\003\300\000"
 3369      0203C000 
 3369      023C0000 
 3369      03C000
 3370 1b37 00020000 		.ascii	"\000\002\000\000\000\002\000\000\000\000"
 3370      00020000 
 3370      0000
 3371 1b41 00000000 		.space	63
 3371      00000000 
 3371      00000000 
 3371      00000000 
 3371      00000000 
 3372 1b80 02000000 		.ascii	"\002\000\000\000\003\300\000\000\003\377\200\000\002"
 3372      03C00000 
 3372      03FF8000 
 3372      02
 3373 1b8d 3FFE0002 		.ascii	"?\376\000\002\000\177\340\000\000\017\000\002\000\360"
 3373      007FE000 
 3373      000F0002 
 3373      00F0
 3374 1b9b 0003EF00 		.ascii	"\000\003\357\000\000\003\377\200\000\002\017\376\000"
 3374      0003FF80 
 3374      00020FFE 
 3374      00
 3375 1ba8 00003FE0 		.ascii	"\000\000?\340\000\000\037\000\002\007\340\000\003\370"
 3375      00001F00 
 3375      0207E000 
ARM GAS  /tmp/cc83C5OS.s 			page 108


 3375      03F8
 3376 1bb6 00000300 		.ascii	"\000\000\003\000\000\000\002\000\000\000\000"
 3376      00000200 
 3376      000000
 3377 1bc1 00000000 		.space	63
 3377      00000000 
 3377      00000000 
 3377      00000000 
 3377      00000000 
 3378 1c00 00000000 		.ascii	"\000\000\000\000\002\000\000 \002\000\000 \003\200\000"
 3378      02000020 
 3378      02000020 
 3378      038000
 3379 1c0f E003F003 		.ascii	"\340\003\360\003 \002\374\014 \002\0370\000\000\007"
 3379      2002FC0C 
 3379      20021F30 
 3379      000007
 3380 1c1e C0000007 		.ascii	"\300\000\000\007\360\000\002\030|\000\002`\037 \003"
 3380      F0000218 
 3380      7C000260 
 3380      1F2003
 3381 1c2d 8003E002 		.ascii	"\200\003\340\002\000\000\340\002\000\000 \000\000\000"
 3381      0000E002 
 3381      00002000 
 3381      0000
 3382 1c3b 20000000 		.ascii	" \000\000\000\000\000"
 3382      0000
 3383 1c41 00000000 		.space	63
 3383      00000000 
 3383      00000000 
 3383      00000000 
 3383      00000000 
 3384 1c80 00000000 		.ascii	"\000\000\000\000\002\000\000\000\003\000\000\000\003"
 3384      02000000 
 3384      03000000 
 3384      03
 3385 1c8d C0000003 		.ascii	"\300\000\000\003\370\000\000\002>\000 \002\017\300 "
 3385      F8000002 
 3385      3E002002 
 3385      0FC020
 3386 1c9c 0001FFE0 		.ascii	"\000\001\377\340\000\000\177\340\000\003\200 \002\034"
 3386      00007FE0 
 3386      00038020 
 3386      021C
 3387 1caa 00200270 		.ascii	"\000 \002p\000\000\003\200\000\000\002\000\000\000\002"
 3387      00000380 
 3387      00000200 
 3387      000002
 3388 1cb9 00000000 		.ascii	"\000\000\000\000\000\000\000\000"
 3388      00000000 
 3389 1cc1 00000000 		.space	63
 3389      00000000 
 3389      00000000 
 3389      00000000 
 3389      00000000 
 3390 1d00 00000000 		.ascii	"\000\000\000\000\000\000\000 \000`\000\340\003\200\003"
 3390      00000020 
ARM GAS  /tmp/cc83C5OS.s 			page 109


 3390      006000E0 
 3390      038003
 3391 1d0f E003000F 		.ascii	"\340\003\000\017\240\002\000> \002\000\370 \002\003"
 3391      A002003E 
 3391      200200F8 
 3391      200203
 3392 1d1e E020020F 		.ascii	"\340 \002\017\200 \002>\000 \002x\000 \003\340\000`"
 3392      8020023E 
 3392      00200278 
 3392      002003E0 
 3392      0060
 3393 1d30 038000E0 		.ascii	"\003\200\000\340\002\000\003\000\000\000\000\000\000"
 3393      02000300 
 3393      00000000 
 3393      00
 3394 1d3d 00000000 		.ascii	"\000\000\000\000"
 3395 1d41 00000000 		.space	63
 3395      00000000 
 3395      00000000 
 3395      00000000 
 3395      00000000 
 3396 1d80 00000000 		.ascii	"\000\000\000\000\000\000\000\000\000\000\000\000\000"
 3396      00000000 
 3396      00000000 
 3396      00
 3397 1d8d 00000000 		.ascii	"\000\000\000\000\000\000\000\000\000\000\000\037\377"
 3397      00000000 
 3397      0000001F 
 3397      FF
 3398 1d9a FFFC1000 		.ascii	"\377\374\020\000\000\004\020\000\000\004\020\000\000"
 3398      00041000 
 3398      00041000 
 3398      00
 3399 1da7 04100000 		.ascii	"\004\020\000\000\004\020\000\000\004\020\000\000\004"
 3399      04100000 
 3399      04100000 
 3399      04
 3400 1db4 10000004 		.ascii	"\020\000\000\004\000\000\000\000\000\000\000\000\000"
 3400      00000000 
 3400      00000000 
 3400      00
 3401 1dc1 00000000 		.space	63
 3401      00000000 
 3401      00000000 
 3401      00000000 
 3401      00000000 
 3402 1e00 00000000 		.ascii	"\000\000\000\000\000\000\000\000\000\000\000\000\007"
 3402      00000000 
 3402      00000000 
 3402      07
 3403 1e0d 00000003 		.ascii	"\000\000\000\003\300\000\000\000x\000\000\000\036\000"
 3403      C0000000 
 3403      78000000 
 3403      1E00
 3404 1e1b 000003C0 		.ascii	"\000\000\003\300\000\000\000\360\000\000\000\036\000"
 3404      000000F0 
 3404      0000001E 
ARM GAS  /tmp/cc83C5OS.s 			page 110


 3404      00
 3405 1e28 00000780 		.ascii	"\000\000\007\200\000\000\000\360\000\000\000<\000\000"
 3405      000000F0 
 3405      0000003C 
 3405      0000
 3406 1e36 00060000 		.ascii	"\000\006\000\000\000\000\000\000\000\000\000"
 3406      00000000 
 3406      000000
 3407 1e41 00000000 		.space	63
 3407      00000000 
 3407      00000000 
 3407      00000000 
 3407      00000000 
 3408 1e80 00000000 		.ascii	"\000\000\000\000\000\000\000\000\020\000\000\004\020"
 3408      00000000 
 3408      10000004 
 3408      10
 3409 1e8d 00000410 		.ascii	"\000\000\004\020\000\000\004\020\000\000\004\020\000"
 3409      00000410 
 3409      00000410 
 3409      00
 3410 1e9a 00041000 		.ascii	"\000\004\020\000\000\004\020\000\000\004\037\377\377"
 3410      00041000 
 3410      00041FFF 
 3410      FF
 3411 1ea7 FC000000 		.ascii	"\374\000\000\000\000\000\000\000\000\000\000\000\000"
 3411      00000000 
 3411      00000000 
 3411      00
 3412 1eb4 00000000 		.ascii	"\000\000\000\000\000\000\000\000\000\000\000\000\000"
 3412      00000000 
 3412      00000000 
 3412      00
 3413 1ec1 00000000 		.space	63
 3413      00000000 
 3413      00000000 
 3413      00000000 
 3413      00000000 
 3414 1f00 00000000 		.ascii	"\000\000\000\000\000\000\000\000\000\000\000\000\000"
 3414      00000000 
 3414      00000000 
 3414      00
 3415 1f0d 00000002 		.ascii	"\000\000\000\002\000\000\000\004\000\000\000\010\000"
 3415      00000004 
 3415      00000008 
 3415      00
 3416 1f1a 00001800 		.ascii	"\000\000\030\000\000\000\020\000\000\000\030\000\000"
 3416      00001000 
 3416      00001800 
 3416      00
 3417 1f27 00180000 		.ascii	"\000\030\000\000\000\004\000\000\000\002\000\000\000"
 3417      00040000 
 3417      00020000 
 3417      00
 3418 1f34 00000000 		.ascii	"\000\000\000\000\000\000\000\000\000\000\000\000\000"
 3418      00000000 
 3418      00000000 
ARM GAS  /tmp/cc83C5OS.s 			page 111


 3418      00
 3419 1f41 00000000 		.space	63
 3419      00000000 
 3419      00000000 
 3419      00000000 
 3419      00000000 
 3420 1f80 00000001 		.ascii	"\000\000\000\001\000\000\000\001\000\000\000\001\000"
 3420      00000001 
 3420      00000001 
 3420      00
 3421 1f8d 00000100 		.ascii	"\000\000\001\000\000\000\001\000\000\000\001\000\000"
 3421      00000100 
 3421      00000100 
 3421      00
 3422 1f9a 00010000 		.ascii	"\000\001\000\000\000\001\000\000\000\001\000\000\000"
 3422      00010000 
 3422      00010000 
 3422      00
 3423 1fa7 01000000 		.ascii	"\001\000\000\000\001\000\000\000\001\000\000\000\001"
 3423      01000000 
 3423      01000000 
 3423      01
 3424 1fb4 00000001 		.ascii	"\000\000\000\001\000\000\000\001\000\000\000\001\000"
 3424      00000001 
 3424      00000001 
 3424      00
 3425 1fc1 00000000 		.space	63
 3425      00000000 
 3425      00000000 
 3425      00000000 
 3425      00000000 
 3426 2000 00000000 		.ascii	"\000\000\000\000\000\000\000\000\000\000\000\000\020"
 3426      00000000 
 3426      00000000 
 3426      10
 3427 200d 00000010 		.ascii	"\000\000\000\020\000\000\000\020\000\000\000\030\000"
 3427      00000010 
 3427      00000018 
 3427      00
 3428 201a 00000800 		.ascii	"\000\000\010\000\000\000\004\000\000\000\000\000\000"
 3428      00000400 
 3428      00000000 
 3428      00
 3429 2027 00000000 		.ascii	"\000\000\000\000\000\000\000\000\000\000\000\000\000"
 3429      00000000 
 3429      00000000 
 3429      00
 3430 2034 00000000 		.ascii	"\000\000\000\000\000\000\000\000\000\000\000\000\000"
 3430      00000000 
 3430      00000000 
 3430      00
 3431 2041 00000000 		.space	63
 3431      00000000 
 3431      00000000 
 3431      00000000 
 3431      00000000 
 3432 2080 00000000 		.ascii	"\000\000\000\000\000\000\003\200\000\001\217\300\000"
ARM GAS  /tmp/cc83C5OS.s 			page 112


 3432      00000380 
 3432      00018FC0 
 3432      00
 3433 208d 038C6000 		.ascii	"\003\214`\000\006\030 \000\004\020 \000\004\020 \000"
 3433      06182000 
 3433      04102000 
 3433      04102000 
 3434 209d 04202000 		.ascii	"\004  \000\004 @\000\006 @\000\003\377\300\000\001\377"
 3434      04204000 
 3434      06204000 
 3434      03FFC000 
 3434      01FF
 3435 20af E0000000 		.ascii	"\340\000\000\000 \000\000\000 \000\000\000\300\000\000"
 3435      20000000 
 3435      20000000 
 3435      C00000
 3436 20be 000000   		.ascii	"\000\000\000"
 3437 20c1 00000000 		.space	63
 3437      00000000 
 3437      00000000 
 3437      00000000 
 3437      00000000 
 3438 2100 00000000 		.ascii	"\000\000\000\000\002\000\000\000\002\000\000\000\003"
 3438      02000000 
 3438      02000000 
 3438      03
 3439 210d FFFFE007 		.ascii	"\377\377\340\007\377\377\300\000\001\200\300\000\002"
 3439      FFFFC000 
 3439      0180C000 
 3439      02
 3440 211a 00600002 		.ascii	"\000`\000\002\000 \000\004\000 \000\004\000 \000\004"
 3440      00200004 
 3440      00200004 
 3440      00200004 
 3441 212a 00200006 		.ascii	"\000 \000\006\000@\000\003\000\300\000\001\377\200\000"
 3441      00400003 
 3441      00C00001 
 3441      FF8000
 3442 2139 00FE0000 		.ascii	"\000\376\000\000\000\000\000\000"
 3442      00000000 
 3443 2141 00000000 		.space	63
 3443      00000000 
 3443      00000000 
 3443      00000000 
 3443      00000000 
 3444 2180 00000000 		.ascii	"\000\000\000\000\000\000\000\000\000\000~\000\000\001"
 3444      00000000 
 3444      00007E00 
 3444      0001
 3445 218e FF800003 		.ascii	"\377\200\000\003\201\300\000\002\000@\000\006\000 \000"
 3445      81C00002 
 3445      00400006 
 3445      002000
 3446 219d 04002000 		.ascii	"\004\000 \000\004\000 \000\004\000 \000\006\000 \000"
 3446      04002000 
 3446      04002000 
 3446      06002000 
ARM GAS  /tmp/cc83C5OS.s 			page 113


 3447 21ad 03C04000 		.ascii	"\003\300@\000\001\300\200\000\000\003\000\000\000\000"
 3447      01C08000 
 3447      00030000 
 3447      0000
 3448 21bb 00000000 		.ascii	"\000\000\000\000\000\000"
 3448      0000
 3449 21c1 00000000 		.space	63
 3449      00000000 
 3449      00000000 
 3449      00000000 
 3449      00000000 
 3450 2200 00000000 		.ascii	"\000\000\000\000\000\000\000\000\000\000~\000\000\001"
 3450      00000000 
 3450      00007E00 
 3450      0001
 3451 220e FF800003 		.ascii	"\377\200\000\003\200\300\000\006\000`\000\004\000 \000"
 3451      80C00006 
 3451      00600004 
 3451      002000
 3452 221d 04002000 		.ascii	"\004\000 \000\004\000 \002\004\000@\002\002\000\200"
 3452      04002002 
 3452      04004002 
 3452      020080
