ARM GAS  /tmp/cceTBk2v.s 			page 1


   1              		.cpu cortex-m4
   2              		.eabi_attribute 27, 1
   3              		.eabi_attribute 28, 1
   4              		.eabi_attribute 20, 1
   5              		.eabi_attribute 21, 1
   6              		.eabi_attribute 23, 3
   7              		.eabi_attribute 24, 1
   8              		.eabi_attribute 25, 1
   9              		.eabi_attribute 26, 1
  10              		.eabi_attribute 30, 1
  11              		.eabi_attribute 34, 1
  12              		.eabi_attribute 18, 4
  13              		.file	"stm32f4xx_spi.c"
  14              		.text
  15              	.Ltext0:
  16              		.cfi_sections	.debug_frame
  17              		.section	.text.SPI_I2S_DeInit,"ax",%progbits
  18              		.align	1
  19              		.global	SPI_I2S_DeInit
  20              		.arch armv7e-m
  21              		.syntax unified
  22              		.thumb
  23              		.thumb_func
  24              		.fpu fpv4-sp-d16
  26              	SPI_I2S_DeInit:
  27              	.LVL0:
  28              	.LFB123:
  29              		.file 1 "Libraries/STM32F4xx_StdPeriph_Driver/src/stm32f4xx_spi.c"
   1:Libraries/STM32F4xx_StdPeriph_Driver/src/stm32f4xx_spi.c **** /**
   2:Libraries/STM32F4xx_StdPeriph_Driver/src/stm32f4xx_spi.c ****   ******************************************************************************
   3:Libraries/STM32F4xx_StdPeriph_Driver/src/stm32f4xx_spi.c ****   * @file    stm32f4xx_spi.c
   4:Libraries/STM32F4xx_StdPeriph_Driver/src/stm32f4xx_spi.c ****   * @author  MCD Application Team
   5:Libraries/STM32F4xx_StdPeriph_Driver/src/stm32f4xx_spi.c ****   * @version V1.8.1
   6:Libraries/STM32F4xx_StdPeriph_Driver/src/stm32f4xx_spi.c ****   * @date    27-January-2022
   7:Libraries/STM32F4xx_StdPeriph_Driver/src/stm32f4xx_spi.c ****   * @brief   This file provides firmware functions to manage the following 
   8:Libraries/STM32F4xx_StdPeriph_Driver/src/stm32f4xx_spi.c ****   *          functionalities of the Serial peripheral interface (SPI):
   9:Libraries/STM32F4xx_StdPeriph_Driver/src/stm32f4xx_spi.c ****   *           + Initialization and Configuration
  10:Libraries/STM32F4xx_StdPeriph_Driver/src/stm32f4xx_spi.c ****   *           + Data transfers functions
  11:Libraries/STM32F4xx_StdPeriph_Driver/src/stm32f4xx_spi.c ****   *           + Hardware CRC Calculation
  12:Libraries/STM32F4xx_StdPeriph_Driver/src/stm32f4xx_spi.c ****   *           + DMA transfers management
  13:Libraries/STM32F4xx_StdPeriph_Driver/src/stm32f4xx_spi.c ****   *           + Interrupts and flags management 
  14:Libraries/STM32F4xx_StdPeriph_Driver/src/stm32f4xx_spi.c ****   *           
  15:Libraries/STM32F4xx_StdPeriph_Driver/src/stm32f4xx_spi.c **** @verbatim
  16:Libraries/STM32F4xx_StdPeriph_Driver/src/stm32f4xx_spi.c **** 
  17:Libraries/STM32F4xx_StdPeriph_Driver/src/stm32f4xx_spi.c ****  ===================================================================
  18:Libraries/STM32F4xx_StdPeriph_Driver/src/stm32f4xx_spi.c ****                   ##### How to use this driver #####
  19:Libraries/STM32F4xx_StdPeriph_Driver/src/stm32f4xx_spi.c ****  ===================================================================
  20:Libraries/STM32F4xx_StdPeriph_Driver/src/stm32f4xx_spi.c ****  [..]
  21:Libraries/STM32F4xx_StdPeriph_Driver/src/stm32f4xx_spi.c ****    (#) Enable peripheral clock using the following functions 
  22:Libraries/STM32F4xx_StdPeriph_Driver/src/stm32f4xx_spi.c ****        RCC_APB2PeriphClockCmd(RCC_APB2Periph_SPI1, ENABLE) for SPI1
  23:Libraries/STM32F4xx_StdPeriph_Driver/src/stm32f4xx_spi.c ****        RCC_APB1PeriphClockCmd(RCC_APB1Periph_SPI2, ENABLE) for SPI2
  24:Libraries/STM32F4xx_StdPeriph_Driver/src/stm32f4xx_spi.c ****        RCC_APB1PeriphResetCmd(RCC_APB1Periph_SPI3, ENABLE) for SPI3
  25:Libraries/STM32F4xx_StdPeriph_Driver/src/stm32f4xx_spi.c ****        RCC_APB1PeriphResetCmd(RCC_APB1Periph_SPI3, ENABLE) for SPI4
  26:Libraries/STM32F4xx_StdPeriph_Driver/src/stm32f4xx_spi.c ****        RCC_APB1PeriphResetCmd(RCC_APB1Periph_SPI3, ENABLE) for SPI5
  27:Libraries/STM32F4xx_StdPeriph_Driver/src/stm32f4xx_spi.c ****        RCC_APB1PeriphResetCmd(RCC_APB1Periph_SPI3, ENABLE) for SPI6.
  28:Libraries/STM32F4xx_StdPeriph_Driver/src/stm32f4xx_spi.c ****   
  29:Libraries/STM32F4xx_StdPeriph_Driver/src/stm32f4xx_spi.c ****    (#) Enable SCK, MOSI, MISO and NSS GPIO clocks using RCC_AHB1PeriphClockCmd()
ARM GAS  /tmp/cceTBk2v.s 			page 2


  30:Libraries/STM32F4xx_StdPeriph_Driver/src/stm32f4xx_spi.c ****        function. In I2S mode, if an external clock source is used then the I2S 
  31:Libraries/STM32F4xx_StdPeriph_Driver/src/stm32f4xx_spi.c ****        CKIN pin GPIO clock should also be enabled.
  32:Libraries/STM32F4xx_StdPeriph_Driver/src/stm32f4xx_spi.c ****   
  33:Libraries/STM32F4xx_StdPeriph_Driver/src/stm32f4xx_spi.c ****    (#) Peripherals alternate function: 
  34:Libraries/STM32F4xx_StdPeriph_Driver/src/stm32f4xx_spi.c ****        (++) Connect the pin to the desired peripherals' Alternate Function (AF) 
  35:Libraries/STM32F4xx_StdPeriph_Driver/src/stm32f4xx_spi.c ****             using GPIO_PinAFConfig() function
  36:Libraries/STM32F4xx_StdPeriph_Driver/src/stm32f4xx_spi.c ****        (++) Configure the desired pin in alternate function by: 
  37:Libraries/STM32F4xx_StdPeriph_Driver/src/stm32f4xx_spi.c ****             GPIO_InitStruct->GPIO_Mode = GPIO_Mode_AF
  38:Libraries/STM32F4xx_StdPeriph_Driver/src/stm32f4xx_spi.c ****        (++) Select the type, pull-up/pull-down and output speed via GPIO_PuPd, 
  39:Libraries/STM32F4xx_StdPeriph_Driver/src/stm32f4xx_spi.c ****             GPIO_OType and GPIO_Speed members
  40:Libraries/STM32F4xx_StdPeriph_Driver/src/stm32f4xx_spi.c ****        (++) Call GPIO_Init() function In I2S mode, if an external clock source is 
  41:Libraries/STM32F4xx_StdPeriph_Driver/src/stm32f4xx_spi.c ****             used then the I2S CKIN pin should be also configured in Alternate 
  42:Libraries/STM32F4xx_StdPeriph_Driver/src/stm32f4xx_spi.c ****             function Push-pull pull-up mode. 
  43:Libraries/STM32F4xx_StdPeriph_Driver/src/stm32f4xx_spi.c ****           
  44:Libraries/STM32F4xx_StdPeriph_Driver/src/stm32f4xx_spi.c ****    (#) Program the Polarity, Phase, First Data, Baud Rate Prescaler, Slave 
  45:Libraries/STM32F4xx_StdPeriph_Driver/src/stm32f4xx_spi.c ****        Management, Peripheral Mode and CRC Polynomial values using the SPI_Init()
  46:Libraries/STM32F4xx_StdPeriph_Driver/src/stm32f4xx_spi.c ****        function.
  47:Libraries/STM32F4xx_StdPeriph_Driver/src/stm32f4xx_spi.c ****        In I2S mode, program the Mode, Standard, Data Format, MCLK Output, Audio 
  48:Libraries/STM32F4xx_StdPeriph_Driver/src/stm32f4xx_spi.c ****        frequency and Polarity using I2S_Init() function. For I2S mode, make sure 
  49:Libraries/STM32F4xx_StdPeriph_Driver/src/stm32f4xx_spi.c ****        that either:
  50:Libraries/STM32F4xx_StdPeriph_Driver/src/stm32f4xx_spi.c ****        (++) I2S PLL is configured using the functions 
  51:Libraries/STM32F4xx_StdPeriph_Driver/src/stm32f4xx_spi.c ****             RCC_I2SCLKConfig(RCC_I2S2CLKSource_PLLI2S), RCC_PLLI2SCmd(ENABLE) and 
  52:Libraries/STM32F4xx_StdPeriph_Driver/src/stm32f4xx_spi.c ****             RCC_GetFlagStatus(RCC_FLAG_PLLI2SRDY); or 
  53:Libraries/STM32F4xx_StdPeriph_Driver/src/stm32f4xx_spi.c ****        (++) External clock source is configured using the function 
  54:Libraries/STM32F4xx_StdPeriph_Driver/src/stm32f4xx_spi.c ****             RCC_I2SCLKConfig(RCC_I2S2CLKSource_Ext) and after setting correctly 
  55:Libraries/STM32F4xx_StdPeriph_Driver/src/stm32f4xx_spi.c ****             the define constant I2S_EXTERNAL_CLOCK_VAL in the stm32f4xx_conf.h file. 
  56:Libraries/STM32F4xx_StdPeriph_Driver/src/stm32f4xx_spi.c ****   
  57:Libraries/STM32F4xx_StdPeriph_Driver/src/stm32f4xx_spi.c ****    (#) Enable the NVIC and the corresponding interrupt using the function 
  58:Libraries/STM32F4xx_StdPeriph_Driver/src/stm32f4xx_spi.c ****        SPI_ITConfig() if you need to use interrupt mode. 
  59:Libraries/STM32F4xx_StdPeriph_Driver/src/stm32f4xx_spi.c ****   
  60:Libraries/STM32F4xx_StdPeriph_Driver/src/stm32f4xx_spi.c ****    (#) When using the DMA mode 
  61:Libraries/STM32F4xx_StdPeriph_Driver/src/stm32f4xx_spi.c ****        (++) Configure the DMA using DMA_Init() function
  62:Libraries/STM32F4xx_StdPeriph_Driver/src/stm32f4xx_spi.c ****        (++) Active the needed channel Request using SPI_I2S_DMACmd() function
  63:Libraries/STM32F4xx_StdPeriph_Driver/src/stm32f4xx_spi.c ****    
  64:Libraries/STM32F4xx_StdPeriph_Driver/src/stm32f4xx_spi.c ****    (#) Enable the SPI using the SPI_Cmd() function or enable the I2S using
  65:Libraries/STM32F4xx_StdPeriph_Driver/src/stm32f4xx_spi.c ****        I2S_Cmd().
  66:Libraries/STM32F4xx_StdPeriph_Driver/src/stm32f4xx_spi.c ****    
  67:Libraries/STM32F4xx_StdPeriph_Driver/src/stm32f4xx_spi.c ****    (#) Enable the DMA using the DMA_Cmd() function when using DMA mode. 
  68:Libraries/STM32F4xx_StdPeriph_Driver/src/stm32f4xx_spi.c ****   
  69:Libraries/STM32F4xx_StdPeriph_Driver/src/stm32f4xx_spi.c ****    (#) Optionally, you can enable/configure the following parameters without
  70:Libraries/STM32F4xx_StdPeriph_Driver/src/stm32f4xx_spi.c ****        re-initialization (i.e there is no need to call again SPI_Init() function):
  71:Libraries/STM32F4xx_StdPeriph_Driver/src/stm32f4xx_spi.c ****        (++) When bidirectional mode (SPI_Direction_1Line_Rx or SPI_Direction_1Line_Tx)
  72:Libraries/STM32F4xx_StdPeriph_Driver/src/stm32f4xx_spi.c ****             is programmed as Data direction parameter using the SPI_Init() function
  73:Libraries/STM32F4xx_StdPeriph_Driver/src/stm32f4xx_spi.c ****             it can be possible to switch between SPI_Direction_Tx or SPI_Direction_Rx
  74:Libraries/STM32F4xx_StdPeriph_Driver/src/stm32f4xx_spi.c ****             using the SPI_BiDirectionalLineConfig() function.
  75:Libraries/STM32F4xx_StdPeriph_Driver/src/stm32f4xx_spi.c ****        (++) When SPI_NSS_Soft is selected as Slave Select Management parameter 
  76:Libraries/STM32F4xx_StdPeriph_Driver/src/stm32f4xx_spi.c ****             using the SPI_Init() function it can be possible to manage the 
  77:Libraries/STM32F4xx_StdPeriph_Driver/src/stm32f4xx_spi.c ****             NSS internal signal using the SPI_NSSInternalSoftwareConfig() function.
  78:Libraries/STM32F4xx_StdPeriph_Driver/src/stm32f4xx_spi.c ****        (++) Reconfigure the data size using the SPI_DataSizeConfig() function  
  79:Libraries/STM32F4xx_StdPeriph_Driver/src/stm32f4xx_spi.c ****        (++) Enable or disable the SS output using the SPI_SSOutputCmd() function  
  80:Libraries/STM32F4xx_StdPeriph_Driver/src/stm32f4xx_spi.c ****             
  81:Libraries/STM32F4xx_StdPeriph_Driver/src/stm32f4xx_spi.c ****     (#) To use the CRC Hardware calculation feature refer to the Peripheral 
  82:Libraries/STM32F4xx_StdPeriph_Driver/src/stm32f4xx_spi.c ****         CRC hardware Calculation subsection.
  83:Libraries/STM32F4xx_StdPeriph_Driver/src/stm32f4xx_spi.c ****      
  84:Libraries/STM32F4xx_StdPeriph_Driver/src/stm32f4xx_spi.c ****   
  85:Libraries/STM32F4xx_StdPeriph_Driver/src/stm32f4xx_spi.c ****  [..] It is possible to use SPI in I2S full duplex mode, in this case, each SPI 
  86:Libraries/STM32F4xx_StdPeriph_Driver/src/stm32f4xx_spi.c ****       peripheral is able to manage sending and receiving data simultaneously
ARM GAS  /tmp/cceTBk2v.s 			page 3


  87:Libraries/STM32F4xx_StdPeriph_Driver/src/stm32f4xx_spi.c ****       using two data lines. Each SPI peripheral has an extended block called I2Sxext
  88:Libraries/STM32F4xx_StdPeriph_Driver/src/stm32f4xx_spi.c ****       (ie. I2S2ext for SPI2 and I2S3ext for SPI3).
  89:Libraries/STM32F4xx_StdPeriph_Driver/src/stm32f4xx_spi.c ****       The extension block is not a full SPI IP, it is used only as I2S slave to
  90:Libraries/STM32F4xx_StdPeriph_Driver/src/stm32f4xx_spi.c ****       implement full duplex mode. The extension block uses the same clock sources
  91:Libraries/STM32F4xx_StdPeriph_Driver/src/stm32f4xx_spi.c ****       as its master.          
  92:Libraries/STM32F4xx_StdPeriph_Driver/src/stm32f4xx_spi.c ****       To configure I2S full duplex you have to:
  93:Libraries/STM32F4xx_StdPeriph_Driver/src/stm32f4xx_spi.c ****               
  94:Libraries/STM32F4xx_StdPeriph_Driver/src/stm32f4xx_spi.c ****       (#) Configure SPIx in I2S mode (I2S_Init() function) as described above. 
  95:Libraries/STM32F4xx_StdPeriph_Driver/src/stm32f4xx_spi.c ****              
  96:Libraries/STM32F4xx_StdPeriph_Driver/src/stm32f4xx_spi.c ****       (#) Call the I2S_FullDuplexConfig() function using the same structure passed to  
  97:Libraries/STM32F4xx_StdPeriph_Driver/src/stm32f4xx_spi.c ****           I2S_Init() function.
  98:Libraries/STM32F4xx_StdPeriph_Driver/src/stm32f4xx_spi.c ****               
  99:Libraries/STM32F4xx_StdPeriph_Driver/src/stm32f4xx_spi.c ****       (#) Call I2S_Cmd() for SPIx then for its extended block.
 100:Libraries/STM32F4xx_StdPeriph_Driver/src/stm32f4xx_spi.c ****             
 101:Libraries/STM32F4xx_StdPeriph_Driver/src/stm32f4xx_spi.c ****       (#) To configure interrupts or DMA requests and to get/clear flag status, 
 102:Libraries/STM32F4xx_StdPeriph_Driver/src/stm32f4xx_spi.c ****           use I2Sxext instance for the extension block.
 103:Libraries/STM32F4xx_StdPeriph_Driver/src/stm32f4xx_spi.c ****                
 104:Libraries/STM32F4xx_StdPeriph_Driver/src/stm32f4xx_spi.c ****  [..] Functions that can be called with I2Sxext instances are: I2S_Cmd(), 
 105:Libraries/STM32F4xx_StdPeriph_Driver/src/stm32f4xx_spi.c ****       I2S_FullDuplexConfig(), SPI_I2S_ReceiveData(), SPI_I2S_SendData(), 
 106:Libraries/STM32F4xx_StdPeriph_Driver/src/stm32f4xx_spi.c ****       SPI_I2S_DMACmd(), SPI_I2S_ITConfig(), SPI_I2S_GetFlagStatus(), 
 107:Libraries/STM32F4xx_StdPeriph_Driver/src/stm32f4xx_spi.c ****       SPI_I2S_ClearFlag(), SPI_I2S_GetITStatus() and SPI_I2S_ClearITPendingBit().
 108:Libraries/STM32F4xx_StdPeriph_Driver/src/stm32f4xx_spi.c ****                    
 109:Libraries/STM32F4xx_StdPeriph_Driver/src/stm32f4xx_spi.c ****       Example: To use SPI3 in Full duplex mode (SPI3 is Master Tx, I2S3ext is Slave Rx):
 110:Libraries/STM32F4xx_StdPeriph_Driver/src/stm32f4xx_spi.c ****               
 111:Libraries/STM32F4xx_StdPeriph_Driver/src/stm32f4xx_spi.c ****       RCC_APB1PeriphClockCmd(RCC_APB1Periph_SPI3, ENABLE);   
 112:Libraries/STM32F4xx_StdPeriph_Driver/src/stm32f4xx_spi.c ****       I2S_StructInit(&I2SInitStruct);
 113:Libraries/STM32F4xx_StdPeriph_Driver/src/stm32f4xx_spi.c ****       I2SInitStruct.Mode = I2S_Mode_MasterTx;     
 114:Libraries/STM32F4xx_StdPeriph_Driver/src/stm32f4xx_spi.c ****       I2S_Init(SPI3, &I2SInitStruct);
 115:Libraries/STM32F4xx_StdPeriph_Driver/src/stm32f4xx_spi.c ****       I2S_FullDuplexConfig(SPI3ext, &I2SInitStruct)
 116:Libraries/STM32F4xx_StdPeriph_Driver/src/stm32f4xx_spi.c ****       I2S_Cmd(SPI3, ENABLE);
 117:Libraries/STM32F4xx_StdPeriph_Driver/src/stm32f4xx_spi.c ****       I2S_Cmd(SPI3ext, ENABLE);
 118:Libraries/STM32F4xx_StdPeriph_Driver/src/stm32f4xx_spi.c ****       ...
 119:Libraries/STM32F4xx_StdPeriph_Driver/src/stm32f4xx_spi.c ****       while (SPI_I2S_GetFlagStatus(SPI2, SPI_FLAG_TXE) == RESET)
 120:Libraries/STM32F4xx_StdPeriph_Driver/src/stm32f4xx_spi.c ****       {}
 121:Libraries/STM32F4xx_StdPeriph_Driver/src/stm32f4xx_spi.c ****       SPI_I2S_SendData(SPI3, txdata[i]);
 122:Libraries/STM32F4xx_StdPeriph_Driver/src/stm32f4xx_spi.c ****       ...  
 123:Libraries/STM32F4xx_StdPeriph_Driver/src/stm32f4xx_spi.c ****       while (SPI_I2S_GetFlagStatus(I2S3ext, SPI_FLAG_RXNE) == RESET)
 124:Libraries/STM32F4xx_StdPeriph_Driver/src/stm32f4xx_spi.c ****       {}
 125:Libraries/STM32F4xx_StdPeriph_Driver/src/stm32f4xx_spi.c ****       rxdata[i] = SPI_I2S_ReceiveData(I2S3ext);
 126:Libraries/STM32F4xx_StdPeriph_Driver/src/stm32f4xx_spi.c ****       ...          
 127:Libraries/STM32F4xx_StdPeriph_Driver/src/stm32f4xx_spi.c ****                 
 128:Libraries/STM32F4xx_StdPeriph_Driver/src/stm32f4xx_spi.c ****  [..]       
 129:Libraries/STM32F4xx_StdPeriph_Driver/src/stm32f4xx_spi.c ****    (@) In I2S mode: if an external clock is used as source clock for the I2S,  
 130:Libraries/STM32F4xx_StdPeriph_Driver/src/stm32f4xx_spi.c ****        then the define I2S_EXTERNAL_CLOCK_VAL in file stm32f4xx_conf.h should 
 131:Libraries/STM32F4xx_StdPeriph_Driver/src/stm32f4xx_spi.c ****        be enabled and set to the value of the source clock frequency (in Hz).
 132:Libraries/STM32F4xx_StdPeriph_Driver/src/stm32f4xx_spi.c ****    
 133:Libraries/STM32F4xx_StdPeriph_Driver/src/stm32f4xx_spi.c ****    (@) In SPI mode: To use the SPI TI mode, call the function SPI_TIModeCmd() 
 134:Libraries/STM32F4xx_StdPeriph_Driver/src/stm32f4xx_spi.c ****        just after calling the function SPI_Init().
 135:Libraries/STM32F4xx_StdPeriph_Driver/src/stm32f4xx_spi.c ****   
 136:Libraries/STM32F4xx_StdPeriph_Driver/src/stm32f4xx_spi.c **** @endverbatim  
 137:Libraries/STM32F4xx_StdPeriph_Driver/src/stm32f4xx_spi.c ****   *                                  
 138:Libraries/STM32F4xx_StdPeriph_Driver/src/stm32f4xx_spi.c ****   ******************************************************************************
 139:Libraries/STM32F4xx_StdPeriph_Driver/src/stm32f4xx_spi.c ****   * @attention
 140:Libraries/STM32F4xx_StdPeriph_Driver/src/stm32f4xx_spi.c ****   *
 141:Libraries/STM32F4xx_StdPeriph_Driver/src/stm32f4xx_spi.c ****   * Copyright (c) 2016 STMicroelectronics.
 142:Libraries/STM32F4xx_StdPeriph_Driver/src/stm32f4xx_spi.c ****   * All rights reserved.
 143:Libraries/STM32F4xx_StdPeriph_Driver/src/stm32f4xx_spi.c ****   *
ARM GAS  /tmp/cceTBk2v.s 			page 4


 144:Libraries/STM32F4xx_StdPeriph_Driver/src/stm32f4xx_spi.c ****   * This software is licensed under terms that can be found in the LICENSE file
 145:Libraries/STM32F4xx_StdPeriph_Driver/src/stm32f4xx_spi.c ****   * in the root directory of this software component.
 146:Libraries/STM32F4xx_StdPeriph_Driver/src/stm32f4xx_spi.c ****   * If no LICENSE file comes with this software, it is provided AS-IS.
 147:Libraries/STM32F4xx_StdPeriph_Driver/src/stm32f4xx_spi.c ****   *
 148:Libraries/STM32F4xx_StdPeriph_Driver/src/stm32f4xx_spi.c ****   ******************************************************************************
 149:Libraries/STM32F4xx_StdPeriph_Driver/src/stm32f4xx_spi.c ****   */
 150:Libraries/STM32F4xx_StdPeriph_Driver/src/stm32f4xx_spi.c **** 
 151:Libraries/STM32F4xx_StdPeriph_Driver/src/stm32f4xx_spi.c **** /* Includes ------------------------------------------------------------------*/
 152:Libraries/STM32F4xx_StdPeriph_Driver/src/stm32f4xx_spi.c **** #include "stm32f4xx_spi.h"
 153:Libraries/STM32F4xx_StdPeriph_Driver/src/stm32f4xx_spi.c **** #include "stm32f4xx_rcc.h"
 154:Libraries/STM32F4xx_StdPeriph_Driver/src/stm32f4xx_spi.c **** 
 155:Libraries/STM32F4xx_StdPeriph_Driver/src/stm32f4xx_spi.c **** /** @addtogroup STM32F4xx_StdPeriph_Driver
 156:Libraries/STM32F4xx_StdPeriph_Driver/src/stm32f4xx_spi.c ****   * @{
 157:Libraries/STM32F4xx_StdPeriph_Driver/src/stm32f4xx_spi.c ****   */
 158:Libraries/STM32F4xx_StdPeriph_Driver/src/stm32f4xx_spi.c **** 
 159:Libraries/STM32F4xx_StdPeriph_Driver/src/stm32f4xx_spi.c **** /** @defgroup SPI 
 160:Libraries/STM32F4xx_StdPeriph_Driver/src/stm32f4xx_spi.c ****   * @brief SPI driver modules
 161:Libraries/STM32F4xx_StdPeriph_Driver/src/stm32f4xx_spi.c ****   * @{
 162:Libraries/STM32F4xx_StdPeriph_Driver/src/stm32f4xx_spi.c ****   */ 
 163:Libraries/STM32F4xx_StdPeriph_Driver/src/stm32f4xx_spi.c **** 
 164:Libraries/STM32F4xx_StdPeriph_Driver/src/stm32f4xx_spi.c **** /* Private typedef -----------------------------------------------------------*/
 165:Libraries/STM32F4xx_StdPeriph_Driver/src/stm32f4xx_spi.c **** /* Private define ------------------------------------------------------------*/
 166:Libraries/STM32F4xx_StdPeriph_Driver/src/stm32f4xx_spi.c **** 
 167:Libraries/STM32F4xx_StdPeriph_Driver/src/stm32f4xx_spi.c **** /* SPI registers Masks */
 168:Libraries/STM32F4xx_StdPeriph_Driver/src/stm32f4xx_spi.c **** #define CR1_CLEAR_MASK            ((uint16_t)0x3040)
 169:Libraries/STM32F4xx_StdPeriph_Driver/src/stm32f4xx_spi.c **** #define I2SCFGR_CLEAR_MASK        ((uint16_t)0xF040)
 170:Libraries/STM32F4xx_StdPeriph_Driver/src/stm32f4xx_spi.c **** 
 171:Libraries/STM32F4xx_StdPeriph_Driver/src/stm32f4xx_spi.c **** /* RCC PLLs masks */
 172:Libraries/STM32F4xx_StdPeriph_Driver/src/stm32f4xx_spi.c **** #define PLLCFGR_PPLR_MASK         ((uint32_t)0x70000000)
 173:Libraries/STM32F4xx_StdPeriph_Driver/src/stm32f4xx_spi.c **** #define PLLCFGR_PPLN_MASK         ((uint32_t)0x00007FC0)
 174:Libraries/STM32F4xx_StdPeriph_Driver/src/stm32f4xx_spi.c **** 
 175:Libraries/STM32F4xx_StdPeriph_Driver/src/stm32f4xx_spi.c **** #define SPI_CR2_FRF               ((uint16_t)0x0010)
 176:Libraries/STM32F4xx_StdPeriph_Driver/src/stm32f4xx_spi.c **** #define SPI_SR_TIFRFE             ((uint16_t)0x0100)
 177:Libraries/STM32F4xx_StdPeriph_Driver/src/stm32f4xx_spi.c **** 
 178:Libraries/STM32F4xx_StdPeriph_Driver/src/stm32f4xx_spi.c **** /* Private macro -------------------------------------------------------------*/
 179:Libraries/STM32F4xx_StdPeriph_Driver/src/stm32f4xx_spi.c **** /* Private variables ---------------------------------------------------------*/
 180:Libraries/STM32F4xx_StdPeriph_Driver/src/stm32f4xx_spi.c **** /* Private function prototypes -----------------------------------------------*/
 181:Libraries/STM32F4xx_StdPeriph_Driver/src/stm32f4xx_spi.c **** /* Private functions ---------------------------------------------------------*/
 182:Libraries/STM32F4xx_StdPeriph_Driver/src/stm32f4xx_spi.c **** 
 183:Libraries/STM32F4xx_StdPeriph_Driver/src/stm32f4xx_spi.c **** /** @defgroup SPI_Private_Functions
 184:Libraries/STM32F4xx_StdPeriph_Driver/src/stm32f4xx_spi.c ****   * @{
 185:Libraries/STM32F4xx_StdPeriph_Driver/src/stm32f4xx_spi.c ****   */
 186:Libraries/STM32F4xx_StdPeriph_Driver/src/stm32f4xx_spi.c **** 
 187:Libraries/STM32F4xx_StdPeriph_Driver/src/stm32f4xx_spi.c **** /** @defgroup SPI_Group1 Initialization and Configuration functions
 188:Libraries/STM32F4xx_StdPeriph_Driver/src/stm32f4xx_spi.c ****  *  @brief   Initialization and Configuration functions 
 189:Libraries/STM32F4xx_StdPeriph_Driver/src/stm32f4xx_spi.c ****  *
 190:Libraries/STM32F4xx_StdPeriph_Driver/src/stm32f4xx_spi.c **** @verbatim   
 191:Libraries/STM32F4xx_StdPeriph_Driver/src/stm32f4xx_spi.c ****  ===============================================================================
 192:Libraries/STM32F4xx_StdPeriph_Driver/src/stm32f4xx_spi.c ****              ##### Initialization and Configuration functions ##### 
 193:Libraries/STM32F4xx_StdPeriph_Driver/src/stm32f4xx_spi.c ****  ===============================================================================  
 194:Libraries/STM32F4xx_StdPeriph_Driver/src/stm32f4xx_spi.c ****  [..] This section provides a set of functions allowing to initialize the SPI 
 195:Libraries/STM32F4xx_StdPeriph_Driver/src/stm32f4xx_spi.c ****       Direction, SPI Mode, SPI Data Size, SPI Polarity, SPI Phase, SPI NSS 
 196:Libraries/STM32F4xx_StdPeriph_Driver/src/stm32f4xx_spi.c ****       Management, SPI Baud Rate Prescaler, SPI First Bit and SPI CRC Polynomial.
 197:Libraries/STM32F4xx_StdPeriph_Driver/src/stm32f4xx_spi.c ****   
 198:Libraries/STM32F4xx_StdPeriph_Driver/src/stm32f4xx_spi.c ****  [..] The SPI_Init() function follows the SPI configuration procedures for Master 
 199:Libraries/STM32F4xx_StdPeriph_Driver/src/stm32f4xx_spi.c ****       mode and Slave mode (details for these procedures are available in reference 
 200:Libraries/STM32F4xx_StdPeriph_Driver/src/stm32f4xx_spi.c ****       manual (RM0090)).
ARM GAS  /tmp/cceTBk2v.s 			page 5


 201:Libraries/STM32F4xx_StdPeriph_Driver/src/stm32f4xx_spi.c ****   
 202:Libraries/STM32F4xx_StdPeriph_Driver/src/stm32f4xx_spi.c **** @endverbatim
 203:Libraries/STM32F4xx_StdPeriph_Driver/src/stm32f4xx_spi.c ****   * @{
 204:Libraries/STM32F4xx_StdPeriph_Driver/src/stm32f4xx_spi.c ****   */
 205:Libraries/STM32F4xx_StdPeriph_Driver/src/stm32f4xx_spi.c **** 
 206:Libraries/STM32F4xx_StdPeriph_Driver/src/stm32f4xx_spi.c **** /**
 207:Libraries/STM32F4xx_StdPeriph_Driver/src/stm32f4xx_spi.c ****   * @brief  De-initialize the SPIx peripheral registers to their default reset values.
 208:Libraries/STM32F4xx_StdPeriph_Driver/src/stm32f4xx_spi.c ****   * @param  SPIx: To select the SPIx/I2Sx peripheral, where x can be: 1, 2, 3, 4, 5 or 6 
 209:Libraries/STM32F4xx_StdPeriph_Driver/src/stm32f4xx_spi.c ****   *         in SPI mode or 2 or 3 in I2S mode.   
 210:Libraries/STM32F4xx_StdPeriph_Driver/src/stm32f4xx_spi.c ****   *         
 211:Libraries/STM32F4xx_StdPeriph_Driver/src/stm32f4xx_spi.c ****   * @note   The extended I2S blocks (ie. I2S2ext and I2S3ext blocks) are de-initialized
 212:Libraries/STM32F4xx_StdPeriph_Driver/src/stm32f4xx_spi.c ****   *         when the relative I2S peripheral is de-initialized (the extended block's clock
 213:Libraries/STM32F4xx_StdPeriph_Driver/src/stm32f4xx_spi.c ****   *         is managed by the I2S peripheral clock).
 214:Libraries/STM32F4xx_StdPeriph_Driver/src/stm32f4xx_spi.c ****   *             
 215:Libraries/STM32F4xx_StdPeriph_Driver/src/stm32f4xx_spi.c ****   * @retval None
 216:Libraries/STM32F4xx_StdPeriph_Driver/src/stm32f4xx_spi.c ****   */
 217:Libraries/STM32F4xx_StdPeriph_Driver/src/stm32f4xx_spi.c **** void SPI_I2S_DeInit(SPI_TypeDef* SPIx)
 218:Libraries/STM32F4xx_StdPeriph_Driver/src/stm32f4xx_spi.c **** {
  30              		.loc 1 218 1 view -0
  31              		.cfi_startproc
  32              		@ args = 0, pretend = 0, frame = 0
  33              		@ frame_needed = 0, uses_anonymous_args = 0
  34              		.loc 1 218 1 is_stmt 0 view .LVU1
  35 0000 08B5     		push	{r3, lr}
  36              	.LCFI0:
  37              		.cfi_def_cfa_offset 8
  38              		.cfi_offset 3, -8
  39              		.cfi_offset 14, -4
 219:Libraries/STM32F4xx_StdPeriph_Driver/src/stm32f4xx_spi.c ****   /* Check the parameters */
 220:Libraries/STM32F4xx_StdPeriph_Driver/src/stm32f4xx_spi.c ****   assert_param(IS_SPI_ALL_PERIPH(SPIx));
  40              		.loc 1 220 3 is_stmt 1 view .LVU2
 221:Libraries/STM32F4xx_StdPeriph_Driver/src/stm32f4xx_spi.c **** 
 222:Libraries/STM32F4xx_StdPeriph_Driver/src/stm32f4xx_spi.c ****   if (SPIx == SPI1)
  41              		.loc 1 222 3 view .LVU3
  42              		.loc 1 222 6 is_stmt 0 view .LVU4
  43 0002 2A4B     		ldr	r3, .L15
  44 0004 9842     		cmp	r0, r3
  45 0006 0FD0     		beq	.L9
 223:Libraries/STM32F4xx_StdPeriph_Driver/src/stm32f4xx_spi.c ****   {
 224:Libraries/STM32F4xx_StdPeriph_Driver/src/stm32f4xx_spi.c ****     /* Enable SPI1 reset state */
 225:Libraries/STM32F4xx_StdPeriph_Driver/src/stm32f4xx_spi.c ****     RCC_APB2PeriphResetCmd(RCC_APB2Periph_SPI1, ENABLE);
 226:Libraries/STM32F4xx_StdPeriph_Driver/src/stm32f4xx_spi.c ****     /* Release SPI1 from reset state */
 227:Libraries/STM32F4xx_StdPeriph_Driver/src/stm32f4xx_spi.c ****     RCC_APB2PeriphResetCmd(RCC_APB2Periph_SPI1, DISABLE);
 228:Libraries/STM32F4xx_StdPeriph_Driver/src/stm32f4xx_spi.c ****   }
 229:Libraries/STM32F4xx_StdPeriph_Driver/src/stm32f4xx_spi.c ****   else if (SPIx == SPI2)
  46              		.loc 1 229 8 is_stmt 1 view .LVU5
  47              		.loc 1 229 11 is_stmt 0 view .LVU6
  48 0008 294B     		ldr	r3, .L15+4
  49 000a 9842     		cmp	r0, r3
  50 000c 17D0     		beq	.L10
 230:Libraries/STM32F4xx_StdPeriph_Driver/src/stm32f4xx_spi.c ****   {
 231:Libraries/STM32F4xx_StdPeriph_Driver/src/stm32f4xx_spi.c ****     /* Enable SPI2 reset state */
 232:Libraries/STM32F4xx_StdPeriph_Driver/src/stm32f4xx_spi.c ****     RCC_APB1PeriphResetCmd(RCC_APB1Periph_SPI2, ENABLE);
 233:Libraries/STM32F4xx_StdPeriph_Driver/src/stm32f4xx_spi.c ****     /* Release SPI2 from reset state */
 234:Libraries/STM32F4xx_StdPeriph_Driver/src/stm32f4xx_spi.c ****     RCC_APB1PeriphResetCmd(RCC_APB1Periph_SPI2, DISABLE);
 235:Libraries/STM32F4xx_StdPeriph_Driver/src/stm32f4xx_spi.c ****   }
 236:Libraries/STM32F4xx_StdPeriph_Driver/src/stm32f4xx_spi.c ****   else if (SPIx == SPI3)
ARM GAS  /tmp/cceTBk2v.s 			page 6


  51              		.loc 1 236 8 is_stmt 1 view .LVU7
  52              		.loc 1 236 11 is_stmt 0 view .LVU8
  53 000e 294B     		ldr	r3, .L15+8
  54 0010 9842     		cmp	r0, r3
  55 0012 1FD0     		beq	.L11
 237:Libraries/STM32F4xx_StdPeriph_Driver/src/stm32f4xx_spi.c ****   {
 238:Libraries/STM32F4xx_StdPeriph_Driver/src/stm32f4xx_spi.c ****     /* Enable SPI3 reset state */
 239:Libraries/STM32F4xx_StdPeriph_Driver/src/stm32f4xx_spi.c ****     RCC_APB1PeriphResetCmd(RCC_APB1Periph_SPI3, ENABLE);
 240:Libraries/STM32F4xx_StdPeriph_Driver/src/stm32f4xx_spi.c ****     /* Release SPI3 from reset state */
 241:Libraries/STM32F4xx_StdPeriph_Driver/src/stm32f4xx_spi.c ****     RCC_APB1PeriphResetCmd(RCC_APB1Periph_SPI3, DISABLE);
 242:Libraries/STM32F4xx_StdPeriph_Driver/src/stm32f4xx_spi.c ****   }
 243:Libraries/STM32F4xx_StdPeriph_Driver/src/stm32f4xx_spi.c ****   else if (SPIx == SPI4)
  56              		.loc 1 243 8 is_stmt 1 view .LVU9
  57              		.loc 1 243 11 is_stmt 0 view .LVU10
  58 0014 284B     		ldr	r3, .L15+12
  59 0016 9842     		cmp	r0, r3
  60 0018 27D0     		beq	.L12
 244:Libraries/STM32F4xx_StdPeriph_Driver/src/stm32f4xx_spi.c ****   {
 245:Libraries/STM32F4xx_StdPeriph_Driver/src/stm32f4xx_spi.c ****     /* Enable SPI4 reset state */
 246:Libraries/STM32F4xx_StdPeriph_Driver/src/stm32f4xx_spi.c ****     RCC_APB2PeriphResetCmd(RCC_APB2Periph_SPI4, ENABLE);
 247:Libraries/STM32F4xx_StdPeriph_Driver/src/stm32f4xx_spi.c ****     /* Release SPI4 from reset state */
 248:Libraries/STM32F4xx_StdPeriph_Driver/src/stm32f4xx_spi.c ****     RCC_APB2PeriphResetCmd(RCC_APB2Periph_SPI4, DISABLE);
 249:Libraries/STM32F4xx_StdPeriph_Driver/src/stm32f4xx_spi.c ****   }
 250:Libraries/STM32F4xx_StdPeriph_Driver/src/stm32f4xx_spi.c ****   else if (SPIx == SPI5)
  61              		.loc 1 250 8 is_stmt 1 view .LVU11
  62              		.loc 1 250 11 is_stmt 0 view .LVU12
  63 001a 284B     		ldr	r3, .L15+16
  64 001c 9842     		cmp	r0, r3
  65 001e 2FD0     		beq	.L13
 251:Libraries/STM32F4xx_StdPeriph_Driver/src/stm32f4xx_spi.c ****   {
 252:Libraries/STM32F4xx_StdPeriph_Driver/src/stm32f4xx_spi.c ****     /* Enable SPI5 reset state */
 253:Libraries/STM32F4xx_StdPeriph_Driver/src/stm32f4xx_spi.c ****     RCC_APB2PeriphResetCmd(RCC_APB2Periph_SPI5, ENABLE);
 254:Libraries/STM32F4xx_StdPeriph_Driver/src/stm32f4xx_spi.c ****     /* Release SPI5 from reset state */
 255:Libraries/STM32F4xx_StdPeriph_Driver/src/stm32f4xx_spi.c ****     RCC_APB2PeriphResetCmd(RCC_APB2Periph_SPI5, DISABLE);
 256:Libraries/STM32F4xx_StdPeriph_Driver/src/stm32f4xx_spi.c ****   }
 257:Libraries/STM32F4xx_StdPeriph_Driver/src/stm32f4xx_spi.c ****   else 
 258:Libraries/STM32F4xx_StdPeriph_Driver/src/stm32f4xx_spi.c ****   {
 259:Libraries/STM32F4xx_StdPeriph_Driver/src/stm32f4xx_spi.c ****     if (SPIx == SPI6)
  66              		.loc 1 259 5 is_stmt 1 view .LVU13
  67              		.loc 1 259 8 is_stmt 0 view .LVU14
  68 0020 274B     		ldr	r3, .L15+20
  69 0022 9842     		cmp	r0, r3
  70 0024 37D0     		beq	.L14
  71              	.LVL1:
  72              	.L1:
 260:Libraries/STM32F4xx_StdPeriph_Driver/src/stm32f4xx_spi.c ****     {
 261:Libraries/STM32F4xx_StdPeriph_Driver/src/stm32f4xx_spi.c ****       /* Enable SPI6 reset state */
 262:Libraries/STM32F4xx_StdPeriph_Driver/src/stm32f4xx_spi.c ****       RCC_APB2PeriphResetCmd(RCC_APB2Periph_SPI6, ENABLE);
 263:Libraries/STM32F4xx_StdPeriph_Driver/src/stm32f4xx_spi.c ****       /* Release SPI6 from reset state */
 264:Libraries/STM32F4xx_StdPeriph_Driver/src/stm32f4xx_spi.c ****       RCC_APB2PeriphResetCmd(RCC_APB2Periph_SPI6, DISABLE);
 265:Libraries/STM32F4xx_StdPeriph_Driver/src/stm32f4xx_spi.c ****     }
 266:Libraries/STM32F4xx_StdPeriph_Driver/src/stm32f4xx_spi.c ****   }
 267:Libraries/STM32F4xx_StdPeriph_Driver/src/stm32f4xx_spi.c **** }
  73              		.loc 1 267 1 view .LVU15
  74 0026 08BD     		pop	{r3, pc}
  75              	.LVL2:
  76              	.L9:
ARM GAS  /tmp/cceTBk2v.s 			page 7


 225:Libraries/STM32F4xx_StdPeriph_Driver/src/stm32f4xx_spi.c ****     /* Release SPI1 from reset state */
  77              		.loc 1 225 5 is_stmt 1 view .LVU16
  78 0028 0121     		movs	r1, #1
  79 002a 4FF48050 		mov	r0, #4096
  80              	.LVL3:
 225:Libraries/STM32F4xx_StdPeriph_Driver/src/stm32f4xx_spi.c ****     /* Release SPI1 from reset state */
  81              		.loc 1 225 5 is_stmt 0 view .LVU17
  82 002e FFF7FEFF 		bl	RCC_APB2PeriphResetCmd
  83              	.LVL4:
 227:Libraries/STM32F4xx_StdPeriph_Driver/src/stm32f4xx_spi.c ****   }
  84              		.loc 1 227 5 is_stmt 1 view .LVU18
  85 0032 0021     		movs	r1, #0
  86 0034 4FF48050 		mov	r0, #4096
  87 0038 FFF7FEFF 		bl	RCC_APB2PeriphResetCmd
  88              	.LVL5:
  89 003c F3E7     		b	.L1
  90              	.LVL6:
  91              	.L10:
 232:Libraries/STM32F4xx_StdPeriph_Driver/src/stm32f4xx_spi.c ****     /* Release SPI2 from reset state */
  92              		.loc 1 232 5 view .LVU19
  93 003e 0121     		movs	r1, #1
  94 0040 4FF48040 		mov	r0, #16384
  95              	.LVL7:
 232:Libraries/STM32F4xx_StdPeriph_Driver/src/stm32f4xx_spi.c ****     /* Release SPI2 from reset state */
  96              		.loc 1 232 5 is_stmt 0 view .LVU20
  97 0044 FFF7FEFF 		bl	RCC_APB1PeriphResetCmd
  98              	.LVL8:
 234:Libraries/STM32F4xx_StdPeriph_Driver/src/stm32f4xx_spi.c ****   }
  99              		.loc 1 234 5 is_stmt 1 view .LVU21
 100 0048 0021     		movs	r1, #0
 101 004a 4FF48040 		mov	r0, #16384
 102 004e FFF7FEFF 		bl	RCC_APB1PeriphResetCmd
 103              	.LVL9:
 104 0052 E8E7     		b	.L1
 105              	.LVL10:
 106              	.L11:
 239:Libraries/STM32F4xx_StdPeriph_Driver/src/stm32f4xx_spi.c ****     /* Release SPI3 from reset state */
 107              		.loc 1 239 5 view .LVU22
 108 0054 0121     		movs	r1, #1
 109 0056 4FF40040 		mov	r0, #32768
 110              	.LVL11:
 239:Libraries/STM32F4xx_StdPeriph_Driver/src/stm32f4xx_spi.c ****     /* Release SPI3 from reset state */
 111              		.loc 1 239 5 is_stmt 0 view .LVU23
 112 005a FFF7FEFF 		bl	RCC_APB1PeriphResetCmd
 113              	.LVL12:
 241:Libraries/STM32F4xx_StdPeriph_Driver/src/stm32f4xx_spi.c ****   }
 114              		.loc 1 241 5 is_stmt 1 view .LVU24
 115 005e 0021     		movs	r1, #0
 116 0060 4FF40040 		mov	r0, #32768
 117 0064 FFF7FEFF 		bl	RCC_APB1PeriphResetCmd
 118              	.LVL13:
 119 0068 DDE7     		b	.L1
 120              	.LVL14:
 121              	.L12:
 246:Libraries/STM32F4xx_StdPeriph_Driver/src/stm32f4xx_spi.c ****     /* Release SPI4 from reset state */
 122              		.loc 1 246 5 view .LVU25
 123 006a 0121     		movs	r1, #1
ARM GAS  /tmp/cceTBk2v.s 			page 8


 124 006c 4FF40050 		mov	r0, #8192
 125              	.LVL15:
 246:Libraries/STM32F4xx_StdPeriph_Driver/src/stm32f4xx_spi.c ****     /* Release SPI4 from reset state */
 126              		.loc 1 246 5 is_stmt 0 view .LVU26
 127 0070 FFF7FEFF 		bl	RCC_APB2PeriphResetCmd
 128              	.LVL16:
 248:Libraries/STM32F4xx_StdPeriph_Driver/src/stm32f4xx_spi.c ****   }
 129              		.loc 1 248 5 is_stmt 1 view .LVU27
 130 0074 0021     		movs	r1, #0
 131 0076 4FF40050 		mov	r0, #8192
 132 007a FFF7FEFF 		bl	RCC_APB2PeriphResetCmd
 133              	.LVL17:
 134 007e D2E7     		b	.L1
 135              	.LVL18:
 136              	.L13:
 253:Libraries/STM32F4xx_StdPeriph_Driver/src/stm32f4xx_spi.c ****     /* Release SPI5 from reset state */
 137              		.loc 1 253 5 view .LVU28
 138 0080 0121     		movs	r1, #1
 139 0082 4FF48010 		mov	r0, #1048576
 140              	.LVL19:
 253:Libraries/STM32F4xx_StdPeriph_Driver/src/stm32f4xx_spi.c ****     /* Release SPI5 from reset state */
 141              		.loc 1 253 5 is_stmt 0 view .LVU29
 142 0086 FFF7FEFF 		bl	RCC_APB2PeriphResetCmd
 143              	.LVL20:
 255:Libraries/STM32F4xx_StdPeriph_Driver/src/stm32f4xx_spi.c ****   }
 144              		.loc 1 255 5 is_stmt 1 view .LVU30
 145 008a 0021     		movs	r1, #0
 146 008c 4FF48010 		mov	r0, #1048576
 147 0090 FFF7FEFF 		bl	RCC_APB2PeriphResetCmd
 148              	.LVL21:
 149 0094 C7E7     		b	.L1
 150              	.LVL22:
 151              	.L14:
 262:Libraries/STM32F4xx_StdPeriph_Driver/src/stm32f4xx_spi.c ****       /* Release SPI6 from reset state */
 152              		.loc 1 262 7 view .LVU31
 153 0096 0121     		movs	r1, #1
 154 0098 4FF40010 		mov	r0, #2097152
 155              	.LVL23:
 262:Libraries/STM32F4xx_StdPeriph_Driver/src/stm32f4xx_spi.c ****       /* Release SPI6 from reset state */
 156              		.loc 1 262 7 is_stmt 0 view .LVU32
 157 009c FFF7FEFF 		bl	RCC_APB2PeriphResetCmd
 158              	.LVL24:
 264:Libraries/STM32F4xx_StdPeriph_Driver/src/stm32f4xx_spi.c ****     }
 159              		.loc 1 264 7 is_stmt 1 view .LVU33
 160 00a0 0021     		movs	r1, #0
 161 00a2 4FF40010 		mov	r0, #2097152
 162 00a6 FFF7FEFF 		bl	RCC_APB2PeriphResetCmd
 163              	.LVL25:
 164              		.loc 1 267 1 is_stmt 0 view .LVU34
 165 00aa BCE7     		b	.L1
 166              	.L16:
 167              		.align	2
 168              	.L15:
 169 00ac 00300140 		.word	1073819648
 170 00b0 00380040 		.word	1073756160
 171 00b4 003C0040 		.word	1073757184
 172 00b8 00340140 		.word	1073820672
ARM GAS  /tmp/cceTBk2v.s 			page 9


 173 00bc 00500140 		.word	1073827840
 174 00c0 00540140 		.word	1073828864
 175              		.cfi_endproc
 176              	.LFE123:
 178              		.section	.text.SPI_Init,"ax",%progbits
 179              		.align	1
 180              		.global	SPI_Init
 181              		.syntax unified
 182              		.thumb
 183              		.thumb_func
 184              		.fpu fpv4-sp-d16
 186              	SPI_Init:
 187              	.LVL26:
 188              	.LFB124:
 268:Libraries/STM32F4xx_StdPeriph_Driver/src/stm32f4xx_spi.c **** 
 269:Libraries/STM32F4xx_StdPeriph_Driver/src/stm32f4xx_spi.c **** /**
 270:Libraries/STM32F4xx_StdPeriph_Driver/src/stm32f4xx_spi.c ****   * @brief  Initializes the SPIx peripheral according to the specified 
 271:Libraries/STM32F4xx_StdPeriph_Driver/src/stm32f4xx_spi.c ****   *         parameters in the SPI_InitStruct.
 272:Libraries/STM32F4xx_StdPeriph_Driver/src/stm32f4xx_spi.c ****   * @param  SPIx: where x can be 1, 2, 3, 4, 5 or 6 to select the SPI peripheral.
 273:Libraries/STM32F4xx_StdPeriph_Driver/src/stm32f4xx_spi.c ****   * @param  SPI_InitStruct: pointer to a SPI_InitTypeDef structure that
 274:Libraries/STM32F4xx_StdPeriph_Driver/src/stm32f4xx_spi.c ****   *         contains the configuration information for the specified SPI peripheral.
 275:Libraries/STM32F4xx_StdPeriph_Driver/src/stm32f4xx_spi.c ****   * @retval None
 276:Libraries/STM32F4xx_StdPeriph_Driver/src/stm32f4xx_spi.c ****   */
 277:Libraries/STM32F4xx_StdPeriph_Driver/src/stm32f4xx_spi.c **** void SPI_Init(SPI_TypeDef* SPIx, SPI_InitTypeDef* SPI_InitStruct)
 278:Libraries/STM32F4xx_StdPeriph_Driver/src/stm32f4xx_spi.c **** {
 189              		.loc 1 278 1 is_stmt 1 view -0
 190              		.cfi_startproc
 191              		@ args = 0, pretend = 0, frame = 0
 192              		@ frame_needed = 0, uses_anonymous_args = 0
 193              		.loc 1 278 1 is_stmt 0 view .LVU36
 194 0000 2DE9F041 		push	{r4, r5, r6, r7, r8, lr}
 195              	.LCFI1:
 196              		.cfi_def_cfa_offset 24
 197              		.cfi_offset 4, -24
 198              		.cfi_offset 5, -20
 199              		.cfi_offset 6, -16
 200              		.cfi_offset 7, -12
 201              		.cfi_offset 8, -8
 202              		.cfi_offset 14, -4
 279:Libraries/STM32F4xx_StdPeriph_Driver/src/stm32f4xx_spi.c ****   uint16_t tmpreg = 0;
 203              		.loc 1 279 3 is_stmt 1 view .LVU37
 204              	.LVL27:
 280:Libraries/STM32F4xx_StdPeriph_Driver/src/stm32f4xx_spi.c ****   
 281:Libraries/STM32F4xx_StdPeriph_Driver/src/stm32f4xx_spi.c ****   /* check the parameters */
 282:Libraries/STM32F4xx_StdPeriph_Driver/src/stm32f4xx_spi.c ****   assert_param(IS_SPI_ALL_PERIPH(SPIx));
 205              		.loc 1 282 3 view .LVU38
 283:Libraries/STM32F4xx_StdPeriph_Driver/src/stm32f4xx_spi.c ****   
 284:Libraries/STM32F4xx_StdPeriph_Driver/src/stm32f4xx_spi.c ****   /* Check the SPI parameters */
 285:Libraries/STM32F4xx_StdPeriph_Driver/src/stm32f4xx_spi.c ****   assert_param(IS_SPI_DIRECTION_MODE(SPI_InitStruct->SPI_Direction));
 206              		.loc 1 285 3 view .LVU39
 286:Libraries/STM32F4xx_StdPeriph_Driver/src/stm32f4xx_spi.c ****   assert_param(IS_SPI_MODE(SPI_InitStruct->SPI_Mode));
 207              		.loc 1 286 3 view .LVU40
 287:Libraries/STM32F4xx_StdPeriph_Driver/src/stm32f4xx_spi.c ****   assert_param(IS_SPI_DATASIZE(SPI_InitStruct->SPI_DataSize));
 208              		.loc 1 287 3 view .LVU41
 288:Libraries/STM32F4xx_StdPeriph_Driver/src/stm32f4xx_spi.c ****   assert_param(IS_SPI_CPOL(SPI_InitStruct->SPI_CPOL));
 209              		.loc 1 288 3 view .LVU42
 289:Libraries/STM32F4xx_StdPeriph_Driver/src/stm32f4xx_spi.c ****   assert_param(IS_SPI_CPHA(SPI_InitStruct->SPI_CPHA));
ARM GAS  /tmp/cceTBk2v.s 			page 10


 210              		.loc 1 289 3 view .LVU43
 290:Libraries/STM32F4xx_StdPeriph_Driver/src/stm32f4xx_spi.c ****   assert_param(IS_SPI_NSS(SPI_InitStruct->SPI_NSS));
 211              		.loc 1 290 3 view .LVU44
 291:Libraries/STM32F4xx_StdPeriph_Driver/src/stm32f4xx_spi.c ****   assert_param(IS_SPI_BAUDRATE_PRESCALER(SPI_InitStruct->SPI_BaudRatePrescaler));
 212              		.loc 1 291 3 view .LVU45
 292:Libraries/STM32F4xx_StdPeriph_Driver/src/stm32f4xx_spi.c ****   assert_param(IS_SPI_FIRST_BIT(SPI_InitStruct->SPI_FirstBit));
 213              		.loc 1 292 3 view .LVU46
 293:Libraries/STM32F4xx_StdPeriph_Driver/src/stm32f4xx_spi.c ****   assert_param(IS_SPI_CRC_POLYNOMIAL(SPI_InitStruct->SPI_CRCPolynomial));
 214              		.loc 1 293 3 view .LVU47
 294:Libraries/STM32F4xx_StdPeriph_Driver/src/stm32f4xx_spi.c **** 
 295:Libraries/STM32F4xx_StdPeriph_Driver/src/stm32f4xx_spi.c **** /*---------------------------- SPIx CR1 Configuration ------------------------*/
 296:Libraries/STM32F4xx_StdPeriph_Driver/src/stm32f4xx_spi.c ****   /* Get the SPIx CR1 value */
 297:Libraries/STM32F4xx_StdPeriph_Driver/src/stm32f4xx_spi.c ****   tmpreg = SPIx->CR1;
 215              		.loc 1 297 3 view .LVU48
 216              		.loc 1 297 10 is_stmt 0 view .LVU49
 217 0004 0388     		ldrh	r3, [r0]
 218              	.LVL28:
 298:Libraries/STM32F4xx_StdPeriph_Driver/src/stm32f4xx_spi.c ****   /* Clear BIDIMode, BIDIOE, RxONLY, SSM, SSI, LSBFirst, BR, MSTR, CPOL and CPHA bits */
 299:Libraries/STM32F4xx_StdPeriph_Driver/src/stm32f4xx_spi.c ****   tmpreg &= CR1_CLEAR_MASK;
 219              		.loc 1 299 3 is_stmt 1 view .LVU50
 220              		.loc 1 299 10 is_stmt 0 view .LVU51
 221 0006 03F44152 		and	r2, r3, #12352
 222              	.LVL29:
 300:Libraries/STM32F4xx_StdPeriph_Driver/src/stm32f4xx_spi.c ****   /* Configure SPIx: direction, NSS management, first transmitted bit, BaudRate prescaler
 301:Libraries/STM32F4xx_StdPeriph_Driver/src/stm32f4xx_spi.c ****      master/salve mode, CPOL and CPHA */
 302:Libraries/STM32F4xx_StdPeriph_Driver/src/stm32f4xx_spi.c ****   /* Set BIDImode, BIDIOE and RxONLY bits according to SPI_Direction value */
 303:Libraries/STM32F4xx_StdPeriph_Driver/src/stm32f4xx_spi.c ****   /* Set SSM, SSI and MSTR bits according to SPI_Mode and SPI_NSS values */
 304:Libraries/STM32F4xx_StdPeriph_Driver/src/stm32f4xx_spi.c ****   /* Set LSBFirst bit according to SPI_FirstBit value */
 305:Libraries/STM32F4xx_StdPeriph_Driver/src/stm32f4xx_spi.c ****   /* Set BR bits according to SPI_BaudRatePrescaler value */
 306:Libraries/STM32F4xx_StdPeriph_Driver/src/stm32f4xx_spi.c ****   /* Set CPOL bit according to SPI_CPOL value */
 307:Libraries/STM32F4xx_StdPeriph_Driver/src/stm32f4xx_spi.c ****   /* Set CPHA bit according to SPI_CPHA value */
 308:Libraries/STM32F4xx_StdPeriph_Driver/src/stm32f4xx_spi.c ****   tmpreg |= (uint16_t)((uint32_t)SPI_InitStruct->SPI_Direction | SPI_InitStruct->SPI_Mode |
 223              		.loc 1 308 3 is_stmt 1 view .LVU52
 224              		.loc 1 308 48 is_stmt 0 view .LVU53
 225 000a 0F88     		ldrh	r7, [r1]
 226              		.loc 1 308 80 view .LVU54
 227 000c B1F80280 		ldrh	r8, [r1, #2]
 309:Libraries/STM32F4xx_StdPeriph_Driver/src/stm32f4xx_spi.c ****                   SPI_InitStruct->SPI_DataSize | SPI_InitStruct->SPI_CPOL |  
 228              		.loc 1 309 33 view .LVU55
 229 0010 8E88     		ldrh	r6, [r1, #4]
 230              		.loc 1 309 64 view .LVU56
 231 0012 CD88     		ldrh	r5, [r1, #6]
 310:Libraries/STM32F4xx_StdPeriph_Driver/src/stm32f4xx_spi.c ****                   SPI_InitStruct->SPI_CPHA | SPI_InitStruct->SPI_NSS |  
 232              		.loc 1 310 33 view .LVU57
 233 0014 0C89     		ldrh	r4, [r1, #8]
 234              		.loc 1 310 60 view .LVU58
 235 0016 B1F80AE0 		ldrh	lr, [r1, #10]
 311:Libraries/STM32F4xx_StdPeriph_Driver/src/stm32f4xx_spi.c ****                   SPI_InitStruct->SPI_BaudRatePrescaler | SPI_InitStruct->SPI_FirstBit);
 236              		.loc 1 311 33 view .LVU59
 237 001a B1F80CC0 		ldrh	ip, [r1, #12]
 238              		.loc 1 311 73 view .LVU60
 239 001e CB89     		ldrh	r3, [r1, #14]
 308:Libraries/STM32F4xx_StdPeriph_Driver/src/stm32f4xx_spi.c ****                   SPI_InitStruct->SPI_DataSize | SPI_InitStruct->SPI_CPOL |  
 240              		.loc 1 308 13 view .LVU61
 241 0020 47EA0807 		orr	r7, r7, r8
 242 0024 3E43     		orrs	r6, r6, r7
 243 0026 3543     		orrs	r5, r5, r6
ARM GAS  /tmp/cceTBk2v.s 			page 11


 244 0028 2C43     		orrs	r4, r4, r5
 245 002a 4EEA040E 		orr	lr, lr, r4
 246 002e 4CEA0E0C 		orr	ip, ip, lr
 247 0032 43EA0C03 		orr	r3, r3, ip
 308:Libraries/STM32F4xx_StdPeriph_Driver/src/stm32f4xx_spi.c ****                   SPI_InitStruct->SPI_DataSize | SPI_InitStruct->SPI_CPOL |  
 248              		.loc 1 308 10 view .LVU62
 249 0036 1343     		orrs	r3, r3, r2
 250              	.LVL30:
 312:Libraries/STM32F4xx_StdPeriph_Driver/src/stm32f4xx_spi.c ****   /* Write to SPIx CR1 */
 313:Libraries/STM32F4xx_StdPeriph_Driver/src/stm32f4xx_spi.c ****   SPIx->CR1 = tmpreg;
 251              		.loc 1 313 3 is_stmt 1 view .LVU63
 252              		.loc 1 313 13 is_stmt 0 view .LVU64
 253 0038 0380     		strh	r3, [r0]	@ movhi
 314:Libraries/STM32F4xx_StdPeriph_Driver/src/stm32f4xx_spi.c **** 
 315:Libraries/STM32F4xx_StdPeriph_Driver/src/stm32f4xx_spi.c ****   /* Activate the SPI mode (Reset I2SMOD bit in I2SCFGR register) */
 316:Libraries/STM32F4xx_StdPeriph_Driver/src/stm32f4xx_spi.c ****   SPIx->I2SCFGR &= (uint16_t)~((uint16_t)SPI_I2SCFGR_I2SMOD);
 254              		.loc 1 316 3 is_stmt 1 view .LVU65
 255              		.loc 1 316 17 is_stmt 0 view .LVU66
 256 003a 838B     		ldrh	r3, [r0, #28]
 257              	.LVL31:
 258              		.loc 1 316 17 view .LVU67
 259 003c 9BB2     		uxth	r3, r3
 260 003e 23F40063 		bic	r3, r3, #2048
 261 0042 9BB2     		uxth	r3, r3
 262 0044 8383     		strh	r3, [r0, #28]	@ movhi
 263              	.LVL32:
 317:Libraries/STM32F4xx_StdPeriph_Driver/src/stm32f4xx_spi.c **** /*---------------------------- SPIx CRCPOLY Configuration --------------------*/
 318:Libraries/STM32F4xx_StdPeriph_Driver/src/stm32f4xx_spi.c ****   /* Write to SPIx CRCPOLY */
 319:Libraries/STM32F4xx_StdPeriph_Driver/src/stm32f4xx_spi.c ****   SPIx->CRCPR = SPI_InitStruct->SPI_CRCPolynomial;
 264              		.loc 1 319 3 is_stmt 1 view .LVU68
 265              		.loc 1 319 31 is_stmt 0 view .LVU69
 266 0046 0B8A     		ldrh	r3, [r1, #16]
 267              		.loc 1 319 15 view .LVU70
 268 0048 0382     		strh	r3, [r0, #16]	@ movhi
 320:Libraries/STM32F4xx_StdPeriph_Driver/src/stm32f4xx_spi.c **** }
 269              		.loc 1 320 1 view .LVU71
 270 004a BDE8F081 		pop	{r4, r5, r6, r7, r8, pc}
 271              		.cfi_endproc
 272              	.LFE124:
 274              		.section	.text.I2S_Init,"ax",%progbits
 275              		.align	1
 276              		.global	I2S_Init
 277              		.syntax unified
 278              		.thumb
 279              		.thumb_func
 280              		.fpu fpv4-sp-d16
 282              	I2S_Init:
 283              	.LVL33:
 284              	.LFB125:
 321:Libraries/STM32F4xx_StdPeriph_Driver/src/stm32f4xx_spi.c **** 
 322:Libraries/STM32F4xx_StdPeriph_Driver/src/stm32f4xx_spi.c **** /**
 323:Libraries/STM32F4xx_StdPeriph_Driver/src/stm32f4xx_spi.c ****   * @brief  Initializes the SPIx peripheral according to the specified 
 324:Libraries/STM32F4xx_StdPeriph_Driver/src/stm32f4xx_spi.c ****   *         parameters in the I2S_InitStruct.
 325:Libraries/STM32F4xx_StdPeriph_Driver/src/stm32f4xx_spi.c ****   * @param  SPIx: where x can be  2 or 3 to select the SPI peripheral (configured in I2S mode).
 326:Libraries/STM32F4xx_StdPeriph_Driver/src/stm32f4xx_spi.c ****   * @param  I2S_InitStruct: pointer to an I2S_InitTypeDef structure that
 327:Libraries/STM32F4xx_StdPeriph_Driver/src/stm32f4xx_spi.c ****   *         contains the configuration information for the specified SPI peripheral
 328:Libraries/STM32F4xx_StdPeriph_Driver/src/stm32f4xx_spi.c ****   *         configured in I2S mode.
ARM GAS  /tmp/cceTBk2v.s 			page 12


 329:Libraries/STM32F4xx_StdPeriph_Driver/src/stm32f4xx_spi.c ****   *           
 330:Libraries/STM32F4xx_StdPeriph_Driver/src/stm32f4xx_spi.c ****   * @note   The function calculates the optimal prescaler needed to obtain the most 
 331:Libraries/STM32F4xx_StdPeriph_Driver/src/stm32f4xx_spi.c ****   *         accurate audio frequency (depending on the I2S clock source, the PLL values 
 332:Libraries/STM32F4xx_StdPeriph_Driver/src/stm32f4xx_spi.c ****   *         and the product configuration). But in case the prescaler value is greater 
 333:Libraries/STM32F4xx_StdPeriph_Driver/src/stm32f4xx_spi.c ****   *         than 511, the default value (0x02) will be configured instead.    
 334:Libraries/STM32F4xx_StdPeriph_Driver/src/stm32f4xx_spi.c ****   * 
 335:Libraries/STM32F4xx_StdPeriph_Driver/src/stm32f4xx_spi.c ****   * @note   if an external clock is used as source clock for the I2S, then the define
 336:Libraries/STM32F4xx_StdPeriph_Driver/src/stm32f4xx_spi.c ****   *         I2S_EXTERNAL_CLOCK_VAL in file stm32f4xx_conf.h should be enabled and set
 337:Libraries/STM32F4xx_StdPeriph_Driver/src/stm32f4xx_spi.c ****   *         to the value of the source clock frequency (in Hz).
 338:Libraries/STM32F4xx_StdPeriph_Driver/src/stm32f4xx_spi.c ****   *  
 339:Libraries/STM32F4xx_StdPeriph_Driver/src/stm32f4xx_spi.c ****   * @retval None
 340:Libraries/STM32F4xx_StdPeriph_Driver/src/stm32f4xx_spi.c ****   */
 341:Libraries/STM32F4xx_StdPeriph_Driver/src/stm32f4xx_spi.c **** void I2S_Init(SPI_TypeDef* SPIx, I2S_InitTypeDef* I2S_InitStruct)
 342:Libraries/STM32F4xx_StdPeriph_Driver/src/stm32f4xx_spi.c **** {
 285              		.loc 1 342 1 is_stmt 1 view -0
 286              		.cfi_startproc
 287              		@ args = 0, pretend = 0, frame = 0
 288              		@ frame_needed = 0, uses_anonymous_args = 0
 289              		.loc 1 342 1 is_stmt 0 view .LVU73
 290 0000 30B5     		push	{r4, r5, lr}
 291              	.LCFI2:
 292              		.cfi_def_cfa_offset 12
 293              		.cfi_offset 4, -12
 294              		.cfi_offset 5, -8
 295              		.cfi_offset 14, -4
 343:Libraries/STM32F4xx_StdPeriph_Driver/src/stm32f4xx_spi.c ****   uint16_t tmpreg = 0, i2sdiv = 2, i2sodd = 0, packetlength = 1;
 296              		.loc 1 343 3 is_stmt 1 view .LVU74
 297              	.LVL34:
 344:Libraries/STM32F4xx_StdPeriph_Driver/src/stm32f4xx_spi.c ****   uint32_t tmp = 0, i2sclk = 0;
 298              		.loc 1 344 3 view .LVU75
 345:Libraries/STM32F4xx_StdPeriph_Driver/src/stm32f4xx_spi.c **** #ifndef I2S_EXTERNAL_CLOCK_VAL
 346:Libraries/STM32F4xx_StdPeriph_Driver/src/stm32f4xx_spi.c ****   uint32_t pllm = 0, plln = 0, pllr = 0;
 299              		.loc 1 346 3 view .LVU76
 347:Libraries/STM32F4xx_StdPeriph_Driver/src/stm32f4xx_spi.c **** #endif /* I2S_EXTERNAL_CLOCK_VAL */
 348:Libraries/STM32F4xx_StdPeriph_Driver/src/stm32f4xx_spi.c ****   
 349:Libraries/STM32F4xx_StdPeriph_Driver/src/stm32f4xx_spi.c ****   /* Check the I2S parameters */
 350:Libraries/STM32F4xx_StdPeriph_Driver/src/stm32f4xx_spi.c ****   assert_param(IS_SPI_23_PERIPH(SPIx));
 300              		.loc 1 350 3 view .LVU77
 351:Libraries/STM32F4xx_StdPeriph_Driver/src/stm32f4xx_spi.c ****   assert_param(IS_I2S_MODE(I2S_InitStruct->I2S_Mode));
 301              		.loc 1 351 3 view .LVU78
 352:Libraries/STM32F4xx_StdPeriph_Driver/src/stm32f4xx_spi.c ****   assert_param(IS_I2S_STANDARD(I2S_InitStruct->I2S_Standard));
 302              		.loc 1 352 3 view .LVU79
 353:Libraries/STM32F4xx_StdPeriph_Driver/src/stm32f4xx_spi.c ****   assert_param(IS_I2S_DATA_FORMAT(I2S_InitStruct->I2S_DataFormat));
 303              		.loc 1 353 3 view .LVU80
 354:Libraries/STM32F4xx_StdPeriph_Driver/src/stm32f4xx_spi.c ****   assert_param(IS_I2S_MCLK_OUTPUT(I2S_InitStruct->I2S_MCLKOutput));
 304              		.loc 1 354 3 view .LVU81
 355:Libraries/STM32F4xx_StdPeriph_Driver/src/stm32f4xx_spi.c ****   assert_param(IS_I2S_AUDIO_FREQ(I2S_InitStruct->I2S_AudioFreq));
 305              		.loc 1 355 3 view .LVU82
 356:Libraries/STM32F4xx_StdPeriph_Driver/src/stm32f4xx_spi.c ****   assert_param(IS_I2S_CPOL(I2S_InitStruct->I2S_CPOL));  
 306              		.loc 1 356 3 view .LVU83
 357:Libraries/STM32F4xx_StdPeriph_Driver/src/stm32f4xx_spi.c **** 
 358:Libraries/STM32F4xx_StdPeriph_Driver/src/stm32f4xx_spi.c **** /*----------------------- SPIx I2SCFGR & I2SPR Configuration -----------------*/
 359:Libraries/STM32F4xx_StdPeriph_Driver/src/stm32f4xx_spi.c ****   /* Clear I2SMOD, I2SE, I2SCFG, PCMSYNC, I2SSTD, CKPOL, DATLEN and CHLEN bits */
 360:Libraries/STM32F4xx_StdPeriph_Driver/src/stm32f4xx_spi.c ****   SPIx->I2SCFGR &= I2SCFGR_CLEAR_MASK; 
 307              		.loc 1 360 3 view .LVU84
 308              		.loc 1 360 17 is_stmt 0 view .LVU85
 309 0002 838B     		ldrh	r3, [r0, #28]
ARM GAS  /tmp/cceTBk2v.s 			page 13


 310 0004 9BB2     		uxth	r3, r3
 311 0006 23F47B63 		bic	r3, r3, #4016
 312 000a 23F00F03 		bic	r3, r3, #15
 313 000e 9BB2     		uxth	r3, r3
 314 0010 8383     		strh	r3, [r0, #28]	@ movhi
 361:Libraries/STM32F4xx_StdPeriph_Driver/src/stm32f4xx_spi.c ****   SPIx->I2SPR = 0x0002;
 315              		.loc 1 361 3 is_stmt 1 view .LVU86
 316              		.loc 1 361 15 is_stmt 0 view .LVU87
 317 0012 0223     		movs	r3, #2
 318 0014 0384     		strh	r3, [r0, #32]	@ movhi
 362:Libraries/STM32F4xx_StdPeriph_Driver/src/stm32f4xx_spi.c ****   
 363:Libraries/STM32F4xx_StdPeriph_Driver/src/stm32f4xx_spi.c ****   /* Get the I2SCFGR register value */
 364:Libraries/STM32F4xx_StdPeriph_Driver/src/stm32f4xx_spi.c ****   tmpreg = SPIx->I2SCFGR;
 319              		.loc 1 364 3 is_stmt 1 view .LVU88
 320              		.loc 1 364 10 is_stmt 0 view .LVU89
 321 0016 828B     		ldrh	r2, [r0, #28]
 322 0018 92B2     		uxth	r2, r2
 323              	.LVL35:
 365:Libraries/STM32F4xx_StdPeriph_Driver/src/stm32f4xx_spi.c ****   
 366:Libraries/STM32F4xx_StdPeriph_Driver/src/stm32f4xx_spi.c ****   /* If the default value has to be written, reinitialize i2sdiv and i2sodd*/
 367:Libraries/STM32F4xx_StdPeriph_Driver/src/stm32f4xx_spi.c ****   if(I2S_InitStruct->I2S_AudioFreq == I2S_AudioFreq_Default)
 324              		.loc 1 367 3 is_stmt 1 view .LVU90
 325              		.loc 1 367 20 is_stmt 0 view .LVU91
 326 001a 8B68     		ldr	r3, [r1, #8]
 327              		.loc 1 367 5 view .LVU92
 328 001c 022B     		cmp	r3, #2
 329 001e 7DD0     		beq	.L29
 368:Libraries/STM32F4xx_StdPeriph_Driver/src/stm32f4xx_spi.c ****   {
 369:Libraries/STM32F4xx_StdPeriph_Driver/src/stm32f4xx_spi.c ****     i2sodd = (uint16_t)0;
 370:Libraries/STM32F4xx_StdPeriph_Driver/src/stm32f4xx_spi.c ****     i2sdiv = (uint16_t)2;   
 371:Libraries/STM32F4xx_StdPeriph_Driver/src/stm32f4xx_spi.c ****   }
 372:Libraries/STM32F4xx_StdPeriph_Driver/src/stm32f4xx_spi.c ****   /* If the requested audio frequency is not the default, compute the prescaler */
 373:Libraries/STM32F4xx_StdPeriph_Driver/src/stm32f4xx_spi.c ****   else
 374:Libraries/STM32F4xx_StdPeriph_Driver/src/stm32f4xx_spi.c ****   {
 375:Libraries/STM32F4xx_StdPeriph_Driver/src/stm32f4xx_spi.c ****     /* Check the frame length (For the Prescaler computing) *******************/
 376:Libraries/STM32F4xx_StdPeriph_Driver/src/stm32f4xx_spi.c ****     if(I2S_InitStruct->I2S_DataFormat == I2S_DataFormat_16b)
 330              		.loc 1 376 5 is_stmt 1 view .LVU93
 331              		.loc 1 376 22 is_stmt 0 view .LVU94
 332 0020 8B88     		ldrh	r3, [r1, #4]
 333              		.loc 1 376 7 view .LVU95
 334 0022 002B     		cmp	r3, #0
 335 0024 65D1     		bne	.L30
 377:Libraries/STM32F4xx_StdPeriph_Driver/src/stm32f4xx_spi.c ****     {
 378:Libraries/STM32F4xx_StdPeriph_Driver/src/stm32f4xx_spi.c ****       /* Packet length is 16 bits */
 379:Libraries/STM32F4xx_StdPeriph_Driver/src/stm32f4xx_spi.c ****       packetlength = 16;
 336              		.loc 1 379 20 view .LVU96
 337 0026 4FF0100C 		mov	ip, #16
 338              	.L21:
 339              	.LVL36:
 380:Libraries/STM32F4xx_StdPeriph_Driver/src/stm32f4xx_spi.c ****     }
 381:Libraries/STM32F4xx_StdPeriph_Driver/src/stm32f4xx_spi.c ****     else
 382:Libraries/STM32F4xx_StdPeriph_Driver/src/stm32f4xx_spi.c ****     {
 383:Libraries/STM32F4xx_StdPeriph_Driver/src/stm32f4xx_spi.c ****       /* Packet length is 32 bits */
 384:Libraries/STM32F4xx_StdPeriph_Driver/src/stm32f4xx_spi.c ****       packetlength = 32;
 385:Libraries/STM32F4xx_StdPeriph_Driver/src/stm32f4xx_spi.c ****     }
 386:Libraries/STM32F4xx_StdPeriph_Driver/src/stm32f4xx_spi.c **** 
 387:Libraries/STM32F4xx_StdPeriph_Driver/src/stm32f4xx_spi.c ****     if(I2S_InitStruct->I2S_Standard <= I2S_Standard_LSB)
ARM GAS  /tmp/cceTBk2v.s 			page 14


 340              		.loc 1 387 5 is_stmt 1 view .LVU97
 341              		.loc 1 387 22 is_stmt 0 view .LVU98
 342 002a 4B88     		ldrh	r3, [r1, #2]
 343              		.loc 1 387 7 view .LVU99
 344 002c 202B     		cmp	r3, #32
 345 002e 03D8     		bhi	.L22
 388:Libraries/STM32F4xx_StdPeriph_Driver/src/stm32f4xx_spi.c ****     {
 389:Libraries/STM32F4xx_StdPeriph_Driver/src/stm32f4xx_spi.c ****       /* In I2S standard packet length is multiplied by 2 */
 390:Libraries/STM32F4xx_StdPeriph_Driver/src/stm32f4xx_spi.c ****       packetlength = packetlength * 2;
 346              		.loc 1 390 7 is_stmt 1 view .LVU100
 347              		.loc 1 390 20 is_stmt 0 view .LVU101
 348 0030 4FEA4C0C 		lsl	ip, ip, #1
 349              	.LVL37:
 350              		.loc 1 390 20 view .LVU102
 351 0034 1FFA8CFC 		uxth	ip, ip
 352              	.LVL38:
 353              	.L22:
 391:Libraries/STM32F4xx_StdPeriph_Driver/src/stm32f4xx_spi.c ****     }
 392:Libraries/STM32F4xx_StdPeriph_Driver/src/stm32f4xx_spi.c **** 
 393:Libraries/STM32F4xx_StdPeriph_Driver/src/stm32f4xx_spi.c ****     /* Get I2S source Clock frequency  ****************************************/
 394:Libraries/STM32F4xx_StdPeriph_Driver/src/stm32f4xx_spi.c ****       
 395:Libraries/STM32F4xx_StdPeriph_Driver/src/stm32f4xx_spi.c ****     /* If an external I2S clock has to be used, this define should be set  
 396:Libraries/STM32F4xx_StdPeriph_Driver/src/stm32f4xx_spi.c ****        in the project configuration or in the stm32f4xx_conf.h file */
 397:Libraries/STM32F4xx_StdPeriph_Driver/src/stm32f4xx_spi.c ****   #ifdef I2S_EXTERNAL_CLOCK_VAL     
 398:Libraries/STM32F4xx_StdPeriph_Driver/src/stm32f4xx_spi.c ****     /* Set external clock as I2S clock source */
 399:Libraries/STM32F4xx_StdPeriph_Driver/src/stm32f4xx_spi.c ****     if ((RCC->CFGR & RCC_CFGR_I2SSRC) == 0)
 400:Libraries/STM32F4xx_StdPeriph_Driver/src/stm32f4xx_spi.c ****     {
 401:Libraries/STM32F4xx_StdPeriph_Driver/src/stm32f4xx_spi.c ****       RCC->CFGR |= (uint32_t)RCC_CFGR_I2SSRC;
 402:Libraries/STM32F4xx_StdPeriph_Driver/src/stm32f4xx_spi.c ****     }
 403:Libraries/STM32F4xx_StdPeriph_Driver/src/stm32f4xx_spi.c ****     
 404:Libraries/STM32F4xx_StdPeriph_Driver/src/stm32f4xx_spi.c ****     /* Set the I2S clock to the external clock  value */
 405:Libraries/STM32F4xx_StdPeriph_Driver/src/stm32f4xx_spi.c ****     i2sclk = I2S_EXTERNAL_CLOCK_VAL;
 406:Libraries/STM32F4xx_StdPeriph_Driver/src/stm32f4xx_spi.c **** 
 407:Libraries/STM32F4xx_StdPeriph_Driver/src/stm32f4xx_spi.c ****   #else /* There is no define for External I2S clock source */
 408:Libraries/STM32F4xx_StdPeriph_Driver/src/stm32f4xx_spi.c ****     /* Set PLLI2S as I2S clock source */
 409:Libraries/STM32F4xx_StdPeriph_Driver/src/stm32f4xx_spi.c ****     if ((RCC->CFGR & RCC_CFGR_I2SSRC) != 0)
 354              		.loc 1 409 5 is_stmt 1 view .LVU103
 355              		.loc 1 409 13 is_stmt 0 view .LVU104
 356 0038 3A4B     		ldr	r3, .L34
 357 003a 9B68     		ldr	r3, [r3, #8]
 358              		.loc 1 409 8 view .LVU105
 359 003c 13F4000F 		tst	r3, #8388608
 360 0040 04D0     		beq	.L23
 410:Libraries/STM32F4xx_StdPeriph_Driver/src/stm32f4xx_spi.c ****     {
 411:Libraries/STM32F4xx_StdPeriph_Driver/src/stm32f4xx_spi.c ****       RCC->CFGR &= ~(uint32_t)RCC_CFGR_I2SSRC;
 361              		.loc 1 411 7 is_stmt 1 view .LVU106
 362              		.loc 1 411 17 is_stmt 0 view .LVU107
 363 0042 384C     		ldr	r4, .L34
 364 0044 A368     		ldr	r3, [r4, #8]
 365 0046 23F40003 		bic	r3, r3, #8388608
 366 004a A360     		str	r3, [r4, #8]
 367              	.L23:
 412:Libraries/STM32F4xx_StdPeriph_Driver/src/stm32f4xx_spi.c ****     }    
 413:Libraries/STM32F4xx_StdPeriph_Driver/src/stm32f4xx_spi.c ****     
 414:Libraries/STM32F4xx_StdPeriph_Driver/src/stm32f4xx_spi.c ****     /* Get the PLLI2SN value */
 415:Libraries/STM32F4xx_StdPeriph_Driver/src/stm32f4xx_spi.c ****     plln = (uint32_t)(((RCC->PLLI2SCFGR & RCC_PLLI2SCFGR_PLLI2SN) >> 6) & \
 368              		.loc 1 415 5 is_stmt 1 view .LVU108
ARM GAS  /tmp/cceTBk2v.s 			page 15


 369              		.loc 1 415 28 is_stmt 0 view .LVU109
 370 004c 354C     		ldr	r4, .L34
 371 004e D4F88430 		ldr	r3, [r4, #132]
 372              		.loc 1 415 10 view .LVU110
 373 0052 C3F3881E 		ubfx	lr, r3, #6, #9
 374              	.LVL39:
 416:Libraries/STM32F4xx_StdPeriph_Driver/src/stm32f4xx_spi.c ****                       (RCC_PLLI2SCFGR_PLLI2SN >> 6));
 417:Libraries/STM32F4xx_StdPeriph_Driver/src/stm32f4xx_spi.c ****     
 418:Libraries/STM32F4xx_StdPeriph_Driver/src/stm32f4xx_spi.c ****     /* Get the PLLI2SR value */
 419:Libraries/STM32F4xx_StdPeriph_Driver/src/stm32f4xx_spi.c ****     pllr = (uint32_t)(((RCC->PLLI2SCFGR & RCC_PLLI2SCFGR_PLLI2SR) >> 28) & \
 375              		.loc 1 419 5 is_stmt 1 view .LVU111
 376              		.loc 1 419 28 is_stmt 0 view .LVU112
 377 0056 D4F88430 		ldr	r3, [r4, #132]
 378              		.loc 1 419 10 view .LVU113
 379 005a C3F30273 		ubfx	r3, r3, #28, #3
 380              	.LVL40:
 420:Libraries/STM32F4xx_StdPeriph_Driver/src/stm32f4xx_spi.c ****                       (RCC_PLLI2SCFGR_PLLI2SR >> 28));
 421:Libraries/STM32F4xx_StdPeriph_Driver/src/stm32f4xx_spi.c ****     
 422:Libraries/STM32F4xx_StdPeriph_Driver/src/stm32f4xx_spi.c ****     /* Get the PLLM value */
 423:Libraries/STM32F4xx_StdPeriph_Driver/src/stm32f4xx_spi.c ****     pllm = (uint32_t)(RCC->PLLCFGR & RCC_PLLCFGR_PLLM);
 381              		.loc 1 423 5 is_stmt 1 view .LVU114
 382              		.loc 1 423 26 is_stmt 0 view .LVU115
 383 005e 6568     		ldr	r5, [r4, #4]
 384              		.loc 1 423 10 view .LVU116
 385 0060 05F03F05 		and	r5, r5, #63
 386              	.LVL41:
 424:Libraries/STM32F4xx_StdPeriph_Driver/src/stm32f4xx_spi.c **** 
 425:Libraries/STM32F4xx_StdPeriph_Driver/src/stm32f4xx_spi.c ****     if((RCC->PLLCFGR & RCC_PLLCFGR_PLLSRC) == RCC_PLLCFGR_PLLSRC_HSE)
 387              		.loc 1 425 5 is_stmt 1 view .LVU117
 388              		.loc 1 425 12 is_stmt 0 view .LVU118
 389 0064 6468     		ldr	r4, [r4, #4]
 390              		.loc 1 425 7 view .LVU119
 391 0066 14F4800F 		tst	r4, #4194304
 392 006a 45D0     		beq	.L24
 426:Libraries/STM32F4xx_StdPeriph_Driver/src/stm32f4xx_spi.c ****     {
 427:Libraries/STM32F4xx_StdPeriph_Driver/src/stm32f4xx_spi.c ****       /* Get the I2S source clock value */
 428:Libraries/STM32F4xx_StdPeriph_Driver/src/stm32f4xx_spi.c ****       i2sclk = (uint32_t)(((HSE_VALUE / pllm) * plln) / pllr);
 393              		.loc 1 428 7 is_stmt 1 view .LVU120
 394              		.loc 1 428 39 is_stmt 0 view .LVU121
 395 006c 2E4C     		ldr	r4, .L34+4
 396 006e B4FBF5F5 		udiv	r5, r4, r5
 397              	.LVL42:
 398              		.loc 1 428 47 view .LVU122
 399 0072 0EFB05FE 		mul	lr, lr, r5
 400              	.LVL43:
 401              		.loc 1 428 14 view .LVU123
 402 0076 BEFBF3F3 		udiv	r3, lr, r3
 403              	.LVL44:
 404              	.L25:
 429:Libraries/STM32F4xx_StdPeriph_Driver/src/stm32f4xx_spi.c ****     }
 430:Libraries/STM32F4xx_StdPeriph_Driver/src/stm32f4xx_spi.c ****     else
 431:Libraries/STM32F4xx_StdPeriph_Driver/src/stm32f4xx_spi.c ****     { /* Get the I2S source clock value */
 432:Libraries/STM32F4xx_StdPeriph_Driver/src/stm32f4xx_spi.c ****       i2sclk = (uint32_t)(((HSI_VALUE / pllm) * plln) / pllr);
 433:Libraries/STM32F4xx_StdPeriph_Driver/src/stm32f4xx_spi.c ****     }
 434:Libraries/STM32F4xx_StdPeriph_Driver/src/stm32f4xx_spi.c ****   #endif /* I2S_EXTERNAL_CLOCK_VAL */
 435:Libraries/STM32F4xx_StdPeriph_Driver/src/stm32f4xx_spi.c ****     
 436:Libraries/STM32F4xx_StdPeriph_Driver/src/stm32f4xx_spi.c ****     /* Compute the Real divider depending on the MCLK output state, with a floating point */
ARM GAS  /tmp/cceTBk2v.s 			page 16


 437:Libraries/STM32F4xx_StdPeriph_Driver/src/stm32f4xx_spi.c ****     if(I2S_InitStruct->I2S_MCLKOutput == I2S_MCLKOutput_Enable)
 405              		.loc 1 437 5 is_stmt 1 view .LVU124
 406              		.loc 1 437 22 is_stmt 0 view .LVU125
 407 007a CC88     		ldrh	r4, [r1, #6]
 408              		.loc 1 437 7 view .LVU126
 409 007c B4F5007F 		cmp	r4, #512
 410 0080 42D0     		beq	.L33
 438:Libraries/STM32F4xx_StdPeriph_Driver/src/stm32f4xx_spi.c ****     {
 439:Libraries/STM32F4xx_StdPeriph_Driver/src/stm32f4xx_spi.c ****       /* MCLK output is enabled */
 440:Libraries/STM32F4xx_StdPeriph_Driver/src/stm32f4xx_spi.c ****       tmp = (uint16_t)(((((i2sclk / 256) * 10) / I2S_InitStruct->I2S_AudioFreq)) + 5);
 441:Libraries/STM32F4xx_StdPeriph_Driver/src/stm32f4xx_spi.c ****     }
 442:Libraries/STM32F4xx_StdPeriph_Driver/src/stm32f4xx_spi.c ****     else
 443:Libraries/STM32F4xx_StdPeriph_Driver/src/stm32f4xx_spi.c ****     {
 444:Libraries/STM32F4xx_StdPeriph_Driver/src/stm32f4xx_spi.c ****       /* MCLK output is disabled */
 445:Libraries/STM32F4xx_StdPeriph_Driver/src/stm32f4xx_spi.c ****       tmp = (uint16_t)(((((i2sclk / (32 * packetlength)) *10 ) / I2S_InitStruct->I2S_AudioFreq)) + 
 411              		.loc 1 445 7 is_stmt 1 view .LVU127
 412              		.loc 1 445 41 is_stmt 0 view .LVU128
 413 0082 4FEA4C1C 		lsl	ip, ip, #5
 414              	.LVL45:
 415              		.loc 1 445 35 view .LVU129
 416 0086 B3FBFCF3 		udiv	r3, r3, ip
 417              	.LVL46:
 418              		.loc 1 445 58 view .LVU130
 419 008a 03EB8303 		add	r3, r3, r3, lsl #2
 420 008e 5B00     		lsls	r3, r3, #1
 421              		.loc 1 445 80 view .LVU131
 422 0090 8C68     		ldr	r4, [r1, #8]
 423              		.loc 1 445 64 view .LVU132
 424 0092 B3FBF4F3 		udiv	r3, r3, r4
 425              		.loc 1 445 13 view .LVU133
 426 0096 0533     		adds	r3, r3, #5
 427 0098 9BB2     		uxth	r3, r3
 428              	.LVL47:
 429              	.L27:
 446:Libraries/STM32F4xx_StdPeriph_Driver/src/stm32f4xx_spi.c ****     }
 447:Libraries/STM32F4xx_StdPeriph_Driver/src/stm32f4xx_spi.c ****     
 448:Libraries/STM32F4xx_StdPeriph_Driver/src/stm32f4xx_spi.c ****     /* Remove the flatting point */
 449:Libraries/STM32F4xx_StdPeriph_Driver/src/stm32f4xx_spi.c ****     tmp = tmp / 10;  
 430              		.loc 1 449 5 is_stmt 1 view .LVU134
 431              		.loc 1 449 9 is_stmt 0 view .LVU135
 432 009a 244C     		ldr	r4, .L34+8
 433 009c A4FB0343 		umull	r4, r3, r4, r3
 434              	.LVL48:
 450:Libraries/STM32F4xx_StdPeriph_Driver/src/stm32f4xx_spi.c ****       
 451:Libraries/STM32F4xx_StdPeriph_Driver/src/stm32f4xx_spi.c ****     /* Check the parity of the divider */
 452:Libraries/STM32F4xx_StdPeriph_Driver/src/stm32f4xx_spi.c ****     i2sodd = (uint16_t)(tmp & (uint16_t)0x0001);
 435              		.loc 1 452 5 is_stmt 1 view .LVU136
 436              		.loc 1 452 12 is_stmt 0 view .LVU137
 437 00a0 C3F3C00C 		ubfx	ip, r3, #3, #1
 438              	.LVL49:
 453:Libraries/STM32F4xx_StdPeriph_Driver/src/stm32f4xx_spi.c ****    
 454:Libraries/STM32F4xx_StdPeriph_Driver/src/stm32f4xx_spi.c ****     /* Compute the i2sdiv prescaler */
 455:Libraries/STM32F4xx_StdPeriph_Driver/src/stm32f4xx_spi.c ****     i2sdiv = (uint16_t)((tmp - i2sodd) / 2);
 439              		.loc 1 455 5 is_stmt 1 view .LVU138
 440              		.loc 1 455 30 is_stmt 0 view .LVU139
 441 00a4 CCEBD303 		rsb	r3, ip, r3, lsr #3
 442              	.LVL50:
ARM GAS  /tmp/cceTBk2v.s 			page 17


 443              		.loc 1 455 12 view .LVU140
 444 00a8 C3F34F03 		ubfx	r3, r3, #1, #16
 445              	.LVL51:
 456:Libraries/STM32F4xx_StdPeriph_Driver/src/stm32f4xx_spi.c ****    
 457:Libraries/STM32F4xx_StdPeriph_Driver/src/stm32f4xx_spi.c ****     /* Get the Mask for the Odd bit (SPI_I2SPR[8]) register */
 458:Libraries/STM32F4xx_StdPeriph_Driver/src/stm32f4xx_spi.c ****     i2sodd = (uint16_t) (i2sodd << 8);
 446              		.loc 1 458 5 is_stmt 1 view .LVU141
 447              		.loc 1 458 12 is_stmt 0 view .LVU142
 448 00ac 4FEA0C2E 		lsl	lr, ip, #8
 449              	.LVL52:
 450              	.L20:
 459:Libraries/STM32F4xx_StdPeriph_Driver/src/stm32f4xx_spi.c ****   }
 460:Libraries/STM32F4xx_StdPeriph_Driver/src/stm32f4xx_spi.c **** 
 461:Libraries/STM32F4xx_StdPeriph_Driver/src/stm32f4xx_spi.c ****   /* Test if the divider is 1 or 0 or greater than 0xFF */
 462:Libraries/STM32F4xx_StdPeriph_Driver/src/stm32f4xx_spi.c ****   if ((i2sdiv < 2) || (i2sdiv > 0xFF))
 451              		.loc 1 462 3 is_stmt 1 view .LVU143
 452              		.loc 1 462 20 is_stmt 0 view .LVU144
 453 00b0 A3F1020C 		sub	ip, r3, #2
 454 00b4 1FFA8CFC 		uxth	ip, ip
 455              		.loc 1 462 6 view .LVU145
 456 00b8 BCF1FD0F 		cmp	ip, #253
 457 00bc 02D9     		bls	.L28
 463:Libraries/STM32F4xx_StdPeriph_Driver/src/stm32f4xx_spi.c ****   {
 464:Libraries/STM32F4xx_StdPeriph_Driver/src/stm32f4xx_spi.c ****     /* Set the default values */
 465:Libraries/STM32F4xx_StdPeriph_Driver/src/stm32f4xx_spi.c ****     i2sdiv = 2;
 466:Libraries/STM32F4xx_StdPeriph_Driver/src/stm32f4xx_spi.c ****     i2sodd = 0;
 458              		.loc 1 466 12 view .LVU146
 459 00be 4FF0000E 		mov	lr, #0
 460              	.LVL53:
 465:Libraries/STM32F4xx_StdPeriph_Driver/src/stm32f4xx_spi.c ****     i2sodd = 0;
 461              		.loc 1 465 12 view .LVU147
 462 00c2 0223     		movs	r3, #2
 463              	.LVL54:
 464              	.L28:
 467:Libraries/STM32F4xx_StdPeriph_Driver/src/stm32f4xx_spi.c ****   }
 468:Libraries/STM32F4xx_StdPeriph_Driver/src/stm32f4xx_spi.c **** 
 469:Libraries/STM32F4xx_StdPeriph_Driver/src/stm32f4xx_spi.c ****   /* Write to SPIx I2SPR register the computed value */
 470:Libraries/STM32F4xx_StdPeriph_Driver/src/stm32f4xx_spi.c ****   SPIx->I2SPR = (uint16_t)((uint16_t)i2sdiv | (uint16_t)(i2sodd | (uint16_t)I2S_InitStruct->I2S_MCL
 465              		.loc 1 470 3 is_stmt 1 view .LVU148
 466              		.loc 1 470 91 is_stmt 0 view .LVU149
 467 00c4 B1F806C0 		ldrh	ip, [r1, #6]
 468              		.loc 1 470 47 view .LVU150
 469 00c8 4CEA0E0C 		orr	ip, ip, lr
 470              		.loc 1 470 17 view .LVU151
 471 00cc 4CEA0303 		orr	r3, ip, r3
 472              	.LVL55:
 473              		.loc 1 470 15 view .LVU152
 474 00d0 0384     		strh	r3, [r0, #32]	@ movhi
 471:Libraries/STM32F4xx_StdPeriph_Driver/src/stm32f4xx_spi.c ****  
 472:Libraries/STM32F4xx_StdPeriph_Driver/src/stm32f4xx_spi.c ****   /* Configure the I2S with the SPI_InitStruct values */
 473:Libraries/STM32F4xx_StdPeriph_Driver/src/stm32f4xx_spi.c ****   tmpreg |= (uint16_t)((uint16_t)SPI_I2SCFGR_I2SMOD | (uint16_t)(I2S_InitStruct->I2S_Mode | \
 475              		.loc 1 473 3 is_stmt 1 view .LVU153
 476              		.loc 1 473 80 is_stmt 0 view .LVU154
 477 00d2 0B88     		ldrh	r3, [r1]
 474:Libraries/STM32F4xx_StdPeriph_Driver/src/stm32f4xx_spi.c ****                   (uint16_t)(I2S_InitStruct->I2S_Standard | (uint16_t)(I2S_InitStruct->I2S_DataForm
 478              		.loc 1 474 44 view .LVU155
 479 00d4 B1F802C0 		ldrh	ip, [r1, #2]
ARM GAS  /tmp/cceTBk2v.s 			page 18


 480              		.loc 1 474 86 view .LVU156
 481 00d8 B1F804E0 		ldrh	lr, [r1, #4]
 482              	.LVL56:
 475:Libraries/STM32F4xx_StdPeriph_Driver/src/stm32f4xx_spi.c ****                   (uint16_t)I2S_InitStruct->I2S_CPOL))));
 483              		.loc 1 475 43 view .LVU157
 484 00dc 8989     		ldrh	r1, [r1, #12]
 485              	.LVL57:
 474:Libraries/STM32F4xx_StdPeriph_Driver/src/stm32f4xx_spi.c ****                   (uint16_t)(I2S_InitStruct->I2S_Standard | (uint16_t)(I2S_InitStruct->I2S_DataForm
 486              		.loc 1 474 61 view .LVU158
 487 00de 4EEA0101 		orr	r1, lr, r1
 474:Libraries/STM32F4xx_StdPeriph_Driver/src/stm32f4xx_spi.c ****                   (uint16_t)(I2S_InitStruct->I2S_Standard | (uint16_t)(I2S_InitStruct->I2S_DataForm
 488              		.loc 1 474 19 view .LVU159
 489 00e2 4CEA0101 		orr	r1, ip, r1
 473:Libraries/STM32F4xx_StdPeriph_Driver/src/stm32f4xx_spi.c ****                   (uint16_t)(I2S_InitStruct->I2S_Standard | (uint16_t)(I2S_InitStruct->I2S_DataForm
 490              		.loc 1 473 55 view .LVU160
 491 00e6 0B43     		orrs	r3, r3, r1
 473:Libraries/STM32F4xx_StdPeriph_Driver/src/stm32f4xx_spi.c ****                   (uint16_t)(I2S_InitStruct->I2S_Standard | (uint16_t)(I2S_InitStruct->I2S_DataForm
 492              		.loc 1 473 10 view .LVU161
 493 00e8 1A43     		orrs	r2, r2, r3
 494              	.LVL58:
 473:Libraries/STM32F4xx_StdPeriph_Driver/src/stm32f4xx_spi.c ****                   (uint16_t)(I2S_InitStruct->I2S_Standard | (uint16_t)(I2S_InitStruct->I2S_DataForm
 495              		.loc 1 473 10 view .LVU162
 496 00ea 42F40062 		orr	r2, r2, #2048
 497              	.LVL59:
 476:Libraries/STM32F4xx_StdPeriph_Driver/src/stm32f4xx_spi.c ****  
 477:Libraries/STM32F4xx_StdPeriph_Driver/src/stm32f4xx_spi.c **** #if defined(SPI_I2SCFGR_ASTRTEN)
 478:Libraries/STM32F4xx_StdPeriph_Driver/src/stm32f4xx_spi.c ****   if((I2S_InitStruct->I2S_Standard  == I2S_Standard_PCMShort) || (I2S_InitStruct->I2S_Standard  == 
 479:Libraries/STM32F4xx_StdPeriph_Driver/src/stm32f4xx_spi.c ****   {
 480:Libraries/STM32F4xx_StdPeriph_Driver/src/stm32f4xx_spi.c ****     /* Write to SPIx I2SCFGR */  
 481:Libraries/STM32F4xx_StdPeriph_Driver/src/stm32f4xx_spi.c ****     SPIx->I2SCFGR = tmpreg | SPI_I2SCFGR_ASTRTEN;
 482:Libraries/STM32F4xx_StdPeriph_Driver/src/stm32f4xx_spi.c ****   }
 483:Libraries/STM32F4xx_StdPeriph_Driver/src/stm32f4xx_spi.c **** #else
 484:Libraries/STM32F4xx_StdPeriph_Driver/src/stm32f4xx_spi.c ****   /* Write to SPIx I2SCFGR */  
 485:Libraries/STM32F4xx_StdPeriph_Driver/src/stm32f4xx_spi.c ****   SPIx->I2SCFGR = tmpreg ;
 498              		.loc 1 485 3 is_stmt 1 view .LVU163
 499              		.loc 1 485 17 is_stmt 0 view .LVU164
 500 00ee 8283     		strh	r2, [r0, #28]	@ movhi
 486:Libraries/STM32F4xx_StdPeriph_Driver/src/stm32f4xx_spi.c **** #endif 
 487:Libraries/STM32F4xx_StdPeriph_Driver/src/stm32f4xx_spi.c **** }
 501              		.loc 1 487 1 view .LVU165
 502 00f0 30BD     		pop	{r4, r5, pc}
 503              	.LVL60:
 504              	.L30:
 384:Libraries/STM32F4xx_StdPeriph_Driver/src/stm32f4xx_spi.c ****     }
 505              		.loc 1 384 20 view .LVU166
 506 00f2 4FF0200C 		mov	ip, #32
 507 00f6 98E7     		b	.L21
 508              	.LVL61:
 509              	.L24:
 432:Libraries/STM32F4xx_StdPeriph_Driver/src/stm32f4xx_spi.c ****     }
 510              		.loc 1 432 7 is_stmt 1 view .LVU167
 432:Libraries/STM32F4xx_StdPeriph_Driver/src/stm32f4xx_spi.c ****     }
 511              		.loc 1 432 39 is_stmt 0 view .LVU168
 512 00f8 0D4C     		ldr	r4, .L34+12
 513 00fa B4FBF5F5 		udiv	r5, r4, r5
 514              	.LVL62:
 432:Libraries/STM32F4xx_StdPeriph_Driver/src/stm32f4xx_spi.c ****     }
ARM GAS  /tmp/cceTBk2v.s 			page 19


 515              		.loc 1 432 47 view .LVU169
 516 00fe 0EFB05FE 		mul	lr, lr, r5
 517              	.LVL63:
 432:Libraries/STM32F4xx_StdPeriph_Driver/src/stm32f4xx_spi.c ****     }
 518              		.loc 1 432 14 view .LVU170
 519 0102 BEFBF3F3 		udiv	r3, lr, r3
 520              	.LVL64:
 432:Libraries/STM32F4xx_StdPeriph_Driver/src/stm32f4xx_spi.c ****     }
 521              		.loc 1 432 14 view .LVU171
 522 0106 B8E7     		b	.L25
 523              	.L33:
 440:Libraries/STM32F4xx_StdPeriph_Driver/src/stm32f4xx_spi.c ****     }
 524              		.loc 1 440 7 is_stmt 1 view .LVU172
 440:Libraries/STM32F4xx_StdPeriph_Driver/src/stm32f4xx_spi.c ****     }
 525              		.loc 1 440 35 is_stmt 0 view .LVU173
 526 0108 1B0A     		lsrs	r3, r3, #8
 527              	.LVL65:
 440:Libraries/STM32F4xx_StdPeriph_Driver/src/stm32f4xx_spi.c ****     }
 528              		.loc 1 440 42 view .LVU174
 529 010a 03EB8303 		add	r3, r3, r3, lsl #2
 530 010e 5B00     		lsls	r3, r3, #1
 440:Libraries/STM32F4xx_StdPeriph_Driver/src/stm32f4xx_spi.c ****     }
 531              		.loc 1 440 64 view .LVU175
 532 0110 8C68     		ldr	r4, [r1, #8]
 440:Libraries/STM32F4xx_StdPeriph_Driver/src/stm32f4xx_spi.c ****     }
 533              		.loc 1 440 48 view .LVU176
 534 0112 B3FBF4F3 		udiv	r3, r3, r4
 440:Libraries/STM32F4xx_StdPeriph_Driver/src/stm32f4xx_spi.c ****     }
 535              		.loc 1 440 13 view .LVU177
 536 0116 0533     		adds	r3, r3, #5
 537 0118 9BB2     		uxth	r3, r3
 538              	.LVL66:
 440:Libraries/STM32F4xx_StdPeriph_Driver/src/stm32f4xx_spi.c ****     }
 539              		.loc 1 440 13 view .LVU178
 540 011a BEE7     		b	.L27
 541              	.LVL67:
 542              	.L29:
 369:Libraries/STM32F4xx_StdPeriph_Driver/src/stm32f4xx_spi.c ****     i2sdiv = (uint16_t)2;   
 543              		.loc 1 369 12 view .LVU179
 544 011c 4FF0000E 		mov	lr, #0
 370:Libraries/STM32F4xx_StdPeriph_Driver/src/stm32f4xx_spi.c ****   }
 545              		.loc 1 370 12 view .LVU180
 546 0120 0223     		movs	r3, #2
 547 0122 C5E7     		b	.L20
 548              	.L35:
 549              		.align	2
 550              	.L34:
 551 0124 00380240 		.word	1073887232
 552 0128 40787D01 		.word	25000000
 553 012c CDCCCCCC 		.word	-858993459
 554 0130 0024F400 		.word	16000000
 555              		.cfi_endproc
 556              	.LFE125:
 558              		.section	.text.SPI_StructInit,"ax",%progbits
 559              		.align	1
 560              		.global	SPI_StructInit
 561              		.syntax unified
ARM GAS  /tmp/cceTBk2v.s 			page 20


 562              		.thumb
 563              		.thumb_func
 564              		.fpu fpv4-sp-d16
 566              	SPI_StructInit:
 567              	.LVL68:
 568              	.LFB126:
 488:Libraries/STM32F4xx_StdPeriph_Driver/src/stm32f4xx_spi.c **** 
 489:Libraries/STM32F4xx_StdPeriph_Driver/src/stm32f4xx_spi.c **** /**
 490:Libraries/STM32F4xx_StdPeriph_Driver/src/stm32f4xx_spi.c ****   * @brief  Fills each SPI_InitStruct member with its default value.
 491:Libraries/STM32F4xx_StdPeriph_Driver/src/stm32f4xx_spi.c ****   * @param  SPI_InitStruct: pointer to a SPI_InitTypeDef structure which will be initialized.
 492:Libraries/STM32F4xx_StdPeriph_Driver/src/stm32f4xx_spi.c ****   * @retval None
 493:Libraries/STM32F4xx_StdPeriph_Driver/src/stm32f4xx_spi.c ****   */
 494:Libraries/STM32F4xx_StdPeriph_Driver/src/stm32f4xx_spi.c **** void SPI_StructInit(SPI_InitTypeDef* SPI_InitStruct)
 495:Libraries/STM32F4xx_StdPeriph_Driver/src/stm32f4xx_spi.c **** {
 569              		.loc 1 495 1 is_stmt 1 view -0
 570              		.cfi_startproc
 571              		@ args = 0, pretend = 0, frame = 0
 572              		@ frame_needed = 0, uses_anonymous_args = 0
 573              		@ link register save eliminated.
 496:Libraries/STM32F4xx_StdPeriph_Driver/src/stm32f4xx_spi.c **** /*--------------- Reset SPI init structure parameters values -----------------*/
 497:Libraries/STM32F4xx_StdPeriph_Driver/src/stm32f4xx_spi.c ****   /* Initialize the SPI_Direction member */
 498:Libraries/STM32F4xx_StdPeriph_Driver/src/stm32f4xx_spi.c ****   SPI_InitStruct->SPI_Direction = SPI_Direction_2Lines_FullDuplex;
 574              		.loc 1 498 3 view .LVU182
 575              		.loc 1 498 33 is_stmt 0 view .LVU183
 576 0000 0023     		movs	r3, #0
 577 0002 0380     		strh	r3, [r0]	@ movhi
 499:Libraries/STM32F4xx_StdPeriph_Driver/src/stm32f4xx_spi.c ****   /* initialize the SPI_Mode member */
 500:Libraries/STM32F4xx_StdPeriph_Driver/src/stm32f4xx_spi.c ****   SPI_InitStruct->SPI_Mode = SPI_Mode_Slave;
 578              		.loc 1 500 3 is_stmt 1 view .LVU184
 579              		.loc 1 500 28 is_stmt 0 view .LVU185
 580 0004 4380     		strh	r3, [r0, #2]	@ movhi
 501:Libraries/STM32F4xx_StdPeriph_Driver/src/stm32f4xx_spi.c ****   /* initialize the SPI_DataSize member */
 502:Libraries/STM32F4xx_StdPeriph_Driver/src/stm32f4xx_spi.c ****   SPI_InitStruct->SPI_DataSize = SPI_DataSize_8b;
 581              		.loc 1 502 3 is_stmt 1 view .LVU186
 582              		.loc 1 502 32 is_stmt 0 view .LVU187
 583 0006 8380     		strh	r3, [r0, #4]	@ movhi
 503:Libraries/STM32F4xx_StdPeriph_Driver/src/stm32f4xx_spi.c ****   /* Initialize the SPI_CPOL member */
 504:Libraries/STM32F4xx_StdPeriph_Driver/src/stm32f4xx_spi.c ****   SPI_InitStruct->SPI_CPOL = SPI_CPOL_Low;
 584              		.loc 1 504 3 is_stmt 1 view .LVU188
 585              		.loc 1 504 28 is_stmt 0 view .LVU189
 586 0008 C380     		strh	r3, [r0, #6]	@ movhi
 505:Libraries/STM32F4xx_StdPeriph_Driver/src/stm32f4xx_spi.c ****   /* Initialize the SPI_CPHA member */
 506:Libraries/STM32F4xx_StdPeriph_Driver/src/stm32f4xx_spi.c ****   SPI_InitStruct->SPI_CPHA = SPI_CPHA_1Edge;
 587              		.loc 1 506 3 is_stmt 1 view .LVU190
 588              		.loc 1 506 28 is_stmt 0 view .LVU191
 589 000a 0381     		strh	r3, [r0, #8]	@ movhi
 507:Libraries/STM32F4xx_StdPeriph_Driver/src/stm32f4xx_spi.c ****   /* Initialize the SPI_NSS member */
 508:Libraries/STM32F4xx_StdPeriph_Driver/src/stm32f4xx_spi.c ****   SPI_InitStruct->SPI_NSS = SPI_NSS_Hard;
 590              		.loc 1 508 3 is_stmt 1 view .LVU192
 591              		.loc 1 508 27 is_stmt 0 view .LVU193
 592 000c 4381     		strh	r3, [r0, #10]	@ movhi
 509:Libraries/STM32F4xx_StdPeriph_Driver/src/stm32f4xx_spi.c ****   /* Initialize the SPI_BaudRatePrescaler member */
 510:Libraries/STM32F4xx_StdPeriph_Driver/src/stm32f4xx_spi.c ****   SPI_InitStruct->SPI_BaudRatePrescaler = SPI_BaudRatePrescaler_2;
 593              		.loc 1 510 3 is_stmt 1 view .LVU194
 594              		.loc 1 510 41 is_stmt 0 view .LVU195
 595 000e 8381     		strh	r3, [r0, #12]	@ movhi
 511:Libraries/STM32F4xx_StdPeriph_Driver/src/stm32f4xx_spi.c ****   /* Initialize the SPI_FirstBit member */
ARM GAS  /tmp/cceTBk2v.s 			page 21


 512:Libraries/STM32F4xx_StdPeriph_Driver/src/stm32f4xx_spi.c ****   SPI_InitStruct->SPI_FirstBit = SPI_FirstBit_MSB;
 596              		.loc 1 512 3 is_stmt 1 view .LVU196
 597              		.loc 1 512 32 is_stmt 0 view .LVU197
 598 0010 C381     		strh	r3, [r0, #14]	@ movhi
 513:Libraries/STM32F4xx_StdPeriph_Driver/src/stm32f4xx_spi.c ****   /* Initialize the SPI_CRCPolynomial member */
 514:Libraries/STM32F4xx_StdPeriph_Driver/src/stm32f4xx_spi.c ****   SPI_InitStruct->SPI_CRCPolynomial = 7;
 599              		.loc 1 514 3 is_stmt 1 view .LVU198
 600              		.loc 1 514 37 is_stmt 0 view .LVU199
 601 0012 0723     		movs	r3, #7
 602 0014 0382     		strh	r3, [r0, #16]	@ movhi
 515:Libraries/STM32F4xx_StdPeriph_Driver/src/stm32f4xx_spi.c **** }
 603              		.loc 1 515 1 view .LVU200
 604 0016 7047     		bx	lr
 605              		.cfi_endproc
 606              	.LFE126:
 608              		.section	.text.I2S_StructInit,"ax",%progbits
 609              		.align	1
 610              		.global	I2S_StructInit
 611              		.syntax unified
 612              		.thumb
 613              		.thumb_func
 614              		.fpu fpv4-sp-d16
 616              	I2S_StructInit:
 617              	.LVL69:
 618              	.LFB127:
 516:Libraries/STM32F4xx_StdPeriph_Driver/src/stm32f4xx_spi.c **** 
 517:Libraries/STM32F4xx_StdPeriph_Driver/src/stm32f4xx_spi.c **** /**
 518:Libraries/STM32F4xx_StdPeriph_Driver/src/stm32f4xx_spi.c ****   * @brief  Fills each I2S_InitStruct member with its default value.
 519:Libraries/STM32F4xx_StdPeriph_Driver/src/stm32f4xx_spi.c ****   * @param  I2S_InitStruct: pointer to a I2S_InitTypeDef structure which will be initialized.
 520:Libraries/STM32F4xx_StdPeriph_Driver/src/stm32f4xx_spi.c ****   * @retval None
 521:Libraries/STM32F4xx_StdPeriph_Driver/src/stm32f4xx_spi.c ****   */
 522:Libraries/STM32F4xx_StdPeriph_Driver/src/stm32f4xx_spi.c **** void I2S_StructInit(I2S_InitTypeDef* I2S_InitStruct)
 523:Libraries/STM32F4xx_StdPeriph_Driver/src/stm32f4xx_spi.c **** {
 619              		.loc 1 523 1 is_stmt 1 view -0
 620              		.cfi_startproc
 621              		@ args = 0, pretend = 0, frame = 0
 622              		@ frame_needed = 0, uses_anonymous_args = 0
 623              		@ link register save eliminated.
 524:Libraries/STM32F4xx_StdPeriph_Driver/src/stm32f4xx_spi.c **** /*--------------- Reset I2S init structure parameters values -----------------*/
 525:Libraries/STM32F4xx_StdPeriph_Driver/src/stm32f4xx_spi.c ****   /* Initialize the I2S_Mode member */
 526:Libraries/STM32F4xx_StdPeriph_Driver/src/stm32f4xx_spi.c ****   I2S_InitStruct->I2S_Mode = I2S_Mode_SlaveTx;
 624              		.loc 1 526 3 view .LVU202
 625              		.loc 1 526 28 is_stmt 0 view .LVU203
 626 0000 0023     		movs	r3, #0
 627 0002 0380     		strh	r3, [r0]	@ movhi
 527:Libraries/STM32F4xx_StdPeriph_Driver/src/stm32f4xx_spi.c ****   
 528:Libraries/STM32F4xx_StdPeriph_Driver/src/stm32f4xx_spi.c ****   /* Initialize the I2S_Standard member */
 529:Libraries/STM32F4xx_StdPeriph_Driver/src/stm32f4xx_spi.c ****   I2S_InitStruct->I2S_Standard = I2S_Standard_Phillips;
 628              		.loc 1 529 3 is_stmt 1 view .LVU204
 629              		.loc 1 529 32 is_stmt 0 view .LVU205
 630 0004 4380     		strh	r3, [r0, #2]	@ movhi
 530:Libraries/STM32F4xx_StdPeriph_Driver/src/stm32f4xx_spi.c ****   
 531:Libraries/STM32F4xx_StdPeriph_Driver/src/stm32f4xx_spi.c ****   /* Initialize the I2S_DataFormat member */
 532:Libraries/STM32F4xx_StdPeriph_Driver/src/stm32f4xx_spi.c ****   I2S_InitStruct->I2S_DataFormat = I2S_DataFormat_16b;
 631              		.loc 1 532 3 is_stmt 1 view .LVU206
 632              		.loc 1 532 34 is_stmt 0 view .LVU207
 633 0006 8380     		strh	r3, [r0, #4]	@ movhi
ARM GAS  /tmp/cceTBk2v.s 			page 22


 533:Libraries/STM32F4xx_StdPeriph_Driver/src/stm32f4xx_spi.c ****   
 534:Libraries/STM32F4xx_StdPeriph_Driver/src/stm32f4xx_spi.c ****   /* Initialize the I2S_MCLKOutput member */
 535:Libraries/STM32F4xx_StdPeriph_Driver/src/stm32f4xx_spi.c ****   I2S_InitStruct->I2S_MCLKOutput = I2S_MCLKOutput_Disable;
 634              		.loc 1 535 3 is_stmt 1 view .LVU208
 635              		.loc 1 535 34 is_stmt 0 view .LVU209
 636 0008 C380     		strh	r3, [r0, #6]	@ movhi
 536:Libraries/STM32F4xx_StdPeriph_Driver/src/stm32f4xx_spi.c ****   
 537:Libraries/STM32F4xx_StdPeriph_Driver/src/stm32f4xx_spi.c ****   /* Initialize the I2S_AudioFreq member */
 538:Libraries/STM32F4xx_StdPeriph_Driver/src/stm32f4xx_spi.c ****   I2S_InitStruct->I2S_AudioFreq = I2S_AudioFreq_Default;
 637              		.loc 1 538 3 is_stmt 1 view .LVU210
 638              		.loc 1 538 33 is_stmt 0 view .LVU211
 639 000a 0222     		movs	r2, #2
 640 000c 8260     		str	r2, [r0, #8]
 539:Libraries/STM32F4xx_StdPeriph_Driver/src/stm32f4xx_spi.c ****   
 540:Libraries/STM32F4xx_StdPeriph_Driver/src/stm32f4xx_spi.c ****   /* Initialize the I2S_CPOL member */
 541:Libraries/STM32F4xx_StdPeriph_Driver/src/stm32f4xx_spi.c ****   I2S_InitStruct->I2S_CPOL = I2S_CPOL_Low;
 641              		.loc 1 541 3 is_stmt 1 view .LVU212
 642              		.loc 1 541 28 is_stmt 0 view .LVU213
 643 000e 8381     		strh	r3, [r0, #12]	@ movhi
 542:Libraries/STM32F4xx_StdPeriph_Driver/src/stm32f4xx_spi.c **** }
 644              		.loc 1 542 1 view .LVU214
 645 0010 7047     		bx	lr
 646              		.cfi_endproc
 647              	.LFE127:
 649              		.section	.text.SPI_Cmd,"ax",%progbits
 650              		.align	1
 651              		.global	SPI_Cmd
 652              		.syntax unified
 653              		.thumb
 654              		.thumb_func
 655              		.fpu fpv4-sp-d16
 657              	SPI_Cmd:
 658              	.LVL70:
 659              	.LFB128:
 543:Libraries/STM32F4xx_StdPeriph_Driver/src/stm32f4xx_spi.c **** 
 544:Libraries/STM32F4xx_StdPeriph_Driver/src/stm32f4xx_spi.c **** /**
 545:Libraries/STM32F4xx_StdPeriph_Driver/src/stm32f4xx_spi.c ****   * @brief  Enables or disables the specified SPI peripheral.
 546:Libraries/STM32F4xx_StdPeriph_Driver/src/stm32f4xx_spi.c ****   * @param  SPIx: where x can be 1, 2, 3, 4, 5 or 6 to select the SPI peripheral.
 547:Libraries/STM32F4xx_StdPeriph_Driver/src/stm32f4xx_spi.c ****   * @param  NewState: new state of the SPIx peripheral. 
 548:Libraries/STM32F4xx_StdPeriph_Driver/src/stm32f4xx_spi.c ****   *          This parameter can be: ENABLE or DISABLE.
 549:Libraries/STM32F4xx_StdPeriph_Driver/src/stm32f4xx_spi.c ****   * @retval None
 550:Libraries/STM32F4xx_StdPeriph_Driver/src/stm32f4xx_spi.c ****   */
 551:Libraries/STM32F4xx_StdPeriph_Driver/src/stm32f4xx_spi.c **** void SPI_Cmd(SPI_TypeDef* SPIx, FunctionalState NewState)
 552:Libraries/STM32F4xx_StdPeriph_Driver/src/stm32f4xx_spi.c **** {
 660              		.loc 1 552 1 is_stmt 1 view -0
 661              		.cfi_startproc
 662              		@ args = 0, pretend = 0, frame = 0
 663              		@ frame_needed = 0, uses_anonymous_args = 0
 664              		@ link register save eliminated.
 553:Libraries/STM32F4xx_StdPeriph_Driver/src/stm32f4xx_spi.c ****   /* Check the parameters */
 554:Libraries/STM32F4xx_StdPeriph_Driver/src/stm32f4xx_spi.c ****   assert_param(IS_SPI_ALL_PERIPH(SPIx));
 665              		.loc 1 554 3 view .LVU216
 555:Libraries/STM32F4xx_StdPeriph_Driver/src/stm32f4xx_spi.c ****   assert_param(IS_FUNCTIONAL_STATE(NewState));
 666              		.loc 1 555 3 view .LVU217
 556:Libraries/STM32F4xx_StdPeriph_Driver/src/stm32f4xx_spi.c ****   if (NewState != DISABLE)
 667              		.loc 1 556 3 view .LVU218
 668              		.loc 1 556 6 is_stmt 0 view .LVU219
ARM GAS  /tmp/cceTBk2v.s 			page 23


 669 0000 29B1     		cbz	r1, .L39
 557:Libraries/STM32F4xx_StdPeriph_Driver/src/stm32f4xx_spi.c ****   {
 558:Libraries/STM32F4xx_StdPeriph_Driver/src/stm32f4xx_spi.c ****     /* Enable the selected SPI peripheral */
 559:Libraries/STM32F4xx_StdPeriph_Driver/src/stm32f4xx_spi.c ****     SPIx->CR1 |= SPI_CR1_SPE;
 670              		.loc 1 559 5 is_stmt 1 view .LVU220
 671              		.loc 1 559 15 is_stmt 0 view .LVU221
 672 0002 0388     		ldrh	r3, [r0]
 673 0004 9BB2     		uxth	r3, r3
 674 0006 43F04003 		orr	r3, r3, #64
 675 000a 0380     		strh	r3, [r0]	@ movhi
 676 000c 7047     		bx	lr
 677              	.L39:
 560:Libraries/STM32F4xx_StdPeriph_Driver/src/stm32f4xx_spi.c ****   }
 561:Libraries/STM32F4xx_StdPeriph_Driver/src/stm32f4xx_spi.c ****   else
 562:Libraries/STM32F4xx_StdPeriph_Driver/src/stm32f4xx_spi.c ****   {
 563:Libraries/STM32F4xx_StdPeriph_Driver/src/stm32f4xx_spi.c ****     /* Disable the selected SPI peripheral */
 564:Libraries/STM32F4xx_StdPeriph_Driver/src/stm32f4xx_spi.c ****     SPIx->CR1 &= (uint16_t)~((uint16_t)SPI_CR1_SPE);
 678              		.loc 1 564 5 is_stmt 1 view .LVU222
 679              		.loc 1 564 15 is_stmt 0 view .LVU223
 680 000e 0388     		ldrh	r3, [r0]
 681 0010 9BB2     		uxth	r3, r3
 682 0012 23F04003 		bic	r3, r3, #64
 683 0016 9BB2     		uxth	r3, r3
 684 0018 0380     		strh	r3, [r0]	@ movhi
 565:Libraries/STM32F4xx_StdPeriph_Driver/src/stm32f4xx_spi.c ****   }
 566:Libraries/STM32F4xx_StdPeriph_Driver/src/stm32f4xx_spi.c **** }
 685              		.loc 1 566 1 view .LVU224
 686 001a 7047     		bx	lr
 687              		.cfi_endproc
 688              	.LFE128:
 690              		.section	.text.I2S_Cmd,"ax",%progbits
 691              		.align	1
 692              		.global	I2S_Cmd
 693              		.syntax unified
 694              		.thumb
 695              		.thumb_func
 696              		.fpu fpv4-sp-d16
 698              	I2S_Cmd:
 699              	.LVL71:
 700              	.LFB129:
 567:Libraries/STM32F4xx_StdPeriph_Driver/src/stm32f4xx_spi.c **** 
 568:Libraries/STM32F4xx_StdPeriph_Driver/src/stm32f4xx_spi.c **** /**
 569:Libraries/STM32F4xx_StdPeriph_Driver/src/stm32f4xx_spi.c ****   * @brief  Enables or disables the specified SPI peripheral (in I2S mode).
 570:Libraries/STM32F4xx_StdPeriph_Driver/src/stm32f4xx_spi.c ****   * @param  SPIx: where x can be 2 or 3 to select the SPI peripheral (or I2Sxext 
 571:Libraries/STM32F4xx_StdPeriph_Driver/src/stm32f4xx_spi.c ****   *         for full duplex mode).
 572:Libraries/STM32F4xx_StdPeriph_Driver/src/stm32f4xx_spi.c ****   * @param  NewState: new state of the SPIx peripheral. 
 573:Libraries/STM32F4xx_StdPeriph_Driver/src/stm32f4xx_spi.c ****   *         This parameter can be: ENABLE or DISABLE.
 574:Libraries/STM32F4xx_StdPeriph_Driver/src/stm32f4xx_spi.c ****   * @retval None
 575:Libraries/STM32F4xx_StdPeriph_Driver/src/stm32f4xx_spi.c ****   */
 576:Libraries/STM32F4xx_StdPeriph_Driver/src/stm32f4xx_spi.c **** void I2S_Cmd(SPI_TypeDef* SPIx, FunctionalState NewState)
 577:Libraries/STM32F4xx_StdPeriph_Driver/src/stm32f4xx_spi.c **** {
 701              		.loc 1 577 1 is_stmt 1 view -0
 702              		.cfi_startproc
 703              		@ args = 0, pretend = 0, frame = 0
 704              		@ frame_needed = 0, uses_anonymous_args = 0
 705              		@ link register save eliminated.
 578:Libraries/STM32F4xx_StdPeriph_Driver/src/stm32f4xx_spi.c ****   /* Check the parameters */
ARM GAS  /tmp/cceTBk2v.s 			page 24


 579:Libraries/STM32F4xx_StdPeriph_Driver/src/stm32f4xx_spi.c ****   assert_param(IS_SPI_23_PERIPH_EXT(SPIx));
 706              		.loc 1 579 3 view .LVU226
 580:Libraries/STM32F4xx_StdPeriph_Driver/src/stm32f4xx_spi.c ****   assert_param(IS_FUNCTIONAL_STATE(NewState));
 707              		.loc 1 580 3 view .LVU227
 581:Libraries/STM32F4xx_StdPeriph_Driver/src/stm32f4xx_spi.c ****   
 582:Libraries/STM32F4xx_StdPeriph_Driver/src/stm32f4xx_spi.c ****   if (NewState != DISABLE)
 708              		.loc 1 582 3 view .LVU228
 709              		.loc 1 582 6 is_stmt 0 view .LVU229
 710 0000 29B1     		cbz	r1, .L42
 583:Libraries/STM32F4xx_StdPeriph_Driver/src/stm32f4xx_spi.c ****   {
 584:Libraries/STM32F4xx_StdPeriph_Driver/src/stm32f4xx_spi.c ****     /* Enable the selected SPI peripheral (in I2S mode) */
 585:Libraries/STM32F4xx_StdPeriph_Driver/src/stm32f4xx_spi.c ****     SPIx->I2SCFGR |= SPI_I2SCFGR_I2SE;
 711              		.loc 1 585 5 is_stmt 1 view .LVU230
 712              		.loc 1 585 19 is_stmt 0 view .LVU231
 713 0002 838B     		ldrh	r3, [r0, #28]
 714 0004 9BB2     		uxth	r3, r3
 715 0006 43F48063 		orr	r3, r3, #1024
 716 000a 8383     		strh	r3, [r0, #28]	@ movhi
 717 000c 7047     		bx	lr
 718              	.L42:
 586:Libraries/STM32F4xx_StdPeriph_Driver/src/stm32f4xx_spi.c ****   }
 587:Libraries/STM32F4xx_StdPeriph_Driver/src/stm32f4xx_spi.c ****   else
 588:Libraries/STM32F4xx_StdPeriph_Driver/src/stm32f4xx_spi.c ****   {
 589:Libraries/STM32F4xx_StdPeriph_Driver/src/stm32f4xx_spi.c ****     /* Disable the selected SPI peripheral in I2S mode */
 590:Libraries/STM32F4xx_StdPeriph_Driver/src/stm32f4xx_spi.c ****     SPIx->I2SCFGR &= (uint16_t)~((uint16_t)SPI_I2SCFGR_I2SE);
 719              		.loc 1 590 5 is_stmt 1 view .LVU232
 720              		.loc 1 590 19 is_stmt 0 view .LVU233
 721 000e 838B     		ldrh	r3, [r0, #28]
 722 0010 9BB2     		uxth	r3, r3
 723 0012 23F48063 		bic	r3, r3, #1024
 724 0016 9BB2     		uxth	r3, r3
 725 0018 8383     		strh	r3, [r0, #28]	@ movhi
 591:Libraries/STM32F4xx_StdPeriph_Driver/src/stm32f4xx_spi.c ****   }
 592:Libraries/STM32F4xx_StdPeriph_Driver/src/stm32f4xx_spi.c **** }
 726              		.loc 1 592 1 view .LVU234
 727 001a 7047     		bx	lr
 728              		.cfi_endproc
 729              	.LFE129:
 731              		.section	.text.SPI_DataSizeConfig,"ax",%progbits
 732              		.align	1
 733              		.global	SPI_DataSizeConfig
 734              		.syntax unified
 735              		.thumb
 736              		.thumb_func
 737              		.fpu fpv4-sp-d16
 739              	SPI_DataSizeConfig:
 740              	.LVL72:
 741              	.LFB130:
 593:Libraries/STM32F4xx_StdPeriph_Driver/src/stm32f4xx_spi.c **** 
 594:Libraries/STM32F4xx_StdPeriph_Driver/src/stm32f4xx_spi.c **** /**
 595:Libraries/STM32F4xx_StdPeriph_Driver/src/stm32f4xx_spi.c ****   * @brief  Configures the data size for the selected SPI.
 596:Libraries/STM32F4xx_StdPeriph_Driver/src/stm32f4xx_spi.c ****   * @param  SPIx: where x can be 1, 2, 3, 4, 5 or 6 to select the SPI peripheral.
 597:Libraries/STM32F4xx_StdPeriph_Driver/src/stm32f4xx_spi.c ****   * @param  SPI_DataSize: specifies the SPI data size.
 598:Libraries/STM32F4xx_StdPeriph_Driver/src/stm32f4xx_spi.c ****   *          This parameter can be one of the following values:
 599:Libraries/STM32F4xx_StdPeriph_Driver/src/stm32f4xx_spi.c ****   *            @arg SPI_DataSize_16b: Set data frame format to 16bit
 600:Libraries/STM32F4xx_StdPeriph_Driver/src/stm32f4xx_spi.c ****   *            @arg SPI_DataSize_8b: Set data frame format to 8bit
 601:Libraries/STM32F4xx_StdPeriph_Driver/src/stm32f4xx_spi.c ****   * @retval None
ARM GAS  /tmp/cceTBk2v.s 			page 25


 602:Libraries/STM32F4xx_StdPeriph_Driver/src/stm32f4xx_spi.c ****   */
 603:Libraries/STM32F4xx_StdPeriph_Driver/src/stm32f4xx_spi.c **** void SPI_DataSizeConfig(SPI_TypeDef* SPIx, uint16_t SPI_DataSize)
 604:Libraries/STM32F4xx_StdPeriph_Driver/src/stm32f4xx_spi.c **** {
 742              		.loc 1 604 1 is_stmt 1 view -0
 743              		.cfi_startproc
 744              		@ args = 0, pretend = 0, frame = 0
 745              		@ frame_needed = 0, uses_anonymous_args = 0
 746              		@ link register save eliminated.
 605:Libraries/STM32F4xx_StdPeriph_Driver/src/stm32f4xx_spi.c ****   /* Check the parameters */
 606:Libraries/STM32F4xx_StdPeriph_Driver/src/stm32f4xx_spi.c ****   assert_param(IS_SPI_ALL_PERIPH(SPIx));
 747              		.loc 1 606 3 view .LVU236
 607:Libraries/STM32F4xx_StdPeriph_Driver/src/stm32f4xx_spi.c ****   assert_param(IS_SPI_DATASIZE(SPI_DataSize));
 748              		.loc 1 607 3 view .LVU237
 608:Libraries/STM32F4xx_StdPeriph_Driver/src/stm32f4xx_spi.c ****   /* Clear DFF bit */
 609:Libraries/STM32F4xx_StdPeriph_Driver/src/stm32f4xx_spi.c ****   SPIx->CR1 &= (uint16_t)~SPI_DataSize_16b;
 749              		.loc 1 609 3 view .LVU238
 750              		.loc 1 609 13 is_stmt 0 view .LVU239
 751 0000 0388     		ldrh	r3, [r0]
 752 0002 9BB2     		uxth	r3, r3
 753 0004 23F40063 		bic	r3, r3, #2048
 754 0008 9BB2     		uxth	r3, r3
 755 000a 0380     		strh	r3, [r0]	@ movhi
 610:Libraries/STM32F4xx_StdPeriph_Driver/src/stm32f4xx_spi.c ****   /* Set new DFF bit value */
 611:Libraries/STM32F4xx_StdPeriph_Driver/src/stm32f4xx_spi.c ****   SPIx->CR1 |= SPI_DataSize;
 756              		.loc 1 611 3 is_stmt 1 view .LVU240
 757              		.loc 1 611 13 is_stmt 0 view .LVU241
 758 000c 0388     		ldrh	r3, [r0]
 759 000e 9BB2     		uxth	r3, r3
 760 0010 0B43     		orrs	r3, r3, r1
 761 0012 0380     		strh	r3, [r0]	@ movhi
 612:Libraries/STM32F4xx_StdPeriph_Driver/src/stm32f4xx_spi.c **** }
 762              		.loc 1 612 1 view .LVU242
 763 0014 7047     		bx	lr
 764              		.cfi_endproc
 765              	.LFE130:
 767              		.section	.text.SPI_BiDirectionalLineConfig,"ax",%progbits
 768              		.align	1
 769              		.global	SPI_BiDirectionalLineConfig
 770              		.syntax unified
 771              		.thumb
 772              		.thumb_func
 773              		.fpu fpv4-sp-d16
 775              	SPI_BiDirectionalLineConfig:
 776              	.LVL73:
 777              	.LFB131:
 613:Libraries/STM32F4xx_StdPeriph_Driver/src/stm32f4xx_spi.c **** 
 614:Libraries/STM32F4xx_StdPeriph_Driver/src/stm32f4xx_spi.c **** /**
 615:Libraries/STM32F4xx_StdPeriph_Driver/src/stm32f4xx_spi.c ****   * @brief  Selects the data transfer direction in bidirectional mode for the specified SPI.
 616:Libraries/STM32F4xx_StdPeriph_Driver/src/stm32f4xx_spi.c ****   * @param  SPIx: where x can be 1, 2, 3, 4, 5 or 6 to select the SPI peripheral.
 617:Libraries/STM32F4xx_StdPeriph_Driver/src/stm32f4xx_spi.c ****   * @param  SPI_Direction: specifies the data transfer direction in bidirectional mode. 
 618:Libraries/STM32F4xx_StdPeriph_Driver/src/stm32f4xx_spi.c ****   *          This parameter can be one of the following values:
 619:Libraries/STM32F4xx_StdPeriph_Driver/src/stm32f4xx_spi.c ****   *            @arg SPI_Direction_Tx: Selects Tx transmission direction
 620:Libraries/STM32F4xx_StdPeriph_Driver/src/stm32f4xx_spi.c ****   *            @arg SPI_Direction_Rx: Selects Rx receive direction
 621:Libraries/STM32F4xx_StdPeriph_Driver/src/stm32f4xx_spi.c ****   * @retval None
 622:Libraries/STM32F4xx_StdPeriph_Driver/src/stm32f4xx_spi.c ****   */
 623:Libraries/STM32F4xx_StdPeriph_Driver/src/stm32f4xx_spi.c **** void SPI_BiDirectionalLineConfig(SPI_TypeDef* SPIx, uint16_t SPI_Direction)
 624:Libraries/STM32F4xx_StdPeriph_Driver/src/stm32f4xx_spi.c **** {
ARM GAS  /tmp/cceTBk2v.s 			page 26


 778              		.loc 1 624 1 is_stmt 1 view -0
 779              		.cfi_startproc
 780              		@ args = 0, pretend = 0, frame = 0
 781              		@ frame_needed = 0, uses_anonymous_args = 0
 782              		@ link register save eliminated.
 625:Libraries/STM32F4xx_StdPeriph_Driver/src/stm32f4xx_spi.c ****   /* Check the parameters */
 626:Libraries/STM32F4xx_StdPeriph_Driver/src/stm32f4xx_spi.c ****   assert_param(IS_SPI_ALL_PERIPH(SPIx));
 783              		.loc 1 626 3 view .LVU244
 627:Libraries/STM32F4xx_StdPeriph_Driver/src/stm32f4xx_spi.c ****   assert_param(IS_SPI_DIRECTION(SPI_Direction));
 784              		.loc 1 627 3 view .LVU245
 628:Libraries/STM32F4xx_StdPeriph_Driver/src/stm32f4xx_spi.c ****   if (SPI_Direction == SPI_Direction_Tx)
 785              		.loc 1 628 3 view .LVU246
 786              		.loc 1 628 6 is_stmt 0 view .LVU247
 787 0000 B1F5804F 		cmp	r1, #16384
 788 0004 06D0     		beq	.L48
 629:Libraries/STM32F4xx_StdPeriph_Driver/src/stm32f4xx_spi.c ****   {
 630:Libraries/STM32F4xx_StdPeriph_Driver/src/stm32f4xx_spi.c ****     /* Set the Tx only mode */
 631:Libraries/STM32F4xx_StdPeriph_Driver/src/stm32f4xx_spi.c ****     SPIx->CR1 |= SPI_Direction_Tx;
 632:Libraries/STM32F4xx_StdPeriph_Driver/src/stm32f4xx_spi.c ****   }
 633:Libraries/STM32F4xx_StdPeriph_Driver/src/stm32f4xx_spi.c ****   else
 634:Libraries/STM32F4xx_StdPeriph_Driver/src/stm32f4xx_spi.c ****   {
 635:Libraries/STM32F4xx_StdPeriph_Driver/src/stm32f4xx_spi.c ****     /* Set the Rx only mode */
 636:Libraries/STM32F4xx_StdPeriph_Driver/src/stm32f4xx_spi.c ****     SPIx->CR1 &= SPI_Direction_Rx;
 789              		.loc 1 636 5 is_stmt 1 view .LVU248
 790              		.loc 1 636 15 is_stmt 0 view .LVU249
 791 0006 0388     		ldrh	r3, [r0]
 792 0008 9BB2     		uxth	r3, r3
 793 000a 23F48043 		bic	r3, r3, #16384
 794 000e 9BB2     		uxth	r3, r3
 795 0010 0380     		strh	r3, [r0]	@ movhi
 637:Libraries/STM32F4xx_StdPeriph_Driver/src/stm32f4xx_spi.c ****   }
 638:Libraries/STM32F4xx_StdPeriph_Driver/src/stm32f4xx_spi.c **** }
 796              		.loc 1 638 1 view .LVU250
 797 0012 7047     		bx	lr
 798              	.L48:
 631:Libraries/STM32F4xx_StdPeriph_Driver/src/stm32f4xx_spi.c ****   }
 799              		.loc 1 631 5 is_stmt 1 view .LVU251
 631:Libraries/STM32F4xx_StdPeriph_Driver/src/stm32f4xx_spi.c ****   }
 800              		.loc 1 631 15 is_stmt 0 view .LVU252
 801 0014 0388     		ldrh	r3, [r0]
 802 0016 9BB2     		uxth	r3, r3
 803 0018 43F48043 		orr	r3, r3, #16384
 804 001c 0380     		strh	r3, [r0]	@ movhi
 805 001e 7047     		bx	lr
 806              		.cfi_endproc
 807              	.LFE131:
 809              		.section	.text.SPI_NSSInternalSoftwareConfig,"ax",%progbits
 810              		.align	1
 811              		.global	SPI_NSSInternalSoftwareConfig
 812              		.syntax unified
 813              		.thumb
 814              		.thumb_func
 815              		.fpu fpv4-sp-d16
 817              	SPI_NSSInternalSoftwareConfig:
 818              	.LVL74:
 819              	.LFB132:
 639:Libraries/STM32F4xx_StdPeriph_Driver/src/stm32f4xx_spi.c **** 
ARM GAS  /tmp/cceTBk2v.s 			page 27


 640:Libraries/STM32F4xx_StdPeriph_Driver/src/stm32f4xx_spi.c **** /**
 641:Libraries/STM32F4xx_StdPeriph_Driver/src/stm32f4xx_spi.c ****   * @brief  Configures internally by software the NSS pin for the selected SPI.
 642:Libraries/STM32F4xx_StdPeriph_Driver/src/stm32f4xx_spi.c ****   * @param  SPIx: where x can be 1, 2, 3, 4, 5 or 6 to select the SPI peripheral.
 643:Libraries/STM32F4xx_StdPeriph_Driver/src/stm32f4xx_spi.c ****   * @param  SPI_NSSInternalSoft: specifies the SPI NSS internal state.
 644:Libraries/STM32F4xx_StdPeriph_Driver/src/stm32f4xx_spi.c ****   *          This parameter can be one of the following values:
 645:Libraries/STM32F4xx_StdPeriph_Driver/src/stm32f4xx_spi.c ****   *            @arg SPI_NSSInternalSoft_Set: Set NSS pin internally
 646:Libraries/STM32F4xx_StdPeriph_Driver/src/stm32f4xx_spi.c ****   *            @arg SPI_NSSInternalSoft_Reset: Reset NSS pin internally
 647:Libraries/STM32F4xx_StdPeriph_Driver/src/stm32f4xx_spi.c ****   * @retval None
 648:Libraries/STM32F4xx_StdPeriph_Driver/src/stm32f4xx_spi.c ****   */
 649:Libraries/STM32F4xx_StdPeriph_Driver/src/stm32f4xx_spi.c **** void SPI_NSSInternalSoftwareConfig(SPI_TypeDef* SPIx, uint16_t SPI_NSSInternalSoft)
 650:Libraries/STM32F4xx_StdPeriph_Driver/src/stm32f4xx_spi.c **** {
 820              		.loc 1 650 1 is_stmt 1 view -0
 821              		.cfi_startproc
 822              		@ args = 0, pretend = 0, frame = 0
 823              		@ frame_needed = 0, uses_anonymous_args = 0
 824              		@ link register save eliminated.
 651:Libraries/STM32F4xx_StdPeriph_Driver/src/stm32f4xx_spi.c ****   /* Check the parameters */
 652:Libraries/STM32F4xx_StdPeriph_Driver/src/stm32f4xx_spi.c ****   assert_param(IS_SPI_ALL_PERIPH(SPIx));
 825              		.loc 1 652 3 view .LVU254
 653:Libraries/STM32F4xx_StdPeriph_Driver/src/stm32f4xx_spi.c ****   assert_param(IS_SPI_NSS_INTERNAL(SPI_NSSInternalSoft));
 826              		.loc 1 653 3 view .LVU255
 654:Libraries/STM32F4xx_StdPeriph_Driver/src/stm32f4xx_spi.c ****   if (SPI_NSSInternalSoft != SPI_NSSInternalSoft_Reset)
 827              		.loc 1 654 3 view .LVU256
 828              		.loc 1 654 6 is_stmt 0 view .LVU257
 829 0000 4FF6FF63 		movw	r3, #65279
 830 0004 9942     		cmp	r1, r3
 831 0006 05D0     		beq	.L50
 655:Libraries/STM32F4xx_StdPeriph_Driver/src/stm32f4xx_spi.c ****   {
 656:Libraries/STM32F4xx_StdPeriph_Driver/src/stm32f4xx_spi.c ****     /* Set NSS pin internally by software */
 657:Libraries/STM32F4xx_StdPeriph_Driver/src/stm32f4xx_spi.c ****     SPIx->CR1 |= SPI_NSSInternalSoft_Set;
 832              		.loc 1 657 5 is_stmt 1 view .LVU258
 833              		.loc 1 657 15 is_stmt 0 view .LVU259
 834 0008 0388     		ldrh	r3, [r0]
 835 000a 9BB2     		uxth	r3, r3
 836 000c 43F48073 		orr	r3, r3, #256
 837 0010 0380     		strh	r3, [r0]	@ movhi
 838 0012 7047     		bx	lr
 839              	.L50:
 658:Libraries/STM32F4xx_StdPeriph_Driver/src/stm32f4xx_spi.c ****   }
 659:Libraries/STM32F4xx_StdPeriph_Driver/src/stm32f4xx_spi.c ****   else
 660:Libraries/STM32F4xx_StdPeriph_Driver/src/stm32f4xx_spi.c ****   {
 661:Libraries/STM32F4xx_StdPeriph_Driver/src/stm32f4xx_spi.c ****     /* Reset NSS pin internally by software */
 662:Libraries/STM32F4xx_StdPeriph_Driver/src/stm32f4xx_spi.c ****     SPIx->CR1 &= SPI_NSSInternalSoft_Reset;
 840              		.loc 1 662 5 is_stmt 1 view .LVU260
 841              		.loc 1 662 15 is_stmt 0 view .LVU261
 842 0014 0388     		ldrh	r3, [r0]
 843 0016 9BB2     		uxth	r3, r3
 844 0018 23F48073 		bic	r3, r3, #256
 845 001c 9BB2     		uxth	r3, r3
 846 001e 0380     		strh	r3, [r0]	@ movhi
 663:Libraries/STM32F4xx_StdPeriph_Driver/src/stm32f4xx_spi.c ****   }
 664:Libraries/STM32F4xx_StdPeriph_Driver/src/stm32f4xx_spi.c **** }
 847              		.loc 1 664 1 view .LVU262
 848 0020 7047     		bx	lr
 849              		.cfi_endproc
 850              	.LFE132:
 852              		.section	.text.SPI_SSOutputCmd,"ax",%progbits
ARM GAS  /tmp/cceTBk2v.s 			page 28


 853              		.align	1
 854              		.global	SPI_SSOutputCmd
 855              		.syntax unified
 856              		.thumb
 857              		.thumb_func
 858              		.fpu fpv4-sp-d16
 860              	SPI_SSOutputCmd:
 861              	.LVL75:
 862              	.LFB133:
 665:Libraries/STM32F4xx_StdPeriph_Driver/src/stm32f4xx_spi.c **** 
 666:Libraries/STM32F4xx_StdPeriph_Driver/src/stm32f4xx_spi.c **** /**
 667:Libraries/STM32F4xx_StdPeriph_Driver/src/stm32f4xx_spi.c ****   * @brief  Enables or disables the SS output for the selected SPI.
 668:Libraries/STM32F4xx_StdPeriph_Driver/src/stm32f4xx_spi.c ****   * @param  SPIx: where x can be 1, 2, 3, 4, 5 or 6 to select the SPI peripheral.
 669:Libraries/STM32F4xx_StdPeriph_Driver/src/stm32f4xx_spi.c ****   * @param  NewState: new state of the SPIx SS output. 
 670:Libraries/STM32F4xx_StdPeriph_Driver/src/stm32f4xx_spi.c ****   *          This parameter can be: ENABLE or DISABLE.
 671:Libraries/STM32F4xx_StdPeriph_Driver/src/stm32f4xx_spi.c ****   * @retval None
 672:Libraries/STM32F4xx_StdPeriph_Driver/src/stm32f4xx_spi.c ****   */
 673:Libraries/STM32F4xx_StdPeriph_Driver/src/stm32f4xx_spi.c **** void SPI_SSOutputCmd(SPI_TypeDef* SPIx, FunctionalState NewState)
 674:Libraries/STM32F4xx_StdPeriph_Driver/src/stm32f4xx_spi.c **** {
 863              		.loc 1 674 1 is_stmt 1 view -0
 864              		.cfi_startproc
 865              		@ args = 0, pretend = 0, frame = 0
 866              		@ frame_needed = 0, uses_anonymous_args = 0
 867              		@ link register save eliminated.
 675:Libraries/STM32F4xx_StdPeriph_Driver/src/stm32f4xx_spi.c ****   /* Check the parameters */
 676:Libraries/STM32F4xx_StdPeriph_Driver/src/stm32f4xx_spi.c ****   assert_param(IS_SPI_ALL_PERIPH(SPIx));
 868              		.loc 1 676 3 view .LVU264
 677:Libraries/STM32F4xx_StdPeriph_Driver/src/stm32f4xx_spi.c ****   assert_param(IS_FUNCTIONAL_STATE(NewState));
 869              		.loc 1 677 3 view .LVU265
 678:Libraries/STM32F4xx_StdPeriph_Driver/src/stm32f4xx_spi.c ****   if (NewState != DISABLE)
 870              		.loc 1 678 3 view .LVU266
 871              		.loc 1 678 6 is_stmt 0 view .LVU267
 872 0000 29B1     		cbz	r1, .L53
 679:Libraries/STM32F4xx_StdPeriph_Driver/src/stm32f4xx_spi.c ****   {
 680:Libraries/STM32F4xx_StdPeriph_Driver/src/stm32f4xx_spi.c ****     /* Enable the selected SPI SS output */
 681:Libraries/STM32F4xx_StdPeriph_Driver/src/stm32f4xx_spi.c ****     SPIx->CR2 |= (uint16_t)SPI_CR2_SSOE;
 873              		.loc 1 681 5 is_stmt 1 view .LVU268
 874              		.loc 1 681 15 is_stmt 0 view .LVU269
 875 0002 8388     		ldrh	r3, [r0, #4]
 876 0004 9BB2     		uxth	r3, r3
 877 0006 43F00403 		orr	r3, r3, #4
 878 000a 8380     		strh	r3, [r0, #4]	@ movhi
 879 000c 7047     		bx	lr
 880              	.L53:
 682:Libraries/STM32F4xx_StdPeriph_Driver/src/stm32f4xx_spi.c ****   }
 683:Libraries/STM32F4xx_StdPeriph_Driver/src/stm32f4xx_spi.c ****   else
 684:Libraries/STM32F4xx_StdPeriph_Driver/src/stm32f4xx_spi.c ****   {
 685:Libraries/STM32F4xx_StdPeriph_Driver/src/stm32f4xx_spi.c ****     /* Disable the selected SPI SS output */
 686:Libraries/STM32F4xx_StdPeriph_Driver/src/stm32f4xx_spi.c ****     SPIx->CR2 &= (uint16_t)~((uint16_t)SPI_CR2_SSOE);
 881              		.loc 1 686 5 is_stmt 1 view .LVU270
 882              		.loc 1 686 15 is_stmt 0 view .LVU271
 883 000e 8388     		ldrh	r3, [r0, #4]
 884 0010 9BB2     		uxth	r3, r3
 885 0012 23F00403 		bic	r3, r3, #4
 886 0016 9BB2     		uxth	r3, r3
 887 0018 8380     		strh	r3, [r0, #4]	@ movhi
 687:Libraries/STM32F4xx_StdPeriph_Driver/src/stm32f4xx_spi.c ****   }
ARM GAS  /tmp/cceTBk2v.s 			page 29


 688:Libraries/STM32F4xx_StdPeriph_Driver/src/stm32f4xx_spi.c **** }
 888              		.loc 1 688 1 view .LVU272
 889 001a 7047     		bx	lr
 890              		.cfi_endproc
 891              	.LFE133:
 893              		.section	.text.SPI_TIModeCmd,"ax",%progbits
 894              		.align	1
 895              		.global	SPI_TIModeCmd
 896              		.syntax unified
 897              		.thumb
 898              		.thumb_func
 899              		.fpu fpv4-sp-d16
 901              	SPI_TIModeCmd:
 902              	.LVL76:
 903              	.LFB134:
 689:Libraries/STM32F4xx_StdPeriph_Driver/src/stm32f4xx_spi.c **** 
 690:Libraries/STM32F4xx_StdPeriph_Driver/src/stm32f4xx_spi.c **** /**
 691:Libraries/STM32F4xx_StdPeriph_Driver/src/stm32f4xx_spi.c ****   * @brief  Enables or disables the SPIx/I2Sx DMA interface.
 692:Libraries/STM32F4xx_StdPeriph_Driver/src/stm32f4xx_spi.c ****   *   
 693:Libraries/STM32F4xx_StdPeriph_Driver/src/stm32f4xx_spi.c ****   * @note   This function can be called only after the SPI_Init() function has 
 694:Libraries/STM32F4xx_StdPeriph_Driver/src/stm32f4xx_spi.c ****   *         been called. 
 695:Libraries/STM32F4xx_StdPeriph_Driver/src/stm32f4xx_spi.c ****   * @note   When TI mode is selected, the control bits SSM, SSI, CPOL and CPHA 
 696:Libraries/STM32F4xx_StdPeriph_Driver/src/stm32f4xx_spi.c ****   *         are not taken into consideration and are configured by hardware
 697:Libraries/STM32F4xx_StdPeriph_Driver/src/stm32f4xx_spi.c ****   *         respectively to the TI mode requirements.  
 698:Libraries/STM32F4xx_StdPeriph_Driver/src/stm32f4xx_spi.c ****   * 
 699:Libraries/STM32F4xx_StdPeriph_Driver/src/stm32f4xx_spi.c ****   * @param  SPIx: where x can be 1, 2, 3, 4, 5 or 6 
 700:Libraries/STM32F4xx_StdPeriph_Driver/src/stm32f4xx_spi.c ****   * @param  NewState: new state of the selected SPI TI communication mode.
 701:Libraries/STM32F4xx_StdPeriph_Driver/src/stm32f4xx_spi.c ****   *          This parameter can be: ENABLE or DISABLE.
 702:Libraries/STM32F4xx_StdPeriph_Driver/src/stm32f4xx_spi.c ****   * @retval None
 703:Libraries/STM32F4xx_StdPeriph_Driver/src/stm32f4xx_spi.c ****   */
 704:Libraries/STM32F4xx_StdPeriph_Driver/src/stm32f4xx_spi.c **** void SPI_TIModeCmd(SPI_TypeDef* SPIx, FunctionalState NewState)
 705:Libraries/STM32F4xx_StdPeriph_Driver/src/stm32f4xx_spi.c **** {
 904              		.loc 1 705 1 is_stmt 1 view -0
 905              		.cfi_startproc
 906              		@ args = 0, pretend = 0, frame = 0
 907              		@ frame_needed = 0, uses_anonymous_args = 0
 908              		@ link register save eliminated.
 706:Libraries/STM32F4xx_StdPeriph_Driver/src/stm32f4xx_spi.c ****   /* Check the parameters */
 707:Libraries/STM32F4xx_StdPeriph_Driver/src/stm32f4xx_spi.c ****   assert_param(IS_SPI_ALL_PERIPH(SPIx));
 909              		.loc 1 707 3 view .LVU274
 708:Libraries/STM32F4xx_StdPeriph_Driver/src/stm32f4xx_spi.c ****   assert_param(IS_FUNCTIONAL_STATE(NewState));
 910              		.loc 1 708 3 view .LVU275
 709:Libraries/STM32F4xx_StdPeriph_Driver/src/stm32f4xx_spi.c **** 
 710:Libraries/STM32F4xx_StdPeriph_Driver/src/stm32f4xx_spi.c ****   if (NewState != DISABLE)
 911              		.loc 1 710 3 view .LVU276
 912              		.loc 1 710 6 is_stmt 0 view .LVU277
 913 0000 29B1     		cbz	r1, .L56
 711:Libraries/STM32F4xx_StdPeriph_Driver/src/stm32f4xx_spi.c ****   {
 712:Libraries/STM32F4xx_StdPeriph_Driver/src/stm32f4xx_spi.c ****     /* Enable the TI mode for the selected SPI peripheral */
 713:Libraries/STM32F4xx_StdPeriph_Driver/src/stm32f4xx_spi.c ****     SPIx->CR2 |= SPI_CR2_FRF;
 914              		.loc 1 713 5 is_stmt 1 view .LVU278
 915              		.loc 1 713 15 is_stmt 0 view .LVU279
 916 0002 8388     		ldrh	r3, [r0, #4]
 917 0004 9BB2     		uxth	r3, r3
 918 0006 43F01003 		orr	r3, r3, #16
 919 000a 8380     		strh	r3, [r0, #4]	@ movhi
 920 000c 7047     		bx	lr
ARM GAS  /tmp/cceTBk2v.s 			page 30


 921              	.L56:
 714:Libraries/STM32F4xx_StdPeriph_Driver/src/stm32f4xx_spi.c ****   }
 715:Libraries/STM32F4xx_StdPeriph_Driver/src/stm32f4xx_spi.c ****   else
 716:Libraries/STM32F4xx_StdPeriph_Driver/src/stm32f4xx_spi.c ****   {
 717:Libraries/STM32F4xx_StdPeriph_Driver/src/stm32f4xx_spi.c ****     /* Disable the TI mode for the selected SPI peripheral */
 718:Libraries/STM32F4xx_StdPeriph_Driver/src/stm32f4xx_spi.c ****     SPIx->CR2 &= (uint16_t)~SPI_CR2_FRF;
 922              		.loc 1 718 5 is_stmt 1 view .LVU280
 923              		.loc 1 718 15 is_stmt 0 view .LVU281
 924 000e 8388     		ldrh	r3, [r0, #4]
 925 0010 9BB2     		uxth	r3, r3
 926 0012 23F01003 		bic	r3, r3, #16
 927 0016 9BB2     		uxth	r3, r3
 928 0018 8380     		strh	r3, [r0, #4]	@ movhi
 719:Libraries/STM32F4xx_StdPeriph_Driver/src/stm32f4xx_spi.c ****   }
 720:Libraries/STM32F4xx_StdPeriph_Driver/src/stm32f4xx_spi.c **** }
 929              		.loc 1 720 1 view .LVU282
 930 001a 7047     		bx	lr
 931              		.cfi_endproc
 932              	.LFE134:
 934              		.section	.text.I2S_FullDuplexConfig,"ax",%progbits
 935              		.align	1
 936              		.global	I2S_FullDuplexConfig
 937              		.syntax unified
 938              		.thumb
 939              		.thumb_func
 940              		.fpu fpv4-sp-d16
 942              	I2S_FullDuplexConfig:
 943              	.LVL77:
 944              	.LFB135:
 721:Libraries/STM32F4xx_StdPeriph_Driver/src/stm32f4xx_spi.c **** 
 722:Libraries/STM32F4xx_StdPeriph_Driver/src/stm32f4xx_spi.c **** /**
 723:Libraries/STM32F4xx_StdPeriph_Driver/src/stm32f4xx_spi.c ****   * @brief  Configures the full duplex mode for the I2Sx peripheral using its
 724:Libraries/STM32F4xx_StdPeriph_Driver/src/stm32f4xx_spi.c ****   *         extension I2Sxext according to the specified parameters in the 
 725:Libraries/STM32F4xx_StdPeriph_Driver/src/stm32f4xx_spi.c ****   *         I2S_InitStruct.
 726:Libraries/STM32F4xx_StdPeriph_Driver/src/stm32f4xx_spi.c ****   * @param  I2Sxext: where x can be  2 or 3 to select the I2S peripheral extension block.
 727:Libraries/STM32F4xx_StdPeriph_Driver/src/stm32f4xx_spi.c ****   * @param  I2S_InitStruct: pointer to an I2S_InitTypeDef structure that
 728:Libraries/STM32F4xx_StdPeriph_Driver/src/stm32f4xx_spi.c ****   *         contains the configuration information for the specified I2S peripheral
 729:Libraries/STM32F4xx_StdPeriph_Driver/src/stm32f4xx_spi.c ****   *         extension.
 730:Libraries/STM32F4xx_StdPeriph_Driver/src/stm32f4xx_spi.c ****   * 
 731:Libraries/STM32F4xx_StdPeriph_Driver/src/stm32f4xx_spi.c ****   * @note   The structure pointed by I2S_InitStruct parameter should be the same
 732:Libraries/STM32F4xx_StdPeriph_Driver/src/stm32f4xx_spi.c ****   *         used for the master I2S peripheral. In this case, if the master is 
 733:Libraries/STM32F4xx_StdPeriph_Driver/src/stm32f4xx_spi.c ****   *         configured as transmitter, the slave will be receiver and vice versa.
 734:Libraries/STM32F4xx_StdPeriph_Driver/src/stm32f4xx_spi.c ****   *         Or you can force a different mode by modifying the field I2S_Mode to the
 735:Libraries/STM32F4xx_StdPeriph_Driver/src/stm32f4xx_spi.c ****   *         value I2S_SlaveRx or I2S_SlaveTx independently of the master configuration.    
 736:Libraries/STM32F4xx_StdPeriph_Driver/src/stm32f4xx_spi.c ****   *         
 737:Libraries/STM32F4xx_StdPeriph_Driver/src/stm32f4xx_spi.c ****   * @note   The I2S full duplex extension can be configured in slave mode only.    
 738:Libraries/STM32F4xx_StdPeriph_Driver/src/stm32f4xx_spi.c ****   *  
 739:Libraries/STM32F4xx_StdPeriph_Driver/src/stm32f4xx_spi.c ****   * @retval None
 740:Libraries/STM32F4xx_StdPeriph_Driver/src/stm32f4xx_spi.c ****   */
 741:Libraries/STM32F4xx_StdPeriph_Driver/src/stm32f4xx_spi.c **** void I2S_FullDuplexConfig(SPI_TypeDef* I2Sxext, I2S_InitTypeDef* I2S_InitStruct)
 742:Libraries/STM32F4xx_StdPeriph_Driver/src/stm32f4xx_spi.c **** {
 945              		.loc 1 742 1 is_stmt 1 view -0
 946              		.cfi_startproc
 947              		@ args = 0, pretend = 0, frame = 0
 948              		@ frame_needed = 0, uses_anonymous_args = 0
 949              		.loc 1 742 1 is_stmt 0 view .LVU284
 950 0000 00B5     		push	{lr}
ARM GAS  /tmp/cceTBk2v.s 			page 31


 951              	.LCFI3:
 952              		.cfi_def_cfa_offset 4
 953              		.cfi_offset 14, -4
 743:Libraries/STM32F4xx_StdPeriph_Driver/src/stm32f4xx_spi.c ****   uint16_t tmpreg = 0, tmp = 0;
 954              		.loc 1 743 3 is_stmt 1 view .LVU285
 955              	.LVL78:
 744:Libraries/STM32F4xx_StdPeriph_Driver/src/stm32f4xx_spi.c ****   
 745:Libraries/STM32F4xx_StdPeriph_Driver/src/stm32f4xx_spi.c ****   /* Check the I2S parameters */
 746:Libraries/STM32F4xx_StdPeriph_Driver/src/stm32f4xx_spi.c ****   assert_param(IS_I2S_EXT_PERIPH(I2Sxext));
 956              		.loc 1 746 3 view .LVU286
 747:Libraries/STM32F4xx_StdPeriph_Driver/src/stm32f4xx_spi.c ****   assert_param(IS_I2S_MODE(I2S_InitStruct->I2S_Mode));
 957              		.loc 1 747 3 view .LVU287
 748:Libraries/STM32F4xx_StdPeriph_Driver/src/stm32f4xx_spi.c ****   assert_param(IS_I2S_STANDARD(I2S_InitStruct->I2S_Standard));
 958              		.loc 1 748 3 view .LVU288
 749:Libraries/STM32F4xx_StdPeriph_Driver/src/stm32f4xx_spi.c ****   assert_param(IS_I2S_DATA_FORMAT(I2S_InitStruct->I2S_DataFormat));
 959              		.loc 1 749 3 view .LVU289
 750:Libraries/STM32F4xx_StdPeriph_Driver/src/stm32f4xx_spi.c ****   assert_param(IS_I2S_CPOL(I2S_InitStruct->I2S_CPOL));  
 960              		.loc 1 750 3 view .LVU290
 751:Libraries/STM32F4xx_StdPeriph_Driver/src/stm32f4xx_spi.c **** 
 752:Libraries/STM32F4xx_StdPeriph_Driver/src/stm32f4xx_spi.c **** /*----------------------- SPIx I2SCFGR & I2SPR Configuration -----------------*/
 753:Libraries/STM32F4xx_StdPeriph_Driver/src/stm32f4xx_spi.c ****   /* Clear I2SMOD, I2SE, I2SCFG, PCMSYNC, I2SSTD, CKPOL, DATLEN and CHLEN bits */
 754:Libraries/STM32F4xx_StdPeriph_Driver/src/stm32f4xx_spi.c ****   I2Sxext->I2SCFGR &= I2SCFGR_CLEAR_MASK; 
 961              		.loc 1 754 3 view .LVU291
 962              		.loc 1 754 20 is_stmt 0 view .LVU292
 963 0002 838B     		ldrh	r3, [r0, #28]
 964 0004 9BB2     		uxth	r3, r3
 965 0006 23F47B63 		bic	r3, r3, #4016
 966 000a 23F00F03 		bic	r3, r3, #15
 967 000e 9BB2     		uxth	r3, r3
 968 0010 8383     		strh	r3, [r0, #28]	@ movhi
 755:Libraries/STM32F4xx_StdPeriph_Driver/src/stm32f4xx_spi.c ****   I2Sxext->I2SPR = 0x0002;
 969              		.loc 1 755 3 is_stmt 1 view .LVU293
 970              		.loc 1 755 18 is_stmt 0 view .LVU294
 971 0012 0223     		movs	r3, #2
 972 0014 0384     		strh	r3, [r0, #32]	@ movhi
 756:Libraries/STM32F4xx_StdPeriph_Driver/src/stm32f4xx_spi.c ****   
 757:Libraries/STM32F4xx_StdPeriph_Driver/src/stm32f4xx_spi.c ****   /* Get the I2SCFGR register value */
 758:Libraries/STM32F4xx_StdPeriph_Driver/src/stm32f4xx_spi.c ****   tmpreg = I2Sxext->I2SCFGR;
 973              		.loc 1 758 3 is_stmt 1 view .LVU295
 974              		.loc 1 758 10 is_stmt 0 view .LVU296
 975 0016 838B     		ldrh	r3, [r0, #28]
 976 0018 9AB2     		uxth	r2, r3
 977              	.LVL79:
 759:Libraries/STM32F4xx_StdPeriph_Driver/src/stm32f4xx_spi.c ****   
 760:Libraries/STM32F4xx_StdPeriph_Driver/src/stm32f4xx_spi.c ****   /* Get the mode to be configured for the extended I2S */
 761:Libraries/STM32F4xx_StdPeriph_Driver/src/stm32f4xx_spi.c ****   if ((I2S_InitStruct->I2S_Mode == I2S_Mode_MasterTx) || (I2S_InitStruct->I2S_Mode == I2S_Mode_Slav
 978              		.loc 1 761 3 is_stmt 1 view .LVU297
 979              		.loc 1 761 22 is_stmt 0 view .LVU298
 980 001a 0B88     		ldrh	r3, [r1]
 981              		.loc 1 761 6 view .LVU299
 982 001c B3F5007F 		cmp	r3, #512
 983 0020 03D0     		beq	.L60
 984              		.loc 1 761 55 discriminator 1 view .LVU300
 985 0022 9BB9     		cbnz	r3, .L61
 762:Libraries/STM32F4xx_StdPeriph_Driver/src/stm32f4xx_spi.c ****   {
 763:Libraries/STM32F4xx_StdPeriph_Driver/src/stm32f4xx_spi.c ****     tmp = I2S_Mode_SlaveRx;
 986              		.loc 1 763 9 view .LVU301
ARM GAS  /tmp/cceTBk2v.s 			page 32


 987 0024 4FF4807E 		mov	lr, #256
 988 0028 01E0     		b	.L59
 989              	.L60:
 990 002a 4FF4807E 		mov	lr, #256
 991              	.L59:
 992              	.LVL80:
 764:Libraries/STM32F4xx_StdPeriph_Driver/src/stm32f4xx_spi.c ****   }
 765:Libraries/STM32F4xx_StdPeriph_Driver/src/stm32f4xx_spi.c ****   else
 766:Libraries/STM32F4xx_StdPeriph_Driver/src/stm32f4xx_spi.c ****   {
 767:Libraries/STM32F4xx_StdPeriph_Driver/src/stm32f4xx_spi.c ****     if ((I2S_InitStruct->I2S_Mode == I2S_Mode_MasterRx) || (I2S_InitStruct->I2S_Mode == I2S_Mode_Sl
 768:Libraries/STM32F4xx_StdPeriph_Driver/src/stm32f4xx_spi.c ****     {
 769:Libraries/STM32F4xx_StdPeriph_Driver/src/stm32f4xx_spi.c ****       tmp = I2S_Mode_SlaveTx;
 770:Libraries/STM32F4xx_StdPeriph_Driver/src/stm32f4xx_spi.c ****     }
 771:Libraries/STM32F4xx_StdPeriph_Driver/src/stm32f4xx_spi.c ****   }
 772:Libraries/STM32F4xx_StdPeriph_Driver/src/stm32f4xx_spi.c **** 
 773:Libraries/STM32F4xx_StdPeriph_Driver/src/stm32f4xx_spi.c ****  
 774:Libraries/STM32F4xx_StdPeriph_Driver/src/stm32f4xx_spi.c ****   /* Configure the I2S with the SPI_InitStruct values */
 775:Libraries/STM32F4xx_StdPeriph_Driver/src/stm32f4xx_spi.c ****   tmpreg |= (uint16_t)((uint16_t)SPI_I2SCFGR_I2SMOD | (uint16_t)(tmp | \
 993              		.loc 1 775 3 is_stmt 1 view .LVU302
 776:Libraries/STM32F4xx_StdPeriph_Driver/src/stm32f4xx_spi.c ****                   (uint16_t)(I2S_InitStruct->I2S_Standard | (uint16_t)(I2S_InitStruct->I2S_DataForm
 994              		.loc 1 776 44 is_stmt 0 view .LVU303
 995 002e 4B88     		ldrh	r3, [r1, #2]
 996              		.loc 1 776 86 view .LVU304
 997 0030 B1F804C0 		ldrh	ip, [r1, #4]
 777:Libraries/STM32F4xx_StdPeriph_Driver/src/stm32f4xx_spi.c ****                   (uint16_t)I2S_InitStruct->I2S_CPOL))));
 998              		.loc 1 777 43 view .LVU305
 999 0034 8989     		ldrh	r1, [r1, #12]
 1000              	.LVL81:
 776:Libraries/STM32F4xx_StdPeriph_Driver/src/stm32f4xx_spi.c ****                   (uint16_t)(I2S_InitStruct->I2S_Standard | (uint16_t)(I2S_InitStruct->I2S_DataForm
 1001              		.loc 1 776 61 view .LVU306
 1002 0036 4CEA0101 		orr	r1, ip, r1
 776:Libraries/STM32F4xx_StdPeriph_Driver/src/stm32f4xx_spi.c ****                   (uint16_t)(I2S_InitStruct->I2S_Standard | (uint16_t)(I2S_InitStruct->I2S_DataForm
 1003              		.loc 1 776 19 view .LVU307
 1004 003a 0B43     		orrs	r3, r3, r1
 775:Libraries/STM32F4xx_StdPeriph_Driver/src/stm32f4xx_spi.c ****                   (uint16_t)(I2S_InitStruct->I2S_Standard | (uint16_t)(I2S_InitStruct->I2S_DataForm
 1005              		.loc 1 775 55 view .LVU308
 1006 003c 43EA0E03 		orr	r3, r3, lr
 775:Libraries/STM32F4xx_StdPeriph_Driver/src/stm32f4xx_spi.c ****                   (uint16_t)(I2S_InitStruct->I2S_Standard | (uint16_t)(I2S_InitStruct->I2S_DataForm
 1007              		.loc 1 775 10 view .LVU309
 1008 0040 1343     		orrs	r3, r3, r2
 1009 0042 43F40063 		orr	r3, r3, #2048
 1010              	.LVL82:
 778:Libraries/STM32F4xx_StdPeriph_Driver/src/stm32f4xx_spi.c ****  
 779:Libraries/STM32F4xx_StdPeriph_Driver/src/stm32f4xx_spi.c ****   /* Write to SPIx I2SCFGR */  
 780:Libraries/STM32F4xx_StdPeriph_Driver/src/stm32f4xx_spi.c ****   I2Sxext->I2SCFGR = tmpreg;
 1011              		.loc 1 780 3 is_stmt 1 view .LVU310
 1012              		.loc 1 780 20 is_stmt 0 view .LVU311
 1013 0046 8383     		strh	r3, [r0, #28]	@ movhi
 781:Libraries/STM32F4xx_StdPeriph_Driver/src/stm32f4xx_spi.c **** }
 1014              		.loc 1 781 1 view .LVU312
 1015 0048 5DF804FB 		ldr	pc, [sp], #4
 1016              	.LVL83:
 1017              	.L61:
 769:Libraries/STM32F4xx_StdPeriph_Driver/src/stm32f4xx_spi.c ****     }
 1018              		.loc 1 769 11 view .LVU313
 1019 004c 4FF0000E 		mov	lr, #0
 1020 0050 EDE7     		b	.L59
ARM GAS  /tmp/cceTBk2v.s 			page 33


 1021              		.cfi_endproc
 1022              	.LFE135:
 1024              		.section	.text.SPI_I2S_ReceiveData,"ax",%progbits
 1025              		.align	1
 1026              		.global	SPI_I2S_ReceiveData
 1027              		.syntax unified
 1028              		.thumb
 1029              		.thumb_func
 1030              		.fpu fpv4-sp-d16
 1032              	SPI_I2S_ReceiveData:
 1033              	.LVL84:
 1034              	.LFB136:
 782:Libraries/STM32F4xx_StdPeriph_Driver/src/stm32f4xx_spi.c **** 
 783:Libraries/STM32F4xx_StdPeriph_Driver/src/stm32f4xx_spi.c **** /**
 784:Libraries/STM32F4xx_StdPeriph_Driver/src/stm32f4xx_spi.c ****   * @}
 785:Libraries/STM32F4xx_StdPeriph_Driver/src/stm32f4xx_spi.c ****   */
 786:Libraries/STM32F4xx_StdPeriph_Driver/src/stm32f4xx_spi.c **** 
 787:Libraries/STM32F4xx_StdPeriph_Driver/src/stm32f4xx_spi.c **** /** @defgroup SPI_Group2 Data transfers functions
 788:Libraries/STM32F4xx_StdPeriph_Driver/src/stm32f4xx_spi.c ****  *  @brief   Data transfers functions
 789:Libraries/STM32F4xx_StdPeriph_Driver/src/stm32f4xx_spi.c ****  *
 790:Libraries/STM32F4xx_StdPeriph_Driver/src/stm32f4xx_spi.c **** @verbatim   
 791:Libraries/STM32F4xx_StdPeriph_Driver/src/stm32f4xx_spi.c ****  ===============================================================================
 792:Libraries/STM32F4xx_StdPeriph_Driver/src/stm32f4xx_spi.c ****                       ##### Data transfers functions #####
 793:Libraries/STM32F4xx_StdPeriph_Driver/src/stm32f4xx_spi.c ****  ===============================================================================  
 794:Libraries/STM32F4xx_StdPeriph_Driver/src/stm32f4xx_spi.c **** 
 795:Libraries/STM32F4xx_StdPeriph_Driver/src/stm32f4xx_spi.c ****  [..] This section provides a set of functions allowing to manage the SPI data 
 796:Libraries/STM32F4xx_StdPeriph_Driver/src/stm32f4xx_spi.c ****       transfers. In reception, data are received and then stored into an internal 
 797:Libraries/STM32F4xx_StdPeriph_Driver/src/stm32f4xx_spi.c ****       Rx buffer while. In transmission, data are first stored into an internal Tx 
 798:Libraries/STM32F4xx_StdPeriph_Driver/src/stm32f4xx_spi.c ****       buffer before being transmitted.
 799:Libraries/STM32F4xx_StdPeriph_Driver/src/stm32f4xx_spi.c **** 
 800:Libraries/STM32F4xx_StdPeriph_Driver/src/stm32f4xx_spi.c ****  [..] The read access of the SPI_DR register can be done using the SPI_I2S_ReceiveData()
 801:Libraries/STM32F4xx_StdPeriph_Driver/src/stm32f4xx_spi.c ****       function and returns the Rx buffered value. Whereas a write access to the SPI_DR 
 802:Libraries/STM32F4xx_StdPeriph_Driver/src/stm32f4xx_spi.c ****       can be done using SPI_I2S_SendData() function and stores the written data into 
 803:Libraries/STM32F4xx_StdPeriph_Driver/src/stm32f4xx_spi.c ****       Tx buffer.
 804:Libraries/STM32F4xx_StdPeriph_Driver/src/stm32f4xx_spi.c **** 
 805:Libraries/STM32F4xx_StdPeriph_Driver/src/stm32f4xx_spi.c **** @endverbatim
 806:Libraries/STM32F4xx_StdPeriph_Driver/src/stm32f4xx_spi.c ****   * @{
 807:Libraries/STM32F4xx_StdPeriph_Driver/src/stm32f4xx_spi.c ****   */
 808:Libraries/STM32F4xx_StdPeriph_Driver/src/stm32f4xx_spi.c **** 
 809:Libraries/STM32F4xx_StdPeriph_Driver/src/stm32f4xx_spi.c **** /**
 810:Libraries/STM32F4xx_StdPeriph_Driver/src/stm32f4xx_spi.c ****   * @brief  Returns the most recent received data by the SPIx/I2Sx peripheral. 
 811:Libraries/STM32F4xx_StdPeriph_Driver/src/stm32f4xx_spi.c ****   * @param  SPIx: To select the SPIx/I2Sx peripheral, where x can be: 1, 2, 3, 4, 5 or 6 
 812:Libraries/STM32F4xx_StdPeriph_Driver/src/stm32f4xx_spi.c ****   *         in SPI mode or 2 or 3 in I2S mode or I2Sxext for I2S full duplex mode. 
 813:Libraries/STM32F4xx_StdPeriph_Driver/src/stm32f4xx_spi.c ****   * @retval The value of the received data.
 814:Libraries/STM32F4xx_StdPeriph_Driver/src/stm32f4xx_spi.c ****   */
 815:Libraries/STM32F4xx_StdPeriph_Driver/src/stm32f4xx_spi.c **** uint16_t SPI_I2S_ReceiveData(SPI_TypeDef* SPIx)
 816:Libraries/STM32F4xx_StdPeriph_Driver/src/stm32f4xx_spi.c **** {
 1035              		.loc 1 816 1 is_stmt 1 view -0
 1036              		.cfi_startproc
 1037              		@ args = 0, pretend = 0, frame = 0
 1038              		@ frame_needed = 0, uses_anonymous_args = 0
 1039              		@ link register save eliminated.
 817:Libraries/STM32F4xx_StdPeriph_Driver/src/stm32f4xx_spi.c ****   /* Check the parameters */
 818:Libraries/STM32F4xx_StdPeriph_Driver/src/stm32f4xx_spi.c ****   assert_param(IS_SPI_ALL_PERIPH_EXT(SPIx));
 1040              		.loc 1 818 3 view .LVU315
 819:Libraries/STM32F4xx_StdPeriph_Driver/src/stm32f4xx_spi.c ****   
 820:Libraries/STM32F4xx_StdPeriph_Driver/src/stm32f4xx_spi.c ****   /* Return the data in the DR register */
ARM GAS  /tmp/cceTBk2v.s 			page 34


 821:Libraries/STM32F4xx_StdPeriph_Driver/src/stm32f4xx_spi.c ****   return SPIx->DR;
 1041              		.loc 1 821 3 view .LVU316
 1042              		.loc 1 821 14 is_stmt 0 view .LVU317
 1043 0000 8089     		ldrh	r0, [r0, #12]
 1044              	.LVL85:
 822:Libraries/STM32F4xx_StdPeriph_Driver/src/stm32f4xx_spi.c **** }
 1045              		.loc 1 822 1 view .LVU318
 1046 0002 80B2     		uxth	r0, r0
 1047 0004 7047     		bx	lr
 1048              		.cfi_endproc
 1049              	.LFE136:
 1051              		.section	.text.SPI_I2S_SendData,"ax",%progbits
 1052              		.align	1
 1053              		.global	SPI_I2S_SendData
 1054              		.syntax unified
 1055              		.thumb
 1056              		.thumb_func
 1057              		.fpu fpv4-sp-d16
 1059              	SPI_I2S_SendData:
 1060              	.LVL86:
 1061              	.LFB137:
 823:Libraries/STM32F4xx_StdPeriph_Driver/src/stm32f4xx_spi.c **** 
 824:Libraries/STM32F4xx_StdPeriph_Driver/src/stm32f4xx_spi.c **** /**
 825:Libraries/STM32F4xx_StdPeriph_Driver/src/stm32f4xx_spi.c ****   * @brief  Transmits a Data through the SPIx/I2Sx peripheral.
 826:Libraries/STM32F4xx_StdPeriph_Driver/src/stm32f4xx_spi.c ****   * @param  SPIx: To select the SPIx/I2Sx peripheral, where x can be: 1, 2, 3, 4, 5 or 6 
 827:Libraries/STM32F4xx_StdPeriph_Driver/src/stm32f4xx_spi.c ****   *         in SPI mode or 2 or 3 in I2S mode or I2Sxext for I2S full duplex mode.     
 828:Libraries/STM32F4xx_StdPeriph_Driver/src/stm32f4xx_spi.c ****   * @param  Data: Data to be transmitted.
 829:Libraries/STM32F4xx_StdPeriph_Driver/src/stm32f4xx_spi.c ****   * @retval None
 830:Libraries/STM32F4xx_StdPeriph_Driver/src/stm32f4xx_spi.c ****   */
 831:Libraries/STM32F4xx_StdPeriph_Driver/src/stm32f4xx_spi.c **** void SPI_I2S_SendData(SPI_TypeDef* SPIx, uint16_t Data)
 832:Libraries/STM32F4xx_StdPeriph_Driver/src/stm32f4xx_spi.c **** {
 1062              		.loc 1 832 1 is_stmt 1 view -0
 1063              		.cfi_startproc
 1064              		@ args = 0, pretend = 0, frame = 0
 1065              		@ frame_needed = 0, uses_anonymous_args = 0
 1066              		@ link register save eliminated.
 833:Libraries/STM32F4xx_StdPeriph_Driver/src/stm32f4xx_spi.c ****   /* Check the parameters */
 834:Libraries/STM32F4xx_StdPeriph_Driver/src/stm32f4xx_spi.c ****   assert_param(IS_SPI_ALL_PERIPH_EXT(SPIx));
 1067              		.loc 1 834 3 view .LVU320
 835:Libraries/STM32F4xx_StdPeriph_Driver/src/stm32f4xx_spi.c ****   
 836:Libraries/STM32F4xx_StdPeriph_Driver/src/stm32f4xx_spi.c ****   /* Write in the DR register the data to be sent */
 837:Libraries/STM32F4xx_StdPeriph_Driver/src/stm32f4xx_spi.c ****   SPIx->DR = Data;
 1068              		.loc 1 837 3 view .LVU321
 1069              		.loc 1 837 12 is_stmt 0 view .LVU322
 1070 0000 8181     		strh	r1, [r0, #12]	@ movhi
 838:Libraries/STM32F4xx_StdPeriph_Driver/src/stm32f4xx_spi.c **** }
 1071              		.loc 1 838 1 view .LVU323
 1072 0002 7047     		bx	lr
 1073              		.cfi_endproc
 1074              	.LFE137:
 1076              		.section	.text.SPI_CalculateCRC,"ax",%progbits
 1077              		.align	1
 1078              		.global	SPI_CalculateCRC
 1079              		.syntax unified
 1080              		.thumb
 1081              		.thumb_func
 1082              		.fpu fpv4-sp-d16
ARM GAS  /tmp/cceTBk2v.s 			page 35


 1084              	SPI_CalculateCRC:
 1085              	.LVL87:
 1086              	.LFB138:
 839:Libraries/STM32F4xx_StdPeriph_Driver/src/stm32f4xx_spi.c **** 
 840:Libraries/STM32F4xx_StdPeriph_Driver/src/stm32f4xx_spi.c **** /**
 841:Libraries/STM32F4xx_StdPeriph_Driver/src/stm32f4xx_spi.c ****   * @}
 842:Libraries/STM32F4xx_StdPeriph_Driver/src/stm32f4xx_spi.c ****   */
 843:Libraries/STM32F4xx_StdPeriph_Driver/src/stm32f4xx_spi.c **** 
 844:Libraries/STM32F4xx_StdPeriph_Driver/src/stm32f4xx_spi.c **** /** @defgroup SPI_Group3 Hardware CRC Calculation functions
 845:Libraries/STM32F4xx_StdPeriph_Driver/src/stm32f4xx_spi.c ****  *  @brief   Hardware CRC Calculation functions
 846:Libraries/STM32F4xx_StdPeriph_Driver/src/stm32f4xx_spi.c ****  *
 847:Libraries/STM32F4xx_StdPeriph_Driver/src/stm32f4xx_spi.c **** @verbatim   
 848:Libraries/STM32F4xx_StdPeriph_Driver/src/stm32f4xx_spi.c ****  ===============================================================================
 849:Libraries/STM32F4xx_StdPeriph_Driver/src/stm32f4xx_spi.c ****                  ##### Hardware CRC Calculation functions #####
 850:Libraries/STM32F4xx_StdPeriph_Driver/src/stm32f4xx_spi.c ****  ===============================================================================  
 851:Libraries/STM32F4xx_StdPeriph_Driver/src/stm32f4xx_spi.c **** 
 852:Libraries/STM32F4xx_StdPeriph_Driver/src/stm32f4xx_spi.c ****  [..] This section provides a set of functions allowing to manage the SPI CRC hardware 
 853:Libraries/STM32F4xx_StdPeriph_Driver/src/stm32f4xx_spi.c ****       calculation
 854:Libraries/STM32F4xx_StdPeriph_Driver/src/stm32f4xx_spi.c **** 
 855:Libraries/STM32F4xx_StdPeriph_Driver/src/stm32f4xx_spi.c ****  [..] SPI communication using CRC is possible through the following procedure:
 856:Libraries/STM32F4xx_StdPeriph_Driver/src/stm32f4xx_spi.c ****    (#) Program the Data direction, Polarity, Phase, First Data, Baud Rate Prescaler, 
 857:Libraries/STM32F4xx_StdPeriph_Driver/src/stm32f4xx_spi.c ****        Slave Management, Peripheral Mode and CRC Polynomial values using the SPI_Init()
 858:Libraries/STM32F4xx_StdPeriph_Driver/src/stm32f4xx_spi.c ****        function.
 859:Libraries/STM32F4xx_StdPeriph_Driver/src/stm32f4xx_spi.c ****    (#) Enable the CRC calculation using the SPI_CalculateCRC() function.
 860:Libraries/STM32F4xx_StdPeriph_Driver/src/stm32f4xx_spi.c ****    (#) Enable the SPI using the SPI_Cmd() function
 861:Libraries/STM32F4xx_StdPeriph_Driver/src/stm32f4xx_spi.c ****    (#) Before writing the last data to the TX buffer, set the CRCNext bit using the 
 862:Libraries/STM32F4xx_StdPeriph_Driver/src/stm32f4xx_spi.c ****        SPI_TransmitCRC() function to indicate that after transmission of the last 
 863:Libraries/STM32F4xx_StdPeriph_Driver/src/stm32f4xx_spi.c ****        data, the CRC should be transmitted.
 864:Libraries/STM32F4xx_StdPeriph_Driver/src/stm32f4xx_spi.c ****    (#) After transmitting the last data, the SPI transmits the CRC. The SPI_CR1_CRCNEXT
 865:Libraries/STM32F4xx_StdPeriph_Driver/src/stm32f4xx_spi.c ****         bit is reset. The CRC is also received and compared against the SPI_RXCRCR 
 866:Libraries/STM32F4xx_StdPeriph_Driver/src/stm32f4xx_spi.c ****         value. 
 867:Libraries/STM32F4xx_StdPeriph_Driver/src/stm32f4xx_spi.c ****         If the value does not match, the SPI_FLAG_CRCERR flag is set and an interrupt
 868:Libraries/STM32F4xx_StdPeriph_Driver/src/stm32f4xx_spi.c ****         can be generated when the SPI_I2S_IT_ERR interrupt is enabled.
 869:Libraries/STM32F4xx_StdPeriph_Driver/src/stm32f4xx_spi.c **** 
 870:Libraries/STM32F4xx_StdPeriph_Driver/src/stm32f4xx_spi.c ****  [..]
 871:Libraries/STM32F4xx_StdPeriph_Driver/src/stm32f4xx_spi.c ****    (@) It is advised not to read the calculated CRC values during the communication.
 872:Libraries/STM32F4xx_StdPeriph_Driver/src/stm32f4xx_spi.c **** 
 873:Libraries/STM32F4xx_StdPeriph_Driver/src/stm32f4xx_spi.c ****    (@) When the SPI is in slave mode, be careful to enable CRC calculation only 
 874:Libraries/STM32F4xx_StdPeriph_Driver/src/stm32f4xx_spi.c ****        when the clock is stable, that is, when the clock is in the steady state. 
 875:Libraries/STM32F4xx_StdPeriph_Driver/src/stm32f4xx_spi.c ****        If not, a wrong CRC calculation may be done. In fact, the CRC is sensitive 
 876:Libraries/STM32F4xx_StdPeriph_Driver/src/stm32f4xx_spi.c ****        to the SCK slave input clock as soon as CRCEN is set, and this, whatever 
 877:Libraries/STM32F4xx_StdPeriph_Driver/src/stm32f4xx_spi.c ****        the value of the SPE bit.
 878:Libraries/STM32F4xx_StdPeriph_Driver/src/stm32f4xx_spi.c **** 
 879:Libraries/STM32F4xx_StdPeriph_Driver/src/stm32f4xx_spi.c ****    (@) With high bitrate frequencies, be careful when transmitting the CRC.
 880:Libraries/STM32F4xx_StdPeriph_Driver/src/stm32f4xx_spi.c ****        As the number of used CPU cycles has to be as low as possible in the CRC 
 881:Libraries/STM32F4xx_StdPeriph_Driver/src/stm32f4xx_spi.c ****        transfer phase, it is forbidden to call software functions in the CRC 
 882:Libraries/STM32F4xx_StdPeriph_Driver/src/stm32f4xx_spi.c ****        transmission sequence to avoid errors in the last data and CRC reception. 
 883:Libraries/STM32F4xx_StdPeriph_Driver/src/stm32f4xx_spi.c ****        In fact, CRCNEXT bit has to be written before the end of the transmission/reception 
 884:Libraries/STM32F4xx_StdPeriph_Driver/src/stm32f4xx_spi.c ****        of the last data.
 885:Libraries/STM32F4xx_StdPeriph_Driver/src/stm32f4xx_spi.c **** 
 886:Libraries/STM32F4xx_StdPeriph_Driver/src/stm32f4xx_spi.c ****    (@) For high bit rate frequencies, it is advised to use the DMA mode to avoid the
 887:Libraries/STM32F4xx_StdPeriph_Driver/src/stm32f4xx_spi.c ****        degradation of the SPI speed performance due to CPU accesses impacting the 
 888:Libraries/STM32F4xx_StdPeriph_Driver/src/stm32f4xx_spi.c ****        SPI bandwidth.
 889:Libraries/STM32F4xx_StdPeriph_Driver/src/stm32f4xx_spi.c **** 
 890:Libraries/STM32F4xx_StdPeriph_Driver/src/stm32f4xx_spi.c ****    (@) When the STM32F4xx is configured as slave and the NSS hardware mode is 
 891:Libraries/STM32F4xx_StdPeriph_Driver/src/stm32f4xx_spi.c ****        used, the NSS pin needs to be kept low between the data phase and the CRC 
 892:Libraries/STM32F4xx_StdPeriph_Driver/src/stm32f4xx_spi.c ****        phase.
ARM GAS  /tmp/cceTBk2v.s 			page 36


 893:Libraries/STM32F4xx_StdPeriph_Driver/src/stm32f4xx_spi.c **** 
 894:Libraries/STM32F4xx_StdPeriph_Driver/src/stm32f4xx_spi.c ****    (@) When the SPI is configured in slave mode with the CRC feature enabled, CRC
 895:Libraries/STM32F4xx_StdPeriph_Driver/src/stm32f4xx_spi.c ****        calculation takes place even if a high level is applied on the NSS pin. 
 896:Libraries/STM32F4xx_StdPeriph_Driver/src/stm32f4xx_spi.c ****        This may happen for example in case of a multi-slave environment where the 
 897:Libraries/STM32F4xx_StdPeriph_Driver/src/stm32f4xx_spi.c ****        communication master addresses slaves alternately.
 898:Libraries/STM32F4xx_StdPeriph_Driver/src/stm32f4xx_spi.c **** 
 899:Libraries/STM32F4xx_StdPeriph_Driver/src/stm32f4xx_spi.c ****    (@) Between a slave de-selection (high level on NSS) and a new slave selection 
 900:Libraries/STM32F4xx_StdPeriph_Driver/src/stm32f4xx_spi.c ****        (low level on NSS), the CRC value should be cleared on both master and slave
 901:Libraries/STM32F4xx_StdPeriph_Driver/src/stm32f4xx_spi.c ****        sides in order to resynchronize the master and slave for their respective 
 902:Libraries/STM32F4xx_StdPeriph_Driver/src/stm32f4xx_spi.c ****        CRC calculation.
 903:Libraries/STM32F4xx_StdPeriph_Driver/src/stm32f4xx_spi.c **** 
 904:Libraries/STM32F4xx_StdPeriph_Driver/src/stm32f4xx_spi.c ****    (@) To clear the CRC, follow the procedure below:
 905:Libraries/STM32F4xx_StdPeriph_Driver/src/stm32f4xx_spi.c ****        (#@) Disable SPI using the SPI_Cmd() function
 906:Libraries/STM32F4xx_StdPeriph_Driver/src/stm32f4xx_spi.c ****        (#@) Disable the CRC calculation using the SPI_CalculateCRC() function.
 907:Libraries/STM32F4xx_StdPeriph_Driver/src/stm32f4xx_spi.c ****        (#@) Enable the CRC calculation using the SPI_CalculateCRC() function.
 908:Libraries/STM32F4xx_StdPeriph_Driver/src/stm32f4xx_spi.c ****        (#@) Enable SPI using the SPI_Cmd() function.
 909:Libraries/STM32F4xx_StdPeriph_Driver/src/stm32f4xx_spi.c **** 
 910:Libraries/STM32F4xx_StdPeriph_Driver/src/stm32f4xx_spi.c **** @endverbatim
 911:Libraries/STM32F4xx_StdPeriph_Driver/src/stm32f4xx_spi.c ****   * @{
 912:Libraries/STM32F4xx_StdPeriph_Driver/src/stm32f4xx_spi.c ****   */
 913:Libraries/STM32F4xx_StdPeriph_Driver/src/stm32f4xx_spi.c **** 
 914:Libraries/STM32F4xx_StdPeriph_Driver/src/stm32f4xx_spi.c **** /**
 915:Libraries/STM32F4xx_StdPeriph_Driver/src/stm32f4xx_spi.c ****   * @brief  Enables or disables the CRC value calculation of the transferred bytes.
 916:Libraries/STM32F4xx_StdPeriph_Driver/src/stm32f4xx_spi.c ****   * @param  SPIx: where x can be 1, 2, 3, 4, 5 or 6 to select the SPI peripheral.
 917:Libraries/STM32F4xx_StdPeriph_Driver/src/stm32f4xx_spi.c ****   * @param  NewState: new state of the SPIx CRC value calculation.
 918:Libraries/STM32F4xx_StdPeriph_Driver/src/stm32f4xx_spi.c ****   *          This parameter can be: ENABLE or DISABLE.
 919:Libraries/STM32F4xx_StdPeriph_Driver/src/stm32f4xx_spi.c ****   * @retval None
 920:Libraries/STM32F4xx_StdPeriph_Driver/src/stm32f4xx_spi.c ****   */
 921:Libraries/STM32F4xx_StdPeriph_Driver/src/stm32f4xx_spi.c **** void SPI_CalculateCRC(SPI_TypeDef* SPIx, FunctionalState NewState)
 922:Libraries/STM32F4xx_StdPeriph_Driver/src/stm32f4xx_spi.c **** {
 1087              		.loc 1 922 1 is_stmt 1 view -0
 1088              		.cfi_startproc
 1089              		@ args = 0, pretend = 0, frame = 0
 1090              		@ frame_needed = 0, uses_anonymous_args = 0
 1091              		@ link register save eliminated.
 923:Libraries/STM32F4xx_StdPeriph_Driver/src/stm32f4xx_spi.c ****   /* Check the parameters */
 924:Libraries/STM32F4xx_StdPeriph_Driver/src/stm32f4xx_spi.c ****   assert_param(IS_SPI_ALL_PERIPH(SPIx));
 1092              		.loc 1 924 3 view .LVU325
 925:Libraries/STM32F4xx_StdPeriph_Driver/src/stm32f4xx_spi.c ****   assert_param(IS_FUNCTIONAL_STATE(NewState));
 1093              		.loc 1 925 3 view .LVU326
 926:Libraries/STM32F4xx_StdPeriph_Driver/src/stm32f4xx_spi.c ****   if (NewState != DISABLE)
 1094              		.loc 1 926 3 view .LVU327
 1095              		.loc 1 926 6 is_stmt 0 view .LVU328
 1096 0000 29B1     		cbz	r1, .L66
 927:Libraries/STM32F4xx_StdPeriph_Driver/src/stm32f4xx_spi.c ****   {
 928:Libraries/STM32F4xx_StdPeriph_Driver/src/stm32f4xx_spi.c ****     /* Enable the selected SPI CRC calculation */
 929:Libraries/STM32F4xx_StdPeriph_Driver/src/stm32f4xx_spi.c ****     SPIx->CR1 |= SPI_CR1_CRCEN;
 1097              		.loc 1 929 5 is_stmt 1 view .LVU329
 1098              		.loc 1 929 15 is_stmt 0 view .LVU330
 1099 0002 0388     		ldrh	r3, [r0]
 1100 0004 9BB2     		uxth	r3, r3
 1101 0006 43F40053 		orr	r3, r3, #8192
 1102 000a 0380     		strh	r3, [r0]	@ movhi
 1103 000c 7047     		bx	lr
 1104              	.L66:
 930:Libraries/STM32F4xx_StdPeriph_Driver/src/stm32f4xx_spi.c ****   }
 931:Libraries/STM32F4xx_StdPeriph_Driver/src/stm32f4xx_spi.c ****   else
ARM GAS  /tmp/cceTBk2v.s 			page 37


 932:Libraries/STM32F4xx_StdPeriph_Driver/src/stm32f4xx_spi.c ****   {
 933:Libraries/STM32F4xx_StdPeriph_Driver/src/stm32f4xx_spi.c ****     /* Disable the selected SPI CRC calculation */
 934:Libraries/STM32F4xx_StdPeriph_Driver/src/stm32f4xx_spi.c ****     SPIx->CR1 &= (uint16_t)~((uint16_t)SPI_CR1_CRCEN);
 1105              		.loc 1 934 5 is_stmt 1 view .LVU331
 1106              		.loc 1 934 15 is_stmt 0 view .LVU332
 1107 000e 0388     		ldrh	r3, [r0]
 1108 0010 9BB2     		uxth	r3, r3
 1109 0012 23F40053 		bic	r3, r3, #8192
 1110 0016 9BB2     		uxth	r3, r3
 1111 0018 0380     		strh	r3, [r0]	@ movhi
 935:Libraries/STM32F4xx_StdPeriph_Driver/src/stm32f4xx_spi.c ****   }
 936:Libraries/STM32F4xx_StdPeriph_Driver/src/stm32f4xx_spi.c **** }
 1112              		.loc 1 936 1 view .LVU333
 1113 001a 7047     		bx	lr
 1114              		.cfi_endproc
 1115              	.LFE138:
 1117              		.section	.text.SPI_TransmitCRC,"ax",%progbits
 1118              		.align	1
 1119              		.global	SPI_TransmitCRC
 1120              		.syntax unified
 1121              		.thumb
 1122              		.thumb_func
 1123              		.fpu fpv4-sp-d16
 1125              	SPI_TransmitCRC:
 1126              	.LVL88:
 1127              	.LFB139:
 937:Libraries/STM32F4xx_StdPeriph_Driver/src/stm32f4xx_spi.c **** 
 938:Libraries/STM32F4xx_StdPeriph_Driver/src/stm32f4xx_spi.c **** /**
 939:Libraries/STM32F4xx_StdPeriph_Driver/src/stm32f4xx_spi.c ****   * @brief  Transmit the SPIx CRC value.
 940:Libraries/STM32F4xx_StdPeriph_Driver/src/stm32f4xx_spi.c ****   * @param  SPIx: where x can be 1, 2, 3, 4, 5 or 6 to select the SPI peripheral.
 941:Libraries/STM32F4xx_StdPeriph_Driver/src/stm32f4xx_spi.c ****   * @retval None
 942:Libraries/STM32F4xx_StdPeriph_Driver/src/stm32f4xx_spi.c ****   */
 943:Libraries/STM32F4xx_StdPeriph_Driver/src/stm32f4xx_spi.c **** void SPI_TransmitCRC(SPI_TypeDef* SPIx)
 944:Libraries/STM32F4xx_StdPeriph_Driver/src/stm32f4xx_spi.c **** {
 1128              		.loc 1 944 1 is_stmt 1 view -0
 1129              		.cfi_startproc
 1130              		@ args = 0, pretend = 0, frame = 0
 1131              		@ frame_needed = 0, uses_anonymous_args = 0
 1132              		@ link register save eliminated.
 945:Libraries/STM32F4xx_StdPeriph_Driver/src/stm32f4xx_spi.c ****   /* Check the parameters */
 946:Libraries/STM32F4xx_StdPeriph_Driver/src/stm32f4xx_spi.c ****   assert_param(IS_SPI_ALL_PERIPH(SPIx));
 1133              		.loc 1 946 3 view .LVU335
 947:Libraries/STM32F4xx_StdPeriph_Driver/src/stm32f4xx_spi.c ****   
 948:Libraries/STM32F4xx_StdPeriph_Driver/src/stm32f4xx_spi.c ****   /* Enable the selected SPI CRC transmission */
 949:Libraries/STM32F4xx_StdPeriph_Driver/src/stm32f4xx_spi.c ****   SPIx->CR1 |= SPI_CR1_CRCNEXT;
 1134              		.loc 1 949 3 view .LVU336
 1135              		.loc 1 949 13 is_stmt 0 view .LVU337
 1136 0000 0388     		ldrh	r3, [r0]
 1137 0002 9BB2     		uxth	r3, r3
 1138 0004 43F48053 		orr	r3, r3, #4096
 1139 0008 0380     		strh	r3, [r0]	@ movhi
 950:Libraries/STM32F4xx_StdPeriph_Driver/src/stm32f4xx_spi.c **** }
 1140              		.loc 1 950 1 view .LVU338
 1141 000a 7047     		bx	lr
 1142              		.cfi_endproc
 1143              	.LFE139:
 1145              		.section	.text.SPI_GetCRC,"ax",%progbits
ARM GAS  /tmp/cceTBk2v.s 			page 38


 1146              		.align	1
 1147              		.global	SPI_GetCRC
 1148              		.syntax unified
 1149              		.thumb
 1150              		.thumb_func
 1151              		.fpu fpv4-sp-d16
 1153              	SPI_GetCRC:
 1154              	.LVL89:
 1155              	.LFB140:
 951:Libraries/STM32F4xx_StdPeriph_Driver/src/stm32f4xx_spi.c **** 
 952:Libraries/STM32F4xx_StdPeriph_Driver/src/stm32f4xx_spi.c **** /**
 953:Libraries/STM32F4xx_StdPeriph_Driver/src/stm32f4xx_spi.c ****   * @brief  Returns the transmit or the receive CRC register value for the specified SPI.
 954:Libraries/STM32F4xx_StdPeriph_Driver/src/stm32f4xx_spi.c ****   * @param  SPIx: where x can be 1, 2, 3, 4, 5 or 6 to select the SPI peripheral.
 955:Libraries/STM32F4xx_StdPeriph_Driver/src/stm32f4xx_spi.c ****   * @param  SPI_CRC: specifies the CRC register to be read.
 956:Libraries/STM32F4xx_StdPeriph_Driver/src/stm32f4xx_spi.c ****   *          This parameter can be one of the following values:
 957:Libraries/STM32F4xx_StdPeriph_Driver/src/stm32f4xx_spi.c ****   *            @arg SPI_CRC_Tx: Selects Tx CRC register
 958:Libraries/STM32F4xx_StdPeriph_Driver/src/stm32f4xx_spi.c ****   *            @arg SPI_CRC_Rx: Selects Rx CRC register
 959:Libraries/STM32F4xx_StdPeriph_Driver/src/stm32f4xx_spi.c ****   * @retval The selected CRC register value..
 960:Libraries/STM32F4xx_StdPeriph_Driver/src/stm32f4xx_spi.c ****   */
 961:Libraries/STM32F4xx_StdPeriph_Driver/src/stm32f4xx_spi.c **** uint16_t SPI_GetCRC(SPI_TypeDef* SPIx, uint8_t SPI_CRC)
 962:Libraries/STM32F4xx_StdPeriph_Driver/src/stm32f4xx_spi.c **** {
 1156              		.loc 1 962 1 is_stmt 1 view -0
 1157              		.cfi_startproc
 1158              		@ args = 0, pretend = 0, frame = 0
 1159              		@ frame_needed = 0, uses_anonymous_args = 0
 1160              		@ link register save eliminated.
 963:Libraries/STM32F4xx_StdPeriph_Driver/src/stm32f4xx_spi.c ****   uint16_t crcreg = 0;
 1161              		.loc 1 963 3 view .LVU340
 964:Libraries/STM32F4xx_StdPeriph_Driver/src/stm32f4xx_spi.c ****   /* Check the parameters */
 965:Libraries/STM32F4xx_StdPeriph_Driver/src/stm32f4xx_spi.c ****   assert_param(IS_SPI_ALL_PERIPH(SPIx));
 1162              		.loc 1 965 3 view .LVU341
 966:Libraries/STM32F4xx_StdPeriph_Driver/src/stm32f4xx_spi.c ****   assert_param(IS_SPI_CRC(SPI_CRC));
 1163              		.loc 1 966 3 view .LVU342
 967:Libraries/STM32F4xx_StdPeriph_Driver/src/stm32f4xx_spi.c ****   if (SPI_CRC != SPI_CRC_Rx)
 1164              		.loc 1 967 3 view .LVU343
 1165              		.loc 1 967 6 is_stmt 0 view .LVU344
 1166 0000 0129     		cmp	r1, #1
 1167 0002 02D0     		beq	.L70
 968:Libraries/STM32F4xx_StdPeriph_Driver/src/stm32f4xx_spi.c ****   {
 969:Libraries/STM32F4xx_StdPeriph_Driver/src/stm32f4xx_spi.c ****     /* Get the Tx CRC register */
 970:Libraries/STM32F4xx_StdPeriph_Driver/src/stm32f4xx_spi.c ****     crcreg = SPIx->TXCRCR;
 1168              		.loc 1 970 5 is_stmt 1 view .LVU345
 1169              		.loc 1 970 12 is_stmt 0 view .LVU346
 1170 0004 008B     		ldrh	r0, [r0, #24]
 1171              	.LVL90:
 1172              		.loc 1 970 12 view .LVU347
 1173 0006 80B2     		uxth	r0, r0
 1174              	.LVL91:
 1175              		.loc 1 970 12 view .LVU348
 1176 0008 7047     		bx	lr
 1177              	.LVL92:
 1178              	.L70:
 971:Libraries/STM32F4xx_StdPeriph_Driver/src/stm32f4xx_spi.c ****   }
 972:Libraries/STM32F4xx_StdPeriph_Driver/src/stm32f4xx_spi.c ****   else
 973:Libraries/STM32F4xx_StdPeriph_Driver/src/stm32f4xx_spi.c ****   {
 974:Libraries/STM32F4xx_StdPeriph_Driver/src/stm32f4xx_spi.c ****     /* Get the Rx CRC register */
 975:Libraries/STM32F4xx_StdPeriph_Driver/src/stm32f4xx_spi.c ****     crcreg = SPIx->RXCRCR;
ARM GAS  /tmp/cceTBk2v.s 			page 39


 1179              		.loc 1 975 5 is_stmt 1 view .LVU349
 1180              		.loc 1 975 12 is_stmt 0 view .LVU350
 1181 000a 808A     		ldrh	r0, [r0, #20]
 1182              	.LVL93:
 1183              		.loc 1 975 12 view .LVU351
 1184 000c 80B2     		uxth	r0, r0
 1185              	.LVL94:
 976:Libraries/STM32F4xx_StdPeriph_Driver/src/stm32f4xx_spi.c ****   }
 977:Libraries/STM32F4xx_StdPeriph_Driver/src/stm32f4xx_spi.c ****   /* Return the selected CRC register */
 978:Libraries/STM32F4xx_StdPeriph_Driver/src/stm32f4xx_spi.c ****   return crcreg;
 1186              		.loc 1 978 3 is_stmt 1 view .LVU352
 979:Libraries/STM32F4xx_StdPeriph_Driver/src/stm32f4xx_spi.c **** }
 1187              		.loc 1 979 1 is_stmt 0 view .LVU353
 1188 000e 7047     		bx	lr
 1189              		.cfi_endproc
 1190              	.LFE140:
 1192              		.section	.text.SPI_GetCRCPolynomial,"ax",%progbits
 1193              		.align	1
 1194              		.global	SPI_GetCRCPolynomial
 1195              		.syntax unified
 1196              		.thumb
 1197              		.thumb_func
 1198              		.fpu fpv4-sp-d16
 1200              	SPI_GetCRCPolynomial:
 1201              	.LVL95:
 1202              	.LFB141:
 980:Libraries/STM32F4xx_StdPeriph_Driver/src/stm32f4xx_spi.c **** 
 981:Libraries/STM32F4xx_StdPeriph_Driver/src/stm32f4xx_spi.c **** /**
 982:Libraries/STM32F4xx_StdPeriph_Driver/src/stm32f4xx_spi.c ****   * @brief  Returns the CRC Polynomial register value for the specified SPI.
 983:Libraries/STM32F4xx_StdPeriph_Driver/src/stm32f4xx_spi.c ****   * @param  SPIx: where x can be 1, 2, 3, 4, 5 or 6 to select the SPI peripheral.
 984:Libraries/STM32F4xx_StdPeriph_Driver/src/stm32f4xx_spi.c ****   * @retval The CRC Polynomial register value.
 985:Libraries/STM32F4xx_StdPeriph_Driver/src/stm32f4xx_spi.c ****   */
 986:Libraries/STM32F4xx_StdPeriph_Driver/src/stm32f4xx_spi.c **** uint16_t SPI_GetCRCPolynomial(SPI_TypeDef* SPIx)
 987:Libraries/STM32F4xx_StdPeriph_Driver/src/stm32f4xx_spi.c **** {
 1203              		.loc 1 987 1 is_stmt 1 view -0
 1204              		.cfi_startproc
 1205              		@ args = 0, pretend = 0, frame = 0
 1206              		@ frame_needed = 0, uses_anonymous_args = 0
 1207              		@ link register save eliminated.
 988:Libraries/STM32F4xx_StdPeriph_Driver/src/stm32f4xx_spi.c ****   /* Check the parameters */
 989:Libraries/STM32F4xx_StdPeriph_Driver/src/stm32f4xx_spi.c ****   assert_param(IS_SPI_ALL_PERIPH(SPIx));
 1208              		.loc 1 989 3 view .LVU355
 990:Libraries/STM32F4xx_StdPeriph_Driver/src/stm32f4xx_spi.c ****   
 991:Libraries/STM32F4xx_StdPeriph_Driver/src/stm32f4xx_spi.c ****   /* Return the CRC polynomial register */
 992:Libraries/STM32F4xx_StdPeriph_Driver/src/stm32f4xx_spi.c ****   return SPIx->CRCPR;
 1209              		.loc 1 992 3 view .LVU356
 1210              		.loc 1 992 14 is_stmt 0 view .LVU357
 1211 0000 008A     		ldrh	r0, [r0, #16]
 1212              	.LVL96:
 993:Libraries/STM32F4xx_StdPeriph_Driver/src/stm32f4xx_spi.c **** }
 1213              		.loc 1 993 1 view .LVU358
 1214 0002 80B2     		uxth	r0, r0
 1215 0004 7047     		bx	lr
 1216              		.cfi_endproc
 1217              	.LFE141:
 1219              		.section	.text.SPI_I2S_DMACmd,"ax",%progbits
 1220              		.align	1
ARM GAS  /tmp/cceTBk2v.s 			page 40


 1221              		.global	SPI_I2S_DMACmd
 1222              		.syntax unified
 1223              		.thumb
 1224              		.thumb_func
 1225              		.fpu fpv4-sp-d16
 1227              	SPI_I2S_DMACmd:
 1228              	.LVL97:
 1229              	.LFB142:
 994:Libraries/STM32F4xx_StdPeriph_Driver/src/stm32f4xx_spi.c **** 
 995:Libraries/STM32F4xx_StdPeriph_Driver/src/stm32f4xx_spi.c **** /**
 996:Libraries/STM32F4xx_StdPeriph_Driver/src/stm32f4xx_spi.c ****   * @}
 997:Libraries/STM32F4xx_StdPeriph_Driver/src/stm32f4xx_spi.c ****   */
 998:Libraries/STM32F4xx_StdPeriph_Driver/src/stm32f4xx_spi.c **** 
 999:Libraries/STM32F4xx_StdPeriph_Driver/src/stm32f4xx_spi.c **** /** @defgroup SPI_Group4 DMA transfers management functions
1000:Libraries/STM32F4xx_StdPeriph_Driver/src/stm32f4xx_spi.c ****  *  @brief   DMA transfers management functions
1001:Libraries/STM32F4xx_StdPeriph_Driver/src/stm32f4xx_spi.c ****   *
1002:Libraries/STM32F4xx_StdPeriph_Driver/src/stm32f4xx_spi.c **** @verbatim   
1003:Libraries/STM32F4xx_StdPeriph_Driver/src/stm32f4xx_spi.c ****  ===============================================================================
1004:Libraries/STM32F4xx_StdPeriph_Driver/src/stm32f4xx_spi.c ****                    ##### DMA transfers management functions #####
1005:Libraries/STM32F4xx_StdPeriph_Driver/src/stm32f4xx_spi.c ****  ===============================================================================  
1006:Libraries/STM32F4xx_StdPeriph_Driver/src/stm32f4xx_spi.c **** 
1007:Libraries/STM32F4xx_StdPeriph_Driver/src/stm32f4xx_spi.c **** @endverbatim
1008:Libraries/STM32F4xx_StdPeriph_Driver/src/stm32f4xx_spi.c ****   * @{
1009:Libraries/STM32F4xx_StdPeriph_Driver/src/stm32f4xx_spi.c ****   */
1010:Libraries/STM32F4xx_StdPeriph_Driver/src/stm32f4xx_spi.c **** 
1011:Libraries/STM32F4xx_StdPeriph_Driver/src/stm32f4xx_spi.c **** /**
1012:Libraries/STM32F4xx_StdPeriph_Driver/src/stm32f4xx_spi.c ****   * @brief  Enables or disables the SPIx/I2Sx DMA interface.
1013:Libraries/STM32F4xx_StdPeriph_Driver/src/stm32f4xx_spi.c ****   * @param  SPIx: To select the SPIx/I2Sx peripheral, where x can be: 1, 2, 3, 4, 5 or 6 
1014:Libraries/STM32F4xx_StdPeriph_Driver/src/stm32f4xx_spi.c ****   *         in SPI mode or 2 or 3 in I2S mode or I2Sxext for I2S full duplex mode. 
1015:Libraries/STM32F4xx_StdPeriph_Driver/src/stm32f4xx_spi.c ****   * @param  SPI_I2S_DMAReq: specifies the SPI DMA transfer request to be enabled or disabled. 
1016:Libraries/STM32F4xx_StdPeriph_Driver/src/stm32f4xx_spi.c ****   *          This parameter can be any combination of the following values:
1017:Libraries/STM32F4xx_StdPeriph_Driver/src/stm32f4xx_spi.c ****   *            @arg SPI_I2S_DMAReq_Tx: Tx buffer DMA transfer request
1018:Libraries/STM32F4xx_StdPeriph_Driver/src/stm32f4xx_spi.c ****   *            @arg SPI_I2S_DMAReq_Rx: Rx buffer DMA transfer request
1019:Libraries/STM32F4xx_StdPeriph_Driver/src/stm32f4xx_spi.c ****   * @param  NewState: new state of the selected SPI DMA transfer request.
1020:Libraries/STM32F4xx_StdPeriph_Driver/src/stm32f4xx_spi.c ****   *          This parameter can be: ENABLE or DISABLE.
1021:Libraries/STM32F4xx_StdPeriph_Driver/src/stm32f4xx_spi.c ****   * @retval None
1022:Libraries/STM32F4xx_StdPeriph_Driver/src/stm32f4xx_spi.c ****   */
1023:Libraries/STM32F4xx_StdPeriph_Driver/src/stm32f4xx_spi.c **** void SPI_I2S_DMACmd(SPI_TypeDef* SPIx, uint16_t SPI_I2S_DMAReq, FunctionalState NewState)
1024:Libraries/STM32F4xx_StdPeriph_Driver/src/stm32f4xx_spi.c **** {
 1230              		.loc 1 1024 1 is_stmt 1 view -0
 1231              		.cfi_startproc
 1232              		@ args = 0, pretend = 0, frame = 0
 1233              		@ frame_needed = 0, uses_anonymous_args = 0
 1234              		@ link register save eliminated.
1025:Libraries/STM32F4xx_StdPeriph_Driver/src/stm32f4xx_spi.c ****   /* Check the parameters */
1026:Libraries/STM32F4xx_StdPeriph_Driver/src/stm32f4xx_spi.c ****   assert_param(IS_SPI_ALL_PERIPH_EXT(SPIx));
 1235              		.loc 1 1026 3 view .LVU360
1027:Libraries/STM32F4xx_StdPeriph_Driver/src/stm32f4xx_spi.c ****   assert_param(IS_FUNCTIONAL_STATE(NewState));
 1236              		.loc 1 1027 3 view .LVU361
1028:Libraries/STM32F4xx_StdPeriph_Driver/src/stm32f4xx_spi.c ****   assert_param(IS_SPI_I2S_DMAREQ(SPI_I2S_DMAReq));
 1237              		.loc 1 1028 3 view .LVU362
1029:Libraries/STM32F4xx_StdPeriph_Driver/src/stm32f4xx_spi.c **** 
1030:Libraries/STM32F4xx_StdPeriph_Driver/src/stm32f4xx_spi.c ****   if (NewState != DISABLE)
 1238              		.loc 1 1030 3 view .LVU363
 1239              		.loc 1 1030 6 is_stmt 0 view .LVU364
 1240 0000 22B1     		cbz	r2, .L74
1031:Libraries/STM32F4xx_StdPeriph_Driver/src/stm32f4xx_spi.c ****   {
ARM GAS  /tmp/cceTBk2v.s 			page 41


1032:Libraries/STM32F4xx_StdPeriph_Driver/src/stm32f4xx_spi.c ****     /* Enable the selected SPI DMA requests */
1033:Libraries/STM32F4xx_StdPeriph_Driver/src/stm32f4xx_spi.c ****     SPIx->CR2 |= SPI_I2S_DMAReq;
 1241              		.loc 1 1033 5 is_stmt 1 view .LVU365
 1242              		.loc 1 1033 15 is_stmt 0 view .LVU366
 1243 0002 8388     		ldrh	r3, [r0, #4]
 1244 0004 9BB2     		uxth	r3, r3
 1245 0006 1943     		orrs	r1, r1, r3
 1246              	.LVL98:
 1247              		.loc 1 1033 15 view .LVU367
 1248 0008 8180     		strh	r1, [r0, #4]	@ movhi
 1249 000a 7047     		bx	lr
 1250              	.LVL99:
 1251              	.L74:
1034:Libraries/STM32F4xx_StdPeriph_Driver/src/stm32f4xx_spi.c ****   }
1035:Libraries/STM32F4xx_StdPeriph_Driver/src/stm32f4xx_spi.c ****   else
1036:Libraries/STM32F4xx_StdPeriph_Driver/src/stm32f4xx_spi.c ****   {
1037:Libraries/STM32F4xx_StdPeriph_Driver/src/stm32f4xx_spi.c ****     /* Disable the selected SPI DMA requests */
1038:Libraries/STM32F4xx_StdPeriph_Driver/src/stm32f4xx_spi.c ****     SPIx->CR2 &= (uint16_t)~SPI_I2S_DMAReq;
 1252              		.loc 1 1038 5 is_stmt 1 view .LVU368
 1253              		.loc 1 1038 15 is_stmt 0 view .LVU369
 1254 000c 8388     		ldrh	r3, [r0, #4]
 1255              		.loc 1 1038 18 view .LVU370
 1256 000e C943     		mvns	r1, r1
 1257              	.LVL100:
 1258              		.loc 1 1038 18 view .LVU371
 1259 0010 89B2     		uxth	r1, r1
 1260              		.loc 1 1038 15 view .LVU372
 1261 0012 1940     		ands	r1, r1, r3
 1262 0014 8180     		strh	r1, [r0, #4]	@ movhi
1039:Libraries/STM32F4xx_StdPeriph_Driver/src/stm32f4xx_spi.c ****   }
1040:Libraries/STM32F4xx_StdPeriph_Driver/src/stm32f4xx_spi.c **** }
 1263              		.loc 1 1040 1 view .LVU373
 1264 0016 7047     		bx	lr
 1265              		.cfi_endproc
 1266              	.LFE142:
 1268              		.section	.text.SPI_I2S_ITConfig,"ax",%progbits
 1269              		.align	1
 1270              		.global	SPI_I2S_ITConfig
 1271              		.syntax unified
 1272              		.thumb
 1273              		.thumb_func
 1274              		.fpu fpv4-sp-d16
 1276              	SPI_I2S_ITConfig:
 1277              	.LVL101:
 1278              	.LFB143:
1041:Libraries/STM32F4xx_StdPeriph_Driver/src/stm32f4xx_spi.c **** 
1042:Libraries/STM32F4xx_StdPeriph_Driver/src/stm32f4xx_spi.c **** /**
1043:Libraries/STM32F4xx_StdPeriph_Driver/src/stm32f4xx_spi.c ****   * @}
1044:Libraries/STM32F4xx_StdPeriph_Driver/src/stm32f4xx_spi.c ****   */
1045:Libraries/STM32F4xx_StdPeriph_Driver/src/stm32f4xx_spi.c **** 
1046:Libraries/STM32F4xx_StdPeriph_Driver/src/stm32f4xx_spi.c **** /** @defgroup SPI_Group5 Interrupts and flags management functions
1047:Libraries/STM32F4xx_StdPeriph_Driver/src/stm32f4xx_spi.c ****  *  @brief   Interrupts and flags management functions
1048:Libraries/STM32F4xx_StdPeriph_Driver/src/stm32f4xx_spi.c ****   *
1049:Libraries/STM32F4xx_StdPeriph_Driver/src/stm32f4xx_spi.c **** @verbatim   
1050:Libraries/STM32F4xx_StdPeriph_Driver/src/stm32f4xx_spi.c ****  ===============================================================================
1051:Libraries/STM32F4xx_StdPeriph_Driver/src/stm32f4xx_spi.c ****             ##### Interrupts and flags management functions #####
1052:Libraries/STM32F4xx_StdPeriph_Driver/src/stm32f4xx_spi.c ****  ===============================================================================  
ARM GAS  /tmp/cceTBk2v.s 			page 42


1053:Libraries/STM32F4xx_StdPeriph_Driver/src/stm32f4xx_spi.c ****  
1054:Libraries/STM32F4xx_StdPeriph_Driver/src/stm32f4xx_spi.c ****  [..] This section provides a set of functions allowing to configure the SPI Interrupts 
1055:Libraries/STM32F4xx_StdPeriph_Driver/src/stm32f4xx_spi.c ****       sources and check or clear the flags or pending bits status.
1056:Libraries/STM32F4xx_StdPeriph_Driver/src/stm32f4xx_spi.c ****       The user should identify which mode will be used in his application to manage 
1057:Libraries/STM32F4xx_StdPeriph_Driver/src/stm32f4xx_spi.c ****       the communication: Polling mode, Interrupt mode or DMA mode. 
1058:Libraries/STM32F4xx_StdPeriph_Driver/src/stm32f4xx_spi.c ****     
1059:Libraries/STM32F4xx_StdPeriph_Driver/src/stm32f4xx_spi.c ****  *** Polling Mode ***
1060:Libraries/STM32F4xx_StdPeriph_Driver/src/stm32f4xx_spi.c ****  ====================
1061:Libraries/STM32F4xx_StdPeriph_Driver/src/stm32f4xx_spi.c **** [..] In Polling Mode, the SPI/I2S communication can be managed by 9 flags:
1062:Libraries/STM32F4xx_StdPeriph_Driver/src/stm32f4xx_spi.c ****   (#) SPI_I2S_FLAG_TXE : to indicate the status of the transmit buffer register
1063:Libraries/STM32F4xx_StdPeriph_Driver/src/stm32f4xx_spi.c ****   (#) SPI_I2S_FLAG_RXNE : to indicate the status of the receive buffer register
1064:Libraries/STM32F4xx_StdPeriph_Driver/src/stm32f4xx_spi.c ****   (#) SPI_I2S_FLAG_BSY : to indicate the state of the communication layer of the SPI.
1065:Libraries/STM32F4xx_StdPeriph_Driver/src/stm32f4xx_spi.c ****   (#) SPI_FLAG_CRCERR : to indicate if a CRC Calculation error occur              
1066:Libraries/STM32F4xx_StdPeriph_Driver/src/stm32f4xx_spi.c ****   (#) SPI_FLAG_MODF : to indicate if a Mode Fault error occur
1067:Libraries/STM32F4xx_StdPeriph_Driver/src/stm32f4xx_spi.c ****   (#) SPI_I2S_FLAG_OVR : to indicate if an Overrun error occur
1068:Libraries/STM32F4xx_StdPeriph_Driver/src/stm32f4xx_spi.c ****   (#) I2S_FLAG_TIFRFE: to indicate a Frame Format error occurs.
1069:Libraries/STM32F4xx_StdPeriph_Driver/src/stm32f4xx_spi.c ****   (#) I2S_FLAG_UDR: to indicate an Underrun error occurs.
1070:Libraries/STM32F4xx_StdPeriph_Driver/src/stm32f4xx_spi.c ****   (#) I2S_FLAG_CHSIDE: to indicate Channel Side.
1071:Libraries/STM32F4xx_StdPeriph_Driver/src/stm32f4xx_spi.c **** 
1072:Libraries/STM32F4xx_StdPeriph_Driver/src/stm32f4xx_spi.c ****   (@) Do not use the BSY flag to handle each data transmission or reception. It is
1073:Libraries/STM32F4xx_StdPeriph_Driver/src/stm32f4xx_spi.c ****       better to use the TXE and RXNE flags instead.
1074:Libraries/STM32F4xx_StdPeriph_Driver/src/stm32f4xx_spi.c **** 
1075:Libraries/STM32F4xx_StdPeriph_Driver/src/stm32f4xx_spi.c ****  [..] In this Mode it is advised to use the following functions:
1076:Libraries/STM32F4xx_StdPeriph_Driver/src/stm32f4xx_spi.c ****    (+) FlagStatus SPI_I2S_GetFlagStatus(SPI_TypeDef* SPIx, uint16_t SPI_I2S_FLAG);
1077:Libraries/STM32F4xx_StdPeriph_Driver/src/stm32f4xx_spi.c ****    (+) void SPI_I2S_ClearFlag(SPI_TypeDef* SPIx, uint16_t SPI_I2S_FLAG);
1078:Libraries/STM32F4xx_StdPeriph_Driver/src/stm32f4xx_spi.c **** 
1079:Libraries/STM32F4xx_StdPeriph_Driver/src/stm32f4xx_spi.c ****  *** Interrupt Mode ***
1080:Libraries/STM32F4xx_StdPeriph_Driver/src/stm32f4xx_spi.c ****  ======================
1081:Libraries/STM32F4xx_StdPeriph_Driver/src/stm32f4xx_spi.c ****  [..] In Interrupt Mode, the SPI communication can be managed by 3 interrupt sources
1082:Libraries/STM32F4xx_StdPeriph_Driver/src/stm32f4xx_spi.c ****       and 7 pending bits: 
1083:Libraries/STM32F4xx_StdPeriph_Driver/src/stm32f4xx_spi.c ****    (+) Pending Bits:
1084:Libraries/STM32F4xx_StdPeriph_Driver/src/stm32f4xx_spi.c ****        (##) SPI_I2S_IT_TXE : to indicate the status of the transmit buffer register
1085:Libraries/STM32F4xx_StdPeriph_Driver/src/stm32f4xx_spi.c ****        (##) SPI_I2S_IT_RXNE : to indicate the status of the receive buffer register
1086:Libraries/STM32F4xx_StdPeriph_Driver/src/stm32f4xx_spi.c ****        (##) SPI_IT_CRCERR : to indicate if a CRC Calculation error occur (available in SPI mode onl
1087:Libraries/STM32F4xx_StdPeriph_Driver/src/stm32f4xx_spi.c ****        (##) SPI_IT_MODF : to indicate if a Mode Fault error occur (available in SPI mode only)
1088:Libraries/STM32F4xx_StdPeriph_Driver/src/stm32f4xx_spi.c ****        (##) SPI_I2S_IT_OVR : to indicate if an Overrun error occur
1089:Libraries/STM32F4xx_StdPeriph_Driver/src/stm32f4xx_spi.c ****        (##) I2S_IT_UDR : to indicate an Underrun Error occurs (available in I2S mode only).
1090:Libraries/STM32F4xx_StdPeriph_Driver/src/stm32f4xx_spi.c ****        (##) I2S_FLAG_TIFRFE : to indicate a Frame Format error occurs (available in TI mode only).
1091:Libraries/STM32F4xx_StdPeriph_Driver/src/stm32f4xx_spi.c **** 
1092:Libraries/STM32F4xx_StdPeriph_Driver/src/stm32f4xx_spi.c ****    (+) Interrupt Source:
1093:Libraries/STM32F4xx_StdPeriph_Driver/src/stm32f4xx_spi.c ****        (##) SPI_I2S_IT_TXE: specifies the interrupt source for the Tx buffer empty 
1094:Libraries/STM32F4xx_StdPeriph_Driver/src/stm32f4xx_spi.c ****             interrupt.  
1095:Libraries/STM32F4xx_StdPeriph_Driver/src/stm32f4xx_spi.c ****        (##) SPI_I2S_IT_RXNE : specifies the interrupt source for the Rx buffer not 
1096:Libraries/STM32F4xx_StdPeriph_Driver/src/stm32f4xx_spi.c ****             empty interrupt.
1097:Libraries/STM32F4xx_StdPeriph_Driver/src/stm32f4xx_spi.c ****        (##) SPI_I2S_IT_ERR : specifies the interrupt source for the errors interrupt.
1098:Libraries/STM32F4xx_StdPeriph_Driver/src/stm32f4xx_spi.c **** 
1099:Libraries/STM32F4xx_StdPeriph_Driver/src/stm32f4xx_spi.c ****  [..] In this Mode it is advised to use the following functions:
1100:Libraries/STM32F4xx_StdPeriph_Driver/src/stm32f4xx_spi.c ****    (+) void SPI_I2S_ITConfig(SPI_TypeDef* SPIx, uint8_t SPI_I2S_IT, FunctionalState NewState);
1101:Libraries/STM32F4xx_StdPeriph_Driver/src/stm32f4xx_spi.c ****    (+) ITStatus SPI_I2S_GetITStatus(SPI_TypeDef* SPIx, uint8_t SPI_I2S_IT);
1102:Libraries/STM32F4xx_StdPeriph_Driver/src/stm32f4xx_spi.c ****    (+) void SPI_I2S_ClearITPendingBit(SPI_TypeDef* SPIx, uint8_t SPI_I2S_IT);
1103:Libraries/STM32F4xx_StdPeriph_Driver/src/stm32f4xx_spi.c **** 
1104:Libraries/STM32F4xx_StdPeriph_Driver/src/stm32f4xx_spi.c ****  *** DMA Mode ***
1105:Libraries/STM32F4xx_StdPeriph_Driver/src/stm32f4xx_spi.c ****  ================
1106:Libraries/STM32F4xx_StdPeriph_Driver/src/stm32f4xx_spi.c ****  [..] In DMA Mode, the SPI communication can be managed by 2 DMA Channel requests:
1107:Libraries/STM32F4xx_StdPeriph_Driver/src/stm32f4xx_spi.c ****    (#) SPI_I2S_DMAReq_Tx: specifies the Tx buffer DMA transfer request
1108:Libraries/STM32F4xx_StdPeriph_Driver/src/stm32f4xx_spi.c ****    (#) SPI_I2S_DMAReq_Rx: specifies the Rx buffer DMA transfer request
1109:Libraries/STM32F4xx_StdPeriph_Driver/src/stm32f4xx_spi.c **** 
ARM GAS  /tmp/cceTBk2v.s 			page 43


1110:Libraries/STM32F4xx_StdPeriph_Driver/src/stm32f4xx_spi.c ****  [..] In this Mode it is advised to use the following function:
1111:Libraries/STM32F4xx_StdPeriph_Driver/src/stm32f4xx_spi.c ****    (+) void SPI_I2S_DMACmd(SPI_TypeDef* SPIx, uint16_t SPI_I2S_DMAReq, FunctionalState 
1112:Libraries/STM32F4xx_StdPeriph_Driver/src/stm32f4xx_spi.c ****        NewState);
1113:Libraries/STM32F4xx_StdPeriph_Driver/src/stm32f4xx_spi.c **** 
1114:Libraries/STM32F4xx_StdPeriph_Driver/src/stm32f4xx_spi.c **** @endverbatim
1115:Libraries/STM32F4xx_StdPeriph_Driver/src/stm32f4xx_spi.c ****   * @{
1116:Libraries/STM32F4xx_StdPeriph_Driver/src/stm32f4xx_spi.c ****   */
1117:Libraries/STM32F4xx_StdPeriph_Driver/src/stm32f4xx_spi.c **** 
1118:Libraries/STM32F4xx_StdPeriph_Driver/src/stm32f4xx_spi.c **** /**
1119:Libraries/STM32F4xx_StdPeriph_Driver/src/stm32f4xx_spi.c ****   * @brief  Enables or disables the specified SPI/I2S interrupts.
1120:Libraries/STM32F4xx_StdPeriph_Driver/src/stm32f4xx_spi.c ****   * @param  SPIx: To select the SPIx/I2Sx peripheral, where x can be: 1, 2, 3, 4, 5 or 6 
1121:Libraries/STM32F4xx_StdPeriph_Driver/src/stm32f4xx_spi.c ****   *         in SPI mode or 2 or 3 in I2S mode or I2Sxext for I2S full duplex mode. 
1122:Libraries/STM32F4xx_StdPeriph_Driver/src/stm32f4xx_spi.c ****   * @param  SPI_I2S_IT: specifies the SPI interrupt source to be enabled or disabled. 
1123:Libraries/STM32F4xx_StdPeriph_Driver/src/stm32f4xx_spi.c ****   *          This parameter can be one of the following values:
1124:Libraries/STM32F4xx_StdPeriph_Driver/src/stm32f4xx_spi.c ****   *            @arg SPI_I2S_IT_TXE: Tx buffer empty interrupt mask
1125:Libraries/STM32F4xx_StdPeriph_Driver/src/stm32f4xx_spi.c ****   *            @arg SPI_I2S_IT_RXNE: Rx buffer not empty interrupt mask
1126:Libraries/STM32F4xx_StdPeriph_Driver/src/stm32f4xx_spi.c ****   *            @arg SPI_I2S_IT_ERR: Error interrupt mask
1127:Libraries/STM32F4xx_StdPeriph_Driver/src/stm32f4xx_spi.c ****   * @param  NewState: new state of the specified SPI interrupt.
1128:Libraries/STM32F4xx_StdPeriph_Driver/src/stm32f4xx_spi.c ****   *          This parameter can be: ENABLE or DISABLE.
1129:Libraries/STM32F4xx_StdPeriph_Driver/src/stm32f4xx_spi.c ****   * @retval None
1130:Libraries/STM32F4xx_StdPeriph_Driver/src/stm32f4xx_spi.c ****   */
1131:Libraries/STM32F4xx_StdPeriph_Driver/src/stm32f4xx_spi.c **** void SPI_I2S_ITConfig(SPI_TypeDef* SPIx, uint8_t SPI_I2S_IT, FunctionalState NewState)
1132:Libraries/STM32F4xx_StdPeriph_Driver/src/stm32f4xx_spi.c **** {
 1279              		.loc 1 1132 1 is_stmt 1 view -0
 1280              		.cfi_startproc
 1281              		@ args = 0, pretend = 0, frame = 0
 1282              		@ frame_needed = 0, uses_anonymous_args = 0
 1283              		@ link register save eliminated.
1133:Libraries/STM32F4xx_StdPeriph_Driver/src/stm32f4xx_spi.c ****   uint16_t itpos = 0, itmask = 0 ;
 1284              		.loc 1 1133 3 view .LVU375
1134:Libraries/STM32F4xx_StdPeriph_Driver/src/stm32f4xx_spi.c ****   
1135:Libraries/STM32F4xx_StdPeriph_Driver/src/stm32f4xx_spi.c ****   /* Check the parameters */
1136:Libraries/STM32F4xx_StdPeriph_Driver/src/stm32f4xx_spi.c ****   assert_param(IS_SPI_ALL_PERIPH_EXT(SPIx));
 1285              		.loc 1 1136 3 view .LVU376
1137:Libraries/STM32F4xx_StdPeriph_Driver/src/stm32f4xx_spi.c ****   assert_param(IS_FUNCTIONAL_STATE(NewState));
 1286              		.loc 1 1137 3 view .LVU377
1138:Libraries/STM32F4xx_StdPeriph_Driver/src/stm32f4xx_spi.c ****   assert_param(IS_SPI_I2S_CONFIG_IT(SPI_I2S_IT));
 1287              		.loc 1 1138 3 view .LVU378
1139:Libraries/STM32F4xx_StdPeriph_Driver/src/stm32f4xx_spi.c **** 
1140:Libraries/STM32F4xx_StdPeriph_Driver/src/stm32f4xx_spi.c ****   /* Get the SPI IT index */
1141:Libraries/STM32F4xx_StdPeriph_Driver/src/stm32f4xx_spi.c ****   itpos = SPI_I2S_IT >> 4;
 1288              		.loc 1 1141 3 view .LVU379
 1289              		.loc 1 1141 9 is_stmt 0 view .LVU380
 1290 0000 0B09     		lsrs	r3, r1, #4
 1291              	.LVL102:
1142:Libraries/STM32F4xx_StdPeriph_Driver/src/stm32f4xx_spi.c **** 
1143:Libraries/STM32F4xx_StdPeriph_Driver/src/stm32f4xx_spi.c ****   /* Set the IT mask */
1144:Libraries/STM32F4xx_StdPeriph_Driver/src/stm32f4xx_spi.c ****   itmask = (uint16_t)1 << (uint16_t)itpos;
 1292              		.loc 1 1144 3 is_stmt 1 view .LVU381
 1293              		.loc 1 1144 24 is_stmt 0 view .LVU382
 1294 0002 0121     		movs	r1, #1
 1295              	.LVL103:
 1296              		.loc 1 1144 24 view .LVU383
 1297 0004 9940     		lsls	r1, r1, r3
 1298              		.loc 1 1144 10 view .LVU384
 1299 0006 89B2     		uxth	r1, r1
 1300              	.LVL104:
ARM GAS  /tmp/cceTBk2v.s 			page 44


1145:Libraries/STM32F4xx_StdPeriph_Driver/src/stm32f4xx_spi.c **** 
1146:Libraries/STM32F4xx_StdPeriph_Driver/src/stm32f4xx_spi.c ****   if (NewState != DISABLE)
 1301              		.loc 1 1146 3 is_stmt 1 view .LVU385
 1302              		.loc 1 1146 6 is_stmt 0 view .LVU386
 1303 0008 22B1     		cbz	r2, .L77
1147:Libraries/STM32F4xx_StdPeriph_Driver/src/stm32f4xx_spi.c ****   {
1148:Libraries/STM32F4xx_StdPeriph_Driver/src/stm32f4xx_spi.c ****     /* Enable the selected SPI interrupt */
1149:Libraries/STM32F4xx_StdPeriph_Driver/src/stm32f4xx_spi.c ****     SPIx->CR2 |= itmask;
 1304              		.loc 1 1149 5 is_stmt 1 view .LVU387
 1305              		.loc 1 1149 15 is_stmt 0 view .LVU388
 1306 000a 8388     		ldrh	r3, [r0, #4]
 1307              	.LVL105:
 1308              		.loc 1 1149 15 view .LVU389
 1309 000c 9BB2     		uxth	r3, r3
 1310 000e 1943     		orrs	r1, r1, r3
 1311              	.LVL106:
 1312              		.loc 1 1149 15 view .LVU390
 1313 0010 8180     		strh	r1, [r0, #4]	@ movhi
 1314 0012 7047     		bx	lr
 1315              	.LVL107:
 1316              	.L77:
1150:Libraries/STM32F4xx_StdPeriph_Driver/src/stm32f4xx_spi.c ****   }
1151:Libraries/STM32F4xx_StdPeriph_Driver/src/stm32f4xx_spi.c ****   else
1152:Libraries/STM32F4xx_StdPeriph_Driver/src/stm32f4xx_spi.c ****   {
1153:Libraries/STM32F4xx_StdPeriph_Driver/src/stm32f4xx_spi.c ****     /* Disable the selected SPI interrupt */
1154:Libraries/STM32F4xx_StdPeriph_Driver/src/stm32f4xx_spi.c ****     SPIx->CR2 &= (uint16_t)~itmask;
 1317              		.loc 1 1154 5 is_stmt 1 view .LVU391
 1318              		.loc 1 1154 15 is_stmt 0 view .LVU392
 1319 0014 8388     		ldrh	r3, [r0, #4]
 1320              	.LVL108:
 1321              		.loc 1 1154 18 view .LVU393
 1322 0016 C943     		mvns	r1, r1
 1323              	.LVL109:
 1324              		.loc 1 1154 18 view .LVU394
 1325 0018 89B2     		uxth	r1, r1
 1326              	.LVL110:
 1327              		.loc 1 1154 15 view .LVU395
 1328 001a 1940     		ands	r1, r1, r3
 1329 001c 8180     		strh	r1, [r0, #4]	@ movhi
1155:Libraries/STM32F4xx_StdPeriph_Driver/src/stm32f4xx_spi.c ****   }
1156:Libraries/STM32F4xx_StdPeriph_Driver/src/stm32f4xx_spi.c **** }
 1330              		.loc 1 1156 1 view .LVU396
 1331 001e 7047     		bx	lr
 1332              		.cfi_endproc
 1333              	.LFE143:
 1335              		.section	.text.SPI_I2S_GetFlagStatus,"ax",%progbits
 1336              		.align	1
 1337              		.global	SPI_I2S_GetFlagStatus
 1338              		.syntax unified
 1339              		.thumb
 1340              		.thumb_func
 1341              		.fpu fpv4-sp-d16
 1343              	SPI_I2S_GetFlagStatus:
 1344              	.LVL111:
 1345              	.LFB144:
1157:Libraries/STM32F4xx_StdPeriph_Driver/src/stm32f4xx_spi.c **** 
1158:Libraries/STM32F4xx_StdPeriph_Driver/src/stm32f4xx_spi.c **** /**
ARM GAS  /tmp/cceTBk2v.s 			page 45


1159:Libraries/STM32F4xx_StdPeriph_Driver/src/stm32f4xx_spi.c ****   * @brief  Checks whether the specified SPIx/I2Sx flag is set or not.
1160:Libraries/STM32F4xx_StdPeriph_Driver/src/stm32f4xx_spi.c ****   * @param  SPIx: To select the SPIx/I2Sx peripheral, where x can be: 1, 2, 3, 4, 5 or 6 
1161:Libraries/STM32F4xx_StdPeriph_Driver/src/stm32f4xx_spi.c ****   *         in SPI mode or 2 or 3 in I2S mode or I2Sxext for I2S full duplex mode. 
1162:Libraries/STM32F4xx_StdPeriph_Driver/src/stm32f4xx_spi.c ****   * @param  SPI_I2S_FLAG: specifies the SPI flag to check. 
1163:Libraries/STM32F4xx_StdPeriph_Driver/src/stm32f4xx_spi.c ****   *          This parameter can be one of the following values:
1164:Libraries/STM32F4xx_StdPeriph_Driver/src/stm32f4xx_spi.c ****   *            @arg SPI_I2S_FLAG_TXE: Transmit buffer empty flag.
1165:Libraries/STM32F4xx_StdPeriph_Driver/src/stm32f4xx_spi.c ****   *            @arg SPI_I2S_FLAG_RXNE: Receive buffer not empty flag.
1166:Libraries/STM32F4xx_StdPeriph_Driver/src/stm32f4xx_spi.c ****   *            @arg SPI_I2S_FLAG_BSY: Busy flag.
1167:Libraries/STM32F4xx_StdPeriph_Driver/src/stm32f4xx_spi.c ****   *            @arg SPI_I2S_FLAG_OVR: Overrun flag.
1168:Libraries/STM32F4xx_StdPeriph_Driver/src/stm32f4xx_spi.c ****   *            @arg SPI_FLAG_MODF: Mode Fault flag.
1169:Libraries/STM32F4xx_StdPeriph_Driver/src/stm32f4xx_spi.c ****   *            @arg SPI_FLAG_CRCERR: CRC Error flag.
1170:Libraries/STM32F4xx_StdPeriph_Driver/src/stm32f4xx_spi.c ****   *            @arg SPI_I2S_FLAG_TIFRFE: Format Error.
1171:Libraries/STM32F4xx_StdPeriph_Driver/src/stm32f4xx_spi.c ****   *            @arg I2S_FLAG_UDR: Underrun Error flag.
1172:Libraries/STM32F4xx_StdPeriph_Driver/src/stm32f4xx_spi.c ****   *            @arg I2S_FLAG_CHSIDE: Channel Side flag.  
1173:Libraries/STM32F4xx_StdPeriph_Driver/src/stm32f4xx_spi.c ****   * @retval The new state of SPI_I2S_FLAG (SET or RESET).
1174:Libraries/STM32F4xx_StdPeriph_Driver/src/stm32f4xx_spi.c ****   */
1175:Libraries/STM32F4xx_StdPeriph_Driver/src/stm32f4xx_spi.c **** FlagStatus SPI_I2S_GetFlagStatus(SPI_TypeDef* SPIx, uint16_t SPI_I2S_FLAG)
1176:Libraries/STM32F4xx_StdPeriph_Driver/src/stm32f4xx_spi.c **** {
 1346              		.loc 1 1176 1 is_stmt 1 view -0
 1347              		.cfi_startproc
 1348              		@ args = 0, pretend = 0, frame = 0
 1349              		@ frame_needed = 0, uses_anonymous_args = 0
 1350              		@ link register save eliminated.
1177:Libraries/STM32F4xx_StdPeriph_Driver/src/stm32f4xx_spi.c ****   FlagStatus bitstatus = RESET;
 1351              		.loc 1 1177 3 view .LVU398
1178:Libraries/STM32F4xx_StdPeriph_Driver/src/stm32f4xx_spi.c ****   /* Check the parameters */
1179:Libraries/STM32F4xx_StdPeriph_Driver/src/stm32f4xx_spi.c ****   assert_param(IS_SPI_ALL_PERIPH_EXT(SPIx));
 1352              		.loc 1 1179 3 view .LVU399
1180:Libraries/STM32F4xx_StdPeriph_Driver/src/stm32f4xx_spi.c ****   assert_param(IS_SPI_I2S_GET_FLAG(SPI_I2S_FLAG));
 1353              		.loc 1 1180 3 view .LVU400
1181:Libraries/STM32F4xx_StdPeriph_Driver/src/stm32f4xx_spi.c ****   
1182:Libraries/STM32F4xx_StdPeriph_Driver/src/stm32f4xx_spi.c ****   /* Check the status of the specified SPI flag */
1183:Libraries/STM32F4xx_StdPeriph_Driver/src/stm32f4xx_spi.c ****   if ((SPIx->SR & SPI_I2S_FLAG) != (uint16_t)RESET)
 1354              		.loc 1 1183 3 view .LVU401
 1355              		.loc 1 1183 12 is_stmt 0 view .LVU402
 1356 0000 0389     		ldrh	r3, [r0, #8]
 1357              		.loc 1 1183 6 view .LVU403
 1358 0002 1942     		tst	r1, r3
 1359 0004 01D0     		beq	.L81
1184:Libraries/STM32F4xx_StdPeriph_Driver/src/stm32f4xx_spi.c ****   {
1185:Libraries/STM32F4xx_StdPeriph_Driver/src/stm32f4xx_spi.c ****     /* SPI_I2S_FLAG is set */
1186:Libraries/STM32F4xx_StdPeriph_Driver/src/stm32f4xx_spi.c ****     bitstatus = SET;
 1360              		.loc 1 1186 15 view .LVU404
 1361 0006 0120     		movs	r0, #1
 1362              	.LVL112:
 1363              		.loc 1 1186 15 view .LVU405
 1364 0008 7047     		bx	lr
 1365              	.LVL113:
 1366              	.L81:
1187:Libraries/STM32F4xx_StdPeriph_Driver/src/stm32f4xx_spi.c ****   }
1188:Libraries/STM32F4xx_StdPeriph_Driver/src/stm32f4xx_spi.c ****   else
1189:Libraries/STM32F4xx_StdPeriph_Driver/src/stm32f4xx_spi.c ****   {
1190:Libraries/STM32F4xx_StdPeriph_Driver/src/stm32f4xx_spi.c ****     /* SPI_I2S_FLAG is reset */
1191:Libraries/STM32F4xx_StdPeriph_Driver/src/stm32f4xx_spi.c ****     bitstatus = RESET;
 1367              		.loc 1 1191 15 view .LVU406
 1368 000a 0020     		movs	r0, #0
 1369              	.LVL114:
ARM GAS  /tmp/cceTBk2v.s 			page 46


1192:Libraries/STM32F4xx_StdPeriph_Driver/src/stm32f4xx_spi.c ****   }
1193:Libraries/STM32F4xx_StdPeriph_Driver/src/stm32f4xx_spi.c ****   /* Return the SPI_I2S_FLAG status */
1194:Libraries/STM32F4xx_StdPeriph_Driver/src/stm32f4xx_spi.c ****   return  bitstatus;
 1370              		.loc 1 1194 3 is_stmt 1 view .LVU407
1195:Libraries/STM32F4xx_StdPeriph_Driver/src/stm32f4xx_spi.c **** }
 1371              		.loc 1 1195 1 is_stmt 0 view .LVU408
 1372 000c 7047     		bx	lr
 1373              		.cfi_endproc
 1374              	.LFE144:
 1376              		.section	.text.SPI_I2S_ClearFlag,"ax",%progbits
 1377              		.align	1
 1378              		.global	SPI_I2S_ClearFlag
 1379              		.syntax unified
 1380              		.thumb
 1381              		.thumb_func
 1382              		.fpu fpv4-sp-d16
 1384              	SPI_I2S_ClearFlag:
 1385              	.LVL115:
 1386              	.LFB145:
1196:Libraries/STM32F4xx_StdPeriph_Driver/src/stm32f4xx_spi.c **** 
1197:Libraries/STM32F4xx_StdPeriph_Driver/src/stm32f4xx_spi.c **** /**
1198:Libraries/STM32F4xx_StdPeriph_Driver/src/stm32f4xx_spi.c ****   * @brief  Clears the SPIx CRC Error (CRCERR) flag.
1199:Libraries/STM32F4xx_StdPeriph_Driver/src/stm32f4xx_spi.c ****   * @param  SPIx: To select the SPIx/I2Sx peripheral, where x can be: 1, 2, 3, 4, 5 or 6 
1200:Libraries/STM32F4xx_StdPeriph_Driver/src/stm32f4xx_spi.c ****   *         in SPI mode or 2 or 3 in I2S mode or I2Sxext for I2S full duplex mode. 
1201:Libraries/STM32F4xx_StdPeriph_Driver/src/stm32f4xx_spi.c ****   * @param  SPI_I2S_FLAG: specifies the SPI flag to clear. 
1202:Libraries/STM32F4xx_StdPeriph_Driver/src/stm32f4xx_spi.c ****   *          This function clears only CRCERR flag.
1203:Libraries/STM32F4xx_StdPeriph_Driver/src/stm32f4xx_spi.c ****   *            @arg SPI_FLAG_CRCERR: CRC Error flag.  
1204:Libraries/STM32F4xx_StdPeriph_Driver/src/stm32f4xx_spi.c ****   *  
1205:Libraries/STM32F4xx_StdPeriph_Driver/src/stm32f4xx_spi.c ****   * @note   OVR (OverRun error) flag is cleared by software sequence: a read 
1206:Libraries/STM32F4xx_StdPeriph_Driver/src/stm32f4xx_spi.c ****   *          operation to SPI_DR register (SPI_I2S_ReceiveData()) followed by a read 
1207:Libraries/STM32F4xx_StdPeriph_Driver/src/stm32f4xx_spi.c ****   *          operation to SPI_SR register (SPI_I2S_GetFlagStatus()).
1208:Libraries/STM32F4xx_StdPeriph_Driver/src/stm32f4xx_spi.c ****   * @note   UDR (UnderRun error) flag is cleared by a read operation to 
1209:Libraries/STM32F4xx_StdPeriph_Driver/src/stm32f4xx_spi.c ****   *          SPI_SR register (SPI_I2S_GetFlagStatus()).   
1210:Libraries/STM32F4xx_StdPeriph_Driver/src/stm32f4xx_spi.c ****   * @note   MODF (Mode Fault) flag is cleared by software sequence: a read/write 
1211:Libraries/STM32F4xx_StdPeriph_Driver/src/stm32f4xx_spi.c ****   *          operation to SPI_SR register (SPI_I2S_GetFlagStatus()) followed by a 
1212:Libraries/STM32F4xx_StdPeriph_Driver/src/stm32f4xx_spi.c ****   *          write operation to SPI_CR1 register (SPI_Cmd() to enable the SPI).
1213:Libraries/STM32F4xx_StdPeriph_Driver/src/stm32f4xx_spi.c ****   *  
1214:Libraries/STM32F4xx_StdPeriph_Driver/src/stm32f4xx_spi.c ****   * @retval None
1215:Libraries/STM32F4xx_StdPeriph_Driver/src/stm32f4xx_spi.c ****   */
1216:Libraries/STM32F4xx_StdPeriph_Driver/src/stm32f4xx_spi.c **** void SPI_I2S_ClearFlag(SPI_TypeDef* SPIx, uint16_t SPI_I2S_FLAG)
1217:Libraries/STM32F4xx_StdPeriph_Driver/src/stm32f4xx_spi.c **** {
 1387              		.loc 1 1217 1 is_stmt 1 view -0
 1388              		.cfi_startproc
 1389              		@ args = 0, pretend = 0, frame = 0
 1390              		@ frame_needed = 0, uses_anonymous_args = 0
 1391              		@ link register save eliminated.
1218:Libraries/STM32F4xx_StdPeriph_Driver/src/stm32f4xx_spi.c ****   /* Check the parameters */
1219:Libraries/STM32F4xx_StdPeriph_Driver/src/stm32f4xx_spi.c ****   assert_param(IS_SPI_ALL_PERIPH_EXT(SPIx));
 1392              		.loc 1 1219 3 view .LVU410
1220:Libraries/STM32F4xx_StdPeriph_Driver/src/stm32f4xx_spi.c ****   assert_param(IS_SPI_I2S_CLEAR_FLAG(SPI_I2S_FLAG));
 1393              		.loc 1 1220 3 view .LVU411
1221:Libraries/STM32F4xx_StdPeriph_Driver/src/stm32f4xx_spi.c ****     
1222:Libraries/STM32F4xx_StdPeriph_Driver/src/stm32f4xx_spi.c ****   /* Clear the selected SPI CRC Error (CRCERR) flag */
1223:Libraries/STM32F4xx_StdPeriph_Driver/src/stm32f4xx_spi.c ****   SPIx->SR = (uint16_t)~SPI_I2S_FLAG;
 1394              		.loc 1 1223 3 view .LVU412
 1395              		.loc 1 1223 14 is_stmt 0 view .LVU413
 1396 0000 C943     		mvns	r1, r1
ARM GAS  /tmp/cceTBk2v.s 			page 47


 1397              	.LVL116:
 1398              		.loc 1 1223 14 view .LVU414
 1399 0002 89B2     		uxth	r1, r1
 1400              		.loc 1 1223 12 view .LVU415
 1401 0004 0181     		strh	r1, [r0, #8]	@ movhi
1224:Libraries/STM32F4xx_StdPeriph_Driver/src/stm32f4xx_spi.c **** }
 1402              		.loc 1 1224 1 view .LVU416
 1403 0006 7047     		bx	lr
 1404              		.cfi_endproc
 1405              	.LFE145:
 1407              		.section	.text.SPI_I2S_GetITStatus,"ax",%progbits
 1408              		.align	1
 1409              		.global	SPI_I2S_GetITStatus
 1410              		.syntax unified
 1411              		.thumb
 1412              		.thumb_func
 1413              		.fpu fpv4-sp-d16
 1415              	SPI_I2S_GetITStatus:
 1416              	.LVL117:
 1417              	.LFB146:
1225:Libraries/STM32F4xx_StdPeriph_Driver/src/stm32f4xx_spi.c **** 
1226:Libraries/STM32F4xx_StdPeriph_Driver/src/stm32f4xx_spi.c **** /**
1227:Libraries/STM32F4xx_StdPeriph_Driver/src/stm32f4xx_spi.c ****   * @brief  Checks whether the specified SPIx/I2Sx interrupt has occurred or not.
1228:Libraries/STM32F4xx_StdPeriph_Driver/src/stm32f4xx_spi.c ****   * @param  SPIx: To select the SPIx/I2Sx peripheral, where x can be: 1, 2, 3, 4, 5 or 6 
1229:Libraries/STM32F4xx_StdPeriph_Driver/src/stm32f4xx_spi.c ****   *         in SPI mode or 2 or 3 in I2S mode or I2Sxext for I2S full duplex mode.  
1230:Libraries/STM32F4xx_StdPeriph_Driver/src/stm32f4xx_spi.c ****   * @param  SPI_I2S_IT: specifies the SPI interrupt source to check. 
1231:Libraries/STM32F4xx_StdPeriph_Driver/src/stm32f4xx_spi.c ****   *          This parameter can be one of the following values:
1232:Libraries/STM32F4xx_StdPeriph_Driver/src/stm32f4xx_spi.c ****   *            @arg SPI_I2S_IT_TXE: Transmit buffer empty interrupt.
1233:Libraries/STM32F4xx_StdPeriph_Driver/src/stm32f4xx_spi.c ****   *            @arg SPI_I2S_IT_RXNE: Receive buffer not empty interrupt.
1234:Libraries/STM32F4xx_StdPeriph_Driver/src/stm32f4xx_spi.c ****   *            @arg SPI_I2S_IT_OVR: Overrun interrupt.
1235:Libraries/STM32F4xx_StdPeriph_Driver/src/stm32f4xx_spi.c ****   *            @arg SPI_IT_MODF: Mode Fault interrupt.
1236:Libraries/STM32F4xx_StdPeriph_Driver/src/stm32f4xx_spi.c ****   *            @arg SPI_IT_CRCERR: CRC Error interrupt.
1237:Libraries/STM32F4xx_StdPeriph_Driver/src/stm32f4xx_spi.c ****   *            @arg I2S_IT_UDR: Underrun interrupt.  
1238:Libraries/STM32F4xx_StdPeriph_Driver/src/stm32f4xx_spi.c ****   *            @arg SPI_I2S_IT_TIFRFE: Format Error interrupt.  
1239:Libraries/STM32F4xx_StdPeriph_Driver/src/stm32f4xx_spi.c ****   * @retval The new state of SPI_I2S_IT (SET or RESET).
1240:Libraries/STM32F4xx_StdPeriph_Driver/src/stm32f4xx_spi.c ****   */
1241:Libraries/STM32F4xx_StdPeriph_Driver/src/stm32f4xx_spi.c **** ITStatus SPI_I2S_GetITStatus(SPI_TypeDef* SPIx, uint8_t SPI_I2S_IT)
1242:Libraries/STM32F4xx_StdPeriph_Driver/src/stm32f4xx_spi.c **** {
 1418              		.loc 1 1242 1 is_stmt 1 view -0
 1419              		.cfi_startproc
 1420              		@ args = 0, pretend = 0, frame = 0
 1421              		@ frame_needed = 0, uses_anonymous_args = 0
 1422              		@ link register save eliminated.
1243:Libraries/STM32F4xx_StdPeriph_Driver/src/stm32f4xx_spi.c ****   ITStatus bitstatus = RESET;
 1423              		.loc 1 1243 3 view .LVU418
1244:Libraries/STM32F4xx_StdPeriph_Driver/src/stm32f4xx_spi.c ****   uint16_t itpos = 0, itmask = 0, enablestatus = 0;
 1424              		.loc 1 1244 3 view .LVU419
1245:Libraries/STM32F4xx_StdPeriph_Driver/src/stm32f4xx_spi.c **** 
1246:Libraries/STM32F4xx_StdPeriph_Driver/src/stm32f4xx_spi.c ****   /* Check the parameters */
1247:Libraries/STM32F4xx_StdPeriph_Driver/src/stm32f4xx_spi.c ****   assert_param(IS_SPI_ALL_PERIPH_EXT(SPIx));
 1425              		.loc 1 1247 3 view .LVU420
1248:Libraries/STM32F4xx_StdPeriph_Driver/src/stm32f4xx_spi.c ****   assert_param(IS_SPI_I2S_GET_IT(SPI_I2S_IT));
 1426              		.loc 1 1248 3 view .LVU421
1249:Libraries/STM32F4xx_StdPeriph_Driver/src/stm32f4xx_spi.c **** 
1250:Libraries/STM32F4xx_StdPeriph_Driver/src/stm32f4xx_spi.c ****   /* Get the SPI_I2S_IT index */
1251:Libraries/STM32F4xx_StdPeriph_Driver/src/stm32f4xx_spi.c ****   itpos = 0x01 << (SPI_I2S_IT & 0x0F);
 1427              		.loc 1 1251 3 view .LVU422
ARM GAS  /tmp/cceTBk2v.s 			page 48


 1428              		.loc 1 1251 31 is_stmt 0 view .LVU423
 1429 0000 01F00F02 		and	r2, r1, #15
 1430              		.loc 1 1251 16 view .LVU424
 1431 0004 0123     		movs	r3, #1
 1432 0006 03FA02F2 		lsl	r2, r3, r2
 1433              	.LVL118:
1252:Libraries/STM32F4xx_StdPeriph_Driver/src/stm32f4xx_spi.c **** 
1253:Libraries/STM32F4xx_StdPeriph_Driver/src/stm32f4xx_spi.c ****   /* Get the SPI_I2S_IT IT mask */
1254:Libraries/STM32F4xx_StdPeriph_Driver/src/stm32f4xx_spi.c ****   itmask = SPI_I2S_IT >> 4;
 1434              		.loc 1 1254 3 is_stmt 1 view .LVU425
 1435              		.loc 1 1254 10 is_stmt 0 view .LVU426
 1436 000a 0909     		lsrs	r1, r1, #4
 1437              	.LVL119:
1255:Libraries/STM32F4xx_StdPeriph_Driver/src/stm32f4xx_spi.c **** 
1256:Libraries/STM32F4xx_StdPeriph_Driver/src/stm32f4xx_spi.c ****   /* Set the IT mask */
1257:Libraries/STM32F4xx_StdPeriph_Driver/src/stm32f4xx_spi.c ****   itmask = 0x01 << itmask;
 1438              		.loc 1 1257 3 is_stmt 1 view .LVU427
 1439              		.loc 1 1257 17 is_stmt 0 view .LVU428
 1440 000c 03FA01F1 		lsl	r1, r3, r1
 1441              	.LVL120:
1258:Libraries/STM32F4xx_StdPeriph_Driver/src/stm32f4xx_spi.c **** 
1259:Libraries/STM32F4xx_StdPeriph_Driver/src/stm32f4xx_spi.c ****   /* Get the SPI_I2S_IT enable bit status */
1260:Libraries/STM32F4xx_StdPeriph_Driver/src/stm32f4xx_spi.c ****   enablestatus = (SPIx->CR2 & itmask) ;
 1442              		.loc 1 1260 3 is_stmt 1 view .LVU429
 1443              		.loc 1 1260 23 is_stmt 0 view .LVU430
 1444 0010 8388     		ldrh	r3, [r0, #4]
 1445 0012 9BB2     		uxth	r3, r3
 1446              		.loc 1 1260 16 view .LVU431
 1447 0014 1940     		ands	r1, r1, r3
 1448              	.LVL121:
1261:Libraries/STM32F4xx_StdPeriph_Driver/src/stm32f4xx_spi.c **** 
1262:Libraries/STM32F4xx_StdPeriph_Driver/src/stm32f4xx_spi.c ****   /* Check the status of the specified SPI interrupt */
1263:Libraries/STM32F4xx_StdPeriph_Driver/src/stm32f4xx_spi.c ****   if (((SPIx->SR & itpos) != (uint16_t)RESET) && enablestatus)
 1449              		.loc 1 1263 3 is_stmt 1 view .LVU432
 1450              		.loc 1 1263 13 is_stmt 0 view .LVU433
 1451 0016 0389     		ldrh	r3, [r0, #8]
 1452 0018 9BB2     		uxth	r3, r3
 1453              		.loc 1 1263 6 view .LVU434
 1454 001a 1A42     		tst	r2, r3
 1455 001c 02D0     		beq	.L85
 1456              		.loc 1 1263 47 discriminator 1 view .LVU435
 1457 001e 19B9     		cbnz	r1, .L86
1264:Libraries/STM32F4xx_StdPeriph_Driver/src/stm32f4xx_spi.c ****   {
1265:Libraries/STM32F4xx_StdPeriph_Driver/src/stm32f4xx_spi.c ****     /* SPI_I2S_IT is set */
1266:Libraries/STM32F4xx_StdPeriph_Driver/src/stm32f4xx_spi.c ****     bitstatus = SET;
1267:Libraries/STM32F4xx_StdPeriph_Driver/src/stm32f4xx_spi.c ****   }
1268:Libraries/STM32F4xx_StdPeriph_Driver/src/stm32f4xx_spi.c ****   else
1269:Libraries/STM32F4xx_StdPeriph_Driver/src/stm32f4xx_spi.c ****   {
1270:Libraries/STM32F4xx_StdPeriph_Driver/src/stm32f4xx_spi.c ****     /* SPI_I2S_IT is reset */
1271:Libraries/STM32F4xx_StdPeriph_Driver/src/stm32f4xx_spi.c ****     bitstatus = RESET;
 1458              		.loc 1 1271 15 view .LVU436
 1459 0020 0020     		movs	r0, #0
 1460              	.LVL122:
 1461              		.loc 1 1271 15 view .LVU437
 1462 0022 7047     		bx	lr
 1463              	.LVL123:
 1464              	.L85:
ARM GAS  /tmp/cceTBk2v.s 			page 49


 1465              		.loc 1 1271 15 view .LVU438
 1466 0024 0020     		movs	r0, #0
 1467              	.LVL124:
 1468              		.loc 1 1271 15 view .LVU439
 1469 0026 7047     		bx	lr
 1470              	.LVL125:
 1471              	.L86:
1266:Libraries/STM32F4xx_StdPeriph_Driver/src/stm32f4xx_spi.c ****   }
 1472              		.loc 1 1266 15 view .LVU440
 1473 0028 0120     		movs	r0, #1
 1474              	.LVL126:
1272:Libraries/STM32F4xx_StdPeriph_Driver/src/stm32f4xx_spi.c ****   }
1273:Libraries/STM32F4xx_StdPeriph_Driver/src/stm32f4xx_spi.c ****   /* Return the SPI_I2S_IT status */
1274:Libraries/STM32F4xx_StdPeriph_Driver/src/stm32f4xx_spi.c ****   return bitstatus;
 1475              		.loc 1 1274 3 is_stmt 1 view .LVU441
1275:Libraries/STM32F4xx_StdPeriph_Driver/src/stm32f4xx_spi.c **** }
 1476              		.loc 1 1275 1 is_stmt 0 view .LVU442
 1477 002a 7047     		bx	lr
 1478              		.cfi_endproc
 1479              	.LFE146:
 1481              		.section	.text.SPI_I2S_ClearITPendingBit,"ax",%progbits
 1482              		.align	1
 1483              		.global	SPI_I2S_ClearITPendingBit
 1484              		.syntax unified
 1485              		.thumb
 1486              		.thumb_func
 1487              		.fpu fpv4-sp-d16
 1489              	SPI_I2S_ClearITPendingBit:
 1490              	.LVL127:
 1491              	.LFB147:
1276:Libraries/STM32F4xx_StdPeriph_Driver/src/stm32f4xx_spi.c **** 
1277:Libraries/STM32F4xx_StdPeriph_Driver/src/stm32f4xx_spi.c **** /**
1278:Libraries/STM32F4xx_StdPeriph_Driver/src/stm32f4xx_spi.c ****   * @brief  Clears the SPIx CRC Error (CRCERR) interrupt pending bit.
1279:Libraries/STM32F4xx_StdPeriph_Driver/src/stm32f4xx_spi.c ****   * @param  SPIx: To select the SPIx/I2Sx peripheral, where x can be: 1, 2, 3, 4, 5 or 6 
1280:Libraries/STM32F4xx_StdPeriph_Driver/src/stm32f4xx_spi.c ****   *         in SPI mode or 2 or 3 in I2S mode or I2Sxext for I2S full duplex mode.  
1281:Libraries/STM32F4xx_StdPeriph_Driver/src/stm32f4xx_spi.c ****   * @param  SPI_I2S_IT: specifies the SPI interrupt pending bit to clear.
1282:Libraries/STM32F4xx_StdPeriph_Driver/src/stm32f4xx_spi.c ****   *         This function clears only CRCERR interrupt pending bit.   
1283:Libraries/STM32F4xx_StdPeriph_Driver/src/stm32f4xx_spi.c ****   *            @arg SPI_IT_CRCERR: CRC Error interrupt.
1284:Libraries/STM32F4xx_StdPeriph_Driver/src/stm32f4xx_spi.c ****   *   
1285:Libraries/STM32F4xx_StdPeriph_Driver/src/stm32f4xx_spi.c ****   * @note   OVR (OverRun Error) interrupt pending bit is cleared by software 
1286:Libraries/STM32F4xx_StdPeriph_Driver/src/stm32f4xx_spi.c ****   *          sequence: a read operation to SPI_DR register (SPI_I2S_ReceiveData()) 
1287:Libraries/STM32F4xx_StdPeriph_Driver/src/stm32f4xx_spi.c ****   *          followed by a read operation to SPI_SR register (SPI_I2S_GetITStatus()).
1288:Libraries/STM32F4xx_StdPeriph_Driver/src/stm32f4xx_spi.c ****   * @note   UDR (UnderRun Error) interrupt pending bit is cleared by a read 
1289:Libraries/STM32F4xx_StdPeriph_Driver/src/stm32f4xx_spi.c ****   *          operation to SPI_SR register (SPI_I2S_GetITStatus()).   
1290:Libraries/STM32F4xx_StdPeriph_Driver/src/stm32f4xx_spi.c ****   * @note   MODF (Mode Fault) interrupt pending bit is cleared by software sequence:
1291:Libraries/STM32F4xx_StdPeriph_Driver/src/stm32f4xx_spi.c ****   *          a read/write operation to SPI_SR register (SPI_I2S_GetITStatus()) 
1292:Libraries/STM32F4xx_StdPeriph_Driver/src/stm32f4xx_spi.c ****   *          followed by a write operation to SPI_CR1 register (SPI_Cmd() to enable 
1293:Libraries/STM32F4xx_StdPeriph_Driver/src/stm32f4xx_spi.c ****   *          the SPI).
1294:Libraries/STM32F4xx_StdPeriph_Driver/src/stm32f4xx_spi.c ****   * @retval None
1295:Libraries/STM32F4xx_StdPeriph_Driver/src/stm32f4xx_spi.c ****   */
1296:Libraries/STM32F4xx_StdPeriph_Driver/src/stm32f4xx_spi.c **** void SPI_I2S_ClearITPendingBit(SPI_TypeDef* SPIx, uint8_t SPI_I2S_IT)
1297:Libraries/STM32F4xx_StdPeriph_Driver/src/stm32f4xx_spi.c **** {
 1492              		.loc 1 1297 1 is_stmt 1 view -0
 1493              		.cfi_startproc
 1494              		@ args = 0, pretend = 0, frame = 0
 1495              		@ frame_needed = 0, uses_anonymous_args = 0
 1496              		@ link register save eliminated.
ARM GAS  /tmp/cceTBk2v.s 			page 50


1298:Libraries/STM32F4xx_StdPeriph_Driver/src/stm32f4xx_spi.c ****   uint16_t itpos = 0;
 1497              		.loc 1 1298 3 view .LVU444
1299:Libraries/STM32F4xx_StdPeriph_Driver/src/stm32f4xx_spi.c ****   /* Check the parameters */
1300:Libraries/STM32F4xx_StdPeriph_Driver/src/stm32f4xx_spi.c ****   assert_param(IS_SPI_ALL_PERIPH_EXT(SPIx));
 1498              		.loc 1 1300 3 view .LVU445
1301:Libraries/STM32F4xx_StdPeriph_Driver/src/stm32f4xx_spi.c ****   assert_param(IS_SPI_I2S_CLEAR_IT(SPI_I2S_IT));
 1499              		.loc 1 1301 3 view .LVU446
1302:Libraries/STM32F4xx_StdPeriph_Driver/src/stm32f4xx_spi.c **** 
1303:Libraries/STM32F4xx_StdPeriph_Driver/src/stm32f4xx_spi.c ****   /* Get the SPI_I2S IT index */
1304:Libraries/STM32F4xx_StdPeriph_Driver/src/stm32f4xx_spi.c ****   itpos = 0x01 << (SPI_I2S_IT & 0x0F);
 1500              		.loc 1 1304 3 view .LVU447
 1501              		.loc 1 1304 31 is_stmt 0 view .LVU448
 1502 0000 01F00F01 		and	r1, r1, #15
 1503              	.LVL128:
 1504              		.loc 1 1304 16 view .LVU449
 1505 0004 0123     		movs	r3, #1
 1506 0006 8B40     		lsls	r3, r3, r1
 1507              		.loc 1 1304 9 view .LVU450
 1508 0008 9BB2     		uxth	r3, r3
 1509              	.LVL129:
1305:Libraries/STM32F4xx_StdPeriph_Driver/src/stm32f4xx_spi.c **** 
1306:Libraries/STM32F4xx_StdPeriph_Driver/src/stm32f4xx_spi.c ****   /* Clear the selected SPI CRC Error (CRCERR) interrupt pending bit */
1307:Libraries/STM32F4xx_StdPeriph_Driver/src/stm32f4xx_spi.c ****   SPIx->SR = (uint16_t)~itpos;
 1510              		.loc 1 1307 3 is_stmt 1 view .LVU451
 1511              		.loc 1 1307 14 is_stmt 0 view .LVU452
 1512 000a DB43     		mvns	r3, r3
 1513              	.LVL130:
 1514              		.loc 1 1307 14 view .LVU453
 1515 000c 9BB2     		uxth	r3, r3
 1516              	.LVL131:
 1517              		.loc 1 1307 12 view .LVU454
 1518 000e 0381     		strh	r3, [r0, #8]	@ movhi
1308:Libraries/STM32F4xx_StdPeriph_Driver/src/stm32f4xx_spi.c **** }
 1519              		.loc 1 1308 1 view .LVU455
 1520 0010 7047     		bx	lr
 1521              		.cfi_endproc
 1522              	.LFE147:
 1524              		.text
 1525              	.Letext0:
 1526              		.file 2 "/home/ktkuri/arm-gcc-tools/arm-none-eabi/include/machine/_default_types.h"
 1527              		.file 3 "/home/ktkuri/arm-gcc-tools/arm-none-eabi/include/sys/_stdint.h"
 1528              		.file 4 "Libraries/CMSIS/Device/ST/STM32F4xx/Include/stm32f4xx.h"
 1529              		.file 5 "Libraries/STM32F4xx_StdPeriph_Driver/inc/stm32f4xx_spi.h"
 1530              		.file 6 "Libraries/STM32F4xx_StdPeriph_Driver/inc/stm32f4xx_rcc.h"
ARM GAS  /tmp/cceTBk2v.s 			page 51

