ARM GAS  C:\Users\ktkuru\AppData\Local\Temp\ccNxTYhi.s 			page 1


   1              		.cpu cortex-m4
   2              		.arch armv7e-m
   3              		.fpu fpv4-sp-d16
   4              		.eabi_attribute 27, 1
   5              		.eabi_attribute 28, 1
   6              		.eabi_attribute 20, 1
   7              		.eabi_attribute 21, 1
   8              		.eabi_attribute 23, 3
   9              		.eabi_attribute 24, 1
  10              		.eabi_attribute 25, 1
  11              		.eabi_attribute 26, 1
  12              		.eabi_attribute 30, 1
  13              		.eabi_attribute 34, 1
  14              		.eabi_attribute 18, 4
  15              		.file	"stm32f4xx_gpio.c"
  16              		.text
  17              	.Ltext0:
  18              		.cfi_sections	.debug_frame
  19              		.file 1 "libraries/STM32F4xx_StdPeriph_Driver/src/stm32f4xx_gpio.c"
  20              		.section	.text.GPIO_DeInit,"ax",%progbits
  21              		.align	1
  22              		.global	GPIO_DeInit
  23              		.syntax unified
  24              		.thumb
  25              		.thumb_func
  27              	GPIO_DeInit:
  28              	.LVL0:
  29              	.LFB123:
   1:libraries/STM32F4xx_StdPeriph_Driver/src/stm32f4xx_gpio.c **** /**
   2:libraries/STM32F4xx_StdPeriph_Driver/src/stm32f4xx_gpio.c ****   ******************************************************************************
   3:libraries/STM32F4xx_StdPeriph_Driver/src/stm32f4xx_gpio.c ****   * @file    stm32f4xx_gpio.c
   4:libraries/STM32F4xx_StdPeriph_Driver/src/stm32f4xx_gpio.c ****   * @author  MCD Application Team
   5:libraries/STM32F4xx_StdPeriph_Driver/src/stm32f4xx_gpio.c ****   * @version V1.8.1
   6:libraries/STM32F4xx_StdPeriph_Driver/src/stm32f4xx_gpio.c ****   * @date    27-January-2022
   7:libraries/STM32F4xx_StdPeriph_Driver/src/stm32f4xx_gpio.c ****   * @brief   This file provides firmware functions to manage the following 
   8:libraries/STM32F4xx_StdPeriph_Driver/src/stm32f4xx_gpio.c ****   *          functionalities of the GPIO peripheral:           
   9:libraries/STM32F4xx_StdPeriph_Driver/src/stm32f4xx_gpio.c ****   *           + Initialization and Configuration
  10:libraries/STM32F4xx_StdPeriph_Driver/src/stm32f4xx_gpio.c ****   *           + GPIO Read and Write
  11:libraries/STM32F4xx_StdPeriph_Driver/src/stm32f4xx_gpio.c ****   *           + GPIO Alternate functions configuration
  12:libraries/STM32F4xx_StdPeriph_Driver/src/stm32f4xx_gpio.c ****   * 
  13:libraries/STM32F4xx_StdPeriph_Driver/src/stm32f4xx_gpio.c **** @verbatim  
  14:libraries/STM32F4xx_StdPeriph_Driver/src/stm32f4xx_gpio.c ****  ===============================================================================
  15:libraries/STM32F4xx_StdPeriph_Driver/src/stm32f4xx_gpio.c ****                       ##### How to use this driver #####
  16:libraries/STM32F4xx_StdPeriph_Driver/src/stm32f4xx_gpio.c ****  ===============================================================================       
  17:libraries/STM32F4xx_StdPeriph_Driver/src/stm32f4xx_gpio.c ****  [..]             
  18:libraries/STM32F4xx_StdPeriph_Driver/src/stm32f4xx_gpio.c ****    (#) Enable the GPIO AHB clock using the following function
  19:libraries/STM32F4xx_StdPeriph_Driver/src/stm32f4xx_gpio.c ****        RCC_AHB1PeriphClockCmd(RCC_AHB1Periph_GPIOx, ENABLE);
  20:libraries/STM32F4xx_StdPeriph_Driver/src/stm32f4xx_gpio.c ****                
  21:libraries/STM32F4xx_StdPeriph_Driver/src/stm32f4xx_gpio.c ****    (#) Configure the GPIO pin(s) using GPIO_Init()
  22:libraries/STM32F4xx_StdPeriph_Driver/src/stm32f4xx_gpio.c ****        Four possible configuration are available for each pin:
  23:libraries/STM32F4xx_StdPeriph_Driver/src/stm32f4xx_gpio.c ****        (++) Input: Floating, Pull-up, Pull-down.
  24:libraries/STM32F4xx_StdPeriph_Driver/src/stm32f4xx_gpio.c ****        (++) Output: Push-Pull (Pull-up, Pull-down or no Pull)
  25:libraries/STM32F4xx_StdPeriph_Driver/src/stm32f4xx_gpio.c ****             Open Drain (Pull-up, Pull-down or no Pull). In output mode, the speed 
  26:libraries/STM32F4xx_StdPeriph_Driver/src/stm32f4xx_gpio.c ****             is configurable: 2 MHz, 25 MHz, 50 MHz or 100 MHz.
  27:libraries/STM32F4xx_StdPeriph_Driver/src/stm32f4xx_gpio.c ****        (++) Alternate Function: Push-Pull (Pull-up, Pull-down or no Pull) Open 
  28:libraries/STM32F4xx_StdPeriph_Driver/src/stm32f4xx_gpio.c ****             Drain (Pull-up, Pull-down or no Pull).
  29:libraries/STM32F4xx_StdPeriph_Driver/src/stm32f4xx_gpio.c ****        (++) Analog: required mode when a pin is to be used as ADC channel or DAC 
ARM GAS  C:\Users\ktkuru\AppData\Local\Temp\ccNxTYhi.s 			page 2


  30:libraries/STM32F4xx_StdPeriph_Driver/src/stm32f4xx_gpio.c ****             output.
  31:libraries/STM32F4xx_StdPeriph_Driver/src/stm32f4xx_gpio.c ****    
  32:libraries/STM32F4xx_StdPeriph_Driver/src/stm32f4xx_gpio.c ****    (#) Peripherals alternate function:
  33:libraries/STM32F4xx_StdPeriph_Driver/src/stm32f4xx_gpio.c ****        (++) For ADC and DAC, configure the desired pin in analog mode using 
  34:libraries/STM32F4xx_StdPeriph_Driver/src/stm32f4xx_gpio.c ****             GPIO_InitStruct->GPIO_Mode = GPIO_Mode_AN;
  35:libraries/STM32F4xx_StdPeriph_Driver/src/stm32f4xx_gpio.c ****             (+++) For other peripherals (TIM, USART...):
  36:libraries/STM32F4xx_StdPeriph_Driver/src/stm32f4xx_gpio.c ****             (+++) Connect the pin to the desired peripherals' Alternate 
  37:libraries/STM32F4xx_StdPeriph_Driver/src/stm32f4xx_gpio.c ****                      Function (AF) using GPIO_PinAFConfig() function
  38:libraries/STM32F4xx_StdPeriph_Driver/src/stm32f4xx_gpio.c ****             (+++) Configure the desired pin in alternate function mode using
  39:libraries/STM32F4xx_StdPeriph_Driver/src/stm32f4xx_gpio.c ****                      GPIO_InitStruct->GPIO_Mode = GPIO_Mode_AF
  40:libraries/STM32F4xx_StdPeriph_Driver/src/stm32f4xx_gpio.c ****             (+++) Select the type, pull-up/pull-down and output speed via 
  41:libraries/STM32F4xx_StdPeriph_Driver/src/stm32f4xx_gpio.c ****                      GPIO_PuPd, GPIO_OType and GPIO_Speed members
  42:libraries/STM32F4xx_StdPeriph_Driver/src/stm32f4xx_gpio.c ****             (+++) Call GPIO_Init() function
  43:libraries/STM32F4xx_StdPeriph_Driver/src/stm32f4xx_gpio.c ****           
  44:libraries/STM32F4xx_StdPeriph_Driver/src/stm32f4xx_gpio.c ****    (#) To get the level of a pin configured in input mode use GPIO_ReadInputDataBit()
  45:libraries/STM32F4xx_StdPeriph_Driver/src/stm32f4xx_gpio.c ****             
  46:libraries/STM32F4xx_StdPeriph_Driver/src/stm32f4xx_gpio.c ****    (#) To set/reset the level of a pin configured in output mode use 
  47:libraries/STM32F4xx_StdPeriph_Driver/src/stm32f4xx_gpio.c ****        GPIO_SetBits()/GPIO_ResetBits()
  48:libraries/STM32F4xx_StdPeriph_Driver/src/stm32f4xx_gpio.c ****                  
  49:libraries/STM32F4xx_StdPeriph_Driver/src/stm32f4xx_gpio.c ****    (#) During and just after reset, the alternate functions are not 
  50:libraries/STM32F4xx_StdPeriph_Driver/src/stm32f4xx_gpio.c ****        active and the GPIO pins are configured in input floating mode (except JTAG
  51:libraries/STM32F4xx_StdPeriph_Driver/src/stm32f4xx_gpio.c ****        pins).
  52:libraries/STM32F4xx_StdPeriph_Driver/src/stm32f4xx_gpio.c ****   
  53:libraries/STM32F4xx_StdPeriph_Driver/src/stm32f4xx_gpio.c ****    (#) The LSE oscillator pins OSC32_IN and OSC32_OUT can be used as general purpose 
  54:libraries/STM32F4xx_StdPeriph_Driver/src/stm32f4xx_gpio.c ****        (PC14 and PC15, respectively) when the LSE oscillator is off. The LSE has 
  55:libraries/STM32F4xx_StdPeriph_Driver/src/stm32f4xx_gpio.c ****        priority over the GPIO function.
  56:libraries/STM32F4xx_StdPeriph_Driver/src/stm32f4xx_gpio.c ****   
  57:libraries/STM32F4xx_StdPeriph_Driver/src/stm32f4xx_gpio.c ****    (#) The HSE oscillator pins OSC_IN/OSC_OUT can be used as 
  58:libraries/STM32F4xx_StdPeriph_Driver/src/stm32f4xx_gpio.c ****        general purpose PH0 and PH1, respectively, when the HSE oscillator is off. 
  59:libraries/STM32F4xx_StdPeriph_Driver/src/stm32f4xx_gpio.c ****        The HSE has priority over the GPIO function.
  60:libraries/STM32F4xx_StdPeriph_Driver/src/stm32f4xx_gpio.c ****                
  61:libraries/STM32F4xx_StdPeriph_Driver/src/stm32f4xx_gpio.c **** @endverbatim        
  62:libraries/STM32F4xx_StdPeriph_Driver/src/stm32f4xx_gpio.c ****   *
  63:libraries/STM32F4xx_StdPeriph_Driver/src/stm32f4xx_gpio.c ****   ******************************************************************************
  64:libraries/STM32F4xx_StdPeriph_Driver/src/stm32f4xx_gpio.c ****   * @attention
  65:libraries/STM32F4xx_StdPeriph_Driver/src/stm32f4xx_gpio.c ****   *
  66:libraries/STM32F4xx_StdPeriph_Driver/src/stm32f4xx_gpio.c ****   * Copyright (c) 2016 STMicroelectronics.
  67:libraries/STM32F4xx_StdPeriph_Driver/src/stm32f4xx_gpio.c ****   * All rights reserved.
  68:libraries/STM32F4xx_StdPeriph_Driver/src/stm32f4xx_gpio.c ****   *
  69:libraries/STM32F4xx_StdPeriph_Driver/src/stm32f4xx_gpio.c ****   * This software is licensed under terms that can be found in the LICENSE file
  70:libraries/STM32F4xx_StdPeriph_Driver/src/stm32f4xx_gpio.c ****   * in the root directory of this software component.
  71:libraries/STM32F4xx_StdPeriph_Driver/src/stm32f4xx_gpio.c ****   * If no LICENSE file comes with this software, it is provided AS-IS.
  72:libraries/STM32F4xx_StdPeriph_Driver/src/stm32f4xx_gpio.c ****   *
  73:libraries/STM32F4xx_StdPeriph_Driver/src/stm32f4xx_gpio.c ****   ******************************************************************************
  74:libraries/STM32F4xx_StdPeriph_Driver/src/stm32f4xx_gpio.c ****   */
  75:libraries/STM32F4xx_StdPeriph_Driver/src/stm32f4xx_gpio.c **** 
  76:libraries/STM32F4xx_StdPeriph_Driver/src/stm32f4xx_gpio.c **** /* Includes ------------------------------------------------------------------*/
  77:libraries/STM32F4xx_StdPeriph_Driver/src/stm32f4xx_gpio.c **** #include "stm32f4xx_gpio.h"
  78:libraries/STM32F4xx_StdPeriph_Driver/src/stm32f4xx_gpio.c **** #include "stm32f4xx_rcc.h"
  79:libraries/STM32F4xx_StdPeriph_Driver/src/stm32f4xx_gpio.c **** 
  80:libraries/STM32F4xx_StdPeriph_Driver/src/stm32f4xx_gpio.c **** /** @addtogroup STM32F4xx_StdPeriph_Driver
  81:libraries/STM32F4xx_StdPeriph_Driver/src/stm32f4xx_gpio.c ****   * @{
  82:libraries/STM32F4xx_StdPeriph_Driver/src/stm32f4xx_gpio.c ****   */
  83:libraries/STM32F4xx_StdPeriph_Driver/src/stm32f4xx_gpio.c **** 
  84:libraries/STM32F4xx_StdPeriph_Driver/src/stm32f4xx_gpio.c **** /** @defgroup GPIO 
  85:libraries/STM32F4xx_StdPeriph_Driver/src/stm32f4xx_gpio.c ****   * @brief GPIO driver modules
  86:libraries/STM32F4xx_StdPeriph_Driver/src/stm32f4xx_gpio.c ****   * @{
ARM GAS  C:\Users\ktkuru\AppData\Local\Temp\ccNxTYhi.s 			page 3


  87:libraries/STM32F4xx_StdPeriph_Driver/src/stm32f4xx_gpio.c ****   */ 
  88:libraries/STM32F4xx_StdPeriph_Driver/src/stm32f4xx_gpio.c **** 
  89:libraries/STM32F4xx_StdPeriph_Driver/src/stm32f4xx_gpio.c **** /* Private typedef -----------------------------------------------------------*/
  90:libraries/STM32F4xx_StdPeriph_Driver/src/stm32f4xx_gpio.c **** /* Private define ------------------------------------------------------------*/
  91:libraries/STM32F4xx_StdPeriph_Driver/src/stm32f4xx_gpio.c **** /* Private macro -------------------------------------------------------------*/
  92:libraries/STM32F4xx_StdPeriph_Driver/src/stm32f4xx_gpio.c **** /* Private variables ---------------------------------------------------------*/
  93:libraries/STM32F4xx_StdPeriph_Driver/src/stm32f4xx_gpio.c **** /* Private function prototypes -----------------------------------------------*/
  94:libraries/STM32F4xx_StdPeriph_Driver/src/stm32f4xx_gpio.c **** /* Private functions ---------------------------------------------------------*/
  95:libraries/STM32F4xx_StdPeriph_Driver/src/stm32f4xx_gpio.c **** 
  96:libraries/STM32F4xx_StdPeriph_Driver/src/stm32f4xx_gpio.c **** /** @defgroup GPIO_Private_Functions
  97:libraries/STM32F4xx_StdPeriph_Driver/src/stm32f4xx_gpio.c ****   * @{
  98:libraries/STM32F4xx_StdPeriph_Driver/src/stm32f4xx_gpio.c ****   */ 
  99:libraries/STM32F4xx_StdPeriph_Driver/src/stm32f4xx_gpio.c **** 
 100:libraries/STM32F4xx_StdPeriph_Driver/src/stm32f4xx_gpio.c **** /** @defgroup GPIO_Group1 Initialization and Configuration
 101:libraries/STM32F4xx_StdPeriph_Driver/src/stm32f4xx_gpio.c ****  *  @brief   Initialization and Configuration
 102:libraries/STM32F4xx_StdPeriph_Driver/src/stm32f4xx_gpio.c ****  *
 103:libraries/STM32F4xx_StdPeriph_Driver/src/stm32f4xx_gpio.c **** @verbatim   
 104:libraries/STM32F4xx_StdPeriph_Driver/src/stm32f4xx_gpio.c ****  ===============================================================================
 105:libraries/STM32F4xx_StdPeriph_Driver/src/stm32f4xx_gpio.c ****                  ##### Initialization and Configuration #####
 106:libraries/STM32F4xx_StdPeriph_Driver/src/stm32f4xx_gpio.c ****  ===============================================================================  
 107:libraries/STM32F4xx_StdPeriph_Driver/src/stm32f4xx_gpio.c **** 
 108:libraries/STM32F4xx_StdPeriph_Driver/src/stm32f4xx_gpio.c **** @endverbatim
 109:libraries/STM32F4xx_StdPeriph_Driver/src/stm32f4xx_gpio.c ****   * @{
 110:libraries/STM32F4xx_StdPeriph_Driver/src/stm32f4xx_gpio.c ****   */
 111:libraries/STM32F4xx_StdPeriph_Driver/src/stm32f4xx_gpio.c **** 
 112:libraries/STM32F4xx_StdPeriph_Driver/src/stm32f4xx_gpio.c **** /**
 113:libraries/STM32F4xx_StdPeriph_Driver/src/stm32f4xx_gpio.c ****   * @brief  De-initializes the GPIOx peripheral registers to their default reset values.
 114:libraries/STM32F4xx_StdPeriph_Driver/src/stm32f4xx_gpio.c ****   * @note   By default, The GPIO pins are configured in input floating mode (except JTAG pins).
 115:libraries/STM32F4xx_StdPeriph_Driver/src/stm32f4xx_gpio.c ****   * @param  GPIOx: where x can be (A..K) to select the GPIO peripheral for STM32F405xx/407xx and ST
 116:libraries/STM32F4xx_StdPeriph_Driver/src/stm32f4xx_gpio.c ****   *                      x can be (A..I) to select the GPIO peripheral for STM32F42xxx/43xxx device
 117:libraries/STM32F4xx_StdPeriph_Driver/src/stm32f4xx_gpio.c ****   *                      x can be (A, B, C, D and H) to select the GPIO peripheral for STM32F401xx 
 118:libraries/STM32F4xx_StdPeriph_Driver/src/stm32f4xx_gpio.c ****   * @retval None
 119:libraries/STM32F4xx_StdPeriph_Driver/src/stm32f4xx_gpio.c ****   */
 120:libraries/STM32F4xx_StdPeriph_Driver/src/stm32f4xx_gpio.c **** void GPIO_DeInit(GPIO_TypeDef* GPIOx)
 121:libraries/STM32F4xx_StdPeriph_Driver/src/stm32f4xx_gpio.c **** {
  30              		.loc 1 121 1 view -0
  31              		.cfi_startproc
  32              		@ args = 0, pretend = 0, frame = 0
  33              		@ frame_needed = 0, uses_anonymous_args = 0
  34              		.loc 1 121 1 is_stmt 0 view .LVU1
  35 0000 08B5     		push	{r3, lr}
  36              	.LCFI0:
  37              		.cfi_def_cfa_offset 8
  38              		.cfi_offset 3, -8
  39              		.cfi_offset 14, -4
 122:libraries/STM32F4xx_StdPeriph_Driver/src/stm32f4xx_gpio.c ****   /* Check the parameters */
 123:libraries/STM32F4xx_StdPeriph_Driver/src/stm32f4xx_gpio.c ****   assert_param(IS_GPIO_ALL_PERIPH(GPIOx));
  40              		.loc 1 123 3 is_stmt 1 view .LVU2
 124:libraries/STM32F4xx_StdPeriph_Driver/src/stm32f4xx_gpio.c **** 
 125:libraries/STM32F4xx_StdPeriph_Driver/src/stm32f4xx_gpio.c ****   if (GPIOx == GPIOA)
  41              		.loc 1 125 3 view .LVU3
  42              		.loc 1 125 6 is_stmt 0 view .LVU4
  43 0002 454B     		ldr	r3, .L24
  44 0004 9842     		cmp	r0, r3
  45 0006 28D0     		beq	.L14
 126:libraries/STM32F4xx_StdPeriph_Driver/src/stm32f4xx_gpio.c ****   {
 127:libraries/STM32F4xx_StdPeriph_Driver/src/stm32f4xx_gpio.c ****     RCC_AHB1PeriphResetCmd(RCC_AHB1Periph_GPIOA, ENABLE);
ARM GAS  C:\Users\ktkuru\AppData\Local\Temp\ccNxTYhi.s 			page 4


 128:libraries/STM32F4xx_StdPeriph_Driver/src/stm32f4xx_gpio.c ****     RCC_AHB1PeriphResetCmd(RCC_AHB1Periph_GPIOA, DISABLE);
 129:libraries/STM32F4xx_StdPeriph_Driver/src/stm32f4xx_gpio.c ****   }
 130:libraries/STM32F4xx_StdPeriph_Driver/src/stm32f4xx_gpio.c ****   else if (GPIOx == GPIOB)
  46              		.loc 1 130 8 is_stmt 1 view .LVU5
  47              		.loc 1 130 11 is_stmt 0 view .LVU6
  48 0008 444B     		ldr	r3, .L24+4
  49 000a 9842     		cmp	r0, r3
  50 000c 2ED0     		beq	.L15
 131:libraries/STM32F4xx_StdPeriph_Driver/src/stm32f4xx_gpio.c ****   {
 132:libraries/STM32F4xx_StdPeriph_Driver/src/stm32f4xx_gpio.c ****     RCC_AHB1PeriphResetCmd(RCC_AHB1Periph_GPIOB, ENABLE);
 133:libraries/STM32F4xx_StdPeriph_Driver/src/stm32f4xx_gpio.c ****     RCC_AHB1PeriphResetCmd(RCC_AHB1Periph_GPIOB, DISABLE);
 134:libraries/STM32F4xx_StdPeriph_Driver/src/stm32f4xx_gpio.c ****   }
 135:libraries/STM32F4xx_StdPeriph_Driver/src/stm32f4xx_gpio.c ****   else if (GPIOx == GPIOC)
  51              		.loc 1 135 8 is_stmt 1 view .LVU7
  52              		.loc 1 135 11 is_stmt 0 view .LVU8
  53 000e 444B     		ldr	r3, .L24+8
  54 0010 9842     		cmp	r0, r3
  55 0012 34D0     		beq	.L16
 136:libraries/STM32F4xx_StdPeriph_Driver/src/stm32f4xx_gpio.c ****   {
 137:libraries/STM32F4xx_StdPeriph_Driver/src/stm32f4xx_gpio.c ****     RCC_AHB1PeriphResetCmd(RCC_AHB1Periph_GPIOC, ENABLE);
 138:libraries/STM32F4xx_StdPeriph_Driver/src/stm32f4xx_gpio.c ****     RCC_AHB1PeriphResetCmd(RCC_AHB1Periph_GPIOC, DISABLE);
 139:libraries/STM32F4xx_StdPeriph_Driver/src/stm32f4xx_gpio.c ****   }
 140:libraries/STM32F4xx_StdPeriph_Driver/src/stm32f4xx_gpio.c ****   else if (GPIOx == GPIOD)
  56              		.loc 1 140 8 is_stmt 1 view .LVU9
  57              		.loc 1 140 11 is_stmt 0 view .LVU10
  58 0014 434B     		ldr	r3, .L24+12
  59 0016 9842     		cmp	r0, r3
  60 0018 3AD0     		beq	.L17
 141:libraries/STM32F4xx_StdPeriph_Driver/src/stm32f4xx_gpio.c ****   {
 142:libraries/STM32F4xx_StdPeriph_Driver/src/stm32f4xx_gpio.c ****     RCC_AHB1PeriphResetCmd(RCC_AHB1Periph_GPIOD, ENABLE);
 143:libraries/STM32F4xx_StdPeriph_Driver/src/stm32f4xx_gpio.c ****     RCC_AHB1PeriphResetCmd(RCC_AHB1Periph_GPIOD, DISABLE);
 144:libraries/STM32F4xx_StdPeriph_Driver/src/stm32f4xx_gpio.c ****   }
 145:libraries/STM32F4xx_StdPeriph_Driver/src/stm32f4xx_gpio.c ****   else if (GPIOx == GPIOE)
  61              		.loc 1 145 8 is_stmt 1 view .LVU11
  62              		.loc 1 145 11 is_stmt 0 view .LVU12
  63 001a 434B     		ldr	r3, .L24+16
  64 001c 9842     		cmp	r0, r3
  65 001e 40D0     		beq	.L18
 146:libraries/STM32F4xx_StdPeriph_Driver/src/stm32f4xx_gpio.c ****   {
 147:libraries/STM32F4xx_StdPeriph_Driver/src/stm32f4xx_gpio.c ****     RCC_AHB1PeriphResetCmd(RCC_AHB1Periph_GPIOE, ENABLE);
 148:libraries/STM32F4xx_StdPeriph_Driver/src/stm32f4xx_gpio.c ****     RCC_AHB1PeriphResetCmd(RCC_AHB1Periph_GPIOE, DISABLE);
 149:libraries/STM32F4xx_StdPeriph_Driver/src/stm32f4xx_gpio.c ****   }
 150:libraries/STM32F4xx_StdPeriph_Driver/src/stm32f4xx_gpio.c ****   else if (GPIOx == GPIOF)
  66              		.loc 1 150 8 is_stmt 1 view .LVU13
  67              		.loc 1 150 11 is_stmt 0 view .LVU14
  68 0020 424B     		ldr	r3, .L24+20
  69 0022 9842     		cmp	r0, r3
  70 0024 46D0     		beq	.L19
 151:libraries/STM32F4xx_StdPeriph_Driver/src/stm32f4xx_gpio.c ****   {
 152:libraries/STM32F4xx_StdPeriph_Driver/src/stm32f4xx_gpio.c ****     RCC_AHB1PeriphResetCmd(RCC_AHB1Periph_GPIOF, ENABLE);
 153:libraries/STM32F4xx_StdPeriph_Driver/src/stm32f4xx_gpio.c ****     RCC_AHB1PeriphResetCmd(RCC_AHB1Periph_GPIOF, DISABLE);
 154:libraries/STM32F4xx_StdPeriph_Driver/src/stm32f4xx_gpio.c ****   }
 155:libraries/STM32F4xx_StdPeriph_Driver/src/stm32f4xx_gpio.c ****   else if (GPIOx == GPIOG)
  71              		.loc 1 155 8 is_stmt 1 view .LVU15
  72              		.loc 1 155 11 is_stmt 0 view .LVU16
  73 0026 424B     		ldr	r3, .L24+24
  74 0028 9842     		cmp	r0, r3
ARM GAS  C:\Users\ktkuru\AppData\Local\Temp\ccNxTYhi.s 			page 5


  75 002a 4CD0     		beq	.L20
 156:libraries/STM32F4xx_StdPeriph_Driver/src/stm32f4xx_gpio.c ****   {
 157:libraries/STM32F4xx_StdPeriph_Driver/src/stm32f4xx_gpio.c ****     RCC_AHB1PeriphResetCmd(RCC_AHB1Periph_GPIOG, ENABLE);
 158:libraries/STM32F4xx_StdPeriph_Driver/src/stm32f4xx_gpio.c ****     RCC_AHB1PeriphResetCmd(RCC_AHB1Periph_GPIOG, DISABLE);
 159:libraries/STM32F4xx_StdPeriph_Driver/src/stm32f4xx_gpio.c ****   }
 160:libraries/STM32F4xx_StdPeriph_Driver/src/stm32f4xx_gpio.c ****   else if (GPIOx == GPIOH)
  76              		.loc 1 160 8 is_stmt 1 view .LVU17
  77              		.loc 1 160 11 is_stmt 0 view .LVU18
  78 002c 414B     		ldr	r3, .L24+28
  79 002e 9842     		cmp	r0, r3
  80 0030 52D0     		beq	.L21
 161:libraries/STM32F4xx_StdPeriph_Driver/src/stm32f4xx_gpio.c ****   {
 162:libraries/STM32F4xx_StdPeriph_Driver/src/stm32f4xx_gpio.c ****     RCC_AHB1PeriphResetCmd(RCC_AHB1Periph_GPIOH, ENABLE);
 163:libraries/STM32F4xx_StdPeriph_Driver/src/stm32f4xx_gpio.c ****     RCC_AHB1PeriphResetCmd(RCC_AHB1Periph_GPIOH, DISABLE);
 164:libraries/STM32F4xx_StdPeriph_Driver/src/stm32f4xx_gpio.c ****   }
 165:libraries/STM32F4xx_StdPeriph_Driver/src/stm32f4xx_gpio.c **** 
 166:libraries/STM32F4xx_StdPeriph_Driver/src/stm32f4xx_gpio.c ****   else if (GPIOx == GPIOI)
  81              		.loc 1 166 8 is_stmt 1 view .LVU19
  82              		.loc 1 166 11 is_stmt 0 view .LVU20
  83 0032 414B     		ldr	r3, .L24+32
  84 0034 9842     		cmp	r0, r3
  85 0036 58D0     		beq	.L22
 167:libraries/STM32F4xx_StdPeriph_Driver/src/stm32f4xx_gpio.c ****   {
 168:libraries/STM32F4xx_StdPeriph_Driver/src/stm32f4xx_gpio.c ****     RCC_AHB1PeriphResetCmd(RCC_AHB1Periph_GPIOI, ENABLE);
 169:libraries/STM32F4xx_StdPeriph_Driver/src/stm32f4xx_gpio.c ****     RCC_AHB1PeriphResetCmd(RCC_AHB1Periph_GPIOI, DISABLE);
 170:libraries/STM32F4xx_StdPeriph_Driver/src/stm32f4xx_gpio.c ****   }
 171:libraries/STM32F4xx_StdPeriph_Driver/src/stm32f4xx_gpio.c ****   else if (GPIOx == GPIOJ)
  86              		.loc 1 171 8 is_stmt 1 view .LVU21
  87              		.loc 1 171 11 is_stmt 0 view .LVU22
  88 0038 404B     		ldr	r3, .L24+36
  89 003a 9842     		cmp	r0, r3
  90 003c 60D0     		beq	.L23
 172:libraries/STM32F4xx_StdPeriph_Driver/src/stm32f4xx_gpio.c ****   {
 173:libraries/STM32F4xx_StdPeriph_Driver/src/stm32f4xx_gpio.c ****     RCC_AHB1PeriphResetCmd(RCC_AHB1Periph_GPIOJ, ENABLE);
 174:libraries/STM32F4xx_StdPeriph_Driver/src/stm32f4xx_gpio.c ****     RCC_AHB1PeriphResetCmd(RCC_AHB1Periph_GPIOJ, DISABLE);
 175:libraries/STM32F4xx_StdPeriph_Driver/src/stm32f4xx_gpio.c ****   }
 176:libraries/STM32F4xx_StdPeriph_Driver/src/stm32f4xx_gpio.c ****   else
 177:libraries/STM32F4xx_StdPeriph_Driver/src/stm32f4xx_gpio.c ****   {
 178:libraries/STM32F4xx_StdPeriph_Driver/src/stm32f4xx_gpio.c ****     if (GPIOx == GPIOK)
  91              		.loc 1 178 5 is_stmt 1 view .LVU23
  92              		.loc 1 178 8 is_stmt 0 view .LVU24
  93 003e 404B     		ldr	r3, .L24+40
  94 0040 9842     		cmp	r0, r3
  95 0042 12D1     		bne	.L1
 179:libraries/STM32F4xx_StdPeriph_Driver/src/stm32f4xx_gpio.c ****     {
 180:libraries/STM32F4xx_StdPeriph_Driver/src/stm32f4xx_gpio.c ****       RCC_AHB1PeriphResetCmd(RCC_AHB1Periph_GPIOK, ENABLE);
  96              		.loc 1 180 7 is_stmt 1 view .LVU25
  97 0044 0121     		movs	r1, #1
  98 0046 4FF48060 		mov	r0, #1024
  99              	.LVL1:
 100              		.loc 1 180 7 is_stmt 0 view .LVU26
 101 004a FFF7FEFF 		bl	RCC_AHB1PeriphResetCmd
 102              	.LVL2:
 181:libraries/STM32F4xx_StdPeriph_Driver/src/stm32f4xx_gpio.c ****       RCC_AHB1PeriphResetCmd(RCC_AHB1Periph_GPIOK, DISABLE);
 103              		.loc 1 181 7 is_stmt 1 view .LVU27
 104 004e 0021     		movs	r1, #0
 105 0050 4FF48060 		mov	r0, #1024
ARM GAS  C:\Users\ktkuru\AppData\Local\Temp\ccNxTYhi.s 			page 6


 106 0054 FFF7FEFF 		bl	RCC_AHB1PeriphResetCmd
 107              	.LVL3:
 182:libraries/STM32F4xx_StdPeriph_Driver/src/stm32f4xx_gpio.c ****     }
 183:libraries/STM32F4xx_StdPeriph_Driver/src/stm32f4xx_gpio.c ****   }
 184:libraries/STM32F4xx_StdPeriph_Driver/src/stm32f4xx_gpio.c **** }
 108              		.loc 1 184 1 is_stmt 0 view .LVU28
 109 0058 07E0     		b	.L1
 110              	.LVL4:
 111              	.L14:
 127:libraries/STM32F4xx_StdPeriph_Driver/src/stm32f4xx_gpio.c ****     RCC_AHB1PeriphResetCmd(RCC_AHB1Periph_GPIOA, DISABLE);
 112              		.loc 1 127 5 is_stmt 1 view .LVU29
 113 005a 0121     		movs	r1, #1
 114 005c 0846     		mov	r0, r1
 115              	.LVL5:
 127:libraries/STM32F4xx_StdPeriph_Driver/src/stm32f4xx_gpio.c ****     RCC_AHB1PeriphResetCmd(RCC_AHB1Periph_GPIOA, DISABLE);
 116              		.loc 1 127 5 is_stmt 0 view .LVU30
 117 005e FFF7FEFF 		bl	RCC_AHB1PeriphResetCmd
 118              	.LVL6:
 128:libraries/STM32F4xx_StdPeriph_Driver/src/stm32f4xx_gpio.c ****   }
 119              		.loc 1 128 5 is_stmt 1 view .LVU31
 120 0062 0021     		movs	r1, #0
 121 0064 0120     		movs	r0, #1
 122 0066 FFF7FEFF 		bl	RCC_AHB1PeriphResetCmd
 123              	.LVL7:
 124              	.L1:
 125              		.loc 1 184 1 is_stmt 0 view .LVU32
 126 006a 08BD     		pop	{r3, pc}
 127              	.LVL8:
 128              	.L15:
 132:libraries/STM32F4xx_StdPeriph_Driver/src/stm32f4xx_gpio.c ****     RCC_AHB1PeriphResetCmd(RCC_AHB1Periph_GPIOB, DISABLE);
 129              		.loc 1 132 5 is_stmt 1 view .LVU33
 130 006c 0121     		movs	r1, #1
 131 006e 0220     		movs	r0, #2
 132              	.LVL9:
 132:libraries/STM32F4xx_StdPeriph_Driver/src/stm32f4xx_gpio.c ****     RCC_AHB1PeriphResetCmd(RCC_AHB1Periph_GPIOB, DISABLE);
 133              		.loc 1 132 5 is_stmt 0 view .LVU34
 134 0070 FFF7FEFF 		bl	RCC_AHB1PeriphResetCmd
 135              	.LVL10:
 133:libraries/STM32F4xx_StdPeriph_Driver/src/stm32f4xx_gpio.c ****   }
 136              		.loc 1 133 5 is_stmt 1 view .LVU35
 137 0074 0021     		movs	r1, #0
 138 0076 0220     		movs	r0, #2
 139 0078 FFF7FEFF 		bl	RCC_AHB1PeriphResetCmd
 140              	.LVL11:
 141 007c F5E7     		b	.L1
 142              	.LVL12:
 143              	.L16:
 137:libraries/STM32F4xx_StdPeriph_Driver/src/stm32f4xx_gpio.c ****     RCC_AHB1PeriphResetCmd(RCC_AHB1Periph_GPIOC, DISABLE);
 144              		.loc 1 137 5 view .LVU36
 145 007e 0121     		movs	r1, #1
 146 0080 0420     		movs	r0, #4
 147              	.LVL13:
 137:libraries/STM32F4xx_StdPeriph_Driver/src/stm32f4xx_gpio.c ****     RCC_AHB1PeriphResetCmd(RCC_AHB1Periph_GPIOC, DISABLE);
 148              		.loc 1 137 5 is_stmt 0 view .LVU37
 149 0082 FFF7FEFF 		bl	RCC_AHB1PeriphResetCmd
 150              	.LVL14:
 138:libraries/STM32F4xx_StdPeriph_Driver/src/stm32f4xx_gpio.c ****   }
ARM GAS  C:\Users\ktkuru\AppData\Local\Temp\ccNxTYhi.s 			page 7


 151              		.loc 1 138 5 is_stmt 1 view .LVU38
 152 0086 0021     		movs	r1, #0
 153 0088 0420     		movs	r0, #4
 154 008a FFF7FEFF 		bl	RCC_AHB1PeriphResetCmd
 155              	.LVL15:
 156 008e ECE7     		b	.L1
 157              	.LVL16:
 158              	.L17:
 142:libraries/STM32F4xx_StdPeriph_Driver/src/stm32f4xx_gpio.c ****     RCC_AHB1PeriphResetCmd(RCC_AHB1Periph_GPIOD, DISABLE);
 159              		.loc 1 142 5 view .LVU39
 160 0090 0121     		movs	r1, #1
 161 0092 0820     		movs	r0, #8
 162              	.LVL17:
 142:libraries/STM32F4xx_StdPeriph_Driver/src/stm32f4xx_gpio.c ****     RCC_AHB1PeriphResetCmd(RCC_AHB1Periph_GPIOD, DISABLE);
 163              		.loc 1 142 5 is_stmt 0 view .LVU40
 164 0094 FFF7FEFF 		bl	RCC_AHB1PeriphResetCmd
 165              	.LVL18:
 143:libraries/STM32F4xx_StdPeriph_Driver/src/stm32f4xx_gpio.c ****   }
 166              		.loc 1 143 5 is_stmt 1 view .LVU41
 167 0098 0021     		movs	r1, #0
 168 009a 0820     		movs	r0, #8
 169 009c FFF7FEFF 		bl	RCC_AHB1PeriphResetCmd
 170              	.LVL19:
 171 00a0 E3E7     		b	.L1
 172              	.LVL20:
 173              	.L18:
 147:libraries/STM32F4xx_StdPeriph_Driver/src/stm32f4xx_gpio.c ****     RCC_AHB1PeriphResetCmd(RCC_AHB1Periph_GPIOE, DISABLE);
 174              		.loc 1 147 5 view .LVU42
 175 00a2 0121     		movs	r1, #1
 176 00a4 1020     		movs	r0, #16
 177              	.LVL21:
 147:libraries/STM32F4xx_StdPeriph_Driver/src/stm32f4xx_gpio.c ****     RCC_AHB1PeriphResetCmd(RCC_AHB1Periph_GPIOE, DISABLE);
 178              		.loc 1 147 5 is_stmt 0 view .LVU43
 179 00a6 FFF7FEFF 		bl	RCC_AHB1PeriphResetCmd
 180              	.LVL22:
 148:libraries/STM32F4xx_StdPeriph_Driver/src/stm32f4xx_gpio.c ****   }
 181              		.loc 1 148 5 is_stmt 1 view .LVU44
 182 00aa 0021     		movs	r1, #0
 183 00ac 1020     		movs	r0, #16
 184 00ae FFF7FEFF 		bl	RCC_AHB1PeriphResetCmd
 185              	.LVL23:
 186 00b2 DAE7     		b	.L1
 187              	.LVL24:
 188              	.L19:
 152:libraries/STM32F4xx_StdPeriph_Driver/src/stm32f4xx_gpio.c ****     RCC_AHB1PeriphResetCmd(RCC_AHB1Periph_GPIOF, DISABLE);
 189              		.loc 1 152 5 view .LVU45
 190 00b4 0121     		movs	r1, #1
 191 00b6 2020     		movs	r0, #32
 192              	.LVL25:
 152:libraries/STM32F4xx_StdPeriph_Driver/src/stm32f4xx_gpio.c ****     RCC_AHB1PeriphResetCmd(RCC_AHB1Periph_GPIOF, DISABLE);
 193              		.loc 1 152 5 is_stmt 0 view .LVU46
 194 00b8 FFF7FEFF 		bl	RCC_AHB1PeriphResetCmd
 195              	.LVL26:
 153:libraries/STM32F4xx_StdPeriph_Driver/src/stm32f4xx_gpio.c ****   }
 196              		.loc 1 153 5 is_stmt 1 view .LVU47
 197 00bc 0021     		movs	r1, #0
 198 00be 2020     		movs	r0, #32
ARM GAS  C:\Users\ktkuru\AppData\Local\Temp\ccNxTYhi.s 			page 8


 199 00c0 FFF7FEFF 		bl	RCC_AHB1PeriphResetCmd
 200              	.LVL27:
 201 00c4 D1E7     		b	.L1
 202              	.LVL28:
 203              	.L20:
 157:libraries/STM32F4xx_StdPeriph_Driver/src/stm32f4xx_gpio.c ****     RCC_AHB1PeriphResetCmd(RCC_AHB1Periph_GPIOG, DISABLE);
 204              		.loc 1 157 5 view .LVU48
 205 00c6 0121     		movs	r1, #1
 206 00c8 4020     		movs	r0, #64
 207              	.LVL29:
 157:libraries/STM32F4xx_StdPeriph_Driver/src/stm32f4xx_gpio.c ****     RCC_AHB1PeriphResetCmd(RCC_AHB1Periph_GPIOG, DISABLE);
 208              		.loc 1 157 5 is_stmt 0 view .LVU49
 209 00ca FFF7FEFF 		bl	RCC_AHB1PeriphResetCmd
 210              	.LVL30:
 158:libraries/STM32F4xx_StdPeriph_Driver/src/stm32f4xx_gpio.c ****   }
 211              		.loc 1 158 5 is_stmt 1 view .LVU50
 212 00ce 0021     		movs	r1, #0
 213 00d0 4020     		movs	r0, #64
 214 00d2 FFF7FEFF 		bl	RCC_AHB1PeriphResetCmd
 215              	.LVL31:
 216 00d6 C8E7     		b	.L1
 217              	.LVL32:
 218              	.L21:
 162:libraries/STM32F4xx_StdPeriph_Driver/src/stm32f4xx_gpio.c ****     RCC_AHB1PeriphResetCmd(RCC_AHB1Periph_GPIOH, DISABLE);
 219              		.loc 1 162 5 view .LVU51
 220 00d8 0121     		movs	r1, #1
 221 00da 8020     		movs	r0, #128
 222              	.LVL33:
 162:libraries/STM32F4xx_StdPeriph_Driver/src/stm32f4xx_gpio.c ****     RCC_AHB1PeriphResetCmd(RCC_AHB1Periph_GPIOH, DISABLE);
 223              		.loc 1 162 5 is_stmt 0 view .LVU52
 224 00dc FFF7FEFF 		bl	RCC_AHB1PeriphResetCmd
 225              	.LVL34:
 163:libraries/STM32F4xx_StdPeriph_Driver/src/stm32f4xx_gpio.c ****   }
 226              		.loc 1 163 5 is_stmt 1 view .LVU53
 227 00e0 0021     		movs	r1, #0
 228 00e2 8020     		movs	r0, #128
 229 00e4 FFF7FEFF 		bl	RCC_AHB1PeriphResetCmd
 230              	.LVL35:
 231 00e8 BFE7     		b	.L1
 232              	.LVL36:
 233              	.L22:
 168:libraries/STM32F4xx_StdPeriph_Driver/src/stm32f4xx_gpio.c ****     RCC_AHB1PeriphResetCmd(RCC_AHB1Periph_GPIOI, DISABLE);
 234              		.loc 1 168 5 view .LVU54
 235 00ea 0121     		movs	r1, #1
 236 00ec 4FF48070 		mov	r0, #256
 237              	.LVL37:
 168:libraries/STM32F4xx_StdPeriph_Driver/src/stm32f4xx_gpio.c ****     RCC_AHB1PeriphResetCmd(RCC_AHB1Periph_GPIOI, DISABLE);
 238              		.loc 1 168 5 is_stmt 0 view .LVU55
 239 00f0 FFF7FEFF 		bl	RCC_AHB1PeriphResetCmd
 240              	.LVL38:
 169:libraries/STM32F4xx_StdPeriph_Driver/src/stm32f4xx_gpio.c ****   }
 241              		.loc 1 169 5 is_stmt 1 view .LVU56
 242 00f4 0021     		movs	r1, #0
 243 00f6 4FF48070 		mov	r0, #256
 244 00fa FFF7FEFF 		bl	RCC_AHB1PeriphResetCmd
 245              	.LVL39:
 246 00fe B4E7     		b	.L1
ARM GAS  C:\Users\ktkuru\AppData\Local\Temp\ccNxTYhi.s 			page 9


 247              	.LVL40:
 248              	.L23:
 173:libraries/STM32F4xx_StdPeriph_Driver/src/stm32f4xx_gpio.c ****     RCC_AHB1PeriphResetCmd(RCC_AHB1Periph_GPIOJ, DISABLE);
 249              		.loc 1 173 5 view .LVU57
 250 0100 0121     		movs	r1, #1
 251 0102 4FF40070 		mov	r0, #512
 252              	.LVL41:
 173:libraries/STM32F4xx_StdPeriph_Driver/src/stm32f4xx_gpio.c ****     RCC_AHB1PeriphResetCmd(RCC_AHB1Periph_GPIOJ, DISABLE);
 253              		.loc 1 173 5 is_stmt 0 view .LVU58
 254 0106 FFF7FEFF 		bl	RCC_AHB1PeriphResetCmd
 255              	.LVL42:
 174:libraries/STM32F4xx_StdPeriph_Driver/src/stm32f4xx_gpio.c ****   }
 256              		.loc 1 174 5 is_stmt 1 view .LVU59
 257 010a 0021     		movs	r1, #0
 258 010c 4FF40070 		mov	r0, #512
 259 0110 FFF7FEFF 		bl	RCC_AHB1PeriphResetCmd
 260              	.LVL43:
 261 0114 A9E7     		b	.L1
 262              	.L25:
 263 0116 00BF     		.align	2
 264              	.L24:
 265 0118 00000240 		.word	1073872896
 266 011c 00040240 		.word	1073873920
 267 0120 00080240 		.word	1073874944
 268 0124 000C0240 		.word	1073875968
 269 0128 00100240 		.word	1073876992
 270 012c 00140240 		.word	1073878016
 271 0130 00180240 		.word	1073879040
 272 0134 001C0240 		.word	1073880064
 273 0138 00200240 		.word	1073881088
 274 013c 00240240 		.word	1073882112
 275 0140 00280240 		.word	1073883136
 276              		.cfi_endproc
 277              	.LFE123:
 279              		.section	.text.GPIO_Init,"ax",%progbits
 280              		.align	1
 281              		.global	GPIO_Init
 282              		.syntax unified
 283              		.thumb
 284              		.thumb_func
 286              	GPIO_Init:
 287              	.LVL44:
 288              	.LFB124:
 185:libraries/STM32F4xx_StdPeriph_Driver/src/stm32f4xx_gpio.c **** 
 186:libraries/STM32F4xx_StdPeriph_Driver/src/stm32f4xx_gpio.c **** /**
 187:libraries/STM32F4xx_StdPeriph_Driver/src/stm32f4xx_gpio.c ****   * @brief  Initializes the GPIOx peripheral according to the specified parameters in the GPIO_Init
 188:libraries/STM32F4xx_StdPeriph_Driver/src/stm32f4xx_gpio.c ****   * @param  GPIOx: where x can be (A..K) to select the GPIO peripheral for STM32F405xx/407xx and ST
 189:libraries/STM32F4xx_StdPeriph_Driver/src/stm32f4xx_gpio.c ****   *                      x can be (A..I) to select the GPIO peripheral for STM32F42xxx/43xxx device
 190:libraries/STM32F4xx_StdPeriph_Driver/src/stm32f4xx_gpio.c ****   *                      x can be (A, B, C, D and H) to select the GPIO peripheral for STM32F401xx 
 191:libraries/STM32F4xx_StdPeriph_Driver/src/stm32f4xx_gpio.c ****   * @param  GPIO_InitStruct: pointer to a GPIO_InitTypeDef structure that contains
 192:libraries/STM32F4xx_StdPeriph_Driver/src/stm32f4xx_gpio.c ****   *         the configuration information for the specified GPIO peripheral.
 193:libraries/STM32F4xx_StdPeriph_Driver/src/stm32f4xx_gpio.c ****   * @retval None
 194:libraries/STM32F4xx_StdPeriph_Driver/src/stm32f4xx_gpio.c ****   */
 195:libraries/STM32F4xx_StdPeriph_Driver/src/stm32f4xx_gpio.c **** void GPIO_Init(GPIO_TypeDef* GPIOx, GPIO_InitTypeDef* GPIO_InitStruct)
 196:libraries/STM32F4xx_StdPeriph_Driver/src/stm32f4xx_gpio.c **** {
 289              		.loc 1 196 1 view -0
 290              		.cfi_startproc
ARM GAS  C:\Users\ktkuru\AppData\Local\Temp\ccNxTYhi.s 			page 10


 291              		@ args = 0, pretend = 0, frame = 0
 292              		@ frame_needed = 0, uses_anonymous_args = 0
 197:libraries/STM32F4xx_StdPeriph_Driver/src/stm32f4xx_gpio.c ****   uint32_t pinpos = 0x00, pos = 0x00 , currentpin = 0x00;
 293              		.loc 1 197 3 view .LVU61
 198:libraries/STM32F4xx_StdPeriph_Driver/src/stm32f4xx_gpio.c **** 
 199:libraries/STM32F4xx_StdPeriph_Driver/src/stm32f4xx_gpio.c ****   /* Check the parameters */
 200:libraries/STM32F4xx_StdPeriph_Driver/src/stm32f4xx_gpio.c ****   assert_param(IS_GPIO_ALL_PERIPH(GPIOx));
 294              		.loc 1 200 3 view .LVU62
 201:libraries/STM32F4xx_StdPeriph_Driver/src/stm32f4xx_gpio.c ****   assert_param(IS_GPIO_PIN(GPIO_InitStruct->GPIO_Pin));
 295              		.loc 1 201 3 view .LVU63
 202:libraries/STM32F4xx_StdPeriph_Driver/src/stm32f4xx_gpio.c ****   assert_param(IS_GPIO_MODE(GPIO_InitStruct->GPIO_Mode));
 296              		.loc 1 202 3 view .LVU64
 203:libraries/STM32F4xx_StdPeriph_Driver/src/stm32f4xx_gpio.c ****   assert_param(IS_GPIO_PUPD(GPIO_InitStruct->GPIO_PuPd));
 297              		.loc 1 203 3 view .LVU65
 204:libraries/STM32F4xx_StdPeriph_Driver/src/stm32f4xx_gpio.c **** 
 205:libraries/STM32F4xx_StdPeriph_Driver/src/stm32f4xx_gpio.c ****   /* ------------------------- Configure the port pins ---------------- */
 206:libraries/STM32F4xx_StdPeriph_Driver/src/stm32f4xx_gpio.c ****   /*-- GPIO Mode Configuration --*/
 207:libraries/STM32F4xx_StdPeriph_Driver/src/stm32f4xx_gpio.c ****   for (pinpos = 0x00; pinpos < 0x10; pinpos++)
 298              		.loc 1 207 3 view .LVU66
 299              		.loc 1 207 15 is_stmt 0 view .LVU67
 300 0000 0022     		movs	r2, #0
 301              	.LVL45:
 302              		.loc 1 207 30 is_stmt 1 discriminator 1 view .LVU68
 303 0002 0F2A     		cmp	r2, #15
 304 0004 4DD8     		bhi	.L34
 196:libraries/STM32F4xx_StdPeriph_Driver/src/stm32f4xx_gpio.c ****   uint32_t pinpos = 0x00, pos = 0x00 , currentpin = 0x00;
 305              		.loc 1 196 1 is_stmt 0 view .LVU69
 306 0006 10B5     		push	{r4, lr}
 307              	.LCFI1:
 308              		.cfi_def_cfa_offset 8
 309              		.cfi_offset 4, -8
 310              		.cfi_offset 14, -4
 311 0008 14E0     		b	.L30
 312              	.LVL46:
 313              	.L29:
 208:libraries/STM32F4xx_StdPeriph_Driver/src/stm32f4xx_gpio.c ****   {
 209:libraries/STM32F4xx_StdPeriph_Driver/src/stm32f4xx_gpio.c ****     pos = ((uint32_t)0x01) << pinpos;
 210:libraries/STM32F4xx_StdPeriph_Driver/src/stm32f4xx_gpio.c ****     /* Get the port pins position */
 211:libraries/STM32F4xx_StdPeriph_Driver/src/stm32f4xx_gpio.c ****     currentpin = (GPIO_InitStruct->GPIO_Pin) & pos;
 212:libraries/STM32F4xx_StdPeriph_Driver/src/stm32f4xx_gpio.c **** 
 213:libraries/STM32F4xx_StdPeriph_Driver/src/stm32f4xx_gpio.c ****     if (currentpin == pos)
 214:libraries/STM32F4xx_StdPeriph_Driver/src/stm32f4xx_gpio.c ****     {
 215:libraries/STM32F4xx_StdPeriph_Driver/src/stm32f4xx_gpio.c ****       GPIOx->MODER  &= ~(GPIO_MODER_MODER0 << (pinpos * 2));
 216:libraries/STM32F4xx_StdPeriph_Driver/src/stm32f4xx_gpio.c ****       GPIOx->MODER |= (((uint32_t)GPIO_InitStruct->GPIO_Mode) << (pinpos * 2));
 217:libraries/STM32F4xx_StdPeriph_Driver/src/stm32f4xx_gpio.c **** 
 218:libraries/STM32F4xx_StdPeriph_Driver/src/stm32f4xx_gpio.c ****       if ((GPIO_InitStruct->GPIO_Mode == GPIO_Mode_OUT) || (GPIO_InitStruct->GPIO_Mode == GPIO_Mode
 219:libraries/STM32F4xx_StdPeriph_Driver/src/stm32f4xx_gpio.c ****       {
 220:libraries/STM32F4xx_StdPeriph_Driver/src/stm32f4xx_gpio.c ****         /* Check Speed mode parameters */
 221:libraries/STM32F4xx_StdPeriph_Driver/src/stm32f4xx_gpio.c ****         assert_param(IS_GPIO_SPEED(GPIO_InitStruct->GPIO_Speed));
 222:libraries/STM32F4xx_StdPeriph_Driver/src/stm32f4xx_gpio.c **** 
 223:libraries/STM32F4xx_StdPeriph_Driver/src/stm32f4xx_gpio.c ****         /* Speed mode configuration */
 224:libraries/STM32F4xx_StdPeriph_Driver/src/stm32f4xx_gpio.c ****         GPIOx->OSPEEDR &= ~(GPIO_OSPEEDER_OSPEEDR0 << (pinpos * 2));
 225:libraries/STM32F4xx_StdPeriph_Driver/src/stm32f4xx_gpio.c ****         GPIOx->OSPEEDR |= ((uint32_t)(GPIO_InitStruct->GPIO_Speed) << (pinpos * 2));
 226:libraries/STM32F4xx_StdPeriph_Driver/src/stm32f4xx_gpio.c **** 
 227:libraries/STM32F4xx_StdPeriph_Driver/src/stm32f4xx_gpio.c ****         /* Check Output mode parameters */
 228:libraries/STM32F4xx_StdPeriph_Driver/src/stm32f4xx_gpio.c ****         assert_param(IS_GPIO_OTYPE(GPIO_InitStruct->GPIO_OType));
 229:libraries/STM32F4xx_StdPeriph_Driver/src/stm32f4xx_gpio.c **** 
ARM GAS  C:\Users\ktkuru\AppData\Local\Temp\ccNxTYhi.s 			page 11


 230:libraries/STM32F4xx_StdPeriph_Driver/src/stm32f4xx_gpio.c ****         /* Output mode configuration*/
 231:libraries/STM32F4xx_StdPeriph_Driver/src/stm32f4xx_gpio.c ****         GPIOx->OTYPER  &= ~((GPIO_OTYPER_OT_0) << ((uint16_t)pinpos)) ;
 232:libraries/STM32F4xx_StdPeriph_Driver/src/stm32f4xx_gpio.c ****         GPIOx->OTYPER |= (uint16_t)(((uint16_t)GPIO_InitStruct->GPIO_OType) << ((uint16_t)pinpos));
 233:libraries/STM32F4xx_StdPeriph_Driver/src/stm32f4xx_gpio.c ****       }
 234:libraries/STM32F4xx_StdPeriph_Driver/src/stm32f4xx_gpio.c **** 
 235:libraries/STM32F4xx_StdPeriph_Driver/src/stm32f4xx_gpio.c ****       /* Pull-up Pull down resistor configuration*/
 236:libraries/STM32F4xx_StdPeriph_Driver/src/stm32f4xx_gpio.c ****       GPIOx->PUPDR &= ~(GPIO_PUPDR_PUPDR0 << ((uint16_t)pinpos * 2));
 314              		.loc 1 236 7 is_stmt 1 view .LVU70
 315              		.loc 1 236 12 is_stmt 0 view .LVU71
 316 000a C368     		ldr	r3, [r0, #12]
 317              		.loc 1 236 47 view .LVU72
 318 000c 94B2     		uxth	r4, r2
 319              		.loc 1 236 64 view .LVU73
 320 000e 6400     		lsls	r4, r4, #1
 321              		.loc 1 236 43 view .LVU74
 322 0010 4FF0030E 		mov	lr, #3
 323 0014 0EFA04FE 		lsl	lr, lr, r4
 324              		.loc 1 236 20 view .LVU75
 325 0018 23EA0E03 		bic	r3, r3, lr
 326 001c C360     		str	r3, [r0, #12]
 237:libraries/STM32F4xx_StdPeriph_Driver/src/stm32f4xx_gpio.c ****       GPIOx->PUPDR |= (((uint32_t)GPIO_InitStruct->GPIO_PuPd) << (pinpos * 2));
 327              		.loc 1 237 7 is_stmt 1 view .LVU76
 328              		.loc 1 237 12 is_stmt 0 view .LVU77
 329 001e C368     		ldr	r3, [r0, #12]
 330              		.loc 1 237 50 view .LVU78
 331 0020 91F807E0 		ldrb	lr, [r1, #7]	@ zero_extendqisi2
 332              		.loc 1 237 63 view .LVU79
 333 0024 0EFA0CFC 		lsl	ip, lr, ip
 334              		.loc 1 237 20 view .LVU80
 335 0028 43EA0C03 		orr	r3, r3, ip
 336 002c C360     		str	r3, [r0, #12]
 337              	.L28:
 207:libraries/STM32F4xx_StdPeriph_Driver/src/stm32f4xx_gpio.c ****   {
 338              		.loc 1 207 44 is_stmt 1 discriminator 2 view .LVU81
 339 002e 0132     		adds	r2, r2, #1
 340              	.LVL47:
 207:libraries/STM32F4xx_StdPeriph_Driver/src/stm32f4xx_gpio.c ****   {
 341              		.loc 1 207 30 discriminator 1 view .LVU82
 342 0030 0F2A     		cmp	r2, #15
 343 0032 35D8     		bhi	.L35
 344              	.LVL48:
 345              	.L30:
 209:libraries/STM32F4xx_StdPeriph_Driver/src/stm32f4xx_gpio.c ****     /* Get the port pins position */
 346              		.loc 1 209 5 view .LVU83
 209:libraries/STM32F4xx_StdPeriph_Driver/src/stm32f4xx_gpio.c ****     /* Get the port pins position */
 347              		.loc 1 209 9 is_stmt 0 view .LVU84
 348 0034 0123     		movs	r3, #1
 349 0036 9340     		lsls	r3, r3, r2
 350              	.LVL49:
 211:libraries/STM32F4xx_StdPeriph_Driver/src/stm32f4xx_gpio.c **** 
 351              		.loc 1 211 5 is_stmt 1 view .LVU85
 213:libraries/STM32F4xx_StdPeriph_Driver/src/stm32f4xx_gpio.c ****     {
 352              		.loc 1 213 5 view .LVU86
 213:libraries/STM32F4xx_StdPeriph_Driver/src/stm32f4xx_gpio.c ****     {
 353              		.loc 1 213 8 is_stmt 0 view .LVU87
 354 0038 0C68     		ldr	r4, [r1]
 355 003a A343     		bics	r3, r3, r4
ARM GAS  C:\Users\ktkuru\AppData\Local\Temp\ccNxTYhi.s 			page 12


 356              	.LVL50:
 213:libraries/STM32F4xx_StdPeriph_Driver/src/stm32f4xx_gpio.c ****     {
 357              		.loc 1 213 8 view .LVU88
 358 003c F7D1     		bne	.L28
 215:libraries/STM32F4xx_StdPeriph_Driver/src/stm32f4xx_gpio.c ****       GPIOx->MODER |= (((uint32_t)GPIO_InitStruct->GPIO_Mode) << (pinpos * 2));
 359              		.loc 1 215 7 is_stmt 1 view .LVU89
 215:libraries/STM32F4xx_StdPeriph_Driver/src/stm32f4xx_gpio.c ****       GPIOx->MODER |= (((uint32_t)GPIO_InitStruct->GPIO_Mode) << (pinpos * 2));
 360              		.loc 1 215 12 is_stmt 0 view .LVU90
 361 003e 0468     		ldr	r4, [r0]
 215:libraries/STM32F4xx_StdPeriph_Driver/src/stm32f4xx_gpio.c ****       GPIOx->MODER |= (((uint32_t)GPIO_InitStruct->GPIO_Mode) << (pinpos * 2));
 362              		.loc 1 215 55 view .LVU91
 363 0040 4FEA420C 		lsl	ip, r2, #1
 215:libraries/STM32F4xx_StdPeriph_Driver/src/stm32f4xx_gpio.c ****       GPIOx->MODER |= (((uint32_t)GPIO_InitStruct->GPIO_Mode) << (pinpos * 2));
 364              		.loc 1 215 44 view .LVU92
 365 0044 0323     		movs	r3, #3
 366 0046 03FA0CF3 		lsl	r3, r3, ip
 215:libraries/STM32F4xx_StdPeriph_Driver/src/stm32f4xx_gpio.c ****       GPIOx->MODER |= (((uint32_t)GPIO_InitStruct->GPIO_Mode) << (pinpos * 2));
 367              		.loc 1 215 24 view .LVU93
 368 004a 6FEA030E 		mvn	lr, r3
 215:libraries/STM32F4xx_StdPeriph_Driver/src/stm32f4xx_gpio.c ****       GPIOx->MODER |= (((uint32_t)GPIO_InitStruct->GPIO_Mode) << (pinpos * 2));
 369              		.loc 1 215 21 view .LVU94
 370 004e 24EA0303 		bic	r3, r4, r3
 371 0052 0360     		str	r3, [r0]
 372              	.LVL51:
 216:libraries/STM32F4xx_StdPeriph_Driver/src/stm32f4xx_gpio.c **** 
 373              		.loc 1 216 7 is_stmt 1 view .LVU95
 216:libraries/STM32F4xx_StdPeriph_Driver/src/stm32f4xx_gpio.c **** 
 374              		.loc 1 216 12 is_stmt 0 view .LVU96
 375 0054 0368     		ldr	r3, [r0]
 216:libraries/STM32F4xx_StdPeriph_Driver/src/stm32f4xx_gpio.c **** 
 376              		.loc 1 216 50 view .LVU97
 377 0056 0C79     		ldrb	r4, [r1, #4]	@ zero_extendqisi2
 216:libraries/STM32F4xx_StdPeriph_Driver/src/stm32f4xx_gpio.c **** 
 378              		.loc 1 216 63 view .LVU98
 379 0058 04FA0CF4 		lsl	r4, r4, ip
 216:libraries/STM32F4xx_StdPeriph_Driver/src/stm32f4xx_gpio.c **** 
 380              		.loc 1 216 20 view .LVU99
 381 005c 2343     		orrs	r3, r3, r4
 382 005e 0360     		str	r3, [r0]
 218:libraries/STM32F4xx_StdPeriph_Driver/src/stm32f4xx_gpio.c ****       {
 383              		.loc 1 218 7 is_stmt 1 view .LVU100
 218:libraries/STM32F4xx_StdPeriph_Driver/src/stm32f4xx_gpio.c ****       {
 384              		.loc 1 218 27 is_stmt 0 view .LVU101
 385 0060 0B79     		ldrb	r3, [r1, #4]	@ zero_extendqisi2
 218:libraries/STM32F4xx_StdPeriph_Driver/src/stm32f4xx_gpio.c ****       {
 386              		.loc 1 218 57 view .LVU102
 387 0062 013B     		subs	r3, r3, #1
 388 0064 DBB2     		uxtb	r3, r3
 218:libraries/STM32F4xx_StdPeriph_Driver/src/stm32f4xx_gpio.c ****       {
 389              		.loc 1 218 10 view .LVU103
 390 0066 012B     		cmp	r3, #1
 391 0068 CFD8     		bhi	.L29
 221:libraries/STM32F4xx_StdPeriph_Driver/src/stm32f4xx_gpio.c **** 
 392              		.loc 1 221 9 is_stmt 1 view .LVU104
 224:libraries/STM32F4xx_StdPeriph_Driver/src/stm32f4xx_gpio.c ****         GPIOx->OSPEEDR |= ((uint32_t)(GPIO_InitStruct->GPIO_Speed) << (pinpos * 2));
 393              		.loc 1 224 9 view .LVU105
 224:libraries/STM32F4xx_StdPeriph_Driver/src/stm32f4xx_gpio.c ****         GPIOx->OSPEEDR |= ((uint32_t)(GPIO_InitStruct->GPIO_Speed) << (pinpos * 2));
ARM GAS  C:\Users\ktkuru\AppData\Local\Temp\ccNxTYhi.s 			page 13


 394              		.loc 1 224 14 is_stmt 0 view .LVU106
 395 006a 8368     		ldr	r3, [r0, #8]
 224:libraries/STM32F4xx_StdPeriph_Driver/src/stm32f4xx_gpio.c ****         GPIOx->OSPEEDR |= ((uint32_t)(GPIO_InitStruct->GPIO_Speed) << (pinpos * 2));
 396              		.loc 1 224 24 view .LVU107
 397 006c 0EEA0303 		and	r3, lr, r3
 398 0070 8360     		str	r3, [r0, #8]
 225:libraries/STM32F4xx_StdPeriph_Driver/src/stm32f4xx_gpio.c **** 
 399              		.loc 1 225 9 is_stmt 1 view .LVU108
 225:libraries/STM32F4xx_StdPeriph_Driver/src/stm32f4xx_gpio.c **** 
 400              		.loc 1 225 14 is_stmt 0 view .LVU109
 401 0072 8368     		ldr	r3, [r0, #8]
 225:libraries/STM32F4xx_StdPeriph_Driver/src/stm32f4xx_gpio.c **** 
 402              		.loc 1 225 54 view .LVU110
 403 0074 4C79     		ldrb	r4, [r1, #5]	@ zero_extendqisi2
 225:libraries/STM32F4xx_StdPeriph_Driver/src/stm32f4xx_gpio.c **** 
 404              		.loc 1 225 68 view .LVU111
 405 0076 04FA0CF4 		lsl	r4, r4, ip
 225:libraries/STM32F4xx_StdPeriph_Driver/src/stm32f4xx_gpio.c **** 
 406              		.loc 1 225 24 view .LVU112
 407 007a 2343     		orrs	r3, r3, r4
 408 007c 8360     		str	r3, [r0, #8]
 228:libraries/STM32F4xx_StdPeriph_Driver/src/stm32f4xx_gpio.c **** 
 409              		.loc 1 228 9 is_stmt 1 view .LVU113
 231:libraries/STM32F4xx_StdPeriph_Driver/src/stm32f4xx_gpio.c ****         GPIOx->OTYPER |= (uint16_t)(((uint16_t)GPIO_InitStruct->GPIO_OType) << ((uint16_t)pinpos));
 410              		.loc 1 231 9 view .LVU114
 231:libraries/STM32F4xx_StdPeriph_Driver/src/stm32f4xx_gpio.c ****         GPIOx->OTYPER |= (uint16_t)(((uint16_t)GPIO_InitStruct->GPIO_OType) << ((uint16_t)pinpos));
 411              		.loc 1 231 14 is_stmt 0 view .LVU115
 412 007e 4368     		ldr	r3, [r0, #4]
 231:libraries/STM32F4xx_StdPeriph_Driver/src/stm32f4xx_gpio.c ****         GPIOx->OTYPER |= (uint16_t)(((uint16_t)GPIO_InitStruct->GPIO_OType) << ((uint16_t)pinpos));
 413              		.loc 1 231 52 view .LVU116
 414 0080 1FFA82FE 		uxth	lr, r2
 231:libraries/STM32F4xx_StdPeriph_Driver/src/stm32f4xx_gpio.c ****         GPIOx->OTYPER |= (uint16_t)(((uint16_t)GPIO_InitStruct->GPIO_OType) << ((uint16_t)pinpos));
 415              		.loc 1 231 48 view .LVU117
 416 0084 0124     		movs	r4, #1
 417              	.LVL52:
 231:libraries/STM32F4xx_StdPeriph_Driver/src/stm32f4xx_gpio.c ****         GPIOx->OTYPER |= (uint16_t)(((uint16_t)GPIO_InitStruct->GPIO_OType) << ((uint16_t)pinpos));
 418              		.loc 1 231 48 view .LVU118
 419 0086 04FA0EF4 		lsl	r4, r4, lr
 420              	.LVL53:
 231:libraries/STM32F4xx_StdPeriph_Driver/src/stm32f4xx_gpio.c ****         GPIOx->OTYPER |= (uint16_t)(((uint16_t)GPIO_InitStruct->GPIO_OType) << ((uint16_t)pinpos));
 421              		.loc 1 231 24 view .LVU119
 422 008a 23EA0403 		bic	r3, r3, r4
 423 008e 4360     		str	r3, [r0, #4]
 232:libraries/STM32F4xx_StdPeriph_Driver/src/stm32f4xx_gpio.c ****       }
 424              		.loc 1 232 9 is_stmt 1 view .LVU120
 232:libraries/STM32F4xx_StdPeriph_Driver/src/stm32f4xx_gpio.c ****       }
 425              		.loc 1 232 14 is_stmt 0 view .LVU121
 426 0090 4468     		ldr	r4, [r0, #4]
 232:libraries/STM32F4xx_StdPeriph_Driver/src/stm32f4xx_gpio.c ****       }
 427              		.loc 1 232 63 view .LVU122
 428 0092 8B79     		ldrb	r3, [r1, #6]	@ zero_extendqisi2
 232:libraries/STM32F4xx_StdPeriph_Driver/src/stm32f4xx_gpio.c ****       }
 429              		.loc 1 232 77 view .LVU123
 430 0094 03FA0EF3 		lsl	r3, r3, lr
 232:libraries/STM32F4xx_StdPeriph_Driver/src/stm32f4xx_gpio.c ****       }
 431              		.loc 1 232 26 view .LVU124
 432 0098 9BB2     		uxth	r3, r3
ARM GAS  C:\Users\ktkuru\AppData\Local\Temp\ccNxTYhi.s 			page 14


 232:libraries/STM32F4xx_StdPeriph_Driver/src/stm32f4xx_gpio.c ****       }
 433              		.loc 1 232 23 view .LVU125
 434 009a 2343     		orrs	r3, r3, r4
 435 009c 4360     		str	r3, [r0, #4]
 436 009e B4E7     		b	.L29
 437              	.LVL54:
 438              	.L35:
 238:libraries/STM32F4xx_StdPeriph_Driver/src/stm32f4xx_gpio.c ****     }
 239:libraries/STM32F4xx_StdPeriph_Driver/src/stm32f4xx_gpio.c ****   }
 240:libraries/STM32F4xx_StdPeriph_Driver/src/stm32f4xx_gpio.c **** }
 439              		.loc 1 240 1 view .LVU126
 440 00a0 10BD     		pop	{r4, pc}
 441              	.LVL55:
 442              	.L34:
 443              	.LCFI2:
 444              		.cfi_def_cfa_offset 0
 445              		.cfi_restore 4
 446              		.cfi_restore 14
 447              		.loc 1 240 1 view .LVU127
 448 00a2 7047     		bx	lr
 449              		.cfi_endproc
 450              	.LFE124:
 452              		.section	.text.GPIO_StructInit,"ax",%progbits
 453              		.align	1
 454              		.global	GPIO_StructInit
 455              		.syntax unified
 456              		.thumb
 457              		.thumb_func
 459              	GPIO_StructInit:
 460              	.LVL56:
 461              	.LFB125:
 241:libraries/STM32F4xx_StdPeriph_Driver/src/stm32f4xx_gpio.c **** 
 242:libraries/STM32F4xx_StdPeriph_Driver/src/stm32f4xx_gpio.c **** /**
 243:libraries/STM32F4xx_StdPeriph_Driver/src/stm32f4xx_gpio.c ****   * @brief  Fills each GPIO_InitStruct member with its default value.
 244:libraries/STM32F4xx_StdPeriph_Driver/src/stm32f4xx_gpio.c ****   * @param  GPIO_InitStruct : pointer to a GPIO_InitTypeDef structure which will be initialized.
 245:libraries/STM32F4xx_StdPeriph_Driver/src/stm32f4xx_gpio.c ****   * @retval None
 246:libraries/STM32F4xx_StdPeriph_Driver/src/stm32f4xx_gpio.c ****   */
 247:libraries/STM32F4xx_StdPeriph_Driver/src/stm32f4xx_gpio.c **** void GPIO_StructInit(GPIO_InitTypeDef* GPIO_InitStruct)
 248:libraries/STM32F4xx_StdPeriph_Driver/src/stm32f4xx_gpio.c **** {
 462              		.loc 1 248 1 is_stmt 1 view -0
 463              		.cfi_startproc
 464              		@ args = 0, pretend = 0, frame = 0
 465              		@ frame_needed = 0, uses_anonymous_args = 0
 466              		@ link register save eliminated.
 249:libraries/STM32F4xx_StdPeriph_Driver/src/stm32f4xx_gpio.c ****   /* Reset GPIO init structure parameters values */
 250:libraries/STM32F4xx_StdPeriph_Driver/src/stm32f4xx_gpio.c ****   GPIO_InitStruct->GPIO_Pin  = GPIO_Pin_All;
 467              		.loc 1 250 3 view .LVU129
 468              		.loc 1 250 30 is_stmt 0 view .LVU130
 469 0000 4FF6FF73 		movw	r3, #65535
 470 0004 0360     		str	r3, [r0]
 251:libraries/STM32F4xx_StdPeriph_Driver/src/stm32f4xx_gpio.c ****   GPIO_InitStruct->GPIO_Mode = GPIO_Mode_IN;
 471              		.loc 1 251 3 is_stmt 1 view .LVU131
 472              		.loc 1 251 30 is_stmt 0 view .LVU132
 473 0006 0023     		movs	r3, #0
 474 0008 0371     		strb	r3, [r0, #4]
 252:libraries/STM32F4xx_StdPeriph_Driver/src/stm32f4xx_gpio.c ****   GPIO_InitStruct->GPIO_Speed = GPIO_Speed_2MHz;
 475              		.loc 1 252 3 is_stmt 1 view .LVU133
ARM GAS  C:\Users\ktkuru\AppData\Local\Temp\ccNxTYhi.s 			page 15


 476              		.loc 1 252 31 is_stmt 0 view .LVU134
 477 000a 4371     		strb	r3, [r0, #5]
 253:libraries/STM32F4xx_StdPeriph_Driver/src/stm32f4xx_gpio.c ****   GPIO_InitStruct->GPIO_OType = GPIO_OType_PP;
 478              		.loc 1 253 3 is_stmt 1 view .LVU135
 479              		.loc 1 253 31 is_stmt 0 view .LVU136
 480 000c 8371     		strb	r3, [r0, #6]
 254:libraries/STM32F4xx_StdPeriph_Driver/src/stm32f4xx_gpio.c ****   GPIO_InitStruct->GPIO_PuPd = GPIO_PuPd_NOPULL;
 481              		.loc 1 254 3 is_stmt 1 view .LVU137
 482              		.loc 1 254 30 is_stmt 0 view .LVU138
 483 000e C371     		strb	r3, [r0, #7]
 255:libraries/STM32F4xx_StdPeriph_Driver/src/stm32f4xx_gpio.c **** }
 484              		.loc 1 255 1 view .LVU139
 485 0010 7047     		bx	lr
 486              		.cfi_endproc
 487              	.LFE125:
 489              		.section	.text.GPIO_PinLockConfig,"ax",%progbits
 490              		.align	1
 491              		.global	GPIO_PinLockConfig
 492              		.syntax unified
 493              		.thumb
 494              		.thumb_func
 496              	GPIO_PinLockConfig:
 497              	.LVL57:
 498              	.LFB126:
 256:libraries/STM32F4xx_StdPeriph_Driver/src/stm32f4xx_gpio.c **** 
 257:libraries/STM32F4xx_StdPeriph_Driver/src/stm32f4xx_gpio.c **** /**
 258:libraries/STM32F4xx_StdPeriph_Driver/src/stm32f4xx_gpio.c ****   * @brief  Locks GPIO Pins configuration registers.
 259:libraries/STM32F4xx_StdPeriph_Driver/src/stm32f4xx_gpio.c ****   * @note   The locked registers are GPIOx_MODER, GPIOx_OTYPER, GPIOx_OSPEEDR,
 260:libraries/STM32F4xx_StdPeriph_Driver/src/stm32f4xx_gpio.c ****   *         GPIOx_PUPDR, GPIOx_AFRL and GPIOx_AFRH.
 261:libraries/STM32F4xx_StdPeriph_Driver/src/stm32f4xx_gpio.c ****   * @note   The configuration of the locked GPIO pins can no longer be modified
 262:libraries/STM32F4xx_StdPeriph_Driver/src/stm32f4xx_gpio.c ****   *         until the next reset.
 263:libraries/STM32F4xx_StdPeriph_Driver/src/stm32f4xx_gpio.c ****   * @param  GPIOx: where x can be (A..K) to select the GPIO peripheral for STM32F405xx/407xx and ST
 264:libraries/STM32F4xx_StdPeriph_Driver/src/stm32f4xx_gpio.c ****   *                      x can be (A..I) to select the GPIO peripheral for STM32F42xxx/43xxx device
 265:libraries/STM32F4xx_StdPeriph_Driver/src/stm32f4xx_gpio.c ****   *                      x can be (A, B, C, D and H) to select the GPIO peripheral for STM32F401xx 
 266:libraries/STM32F4xx_StdPeriph_Driver/src/stm32f4xx_gpio.c ****   * @param  GPIO_Pin: specifies the port bit to be locked.
 267:libraries/STM32F4xx_StdPeriph_Driver/src/stm32f4xx_gpio.c ****   *          This parameter can be any combination of GPIO_Pin_x where x can be (0..15).
 268:libraries/STM32F4xx_StdPeriph_Driver/src/stm32f4xx_gpio.c ****   * @retval None
 269:libraries/STM32F4xx_StdPeriph_Driver/src/stm32f4xx_gpio.c ****   */
 270:libraries/STM32F4xx_StdPeriph_Driver/src/stm32f4xx_gpio.c **** void GPIO_PinLockConfig(GPIO_TypeDef* GPIOx, uint16_t GPIO_Pin)
 271:libraries/STM32F4xx_StdPeriph_Driver/src/stm32f4xx_gpio.c **** {
 499              		.loc 1 271 1 is_stmt 1 view -0
 500              		.cfi_startproc
 501              		@ args = 0, pretend = 0, frame = 8
 502              		@ frame_needed = 0, uses_anonymous_args = 0
 503              		@ link register save eliminated.
 504              		.loc 1 271 1 is_stmt 0 view .LVU141
 505 0000 82B0     		sub	sp, sp, #8
 506              	.LCFI3:
 507              		.cfi_def_cfa_offset 8
 272:libraries/STM32F4xx_StdPeriph_Driver/src/stm32f4xx_gpio.c ****   __IO uint32_t tmp = 0x00010000;
 508              		.loc 1 272 3 is_stmt 1 view .LVU142
 509              		.loc 1 272 17 is_stmt 0 view .LVU143
 510 0002 4FF48033 		mov	r3, #65536
 511 0006 0193     		str	r3, [sp, #4]
 273:libraries/STM32F4xx_StdPeriph_Driver/src/stm32f4xx_gpio.c **** 
 274:libraries/STM32F4xx_StdPeriph_Driver/src/stm32f4xx_gpio.c ****   /* Check the parameters */
 275:libraries/STM32F4xx_StdPeriph_Driver/src/stm32f4xx_gpio.c ****   assert_param(IS_GPIO_ALL_PERIPH(GPIOx));
ARM GAS  C:\Users\ktkuru\AppData\Local\Temp\ccNxTYhi.s 			page 16


 512              		.loc 1 275 3 is_stmt 1 view .LVU144
 276:libraries/STM32F4xx_StdPeriph_Driver/src/stm32f4xx_gpio.c ****   assert_param(IS_GPIO_PIN(GPIO_Pin));
 513              		.loc 1 276 3 view .LVU145
 277:libraries/STM32F4xx_StdPeriph_Driver/src/stm32f4xx_gpio.c **** 
 278:libraries/STM32F4xx_StdPeriph_Driver/src/stm32f4xx_gpio.c ****   tmp |= GPIO_Pin;
 514              		.loc 1 278 3 view .LVU146
 515              		.loc 1 278 7 is_stmt 0 view .LVU147
 516 0008 019B     		ldr	r3, [sp, #4]
 517 000a 0B43     		orrs	r3, r3, r1
 518 000c 0193     		str	r3, [sp, #4]
 279:libraries/STM32F4xx_StdPeriph_Driver/src/stm32f4xx_gpio.c ****   /* Set LCKK bit */
 280:libraries/STM32F4xx_StdPeriph_Driver/src/stm32f4xx_gpio.c ****   GPIOx->LCKR = tmp;
 519              		.loc 1 280 3 is_stmt 1 view .LVU148
 520              		.loc 1 280 15 is_stmt 0 view .LVU149
 521 000e 019B     		ldr	r3, [sp, #4]
 522 0010 C361     		str	r3, [r0, #28]
 281:libraries/STM32F4xx_StdPeriph_Driver/src/stm32f4xx_gpio.c ****   /* Reset LCKK bit */
 282:libraries/STM32F4xx_StdPeriph_Driver/src/stm32f4xx_gpio.c ****   GPIOx->LCKR =  GPIO_Pin;
 523              		.loc 1 282 3 is_stmt 1 view .LVU150
 524              		.loc 1 282 15 is_stmt 0 view .LVU151
 525 0012 C161     		str	r1, [r0, #28]
 283:libraries/STM32F4xx_StdPeriph_Driver/src/stm32f4xx_gpio.c ****   /* Set LCKK bit */
 284:libraries/STM32F4xx_StdPeriph_Driver/src/stm32f4xx_gpio.c ****   GPIOx->LCKR = tmp;
 526              		.loc 1 284 3 is_stmt 1 view .LVU152
 527              		.loc 1 284 15 is_stmt 0 view .LVU153
 528 0014 019B     		ldr	r3, [sp, #4]
 529 0016 C361     		str	r3, [r0, #28]
 285:libraries/STM32F4xx_StdPeriph_Driver/src/stm32f4xx_gpio.c ****   /* Read LCKK bit*/
 286:libraries/STM32F4xx_StdPeriph_Driver/src/stm32f4xx_gpio.c ****   tmp = GPIOx->LCKR;
 530              		.loc 1 286 3 is_stmt 1 view .LVU154
 531              		.loc 1 286 14 is_stmt 0 view .LVU155
 532 0018 C369     		ldr	r3, [r0, #28]
 533              		.loc 1 286 7 view .LVU156
 534 001a 0193     		str	r3, [sp, #4]
 287:libraries/STM32F4xx_StdPeriph_Driver/src/stm32f4xx_gpio.c ****   /* Read LCKK bit*/
 288:libraries/STM32F4xx_StdPeriph_Driver/src/stm32f4xx_gpio.c ****   tmp = GPIOx->LCKR;
 535              		.loc 1 288 3 is_stmt 1 view .LVU157
 536              		.loc 1 288 14 is_stmt 0 view .LVU158
 537 001c C369     		ldr	r3, [r0, #28]
 538              		.loc 1 288 7 view .LVU159
 539 001e 0193     		str	r3, [sp, #4]
 289:libraries/STM32F4xx_StdPeriph_Driver/src/stm32f4xx_gpio.c **** }
 540              		.loc 1 289 1 view .LVU160
 541 0020 02B0     		add	sp, sp, #8
 542              	.LCFI4:
 543              		.cfi_def_cfa_offset 0
 544              		@ sp needed
 545 0022 7047     		bx	lr
 546              		.cfi_endproc
 547              	.LFE126:
 549              		.section	.text.GPIO_ReadInputDataBit,"ax",%progbits
 550              		.align	1
 551              		.global	GPIO_ReadInputDataBit
 552              		.syntax unified
 553              		.thumb
 554              		.thumb_func
 556              	GPIO_ReadInputDataBit:
ARM GAS  C:\Users\ktkuru\AppData\Local\Temp\ccNxTYhi.s 			page 17


 557              	.LVL58:
 558              	.LFB127:
 290:libraries/STM32F4xx_StdPeriph_Driver/src/stm32f4xx_gpio.c **** 
 291:libraries/STM32F4xx_StdPeriph_Driver/src/stm32f4xx_gpio.c **** /**
 292:libraries/STM32F4xx_StdPeriph_Driver/src/stm32f4xx_gpio.c ****   * @}
 293:libraries/STM32F4xx_StdPeriph_Driver/src/stm32f4xx_gpio.c ****   */
 294:libraries/STM32F4xx_StdPeriph_Driver/src/stm32f4xx_gpio.c **** 
 295:libraries/STM32F4xx_StdPeriph_Driver/src/stm32f4xx_gpio.c **** /** @defgroup GPIO_Group2 GPIO Read and Write
 296:libraries/STM32F4xx_StdPeriph_Driver/src/stm32f4xx_gpio.c ****  *  @brief   GPIO Read and Write
 297:libraries/STM32F4xx_StdPeriph_Driver/src/stm32f4xx_gpio.c ****  *
 298:libraries/STM32F4xx_StdPeriph_Driver/src/stm32f4xx_gpio.c **** @verbatim   
 299:libraries/STM32F4xx_StdPeriph_Driver/src/stm32f4xx_gpio.c ****  ===============================================================================
 300:libraries/STM32F4xx_StdPeriph_Driver/src/stm32f4xx_gpio.c ****                          ##### GPIO Read and Write #####
 301:libraries/STM32F4xx_StdPeriph_Driver/src/stm32f4xx_gpio.c ****  ===============================================================================  
 302:libraries/STM32F4xx_StdPeriph_Driver/src/stm32f4xx_gpio.c **** 
 303:libraries/STM32F4xx_StdPeriph_Driver/src/stm32f4xx_gpio.c **** @endverbatim
 304:libraries/STM32F4xx_StdPeriph_Driver/src/stm32f4xx_gpio.c ****   * @{
 305:libraries/STM32F4xx_StdPeriph_Driver/src/stm32f4xx_gpio.c ****   */
 306:libraries/STM32F4xx_StdPeriph_Driver/src/stm32f4xx_gpio.c **** 
 307:libraries/STM32F4xx_StdPeriph_Driver/src/stm32f4xx_gpio.c **** /**
 308:libraries/STM32F4xx_StdPeriph_Driver/src/stm32f4xx_gpio.c ****   * @brief  Reads the specified input port pin.
 309:libraries/STM32F4xx_StdPeriph_Driver/src/stm32f4xx_gpio.c ****   * @param  GPIOx: where x can be (A..K) to select the GPIO peripheral for STM32F405xx/407xx and ST
 310:libraries/STM32F4xx_StdPeriph_Driver/src/stm32f4xx_gpio.c ****   *                      x can be (A..I) to select the GPIO peripheral for STM32F42xxx/43xxx device
 311:libraries/STM32F4xx_StdPeriph_Driver/src/stm32f4xx_gpio.c ****   *                      x can be (A, B, C, D and H) to select the GPIO peripheral for STM32F401xx 
 312:libraries/STM32F4xx_StdPeriph_Driver/src/stm32f4xx_gpio.c ****   * @param  GPIO_Pin: specifies the port bit to read.
 313:libraries/STM32F4xx_StdPeriph_Driver/src/stm32f4xx_gpio.c ****   *         This parameter can be GPIO_Pin_x where x can be (0..15).
 314:libraries/STM32F4xx_StdPeriph_Driver/src/stm32f4xx_gpio.c ****   * @retval The input port pin value.
 315:libraries/STM32F4xx_StdPeriph_Driver/src/stm32f4xx_gpio.c ****   */
 316:libraries/STM32F4xx_StdPeriph_Driver/src/stm32f4xx_gpio.c **** uint8_t GPIO_ReadInputDataBit(GPIO_TypeDef* GPIOx, uint16_t GPIO_Pin)
 317:libraries/STM32F4xx_StdPeriph_Driver/src/stm32f4xx_gpio.c **** {
 559              		.loc 1 317 1 is_stmt 1 view -0
 560              		.cfi_startproc
 561              		@ args = 0, pretend = 0, frame = 0
 562              		@ frame_needed = 0, uses_anonymous_args = 0
 563              		@ link register save eliminated.
 318:libraries/STM32F4xx_StdPeriph_Driver/src/stm32f4xx_gpio.c ****   uint8_t bitstatus = 0x00;
 564              		.loc 1 318 3 view .LVU162
 319:libraries/STM32F4xx_StdPeriph_Driver/src/stm32f4xx_gpio.c **** 
 320:libraries/STM32F4xx_StdPeriph_Driver/src/stm32f4xx_gpio.c ****   /* Check the parameters */
 321:libraries/STM32F4xx_StdPeriph_Driver/src/stm32f4xx_gpio.c ****   assert_param(IS_GPIO_ALL_PERIPH(GPIOx));
 565              		.loc 1 321 3 view .LVU163
 322:libraries/STM32F4xx_StdPeriph_Driver/src/stm32f4xx_gpio.c ****   assert_param(IS_GET_GPIO_PIN(GPIO_Pin));
 566              		.loc 1 322 3 view .LVU164
 323:libraries/STM32F4xx_StdPeriph_Driver/src/stm32f4xx_gpio.c **** 
 324:libraries/STM32F4xx_StdPeriph_Driver/src/stm32f4xx_gpio.c ****   if ((GPIOx->IDR & GPIO_Pin) != (uint32_t)Bit_RESET)
 567              		.loc 1 324 3 view .LVU165
 568              		.loc 1 324 13 is_stmt 0 view .LVU166
 569 0000 0369     		ldr	r3, [r0, #16]
 570              		.loc 1 324 6 view .LVU167
 571 0002 1942     		tst	r1, r3
 572 0004 01D0     		beq	.L41
 325:libraries/STM32F4xx_StdPeriph_Driver/src/stm32f4xx_gpio.c ****   {
 326:libraries/STM32F4xx_StdPeriph_Driver/src/stm32f4xx_gpio.c ****     bitstatus = (uint8_t)Bit_SET;
 573              		.loc 1 326 15 view .LVU168
 574 0006 0120     		movs	r0, #1
 575              	.LVL59:
 576              		.loc 1 326 15 view .LVU169
ARM GAS  C:\Users\ktkuru\AppData\Local\Temp\ccNxTYhi.s 			page 18


 577 0008 7047     		bx	lr
 578              	.LVL60:
 579              	.L41:
 327:libraries/STM32F4xx_StdPeriph_Driver/src/stm32f4xx_gpio.c ****   }
 328:libraries/STM32F4xx_StdPeriph_Driver/src/stm32f4xx_gpio.c ****   else
 329:libraries/STM32F4xx_StdPeriph_Driver/src/stm32f4xx_gpio.c ****   {
 330:libraries/STM32F4xx_StdPeriph_Driver/src/stm32f4xx_gpio.c ****     bitstatus = (uint8_t)Bit_RESET;
 580              		.loc 1 330 15 view .LVU170
 581 000a 0020     		movs	r0, #0
 582              	.LVL61:
 331:libraries/STM32F4xx_StdPeriph_Driver/src/stm32f4xx_gpio.c ****   }
 332:libraries/STM32F4xx_StdPeriph_Driver/src/stm32f4xx_gpio.c ****   return bitstatus;
 583              		.loc 1 332 3 is_stmt 1 view .LVU171
 333:libraries/STM32F4xx_StdPeriph_Driver/src/stm32f4xx_gpio.c **** }
 584              		.loc 1 333 1 is_stmt 0 view .LVU172
 585 000c 7047     		bx	lr
 586              		.cfi_endproc
 587              	.LFE127:
 589              		.section	.text.GPIO_ReadInputData,"ax",%progbits
 590              		.align	1
 591              		.global	GPIO_ReadInputData
 592              		.syntax unified
 593              		.thumb
 594              		.thumb_func
 596              	GPIO_ReadInputData:
 597              	.LVL62:
 598              	.LFB128:
 334:libraries/STM32F4xx_StdPeriph_Driver/src/stm32f4xx_gpio.c **** 
 335:libraries/STM32F4xx_StdPeriph_Driver/src/stm32f4xx_gpio.c **** /**
 336:libraries/STM32F4xx_StdPeriph_Driver/src/stm32f4xx_gpio.c ****   * @brief  Reads the specified GPIO input data port.
 337:libraries/STM32F4xx_StdPeriph_Driver/src/stm32f4xx_gpio.c ****   * @param  GPIOx: where x can be (A..K) to select the GPIO peripheral for STM32F405xx/407xx and ST
 338:libraries/STM32F4xx_StdPeriph_Driver/src/stm32f4xx_gpio.c ****   *                      x can be (A..I) to select the GPIO peripheral for STM32F42xxx/43xxx device
 339:libraries/STM32F4xx_StdPeriph_Driver/src/stm32f4xx_gpio.c ****   *                      x can be (A, B, C, D and H) to select the GPIO peripheral for STM32F401xx 
 340:libraries/STM32F4xx_StdPeriph_Driver/src/stm32f4xx_gpio.c ****   * @retval GPIO input data port value.
 341:libraries/STM32F4xx_StdPeriph_Driver/src/stm32f4xx_gpio.c ****   */
 342:libraries/STM32F4xx_StdPeriph_Driver/src/stm32f4xx_gpio.c **** uint16_t GPIO_ReadInputData(GPIO_TypeDef* GPIOx)
 343:libraries/STM32F4xx_StdPeriph_Driver/src/stm32f4xx_gpio.c **** {
 599              		.loc 1 343 1 is_stmt 1 view -0
 600              		.cfi_startproc
 601              		@ args = 0, pretend = 0, frame = 0
 602              		@ frame_needed = 0, uses_anonymous_args = 0
 603              		@ link register save eliminated.
 344:libraries/STM32F4xx_StdPeriph_Driver/src/stm32f4xx_gpio.c ****   /* Check the parameters */
 345:libraries/STM32F4xx_StdPeriph_Driver/src/stm32f4xx_gpio.c ****   assert_param(IS_GPIO_ALL_PERIPH(GPIOx));
 604              		.loc 1 345 3 view .LVU174
 346:libraries/STM32F4xx_StdPeriph_Driver/src/stm32f4xx_gpio.c **** 
 347:libraries/STM32F4xx_StdPeriph_Driver/src/stm32f4xx_gpio.c ****   return ((uint16_t)GPIOx->IDR);
 605              		.loc 1 347 3 view .LVU175
 606              		.loc 1 347 26 is_stmt 0 view .LVU176
 607 0000 0069     		ldr	r0, [r0, #16]
 608              	.LVL63:
 348:libraries/STM32F4xx_StdPeriph_Driver/src/stm32f4xx_gpio.c **** }
 609              		.loc 1 348 1 view .LVU177
 610 0002 80B2     		uxth	r0, r0
 611 0004 7047     		bx	lr
 612              		.cfi_endproc
 613              	.LFE128:
ARM GAS  C:\Users\ktkuru\AppData\Local\Temp\ccNxTYhi.s 			page 19


 615              		.section	.text.GPIO_ReadOutputDataBit,"ax",%progbits
 616              		.align	1
 617              		.global	GPIO_ReadOutputDataBit
 618              		.syntax unified
 619              		.thumb
 620              		.thumb_func
 622              	GPIO_ReadOutputDataBit:
 623              	.LVL64:
 624              	.LFB129:
 349:libraries/STM32F4xx_StdPeriph_Driver/src/stm32f4xx_gpio.c **** 
 350:libraries/STM32F4xx_StdPeriph_Driver/src/stm32f4xx_gpio.c **** /**
 351:libraries/STM32F4xx_StdPeriph_Driver/src/stm32f4xx_gpio.c ****   * @brief  Reads the specified output data port bit.
 352:libraries/STM32F4xx_StdPeriph_Driver/src/stm32f4xx_gpio.c ****   * @param  GPIOx: where x can be (A..K) to select the GPIO peripheral for STM32F405xx/407xx and ST
 353:libraries/STM32F4xx_StdPeriph_Driver/src/stm32f4xx_gpio.c ****   *                      x can be (A..I) to select the GPIO peripheral for STM32F42xxx/43xxx device
 354:libraries/STM32F4xx_StdPeriph_Driver/src/stm32f4xx_gpio.c ****   *                      x can be (A, B, C, D and H) to select the GPIO peripheral for STM32F401xx 
 355:libraries/STM32F4xx_StdPeriph_Driver/src/stm32f4xx_gpio.c ****   * @param  GPIO_Pin: specifies the port bit to read.
 356:libraries/STM32F4xx_StdPeriph_Driver/src/stm32f4xx_gpio.c ****   *          This parameter can be GPIO_Pin_x where x can be (0..15).
 357:libraries/STM32F4xx_StdPeriph_Driver/src/stm32f4xx_gpio.c ****   * @retval The output port pin value.
 358:libraries/STM32F4xx_StdPeriph_Driver/src/stm32f4xx_gpio.c ****   */
 359:libraries/STM32F4xx_StdPeriph_Driver/src/stm32f4xx_gpio.c **** uint8_t GPIO_ReadOutputDataBit(GPIO_TypeDef* GPIOx, uint16_t GPIO_Pin)
 360:libraries/STM32F4xx_StdPeriph_Driver/src/stm32f4xx_gpio.c **** {
 625              		.loc 1 360 1 is_stmt 1 view -0
 626              		.cfi_startproc
 627              		@ args = 0, pretend = 0, frame = 0
 628              		@ frame_needed = 0, uses_anonymous_args = 0
 629              		@ link register save eliminated.
 361:libraries/STM32F4xx_StdPeriph_Driver/src/stm32f4xx_gpio.c ****   uint8_t bitstatus = 0x00;
 630              		.loc 1 361 3 view .LVU179
 362:libraries/STM32F4xx_StdPeriph_Driver/src/stm32f4xx_gpio.c **** 
 363:libraries/STM32F4xx_StdPeriph_Driver/src/stm32f4xx_gpio.c ****   /* Check the parameters */
 364:libraries/STM32F4xx_StdPeriph_Driver/src/stm32f4xx_gpio.c ****   assert_param(IS_GPIO_ALL_PERIPH(GPIOx));
 631              		.loc 1 364 3 view .LVU180
 365:libraries/STM32F4xx_StdPeriph_Driver/src/stm32f4xx_gpio.c ****   assert_param(IS_GET_GPIO_PIN(GPIO_Pin));
 632              		.loc 1 365 3 view .LVU181
 366:libraries/STM32F4xx_StdPeriph_Driver/src/stm32f4xx_gpio.c **** 
 367:libraries/STM32F4xx_StdPeriph_Driver/src/stm32f4xx_gpio.c ****   if (((GPIOx->ODR) & GPIO_Pin) != (uint32_t)Bit_RESET)
 633              		.loc 1 367 3 view .LVU182
 634              		.loc 1 367 14 is_stmt 0 view .LVU183
 635 0000 4369     		ldr	r3, [r0, #20]
 636              		.loc 1 367 6 view .LVU184
 637 0002 1942     		tst	r1, r3
 638 0004 01D0     		beq	.L45
 368:libraries/STM32F4xx_StdPeriph_Driver/src/stm32f4xx_gpio.c ****   {
 369:libraries/STM32F4xx_StdPeriph_Driver/src/stm32f4xx_gpio.c ****     bitstatus = (uint8_t)Bit_SET;
 639              		.loc 1 369 15 view .LVU185
 640 0006 0120     		movs	r0, #1
 641              	.LVL65:
 642              		.loc 1 369 15 view .LVU186
 643 0008 7047     		bx	lr
 644              	.LVL66:
 645              	.L45:
 370:libraries/STM32F4xx_StdPeriph_Driver/src/stm32f4xx_gpio.c ****   }
 371:libraries/STM32F4xx_StdPeriph_Driver/src/stm32f4xx_gpio.c ****   else
 372:libraries/STM32F4xx_StdPeriph_Driver/src/stm32f4xx_gpio.c ****   {
 373:libraries/STM32F4xx_StdPeriph_Driver/src/stm32f4xx_gpio.c ****     bitstatus = (uint8_t)Bit_RESET;
 646              		.loc 1 373 15 view .LVU187
 647 000a 0020     		movs	r0, #0
ARM GAS  C:\Users\ktkuru\AppData\Local\Temp\ccNxTYhi.s 			page 20


 648              	.LVL67:
 374:libraries/STM32F4xx_StdPeriph_Driver/src/stm32f4xx_gpio.c ****   }
 375:libraries/STM32F4xx_StdPeriph_Driver/src/stm32f4xx_gpio.c ****   return bitstatus;
 649              		.loc 1 375 3 is_stmt 1 view .LVU188
 376:libraries/STM32F4xx_StdPeriph_Driver/src/stm32f4xx_gpio.c **** }
 650              		.loc 1 376 1 is_stmt 0 view .LVU189
 651 000c 7047     		bx	lr
 652              		.cfi_endproc
 653              	.LFE129:
 655              		.section	.text.GPIO_ReadOutputData,"ax",%progbits
 656              		.align	1
 657              		.global	GPIO_ReadOutputData
 658              		.syntax unified
 659              		.thumb
 660              		.thumb_func
 662              	GPIO_ReadOutputData:
 663              	.LVL68:
 664              	.LFB130:
 377:libraries/STM32F4xx_StdPeriph_Driver/src/stm32f4xx_gpio.c **** 
 378:libraries/STM32F4xx_StdPeriph_Driver/src/stm32f4xx_gpio.c **** /**
 379:libraries/STM32F4xx_StdPeriph_Driver/src/stm32f4xx_gpio.c ****   * @brief  Reads the specified GPIO output data port.
 380:libraries/STM32F4xx_StdPeriph_Driver/src/stm32f4xx_gpio.c ****   * @param  GPIOx: where x can be (A..K) to select the GPIO peripheral for STM32F405xx/407xx and ST
 381:libraries/STM32F4xx_StdPeriph_Driver/src/stm32f4xx_gpio.c ****   *                      x can be (A..I) to select the GPIO peripheral for STM32F42xxx/43xxx device
 382:libraries/STM32F4xx_StdPeriph_Driver/src/stm32f4xx_gpio.c ****   *                      x can be (A, B, C, D and H) to select the GPIO peripheral for STM32F401xx 
 383:libraries/STM32F4xx_StdPeriph_Driver/src/stm32f4xx_gpio.c ****   * @retval GPIO output data port value.
 384:libraries/STM32F4xx_StdPeriph_Driver/src/stm32f4xx_gpio.c ****   */
 385:libraries/STM32F4xx_StdPeriph_Driver/src/stm32f4xx_gpio.c **** uint16_t GPIO_ReadOutputData(GPIO_TypeDef* GPIOx)
 386:libraries/STM32F4xx_StdPeriph_Driver/src/stm32f4xx_gpio.c **** {
 665              		.loc 1 386 1 is_stmt 1 view -0
 666              		.cfi_startproc
 667              		@ args = 0, pretend = 0, frame = 0
 668              		@ frame_needed = 0, uses_anonymous_args = 0
 669              		@ link register save eliminated.
 387:libraries/STM32F4xx_StdPeriph_Driver/src/stm32f4xx_gpio.c ****   /* Check the parameters */
 388:libraries/STM32F4xx_StdPeriph_Driver/src/stm32f4xx_gpio.c ****   assert_param(IS_GPIO_ALL_PERIPH(GPIOx));
 670              		.loc 1 388 3 view .LVU191
 389:libraries/STM32F4xx_StdPeriph_Driver/src/stm32f4xx_gpio.c **** 
 390:libraries/STM32F4xx_StdPeriph_Driver/src/stm32f4xx_gpio.c ****   return ((uint16_t)GPIOx->ODR);
 671              		.loc 1 390 3 view .LVU192
 672              		.loc 1 390 26 is_stmt 0 view .LVU193
 673 0000 4069     		ldr	r0, [r0, #20]
 674              	.LVL69:
 391:libraries/STM32F4xx_StdPeriph_Driver/src/stm32f4xx_gpio.c **** }
 675              		.loc 1 391 1 view .LVU194
 676 0002 80B2     		uxth	r0, r0
 677 0004 7047     		bx	lr
 678              		.cfi_endproc
 679              	.LFE130:
 681              		.section	.text.GPIO_SetBits,"ax",%progbits
 682              		.align	1
 683              		.global	GPIO_SetBits
 684              		.syntax unified
 685              		.thumb
 686              		.thumb_func
 688              	GPIO_SetBits:
 689              	.LVL70:
 690              	.LFB131:
ARM GAS  C:\Users\ktkuru\AppData\Local\Temp\ccNxTYhi.s 			page 21


 392:libraries/STM32F4xx_StdPeriph_Driver/src/stm32f4xx_gpio.c **** 
 393:libraries/STM32F4xx_StdPeriph_Driver/src/stm32f4xx_gpio.c **** /**
 394:libraries/STM32F4xx_StdPeriph_Driver/src/stm32f4xx_gpio.c ****   * @brief  Sets the selected data port bits.
 395:libraries/STM32F4xx_StdPeriph_Driver/src/stm32f4xx_gpio.c ****   * @note   This functions uses GPIOx_BSRR register to allow atomic read/modify 
 396:libraries/STM32F4xx_StdPeriph_Driver/src/stm32f4xx_gpio.c ****   *         accesses. In this way, there is no risk of an IRQ occurring between
 397:libraries/STM32F4xx_StdPeriph_Driver/src/stm32f4xx_gpio.c ****   *         the read and the modify access.
 398:libraries/STM32F4xx_StdPeriph_Driver/src/stm32f4xx_gpio.c ****   * @param  GPIOx: where x can be (A..K) to select the GPIO peripheral for STM32F405xx/407xx and ST
 399:libraries/STM32F4xx_StdPeriph_Driver/src/stm32f4xx_gpio.c ****   *                      x can be (A..I) to select the GPIO peripheral for STM32F42xxx/43xxx device
 400:libraries/STM32F4xx_StdPeriph_Driver/src/stm32f4xx_gpio.c ****   *                      x can be (A, B, C, D and H) to select the GPIO peripheral for STM32F401xx 
 401:libraries/STM32F4xx_StdPeriph_Driver/src/stm32f4xx_gpio.c ****   * @param  GPIO_Pin: specifies the port bits to be written.
 402:libraries/STM32F4xx_StdPeriph_Driver/src/stm32f4xx_gpio.c ****   *          This parameter can be any combination of GPIO_Pin_x where x can be (0..15).
 403:libraries/STM32F4xx_StdPeriph_Driver/src/stm32f4xx_gpio.c ****   * @retval None
 404:libraries/STM32F4xx_StdPeriph_Driver/src/stm32f4xx_gpio.c ****   */
 405:libraries/STM32F4xx_StdPeriph_Driver/src/stm32f4xx_gpio.c **** void GPIO_SetBits(GPIO_TypeDef* GPIOx, uint16_t GPIO_Pin)
 406:libraries/STM32F4xx_StdPeriph_Driver/src/stm32f4xx_gpio.c **** {
 691              		.loc 1 406 1 is_stmt 1 view -0
 692              		.cfi_startproc
 693              		@ args = 0, pretend = 0, frame = 0
 694              		@ frame_needed = 0, uses_anonymous_args = 0
 695              		@ link register save eliminated.
 407:libraries/STM32F4xx_StdPeriph_Driver/src/stm32f4xx_gpio.c ****   /* Check the parameters */
 408:libraries/STM32F4xx_StdPeriph_Driver/src/stm32f4xx_gpio.c ****   assert_param(IS_GPIO_ALL_PERIPH(GPIOx));
 696              		.loc 1 408 3 view .LVU196
 409:libraries/STM32F4xx_StdPeriph_Driver/src/stm32f4xx_gpio.c ****   assert_param(IS_GPIO_PIN(GPIO_Pin));
 697              		.loc 1 409 3 view .LVU197
 410:libraries/STM32F4xx_StdPeriph_Driver/src/stm32f4xx_gpio.c **** 
 411:libraries/STM32F4xx_StdPeriph_Driver/src/stm32f4xx_gpio.c ****   GPIOx->BSRR = GPIO_Pin;
 698              		.loc 1 411 3 view .LVU198
 699              		.loc 1 411 15 is_stmt 0 view .LVU199
 700 0000 8161     		str	r1, [r0, #24]
 412:libraries/STM32F4xx_StdPeriph_Driver/src/stm32f4xx_gpio.c **** }
 701              		.loc 1 412 1 view .LVU200
 702 0002 7047     		bx	lr
 703              		.cfi_endproc
 704              	.LFE131:
 706              		.section	.text.GPIO_ResetBits,"ax",%progbits
 707              		.align	1
 708              		.global	GPIO_ResetBits
 709              		.syntax unified
 710              		.thumb
 711              		.thumb_func
 713              	GPIO_ResetBits:
 714              	.LVL71:
 715              	.LFB132:
 413:libraries/STM32F4xx_StdPeriph_Driver/src/stm32f4xx_gpio.c **** 
 414:libraries/STM32F4xx_StdPeriph_Driver/src/stm32f4xx_gpio.c **** /**
 415:libraries/STM32F4xx_StdPeriph_Driver/src/stm32f4xx_gpio.c ****   * @brief  Clears the selected data port bits.
 416:libraries/STM32F4xx_StdPeriph_Driver/src/stm32f4xx_gpio.c ****   * @note   This functions uses GPIOx_BSRR register to allow atomic read/modify 
 417:libraries/STM32F4xx_StdPeriph_Driver/src/stm32f4xx_gpio.c ****   *         accesses. In this way, there is no risk of an IRQ occurring between
 418:libraries/STM32F4xx_StdPeriph_Driver/src/stm32f4xx_gpio.c ****   *         the read and the modify access.
 419:libraries/STM32F4xx_StdPeriph_Driver/src/stm32f4xx_gpio.c ****   * @param  GPIOx: where x can be (A..K) to select the GPIO peripheral for STM32F405xx/407xx and ST
 420:libraries/STM32F4xx_StdPeriph_Driver/src/stm32f4xx_gpio.c ****   *                      x can be (A..I) to select the GPIO peripheral for STM32F42xxx/43xxx device
 421:libraries/STM32F4xx_StdPeriph_Driver/src/stm32f4xx_gpio.c ****   *                      x can be (A, B, C, D and H) to select the GPIO peripheral for STM32F401xx 
 422:libraries/STM32F4xx_StdPeriph_Driver/src/stm32f4xx_gpio.c ****   * @param  GPIO_Pin: specifies the port bits to be written.
 423:libraries/STM32F4xx_StdPeriph_Driver/src/stm32f4xx_gpio.c ****   *          This parameter can be any combination of GPIO_Pin_x where x can be (0..15).
 424:libraries/STM32F4xx_StdPeriph_Driver/src/stm32f4xx_gpio.c ****   * @retval None
 425:libraries/STM32F4xx_StdPeriph_Driver/src/stm32f4xx_gpio.c ****   */
ARM GAS  C:\Users\ktkuru\AppData\Local\Temp\ccNxTYhi.s 			page 22


 426:libraries/STM32F4xx_StdPeriph_Driver/src/stm32f4xx_gpio.c **** void GPIO_ResetBits(GPIO_TypeDef* GPIOx, uint16_t GPIO_Pin)
 427:libraries/STM32F4xx_StdPeriph_Driver/src/stm32f4xx_gpio.c **** {
 716              		.loc 1 427 1 is_stmt 1 view -0
 717              		.cfi_startproc
 718              		@ args = 0, pretend = 0, frame = 0
 719              		@ frame_needed = 0, uses_anonymous_args = 0
 720              		@ link register save eliminated.
 428:libraries/STM32F4xx_StdPeriph_Driver/src/stm32f4xx_gpio.c ****   /* Check the parameters */
 429:libraries/STM32F4xx_StdPeriph_Driver/src/stm32f4xx_gpio.c ****   assert_param(IS_GPIO_ALL_PERIPH(GPIOx));
 721              		.loc 1 429 3 view .LVU202
 430:libraries/STM32F4xx_StdPeriph_Driver/src/stm32f4xx_gpio.c ****   assert_param(IS_GPIO_PIN(GPIO_Pin));
 722              		.loc 1 430 3 view .LVU203
 431:libraries/STM32F4xx_StdPeriph_Driver/src/stm32f4xx_gpio.c **** 
 432:libraries/STM32F4xx_StdPeriph_Driver/src/stm32f4xx_gpio.c ****   GPIOx->BSRR = (uint32_t)GPIO_Pin << 16;
 723              		.loc 1 432 3 view .LVU204
 724              		.loc 1 432 36 is_stmt 0 view .LVU205
 725 0000 0904     		lsls	r1, r1, #16
 726              	.LVL72:
 727              		.loc 1 432 15 view .LVU206
 728 0002 8161     		str	r1, [r0, #24]
 433:libraries/STM32F4xx_StdPeriph_Driver/src/stm32f4xx_gpio.c **** }
 729              		.loc 1 433 1 view .LVU207
 730 0004 7047     		bx	lr
 731              		.cfi_endproc
 732              	.LFE132:
 734              		.section	.text.GPIO_WriteBit,"ax",%progbits
 735              		.align	1
 736              		.global	GPIO_WriteBit
 737              		.syntax unified
 738              		.thumb
 739              		.thumb_func
 741              	GPIO_WriteBit:
 742              	.LVL73:
 743              	.LFB133:
 434:libraries/STM32F4xx_StdPeriph_Driver/src/stm32f4xx_gpio.c **** 
 435:libraries/STM32F4xx_StdPeriph_Driver/src/stm32f4xx_gpio.c **** /**
 436:libraries/STM32F4xx_StdPeriph_Driver/src/stm32f4xx_gpio.c ****   * @brief  Sets or clears the selected data port bit.
 437:libraries/STM32F4xx_StdPeriph_Driver/src/stm32f4xx_gpio.c ****   * @param  GPIOx: where x can be (A..K) to select the GPIO peripheral for STM32F405xx/407xx and ST
 438:libraries/STM32F4xx_StdPeriph_Driver/src/stm32f4xx_gpio.c ****   *                      x can be (A..I) to select the GPIO peripheral for STM32F42xxx/43xxx device
 439:libraries/STM32F4xx_StdPeriph_Driver/src/stm32f4xx_gpio.c ****   *                      x can be (A, B, C, D and H) to select the GPIO peripheral for STM32F401xx 
 440:libraries/STM32F4xx_StdPeriph_Driver/src/stm32f4xx_gpio.c ****   * @param  GPIO_Pin: specifies the port bit to be written.
 441:libraries/STM32F4xx_StdPeriph_Driver/src/stm32f4xx_gpio.c ****   *          This parameter can be one of GPIO_Pin_x where x can be (0..15).
 442:libraries/STM32F4xx_StdPeriph_Driver/src/stm32f4xx_gpio.c ****   * @param  BitVal: specifies the value to be written to the selected bit.
 443:libraries/STM32F4xx_StdPeriph_Driver/src/stm32f4xx_gpio.c ****   *          This parameter can be one of the BitAction enum values:
 444:libraries/STM32F4xx_StdPeriph_Driver/src/stm32f4xx_gpio.c ****   *            @arg Bit_RESET: to clear the port pin
 445:libraries/STM32F4xx_StdPeriph_Driver/src/stm32f4xx_gpio.c ****   *            @arg Bit_SET: to set the port pin
 446:libraries/STM32F4xx_StdPeriph_Driver/src/stm32f4xx_gpio.c ****   * @retval None
 447:libraries/STM32F4xx_StdPeriph_Driver/src/stm32f4xx_gpio.c ****   */
 448:libraries/STM32F4xx_StdPeriph_Driver/src/stm32f4xx_gpio.c **** void GPIO_WriteBit(GPIO_TypeDef* GPIOx, uint16_t GPIO_Pin, BitAction BitVal)
 449:libraries/STM32F4xx_StdPeriph_Driver/src/stm32f4xx_gpio.c **** {
 744              		.loc 1 449 1 is_stmt 1 view -0
 745              		.cfi_startproc
 746              		@ args = 0, pretend = 0, frame = 0
 747              		@ frame_needed = 0, uses_anonymous_args = 0
 748              		@ link register save eliminated.
 450:libraries/STM32F4xx_StdPeriph_Driver/src/stm32f4xx_gpio.c ****   /* Check the parameters */
 451:libraries/STM32F4xx_StdPeriph_Driver/src/stm32f4xx_gpio.c ****   assert_param(IS_GPIO_ALL_PERIPH(GPIOx));
ARM GAS  C:\Users\ktkuru\AppData\Local\Temp\ccNxTYhi.s 			page 23


 749              		.loc 1 451 3 view .LVU209
 452:libraries/STM32F4xx_StdPeriph_Driver/src/stm32f4xx_gpio.c ****   assert_param(IS_GET_GPIO_PIN(GPIO_Pin));
 750              		.loc 1 452 3 view .LVU210
 453:libraries/STM32F4xx_StdPeriph_Driver/src/stm32f4xx_gpio.c ****   assert_param(IS_GPIO_BIT_ACTION(BitVal));
 751              		.loc 1 453 3 view .LVU211
 454:libraries/STM32F4xx_StdPeriph_Driver/src/stm32f4xx_gpio.c **** 
 455:libraries/STM32F4xx_StdPeriph_Driver/src/stm32f4xx_gpio.c ****   if (BitVal != Bit_RESET)
 752              		.loc 1 455 3 view .LVU212
 753              		.loc 1 455 6 is_stmt 0 view .LVU213
 754 0000 0AB1     		cbz	r2, .L50
 456:libraries/STM32F4xx_StdPeriph_Driver/src/stm32f4xx_gpio.c ****   {
 457:libraries/STM32F4xx_StdPeriph_Driver/src/stm32f4xx_gpio.c ****     GPIOx->BSRR = GPIO_Pin;
 755              		.loc 1 457 5 is_stmt 1 view .LVU214
 756              		.loc 1 457 17 is_stmt 0 view .LVU215
 757 0002 8161     		str	r1, [r0, #24]
 758 0004 7047     		bx	lr
 759              	.L50:
 458:libraries/STM32F4xx_StdPeriph_Driver/src/stm32f4xx_gpio.c ****   }
 459:libraries/STM32F4xx_StdPeriph_Driver/src/stm32f4xx_gpio.c ****   else
 460:libraries/STM32F4xx_StdPeriph_Driver/src/stm32f4xx_gpio.c ****   {
 461:libraries/STM32F4xx_StdPeriph_Driver/src/stm32f4xx_gpio.c ****     GPIOx->BSRR = (uint32_t)GPIO_Pin << 16;
 760              		.loc 1 461 5 is_stmt 1 view .LVU216
 761              		.loc 1 461 38 is_stmt 0 view .LVU217
 762 0006 0904     		lsls	r1, r1, #16
 763              	.LVL74:
 764              		.loc 1 461 17 view .LVU218
 765 0008 8161     		str	r1, [r0, #24]
 462:libraries/STM32F4xx_StdPeriph_Driver/src/stm32f4xx_gpio.c ****   }
 463:libraries/STM32F4xx_StdPeriph_Driver/src/stm32f4xx_gpio.c **** }
 766              		.loc 1 463 1 view .LVU219
 767 000a 7047     		bx	lr
 768              		.cfi_endproc
 769              	.LFE133:
 771              		.section	.text.GPIO_Write,"ax",%progbits
 772              		.align	1
 773              		.global	GPIO_Write
 774              		.syntax unified
 775              		.thumb
 776              		.thumb_func
 778              	GPIO_Write:
 779              	.LVL75:
 780              	.LFB134:
 464:libraries/STM32F4xx_StdPeriph_Driver/src/stm32f4xx_gpio.c **** 
 465:libraries/STM32F4xx_StdPeriph_Driver/src/stm32f4xx_gpio.c **** /**
 466:libraries/STM32F4xx_StdPeriph_Driver/src/stm32f4xx_gpio.c ****   * @brief  Writes data to the specified GPIO data port.
 467:libraries/STM32F4xx_StdPeriph_Driver/src/stm32f4xx_gpio.c ****   * @param  GPIOx: where x can be (A..K) to select the GPIO peripheral for STM32F405xx/407xx and ST
 468:libraries/STM32F4xx_StdPeriph_Driver/src/stm32f4xx_gpio.c ****   *                      x can be (A..I) to select the GPIO peripheral for STM32F42xxx/43xxx device
 469:libraries/STM32F4xx_StdPeriph_Driver/src/stm32f4xx_gpio.c ****   *                      x can be (A, B, C, D and H) to select the GPIO peripheral for STM32F401xx 
 470:libraries/STM32F4xx_StdPeriph_Driver/src/stm32f4xx_gpio.c ****   * @param  PortVal: specifies the value to be written to the port output data register.
 471:libraries/STM32F4xx_StdPeriph_Driver/src/stm32f4xx_gpio.c ****   * @retval None
 472:libraries/STM32F4xx_StdPeriph_Driver/src/stm32f4xx_gpio.c ****   */
 473:libraries/STM32F4xx_StdPeriph_Driver/src/stm32f4xx_gpio.c **** void GPIO_Write(GPIO_TypeDef* GPIOx, uint16_t PortVal)
 474:libraries/STM32F4xx_StdPeriph_Driver/src/stm32f4xx_gpio.c **** {
 781              		.loc 1 474 1 is_stmt 1 view -0
 782              		.cfi_startproc
 783              		@ args = 0, pretend = 0, frame = 0
 784              		@ frame_needed = 0, uses_anonymous_args = 0
ARM GAS  C:\Users\ktkuru\AppData\Local\Temp\ccNxTYhi.s 			page 24


 785              		@ link register save eliminated.
 475:libraries/STM32F4xx_StdPeriph_Driver/src/stm32f4xx_gpio.c ****   /* Check the parameters */
 476:libraries/STM32F4xx_StdPeriph_Driver/src/stm32f4xx_gpio.c ****   assert_param(IS_GPIO_ALL_PERIPH(GPIOx));
 786              		.loc 1 476 3 view .LVU221
 477:libraries/STM32F4xx_StdPeriph_Driver/src/stm32f4xx_gpio.c **** 
 478:libraries/STM32F4xx_StdPeriph_Driver/src/stm32f4xx_gpio.c ****   GPIOx->ODR = PortVal;
 787              		.loc 1 478 3 view .LVU222
 788              		.loc 1 478 14 is_stmt 0 view .LVU223
 789 0000 4161     		str	r1, [r0, #20]
 479:libraries/STM32F4xx_StdPeriph_Driver/src/stm32f4xx_gpio.c **** }
 790              		.loc 1 479 1 view .LVU224
 791 0002 7047     		bx	lr
 792              		.cfi_endproc
 793              	.LFE134:
 795              		.section	.text.GPIO_ToggleBits,"ax",%progbits
 796              		.align	1
 797              		.global	GPIO_ToggleBits
 798              		.syntax unified
 799              		.thumb
 800              		.thumb_func
 802              	GPIO_ToggleBits:
 803              	.LVL76:
 804              	.LFB135:
 480:libraries/STM32F4xx_StdPeriph_Driver/src/stm32f4xx_gpio.c **** 
 481:libraries/STM32F4xx_StdPeriph_Driver/src/stm32f4xx_gpio.c **** /**
 482:libraries/STM32F4xx_StdPeriph_Driver/src/stm32f4xx_gpio.c ****   * @brief  Toggles the specified GPIO pins..
 483:libraries/STM32F4xx_StdPeriph_Driver/src/stm32f4xx_gpio.c ****   * @param  GPIOx: where x can be (A..K) to select the GPIO peripheral for STM32F405xx/407xx and ST
 484:libraries/STM32F4xx_StdPeriph_Driver/src/stm32f4xx_gpio.c ****   *                      x can be (A..I) to select the GPIO peripheral for STM32F42xxx/43xxx device
 485:libraries/STM32F4xx_StdPeriph_Driver/src/stm32f4xx_gpio.c ****   *                      x can be (A, B, C, D and H) to select the GPIO peripheral for STM32F401xx 
 486:libraries/STM32F4xx_StdPeriph_Driver/src/stm32f4xx_gpio.c ****   * @param  GPIO_Pin: Specifies the pins to be toggled.
 487:libraries/STM32F4xx_StdPeriph_Driver/src/stm32f4xx_gpio.c ****   * @retval None
 488:libraries/STM32F4xx_StdPeriph_Driver/src/stm32f4xx_gpio.c ****   */
 489:libraries/STM32F4xx_StdPeriph_Driver/src/stm32f4xx_gpio.c **** void GPIO_ToggleBits(GPIO_TypeDef* GPIOx, uint16_t GPIO_Pin)
 490:libraries/STM32F4xx_StdPeriph_Driver/src/stm32f4xx_gpio.c **** {
 805              		.loc 1 490 1 is_stmt 1 view -0
 806              		.cfi_startproc
 807              		@ args = 0, pretend = 0, frame = 0
 808              		@ frame_needed = 0, uses_anonymous_args = 0
 809              		@ link register save eliminated.
 491:libraries/STM32F4xx_StdPeriph_Driver/src/stm32f4xx_gpio.c ****   /* Check the parameters */
 492:libraries/STM32F4xx_StdPeriph_Driver/src/stm32f4xx_gpio.c ****   assert_param(IS_GPIO_ALL_PERIPH(GPIOx));
 810              		.loc 1 492 3 view .LVU226
 493:libraries/STM32F4xx_StdPeriph_Driver/src/stm32f4xx_gpio.c **** 
 494:libraries/STM32F4xx_StdPeriph_Driver/src/stm32f4xx_gpio.c ****   GPIOx->ODR ^= GPIO_Pin;
 811              		.loc 1 494 3 view .LVU227
 812              		.loc 1 494 8 is_stmt 0 view .LVU228
 813 0000 4369     		ldr	r3, [r0, #20]
 814              		.loc 1 494 14 view .LVU229
 815 0002 5940     		eors	r1, r1, r3
 816              	.LVL77:
 817              		.loc 1 494 14 view .LVU230
 818 0004 4161     		str	r1, [r0, #20]
 495:libraries/STM32F4xx_StdPeriph_Driver/src/stm32f4xx_gpio.c **** }
 819              		.loc 1 495 1 view .LVU231
 820 0006 7047     		bx	lr
 821              		.cfi_endproc
 822              	.LFE135:
ARM GAS  C:\Users\ktkuru\AppData\Local\Temp\ccNxTYhi.s 			page 25


 824              		.section	.text.GPIO_PinAFConfig,"ax",%progbits
 825              		.align	1
 826              		.global	GPIO_PinAFConfig
 827              		.syntax unified
 828              		.thumb
 829              		.thumb_func
 831              	GPIO_PinAFConfig:
 832              	.LVL78:
 833              	.LFB136:
 496:libraries/STM32F4xx_StdPeriph_Driver/src/stm32f4xx_gpio.c **** 
 497:libraries/STM32F4xx_StdPeriph_Driver/src/stm32f4xx_gpio.c **** /**
 498:libraries/STM32F4xx_StdPeriph_Driver/src/stm32f4xx_gpio.c ****   * @}
 499:libraries/STM32F4xx_StdPeriph_Driver/src/stm32f4xx_gpio.c ****   */
 500:libraries/STM32F4xx_StdPeriph_Driver/src/stm32f4xx_gpio.c **** 
 501:libraries/STM32F4xx_StdPeriph_Driver/src/stm32f4xx_gpio.c **** /** @defgroup GPIO_Group3 GPIO Alternate functions configuration function
 502:libraries/STM32F4xx_StdPeriph_Driver/src/stm32f4xx_gpio.c ****  *  @brief   GPIO Alternate functions configuration function
 503:libraries/STM32F4xx_StdPeriph_Driver/src/stm32f4xx_gpio.c ****  *
 504:libraries/STM32F4xx_StdPeriph_Driver/src/stm32f4xx_gpio.c **** @verbatim   
 505:libraries/STM32F4xx_StdPeriph_Driver/src/stm32f4xx_gpio.c ****  ===============================================================================
 506:libraries/STM32F4xx_StdPeriph_Driver/src/stm32f4xx_gpio.c ****            ##### GPIO Alternate functions configuration function #####
 507:libraries/STM32F4xx_StdPeriph_Driver/src/stm32f4xx_gpio.c ****  ===============================================================================  
 508:libraries/STM32F4xx_StdPeriph_Driver/src/stm32f4xx_gpio.c **** 
 509:libraries/STM32F4xx_StdPeriph_Driver/src/stm32f4xx_gpio.c **** @endverbatim
 510:libraries/STM32F4xx_StdPeriph_Driver/src/stm32f4xx_gpio.c ****   * @{
 511:libraries/STM32F4xx_StdPeriph_Driver/src/stm32f4xx_gpio.c ****   */
 512:libraries/STM32F4xx_StdPeriph_Driver/src/stm32f4xx_gpio.c **** 
 513:libraries/STM32F4xx_StdPeriph_Driver/src/stm32f4xx_gpio.c **** /**
 514:libraries/STM32F4xx_StdPeriph_Driver/src/stm32f4xx_gpio.c ****   * @brief  Changes the mapping of the specified pin.
 515:libraries/STM32F4xx_StdPeriph_Driver/src/stm32f4xx_gpio.c ****   * @param  GPIOx: where x can be (A..K) to select the GPIO peripheral for STM32F405xx/407xx and ST
 516:libraries/STM32F4xx_StdPeriph_Driver/src/stm32f4xx_gpio.c ****   *                      x can be (A..I) to select the GPIO peripheral for STM32F42xxx/43xxx device
 517:libraries/STM32F4xx_StdPeriph_Driver/src/stm32f4xx_gpio.c ****   *                      x can be (A, B, C, D and H) to select the GPIO peripheral for STM32F401xx 
 518:libraries/STM32F4xx_StdPeriph_Driver/src/stm32f4xx_gpio.c ****   * @param  GPIO_PinSource: specifies the pin for the Alternate function.
 519:libraries/STM32F4xx_StdPeriph_Driver/src/stm32f4xx_gpio.c ****   *         This parameter can be GPIO_PinSourcex where x can be (0..15).
 520:libraries/STM32F4xx_StdPeriph_Driver/src/stm32f4xx_gpio.c ****   * @param  GPIO_AFSelection: selects the pin to used as Alternate function.
 521:libraries/STM32F4xx_StdPeriph_Driver/src/stm32f4xx_gpio.c ****   *          This parameter can be one of the following values:
 522:libraries/STM32F4xx_StdPeriph_Driver/src/stm32f4xx_gpio.c ****   *            @arg GPIO_AF_RTC_50Hz: Connect RTC_50Hz pin to AF0 (default after reset) 
 523:libraries/STM32F4xx_StdPeriph_Driver/src/stm32f4xx_gpio.c ****   *            @arg GPIO_AF_MCO: Connect MCO pin (MCO1 and MCO2) to AF0 (default after reset) 
 524:libraries/STM32F4xx_StdPeriph_Driver/src/stm32f4xx_gpio.c ****   *            @arg GPIO_AF_TAMPER: Connect TAMPER pins (TAMPER_1 and TAMPER_2) to AF0 (default aft
 525:libraries/STM32F4xx_StdPeriph_Driver/src/stm32f4xx_gpio.c ****   *            @arg GPIO_AF_SWJ: Connect SWJ pins (SWD and JTAG)to AF0 (default after reset) 
 526:libraries/STM32F4xx_StdPeriph_Driver/src/stm32f4xx_gpio.c ****   *            @arg GPIO_AF_TRACE: Connect TRACE pins to AF0 (default after reset)
 527:libraries/STM32F4xx_StdPeriph_Driver/src/stm32f4xx_gpio.c ****   *            @arg GPIO_AF_TIM1: Connect TIM1 pins to AF1
 528:libraries/STM32F4xx_StdPeriph_Driver/src/stm32f4xx_gpio.c ****   *            @arg GPIO_AF_TIM2: Connect TIM2 pins to AF1
 529:libraries/STM32F4xx_StdPeriph_Driver/src/stm32f4xx_gpio.c ****   *            @arg GPIO_AF_TIM3: Connect TIM3 pins to AF2
 530:libraries/STM32F4xx_StdPeriph_Driver/src/stm32f4xx_gpio.c ****   *            @arg GPIO_AF_TIM4: Connect TIM4 pins to AF2
 531:libraries/STM32F4xx_StdPeriph_Driver/src/stm32f4xx_gpio.c ****   *            @arg GPIO_AF_TIM5: Connect TIM5 pins to AF2
 532:libraries/STM32F4xx_StdPeriph_Driver/src/stm32f4xx_gpio.c ****   *            @arg GPIO_AF_TIM8: Connect TIM8 pins to AF3
 533:libraries/STM32F4xx_StdPeriph_Driver/src/stm32f4xx_gpio.c ****   *            @arg GPIO_AF_TIM9: Connect TIM9 pins to AF3
 534:libraries/STM32F4xx_StdPeriph_Driver/src/stm32f4xx_gpio.c ****   *            @arg GPIO_AF_TIM10: Connect TIM10 pins to AF3
 535:libraries/STM32F4xx_StdPeriph_Driver/src/stm32f4xx_gpio.c ****   *            @arg GPIO_AF_TIM11: Connect TIM11 pins to AF3
 536:libraries/STM32F4xx_StdPeriph_Driver/src/stm32f4xx_gpio.c ****   *            @arg GPIO_AF_I2C1: Connect I2C1 pins to AF4
 537:libraries/STM32F4xx_StdPeriph_Driver/src/stm32f4xx_gpio.c ****   *            @arg GPIO_AF_I2C2: Connect I2C2 pins to AF4
 538:libraries/STM32F4xx_StdPeriph_Driver/src/stm32f4xx_gpio.c ****   *            @arg GPIO_AF_I2C3: Connect I2C3 pins to AF4
 539:libraries/STM32F4xx_StdPeriph_Driver/src/stm32f4xx_gpio.c ****   *            @arg GPIO_AF_SPI1: Connect SPI1 pins to AF5
 540:libraries/STM32F4xx_StdPeriph_Driver/src/stm32f4xx_gpio.c ****   *            @arg GPIO_AF_SPI2: Connect SPI2/I2S2 pins to AF5
 541:libraries/STM32F4xx_StdPeriph_Driver/src/stm32f4xx_gpio.c ****   *            @arg GPIO_AF_SPI4: Connect SPI4 pins to AF5 
 542:libraries/STM32F4xx_StdPeriph_Driver/src/stm32f4xx_gpio.c ****   *            @arg GPIO_AF_SPI5: Connect SPI5 pins to AF5 
 543:libraries/STM32F4xx_StdPeriph_Driver/src/stm32f4xx_gpio.c ****   *            @arg GPIO_AF_SPI6: Connect SPI6 pins to AF5
ARM GAS  C:\Users\ktkuru\AppData\Local\Temp\ccNxTYhi.s 			page 26


 544:libraries/STM32F4xx_StdPeriph_Driver/src/stm32f4xx_gpio.c ****   *            @arg GPIO_AF_SAI1: Connect SAI1 pins to AF6 for STM32F42xxx/43xxx devices.       
 545:libraries/STM32F4xx_StdPeriph_Driver/src/stm32f4xx_gpio.c ****   *            @arg GPIO_AF_SPI3: Connect SPI3/I2S3 pins to AF6
 546:libraries/STM32F4xx_StdPeriph_Driver/src/stm32f4xx_gpio.c ****   *            @arg GPIO_AF_I2S3ext: Connect I2S3ext pins to AF7
 547:libraries/STM32F4xx_StdPeriph_Driver/src/stm32f4xx_gpio.c ****   *            @arg GPIO_AF_USART1: Connect USART1 pins to AF7
 548:libraries/STM32F4xx_StdPeriph_Driver/src/stm32f4xx_gpio.c ****   *            @arg GPIO_AF_USART2: Connect USART2 pins to AF7
 549:libraries/STM32F4xx_StdPeriph_Driver/src/stm32f4xx_gpio.c ****   *            @arg GPIO_AF_USART3: Connect USART3 pins to AF7
 550:libraries/STM32F4xx_StdPeriph_Driver/src/stm32f4xx_gpio.c ****   *            @arg GPIO_AF_UART4: Connect UART4 pins to AF8
 551:libraries/STM32F4xx_StdPeriph_Driver/src/stm32f4xx_gpio.c ****   *            @arg GPIO_AF_UART5: Connect UART5 pins to AF8
 552:libraries/STM32F4xx_StdPeriph_Driver/src/stm32f4xx_gpio.c ****   *            @arg GPIO_AF_USART6: Connect USART6 pins to AF8
 553:libraries/STM32F4xx_StdPeriph_Driver/src/stm32f4xx_gpio.c ****   *            @arg GPIO_AF_UART7: Connect UART7 pins to AF8
 554:libraries/STM32F4xx_StdPeriph_Driver/src/stm32f4xx_gpio.c ****   *            @arg GPIO_AF_UART8: Connect UART8 pins to AF8
 555:libraries/STM32F4xx_StdPeriph_Driver/src/stm32f4xx_gpio.c ****   *            @arg GPIO_AF_CAN1: Connect CAN1 pins to AF9
 556:libraries/STM32F4xx_StdPeriph_Driver/src/stm32f4xx_gpio.c ****   *            @arg GPIO_AF_CAN2: Connect CAN2 pins to AF9
 557:libraries/STM32F4xx_StdPeriph_Driver/src/stm32f4xx_gpio.c ****   *            @arg GPIO_AF_TIM12: Connect TIM12 pins to AF9
 558:libraries/STM32F4xx_StdPeriph_Driver/src/stm32f4xx_gpio.c ****   *            @arg GPIO_AF_TIM13: Connect TIM13 pins to AF9
 559:libraries/STM32F4xx_StdPeriph_Driver/src/stm32f4xx_gpio.c ****   *            @arg GPIO_AF_TIM14: Connect TIM14 pins to AF9
 560:libraries/STM32F4xx_StdPeriph_Driver/src/stm32f4xx_gpio.c ****   *            @arg GPIO_AF_OTG_FS: Connect OTG_FS pins to AF10
 561:libraries/STM32F4xx_StdPeriph_Driver/src/stm32f4xx_gpio.c ****   *            @arg GPIO_AF_OTG_HS: Connect OTG_HS pins to AF10
 562:libraries/STM32F4xx_StdPeriph_Driver/src/stm32f4xx_gpio.c ****   *            @arg GPIO_AF_ETH: Connect ETHERNET pins to AF11
 563:libraries/STM32F4xx_StdPeriph_Driver/src/stm32f4xx_gpio.c ****   *            @arg GPIO_AF_FSMC: Connect FSMC pins to AF12 
 564:libraries/STM32F4xx_StdPeriph_Driver/src/stm32f4xx_gpio.c ****   *            @arg GPIO_AF_FMC: Connect FMC pins to AF12 for STM32F42xxx/43xxx devices.   
 565:libraries/STM32F4xx_StdPeriph_Driver/src/stm32f4xx_gpio.c ****   *            @arg GPIO_AF_OTG_HS_FS: Connect OTG HS (configured in FS) pins to AF12
 566:libraries/STM32F4xx_StdPeriph_Driver/src/stm32f4xx_gpio.c ****   *            @arg GPIO_AF_SDIO: Connect SDIO pins to AF12
 567:libraries/STM32F4xx_StdPeriph_Driver/src/stm32f4xx_gpio.c ****   *            @arg GPIO_AF_DCMI: Connect DCMI pins to AF13
 568:libraries/STM32F4xx_StdPeriph_Driver/src/stm32f4xx_gpio.c ****   *            @arg GPIO_AF_LTDC: Connect LTDC pins to AF14 for STM32F429xx/439xx devices. 
 569:libraries/STM32F4xx_StdPeriph_Driver/src/stm32f4xx_gpio.c ****   *            @arg GPIO_AF_EVENTOUT: Connect EVENTOUT pins to AF15
 570:libraries/STM32F4xx_StdPeriph_Driver/src/stm32f4xx_gpio.c ****   * @retval None
 571:libraries/STM32F4xx_StdPeriph_Driver/src/stm32f4xx_gpio.c ****   */
 572:libraries/STM32F4xx_StdPeriph_Driver/src/stm32f4xx_gpio.c **** void GPIO_PinAFConfig(GPIO_TypeDef* GPIOx, uint16_t GPIO_PinSource, uint8_t GPIO_AF)
 573:libraries/STM32F4xx_StdPeriph_Driver/src/stm32f4xx_gpio.c **** {
 834              		.loc 1 573 1 is_stmt 1 view -0
 835              		.cfi_startproc
 836              		@ args = 0, pretend = 0, frame = 0
 837              		@ frame_needed = 0, uses_anonymous_args = 0
 838              		@ link register save eliminated.
 839              		.loc 1 573 1 is_stmt 0 view .LVU233
 840 0000 10B4     		push	{r4}
 841              	.LCFI5:
 842              		.cfi_def_cfa_offset 4
 843              		.cfi_offset 4, -4
 574:libraries/STM32F4xx_StdPeriph_Driver/src/stm32f4xx_gpio.c ****   uint32_t temp = 0x00;
 844              		.loc 1 574 3 is_stmt 1 view .LVU234
 845              	.LVL79:
 575:libraries/STM32F4xx_StdPeriph_Driver/src/stm32f4xx_gpio.c ****   uint32_t temp_2 = 0x00;
 846              		.loc 1 575 3 view .LVU235
 576:libraries/STM32F4xx_StdPeriph_Driver/src/stm32f4xx_gpio.c ****   
 577:libraries/STM32F4xx_StdPeriph_Driver/src/stm32f4xx_gpio.c ****   /* Check the parameters */
 578:libraries/STM32F4xx_StdPeriph_Driver/src/stm32f4xx_gpio.c ****   assert_param(IS_GPIO_ALL_PERIPH(GPIOx));
 847              		.loc 1 578 3 view .LVU236
 579:libraries/STM32F4xx_StdPeriph_Driver/src/stm32f4xx_gpio.c ****   assert_param(IS_GPIO_PIN_SOURCE(GPIO_PinSource));
 848              		.loc 1 579 3 view .LVU237
 580:libraries/STM32F4xx_StdPeriph_Driver/src/stm32f4xx_gpio.c ****   assert_param(IS_GPIO_AF(GPIO_AF));
 849              		.loc 1 580 3 view .LVU238
 581:libraries/STM32F4xx_StdPeriph_Driver/src/stm32f4xx_gpio.c ****   
 582:libraries/STM32F4xx_StdPeriph_Driver/src/stm32f4xx_gpio.c ****   temp = ((uint32_t)(GPIO_AF) << ((uint32_t)((uint32_t)GPIO_PinSource & (uint32_t)0x07) * 4)) ;
 850              		.loc 1 582 3 view .LVU239
 851              		.loc 1 582 35 is_stmt 0 view .LVU240
ARM GAS  C:\Users\ktkuru\AppData\Local\Temp\ccNxTYhi.s 			page 27


 852 0002 01F00703 		and	r3, r1, #7
 853              		.loc 1 582 89 view .LVU241
 854 0006 9B00     		lsls	r3, r3, #2
 855              		.loc 1 582 8 view .LVU242
 856 0008 9A40     		lsls	r2, r2, r3
 857              	.LVL80:
 583:libraries/STM32F4xx_StdPeriph_Driver/src/stm32f4xx_gpio.c ****   GPIOx->AFR[GPIO_PinSource >> 0x03] &= ~((uint32_t)0xF << ((uint32_t)((uint32_t)GPIO_PinSource & (
 858              		.loc 1 583 3 is_stmt 1 view .LVU243
 859              		.loc 1 583 13 is_stmt 0 view .LVU244
 860 000a C908     		lsrs	r1, r1, #3
 861              	.LVL81:
 862              		.loc 1 583 13 view .LVU245
 863 000c 0831     		adds	r1, r1, #8
 864 000e 50F82140 		ldr	r4, [r0, r1, lsl #2]
 865              		.loc 1 583 57 view .LVU246
 866 0012 4FF00F0C 		mov	ip, #15
 867 0016 0CFA03F3 		lsl	r3, ip, r3
 868              		.loc 1 583 38 view .LVU247
 869 001a 24EA0303 		bic	r3, r4, r3
 870 001e 40F82130 		str	r3, [r0, r1, lsl #2]
 584:libraries/STM32F4xx_StdPeriph_Driver/src/stm32f4xx_gpio.c ****   temp_2 = GPIOx->AFR[GPIO_PinSource >> 0x03] | temp;
 871              		.loc 1 584 3 is_stmt 1 view .LVU248
 872              		.loc 1 584 22 is_stmt 0 view .LVU249
 873 0022 50F82130 		ldr	r3, [r0, r1, lsl #2]
 874              		.loc 1 584 10 view .LVU250
 875 0026 1343     		orrs	r3, r3, r2
 876              	.LVL82:
 585:libraries/STM32F4xx_StdPeriph_Driver/src/stm32f4xx_gpio.c ****   GPIOx->AFR[GPIO_PinSource >> 0x03] = temp_2;
 877              		.loc 1 585 3 is_stmt 1 view .LVU251
 878              		.loc 1 585 38 is_stmt 0 view .LVU252
 879 0028 40F82130 		str	r3, [r0, r1, lsl #2]
 586:libraries/STM32F4xx_StdPeriph_Driver/src/stm32f4xx_gpio.c **** }
 880              		.loc 1 586 1 view .LVU253
 881 002c 5DF8044B 		ldr	r4, [sp], #4
 882              	.LCFI6:
 883              		.cfi_restore 4
 884              		.cfi_def_cfa_offset 0
 885 0030 7047     		bx	lr
 886              		.cfi_endproc
 887              	.LFE136:
 889              		.text
 890              	.Letext0:
 891              		.file 2 "C:/Program Files (x86)/Arm GNU Toolchain arm-none-eabi/13.3 rel1/arm-none-eabi/include/ma
 892              		.file 3 "C:/Program Files (x86)/Arm GNU Toolchain arm-none-eabi/13.3 rel1/arm-none-eabi/include/sy
 893              		.file 4 "libraries/CMSIS/Device/ST/STM32F4xx/include/stm32f4xx.h"
 894              		.file 5 "libraries/STM32F4xx_StdPeriph_Driver/inc/stm32f4xx_gpio.h"
 895              		.file 6 "libraries/STM32F4xx_StdPeriph_Driver/inc/stm32f4xx_rcc.h"
ARM GAS  C:\Users\ktkuru\AppData\Local\Temp\ccNxTYhi.s 			page 28

