ARM GAS  C:\Users\ktkuru\AppData\Local\Temp\cckTEIlV.s 			page 1


   1              		.cpu cortex-m4
   2              		.arch armv7e-m
   3              		.fpu fpv4-sp-d16
   4              		.eabi_attribute 27, 1
   5              		.eabi_attribute 28, 1
   6              		.eabi_attribute 20, 1
   7              		.eabi_attribute 21, 1
   8              		.eabi_attribute 23, 3
   9              		.eabi_attribute 24, 1
  10              		.eabi_attribute 25, 1
  11              		.eabi_attribute 26, 1
  12              		.eabi_attribute 30, 1
  13              		.eabi_attribute 34, 1
  14              		.eabi_attribute 18, 4
  15              		.file	"stm32f4xx_dac.c"
  16              		.text
  17              	.Ltext0:
  18              		.cfi_sections	.debug_frame
  19              		.file 1 "libraries/STM32F4xx_StdPeriph_Driver/src/stm32f4xx_dac.c"
  20              		.section	.text.DAC_DeInit,"ax",%progbits
  21              		.align	1
  22              		.global	DAC_DeInit
  23              		.syntax unified
  24              		.thumb
  25              		.thumb_func
  27              	DAC_DeInit:
  28              	.LFB123:
   1:libraries/STM32F4xx_StdPeriph_Driver/src/stm32f4xx_dac.c **** /**
   2:libraries/STM32F4xx_StdPeriph_Driver/src/stm32f4xx_dac.c ****   ******************************************************************************
   3:libraries/STM32F4xx_StdPeriph_Driver/src/stm32f4xx_dac.c ****   * @file    stm32f4xx_dac.c
   4:libraries/STM32F4xx_StdPeriph_Driver/src/stm32f4xx_dac.c ****   * @author  MCD Application Team
   5:libraries/STM32F4xx_StdPeriph_Driver/src/stm32f4xx_dac.c ****   * @version V1.8.1
   6:libraries/STM32F4xx_StdPeriph_Driver/src/stm32f4xx_dac.c ****   * @date    27-January-2022
   7:libraries/STM32F4xx_StdPeriph_Driver/src/stm32f4xx_dac.c ****    * @brief   This file provides firmware functions to manage the following 
   8:libraries/STM32F4xx_StdPeriph_Driver/src/stm32f4xx_dac.c ****   *          functionalities of the Digital-to-Analog Converter (DAC) peripheral: 
   9:libraries/STM32F4xx_StdPeriph_Driver/src/stm32f4xx_dac.c ****   *           + DAC channels configuration: trigger, output buffer, data format
  10:libraries/STM32F4xx_StdPeriph_Driver/src/stm32f4xx_dac.c ****   *           + DMA management      
  11:libraries/STM32F4xx_StdPeriph_Driver/src/stm32f4xx_dac.c ****   *           + Interrupts and flags management
  12:libraries/STM32F4xx_StdPeriph_Driver/src/stm32f4xx_dac.c ****   *
  13:libraries/STM32F4xx_StdPeriph_Driver/src/stm32f4xx_dac.c ****  @verbatim      
  14:libraries/STM32F4xx_StdPeriph_Driver/src/stm32f4xx_dac.c ****  ===============================================================================
  15:libraries/STM32F4xx_StdPeriph_Driver/src/stm32f4xx_dac.c ****                       ##### DAC Peripheral features #####
  16:libraries/STM32F4xx_StdPeriph_Driver/src/stm32f4xx_dac.c ****  ===============================================================================
  17:libraries/STM32F4xx_StdPeriph_Driver/src/stm32f4xx_dac.c ****     [..]        
  18:libraries/STM32F4xx_StdPeriph_Driver/src/stm32f4xx_dac.c ****       *** DAC Channels ***
  19:libraries/STM32F4xx_StdPeriph_Driver/src/stm32f4xx_dac.c ****       ====================  
  20:libraries/STM32F4xx_StdPeriph_Driver/src/stm32f4xx_dac.c ****     [..]  
  21:libraries/STM32F4xx_StdPeriph_Driver/src/stm32f4xx_dac.c ****     The device integrates two 12-bit Digital Analog Converters that can 
  22:libraries/STM32F4xx_StdPeriph_Driver/src/stm32f4xx_dac.c ****     be used independently or simultaneously (dual mode):
  23:libraries/STM32F4xx_StdPeriph_Driver/src/stm32f4xx_dac.c ****       (#) DAC channel1 with DAC_OUT1 (PA4) as output
  24:libraries/STM32F4xx_StdPeriph_Driver/src/stm32f4xx_dac.c ****       (#) DAC channel2 with DAC_OUT2 (PA5) as output
  25:libraries/STM32F4xx_StdPeriph_Driver/src/stm32f4xx_dac.c ****   
  26:libraries/STM32F4xx_StdPeriph_Driver/src/stm32f4xx_dac.c ****       *** DAC Triggers ***
  27:libraries/STM32F4xx_StdPeriph_Driver/src/stm32f4xx_dac.c ****       ====================
  28:libraries/STM32F4xx_StdPeriph_Driver/src/stm32f4xx_dac.c ****     [..]
  29:libraries/STM32F4xx_StdPeriph_Driver/src/stm32f4xx_dac.c ****     Digital to Analog conversion can be non-triggered using DAC_Trigger_None
  30:libraries/STM32F4xx_StdPeriph_Driver/src/stm32f4xx_dac.c ****     and DAC_OUT1/DAC_OUT2 is available once writing to DHRx register 
ARM GAS  C:\Users\ktkuru\AppData\Local\Temp\cckTEIlV.s 			page 2


  31:libraries/STM32F4xx_StdPeriph_Driver/src/stm32f4xx_dac.c ****     using DAC_SetChannel1Data() / DAC_SetChannel2Data() functions.
  32:libraries/STM32F4xx_StdPeriph_Driver/src/stm32f4xx_dac.c ****     [..] 
  33:libraries/STM32F4xx_StdPeriph_Driver/src/stm32f4xx_dac.c ****     Digital to Analog conversion can be triggered by:
  34:libraries/STM32F4xx_StdPeriph_Driver/src/stm32f4xx_dac.c ****       (#) External event: EXTI Line 9 (any GPIOx_Pin9) using DAC_Trigger_Ext_IT9.
  35:libraries/STM32F4xx_StdPeriph_Driver/src/stm32f4xx_dac.c ****           The used pin (GPIOx_Pin9) must be configured in input mode.
  36:libraries/STM32F4xx_StdPeriph_Driver/src/stm32f4xx_dac.c ****   
  37:libraries/STM32F4xx_StdPeriph_Driver/src/stm32f4xx_dac.c ****       (#) Timers TRGO: TIM2, TIM4, TIM5, TIM6, TIM7 and TIM8 
  38:libraries/STM32F4xx_StdPeriph_Driver/src/stm32f4xx_dac.c ****           (DAC_Trigger_T2_TRGO, DAC_Trigger_T4_TRGO...)
  39:libraries/STM32F4xx_StdPeriph_Driver/src/stm32f4xx_dac.c ****           The timer TRGO event should be selected using TIM_SelectOutputTrigger()
  40:libraries/STM32F4xx_StdPeriph_Driver/src/stm32f4xx_dac.c ****   
  41:libraries/STM32F4xx_StdPeriph_Driver/src/stm32f4xx_dac.c ****       (#) Software using DAC_Trigger_Software
  42:libraries/STM32F4xx_StdPeriph_Driver/src/stm32f4xx_dac.c ****   
  43:libraries/STM32F4xx_StdPeriph_Driver/src/stm32f4xx_dac.c ****       *** DAC Buffer mode feature ***
  44:libraries/STM32F4xx_StdPeriph_Driver/src/stm32f4xx_dac.c ****       =============================== 
  45:libraries/STM32F4xx_StdPeriph_Driver/src/stm32f4xx_dac.c ****       [..] 
  46:libraries/STM32F4xx_StdPeriph_Driver/src/stm32f4xx_dac.c ****       Each DAC channel integrates an output buffer that can be used to 
  47:libraries/STM32F4xx_StdPeriph_Driver/src/stm32f4xx_dac.c ****       reduce the output impedance, and to drive external loads directly
  48:libraries/STM32F4xx_StdPeriph_Driver/src/stm32f4xx_dac.c ****       without having to add an external operational amplifier.
  49:libraries/STM32F4xx_StdPeriph_Driver/src/stm32f4xx_dac.c ****       To enable, the output buffer use  
  50:libraries/STM32F4xx_StdPeriph_Driver/src/stm32f4xx_dac.c ****       DAC_InitStructure.DAC_OutputBuffer = DAC_OutputBuffer_Enable;
  51:libraries/STM32F4xx_StdPeriph_Driver/src/stm32f4xx_dac.c ****       [..]           
  52:libraries/STM32F4xx_StdPeriph_Driver/src/stm32f4xx_dac.c ****       (@) Refer to the device datasheet for more details about output 
  53:libraries/STM32F4xx_StdPeriph_Driver/src/stm32f4xx_dac.c ****           impedance value with and without output buffer.
  54:libraries/STM32F4xx_StdPeriph_Driver/src/stm32f4xx_dac.c ****             
  55:libraries/STM32F4xx_StdPeriph_Driver/src/stm32f4xx_dac.c ****        *** DAC wave generation feature ***
  56:libraries/STM32F4xx_StdPeriph_Driver/src/stm32f4xx_dac.c ****        =================================== 
  57:libraries/STM32F4xx_StdPeriph_Driver/src/stm32f4xx_dac.c ****        [..]     
  58:libraries/STM32F4xx_StdPeriph_Driver/src/stm32f4xx_dac.c ****        Both DAC channels can be used to generate
  59:libraries/STM32F4xx_StdPeriph_Driver/src/stm32f4xx_dac.c ****          (#) Noise wave using DAC_WaveGeneration_Noise
  60:libraries/STM32F4xx_StdPeriph_Driver/src/stm32f4xx_dac.c ****          (#) Triangle wave using DAC_WaveGeneration_Triangle
  61:libraries/STM32F4xx_StdPeriph_Driver/src/stm32f4xx_dac.c ****           
  62:libraries/STM32F4xx_StdPeriph_Driver/src/stm32f4xx_dac.c ****           -@-  Wave generation can be disabled using DAC_WaveGeneration_None
  63:libraries/STM32F4xx_StdPeriph_Driver/src/stm32f4xx_dac.c ****   
  64:libraries/STM32F4xx_StdPeriph_Driver/src/stm32f4xx_dac.c ****        *** DAC data format ***
  65:libraries/STM32F4xx_StdPeriph_Driver/src/stm32f4xx_dac.c ****        =======================
  66:libraries/STM32F4xx_StdPeriph_Driver/src/stm32f4xx_dac.c ****        [..]   
  67:libraries/STM32F4xx_StdPeriph_Driver/src/stm32f4xx_dac.c ****        The DAC data format can be:
  68:libraries/STM32F4xx_StdPeriph_Driver/src/stm32f4xx_dac.c ****          (#) 8-bit right alignment using DAC_Align_8b_R
  69:libraries/STM32F4xx_StdPeriph_Driver/src/stm32f4xx_dac.c ****          (#) 12-bit left alignment using DAC_Align_12b_L
  70:libraries/STM32F4xx_StdPeriph_Driver/src/stm32f4xx_dac.c ****          (#) 12-bit right alignment using DAC_Align_12b_R
  71:libraries/STM32F4xx_StdPeriph_Driver/src/stm32f4xx_dac.c ****   
  72:libraries/STM32F4xx_StdPeriph_Driver/src/stm32f4xx_dac.c ****        *** DAC data value to voltage correspondence ***  
  73:libraries/STM32F4xx_StdPeriph_Driver/src/stm32f4xx_dac.c ****        ================================================ 
  74:libraries/STM32F4xx_StdPeriph_Driver/src/stm32f4xx_dac.c ****        [..] 
  75:libraries/STM32F4xx_StdPeriph_Driver/src/stm32f4xx_dac.c ****        The analog output voltage on each DAC channel pin is determined
  76:libraries/STM32F4xx_StdPeriph_Driver/src/stm32f4xx_dac.c ****        by the following equation: 
  77:libraries/STM32F4xx_StdPeriph_Driver/src/stm32f4xx_dac.c ****        DAC_OUTx = VREF+ * DOR / 4095
  78:libraries/STM32F4xx_StdPeriph_Driver/src/stm32f4xx_dac.c ****        with  DOR is the Data Output Register
  79:libraries/STM32F4xx_StdPeriph_Driver/src/stm32f4xx_dac.c ****           VEF+ is the input voltage reference (refer to the device datasheet)
  80:libraries/STM32F4xx_StdPeriph_Driver/src/stm32f4xx_dac.c ****         e.g. To set DAC_OUT1 to 0.7V, use
  81:libraries/STM32F4xx_StdPeriph_Driver/src/stm32f4xx_dac.c ****           DAC_SetChannel1Data(DAC_Align_12b_R, 868);
  82:libraries/STM32F4xx_StdPeriph_Driver/src/stm32f4xx_dac.c ****           Assuming that VREF+ = 3.3V, DAC_OUT1 = (3.3 * 868) / 4095 = 0.7V
  83:libraries/STM32F4xx_StdPeriph_Driver/src/stm32f4xx_dac.c ****   
  84:libraries/STM32F4xx_StdPeriph_Driver/src/stm32f4xx_dac.c ****        *** DMA requests  ***
  85:libraries/STM32F4xx_StdPeriph_Driver/src/stm32f4xx_dac.c ****        =====================
  86:libraries/STM32F4xx_StdPeriph_Driver/src/stm32f4xx_dac.c ****        [..]    
  87:libraries/STM32F4xx_StdPeriph_Driver/src/stm32f4xx_dac.c ****        A DMA1 request can be generated when an external trigger (but not
ARM GAS  C:\Users\ktkuru\AppData\Local\Temp\cckTEIlV.s 			page 3


  88:libraries/STM32F4xx_StdPeriph_Driver/src/stm32f4xx_dac.c ****        a software trigger) occurs if DMA1 requests are enabled using
  89:libraries/STM32F4xx_StdPeriph_Driver/src/stm32f4xx_dac.c ****        DAC_DMACmd()
  90:libraries/STM32F4xx_StdPeriph_Driver/src/stm32f4xx_dac.c ****        [..]
  91:libraries/STM32F4xx_StdPeriph_Driver/src/stm32f4xx_dac.c ****        DMA1 requests are mapped as following:
  92:libraries/STM32F4xx_StdPeriph_Driver/src/stm32f4xx_dac.c ****          (#) DAC channel1 : mapped on DMA1 Stream5 channel7 which must be 
  93:libraries/STM32F4xx_StdPeriph_Driver/src/stm32f4xx_dac.c ****              already configured
  94:libraries/STM32F4xx_StdPeriph_Driver/src/stm32f4xx_dac.c ****          (#) DAC channel2 : mapped on DMA1 Stream6 channel7 which must be 
  95:libraries/STM32F4xx_StdPeriph_Driver/src/stm32f4xx_dac.c ****              already configured
  96:libraries/STM32F4xx_StdPeriph_Driver/src/stm32f4xx_dac.c ****   
  97:libraries/STM32F4xx_StdPeriph_Driver/src/stm32f4xx_dac.c ****       
  98:libraries/STM32F4xx_StdPeriph_Driver/src/stm32f4xx_dac.c ****                       ##### How to use this driver #####
  99:libraries/STM32F4xx_StdPeriph_Driver/src/stm32f4xx_dac.c ****  ===============================================================================
 100:libraries/STM32F4xx_StdPeriph_Driver/src/stm32f4xx_dac.c ****     [..]          
 101:libraries/STM32F4xx_StdPeriph_Driver/src/stm32f4xx_dac.c ****       (+) DAC APB clock must be enabled to get write access to DAC
 102:libraries/STM32F4xx_StdPeriph_Driver/src/stm32f4xx_dac.c ****           registers using
 103:libraries/STM32F4xx_StdPeriph_Driver/src/stm32f4xx_dac.c ****           RCC_APB1PeriphClockCmd(RCC_APB1Periph_DAC, ENABLE)
 104:libraries/STM32F4xx_StdPeriph_Driver/src/stm32f4xx_dac.c ****       (+) Configure DAC_OUTx (DAC_OUT1: PA4, DAC_OUT2: PA5) in analog mode.
 105:libraries/STM32F4xx_StdPeriph_Driver/src/stm32f4xx_dac.c ****       (+) Configure the DAC channel using DAC_Init() function
 106:libraries/STM32F4xx_StdPeriph_Driver/src/stm32f4xx_dac.c ****       (+) Enable the DAC channel using DAC_Cmd() function
 107:libraries/STM32F4xx_StdPeriph_Driver/src/stm32f4xx_dac.c ****    
 108:libraries/STM32F4xx_StdPeriph_Driver/src/stm32f4xx_dac.c ****  @endverbatim    
 109:libraries/STM32F4xx_StdPeriph_Driver/src/stm32f4xx_dac.c ****   ******************************************************************************
 110:libraries/STM32F4xx_StdPeriph_Driver/src/stm32f4xx_dac.c ****   * @attention
 111:libraries/STM32F4xx_StdPeriph_Driver/src/stm32f4xx_dac.c ****   *
 112:libraries/STM32F4xx_StdPeriph_Driver/src/stm32f4xx_dac.c ****   * Copyright (c) 2016 STMicroelectronics.
 113:libraries/STM32F4xx_StdPeriph_Driver/src/stm32f4xx_dac.c ****   * All rights reserved.
 114:libraries/STM32F4xx_StdPeriph_Driver/src/stm32f4xx_dac.c ****   *
 115:libraries/STM32F4xx_StdPeriph_Driver/src/stm32f4xx_dac.c ****   * This software is licensed under terms that can be found in the LICENSE file
 116:libraries/STM32F4xx_StdPeriph_Driver/src/stm32f4xx_dac.c ****   * in the root directory of this software component.
 117:libraries/STM32F4xx_StdPeriph_Driver/src/stm32f4xx_dac.c ****   * If no LICENSE file comes with this software, it is provided AS-IS.
 118:libraries/STM32F4xx_StdPeriph_Driver/src/stm32f4xx_dac.c ****   *
 119:libraries/STM32F4xx_StdPeriph_Driver/src/stm32f4xx_dac.c ****   ******************************************************************************
 120:libraries/STM32F4xx_StdPeriph_Driver/src/stm32f4xx_dac.c ****   */
 121:libraries/STM32F4xx_StdPeriph_Driver/src/stm32f4xx_dac.c **** 
 122:libraries/STM32F4xx_StdPeriph_Driver/src/stm32f4xx_dac.c **** 
 123:libraries/STM32F4xx_StdPeriph_Driver/src/stm32f4xx_dac.c **** /* Includes ------------------------------------------------------------------*/
 124:libraries/STM32F4xx_StdPeriph_Driver/src/stm32f4xx_dac.c **** #include "stm32f4xx_dac.h"
 125:libraries/STM32F4xx_StdPeriph_Driver/src/stm32f4xx_dac.c **** #include "stm32f4xx_rcc.h"
 126:libraries/STM32F4xx_StdPeriph_Driver/src/stm32f4xx_dac.c **** 
 127:libraries/STM32F4xx_StdPeriph_Driver/src/stm32f4xx_dac.c **** /** @addtogroup STM32F4xx_StdPeriph_Driver
 128:libraries/STM32F4xx_StdPeriph_Driver/src/stm32f4xx_dac.c ****   * @{
 129:libraries/STM32F4xx_StdPeriph_Driver/src/stm32f4xx_dac.c ****   */
 130:libraries/STM32F4xx_StdPeriph_Driver/src/stm32f4xx_dac.c **** 
 131:libraries/STM32F4xx_StdPeriph_Driver/src/stm32f4xx_dac.c **** /** @defgroup DAC 
 132:libraries/STM32F4xx_StdPeriph_Driver/src/stm32f4xx_dac.c ****   * @brief DAC driver modules
 133:libraries/STM32F4xx_StdPeriph_Driver/src/stm32f4xx_dac.c ****   * @{
 134:libraries/STM32F4xx_StdPeriph_Driver/src/stm32f4xx_dac.c ****   */ 
 135:libraries/STM32F4xx_StdPeriph_Driver/src/stm32f4xx_dac.c **** 
 136:libraries/STM32F4xx_StdPeriph_Driver/src/stm32f4xx_dac.c **** /* Private typedef -----------------------------------------------------------*/
 137:libraries/STM32F4xx_StdPeriph_Driver/src/stm32f4xx_dac.c **** /* Private define ------------------------------------------------------------*/
 138:libraries/STM32F4xx_StdPeriph_Driver/src/stm32f4xx_dac.c **** 
 139:libraries/STM32F4xx_StdPeriph_Driver/src/stm32f4xx_dac.c **** /* CR register Mask */
 140:libraries/STM32F4xx_StdPeriph_Driver/src/stm32f4xx_dac.c **** #define CR_CLEAR_MASK              ((uint32_t)0x00000FFE)
 141:libraries/STM32F4xx_StdPeriph_Driver/src/stm32f4xx_dac.c **** 
 142:libraries/STM32F4xx_StdPeriph_Driver/src/stm32f4xx_dac.c **** /* DAC Dual Channels SWTRIG masks */
 143:libraries/STM32F4xx_StdPeriph_Driver/src/stm32f4xx_dac.c **** #define DUAL_SWTRIG_SET            ((uint32_t)0x00000003)
 144:libraries/STM32F4xx_StdPeriph_Driver/src/stm32f4xx_dac.c **** #define DUAL_SWTRIG_RESET          ((uint32_t)0xFFFFFFFC)
ARM GAS  C:\Users\ktkuru\AppData\Local\Temp\cckTEIlV.s 			page 4


 145:libraries/STM32F4xx_StdPeriph_Driver/src/stm32f4xx_dac.c **** 
 146:libraries/STM32F4xx_StdPeriph_Driver/src/stm32f4xx_dac.c **** /* DHR registers offsets */
 147:libraries/STM32F4xx_StdPeriph_Driver/src/stm32f4xx_dac.c **** #define DHR12R1_OFFSET             ((uint32_t)0x00000008)
 148:libraries/STM32F4xx_StdPeriph_Driver/src/stm32f4xx_dac.c **** #define DHR12R2_OFFSET             ((uint32_t)0x00000014)
 149:libraries/STM32F4xx_StdPeriph_Driver/src/stm32f4xx_dac.c **** #define DHR12RD_OFFSET             ((uint32_t)0x00000020)
 150:libraries/STM32F4xx_StdPeriph_Driver/src/stm32f4xx_dac.c **** 
 151:libraries/STM32F4xx_StdPeriph_Driver/src/stm32f4xx_dac.c **** /* DOR register offset */
 152:libraries/STM32F4xx_StdPeriph_Driver/src/stm32f4xx_dac.c **** #define DOR_OFFSET                 ((uint32_t)0x0000002C)
 153:libraries/STM32F4xx_StdPeriph_Driver/src/stm32f4xx_dac.c **** 
 154:libraries/STM32F4xx_StdPeriph_Driver/src/stm32f4xx_dac.c **** /* Private macro -------------------------------------------------------------*/
 155:libraries/STM32F4xx_StdPeriph_Driver/src/stm32f4xx_dac.c **** /* Private variables ---------------------------------------------------------*/
 156:libraries/STM32F4xx_StdPeriph_Driver/src/stm32f4xx_dac.c **** /* Private function prototypes -----------------------------------------------*/
 157:libraries/STM32F4xx_StdPeriph_Driver/src/stm32f4xx_dac.c **** /* Private functions ---------------------------------------------------------*/
 158:libraries/STM32F4xx_StdPeriph_Driver/src/stm32f4xx_dac.c **** 
 159:libraries/STM32F4xx_StdPeriph_Driver/src/stm32f4xx_dac.c **** /** @defgroup DAC_Private_Functions
 160:libraries/STM32F4xx_StdPeriph_Driver/src/stm32f4xx_dac.c ****   * @{
 161:libraries/STM32F4xx_StdPeriph_Driver/src/stm32f4xx_dac.c ****   */
 162:libraries/STM32F4xx_StdPeriph_Driver/src/stm32f4xx_dac.c **** 
 163:libraries/STM32F4xx_StdPeriph_Driver/src/stm32f4xx_dac.c **** /** @defgroup DAC_Group1 DAC channels configuration
 164:libraries/STM32F4xx_StdPeriph_Driver/src/stm32f4xx_dac.c ****  *  @brief   DAC channels configuration: trigger, output buffer, data format 
 165:libraries/STM32F4xx_StdPeriph_Driver/src/stm32f4xx_dac.c ****  *
 166:libraries/STM32F4xx_StdPeriph_Driver/src/stm32f4xx_dac.c **** @verbatim   
 167:libraries/STM32F4xx_StdPeriph_Driver/src/stm32f4xx_dac.c ****  ===============================================================================
 168:libraries/STM32F4xx_StdPeriph_Driver/src/stm32f4xx_dac.c ****    ##### DAC channels configuration: trigger, output buffer, data format #####
 169:libraries/STM32F4xx_StdPeriph_Driver/src/stm32f4xx_dac.c ****  ===============================================================================  
 170:libraries/STM32F4xx_StdPeriph_Driver/src/stm32f4xx_dac.c **** 
 171:libraries/STM32F4xx_StdPeriph_Driver/src/stm32f4xx_dac.c **** @endverbatim
 172:libraries/STM32F4xx_StdPeriph_Driver/src/stm32f4xx_dac.c ****   * @{
 173:libraries/STM32F4xx_StdPeriph_Driver/src/stm32f4xx_dac.c ****   */
 174:libraries/STM32F4xx_StdPeriph_Driver/src/stm32f4xx_dac.c **** 
 175:libraries/STM32F4xx_StdPeriph_Driver/src/stm32f4xx_dac.c **** /**
 176:libraries/STM32F4xx_StdPeriph_Driver/src/stm32f4xx_dac.c ****   * @brief  Deinitializes the DAC peripheral registers to their default reset values.
 177:libraries/STM32F4xx_StdPeriph_Driver/src/stm32f4xx_dac.c ****   * @param  None
 178:libraries/STM32F4xx_StdPeriph_Driver/src/stm32f4xx_dac.c ****   * @retval None
 179:libraries/STM32F4xx_StdPeriph_Driver/src/stm32f4xx_dac.c ****   */
 180:libraries/STM32F4xx_StdPeriph_Driver/src/stm32f4xx_dac.c **** void DAC_DeInit(void)
 181:libraries/STM32F4xx_StdPeriph_Driver/src/stm32f4xx_dac.c **** {
  29              		.loc 1 181 1 view -0
  30              		.cfi_startproc
  31              		@ args = 0, pretend = 0, frame = 0
  32              		@ frame_needed = 0, uses_anonymous_args = 0
  33 0000 08B5     		push	{r3, lr}
  34              	.LCFI0:
  35              		.cfi_def_cfa_offset 8
  36              		.cfi_offset 3, -8
  37              		.cfi_offset 14, -4
 182:libraries/STM32F4xx_StdPeriph_Driver/src/stm32f4xx_dac.c ****   /* Enable DAC reset state */
 183:libraries/STM32F4xx_StdPeriph_Driver/src/stm32f4xx_dac.c ****   RCC_APB1PeriphResetCmd(RCC_APB1Periph_DAC, ENABLE);
  38              		.loc 1 183 3 view .LVU1
  39 0002 0121     		movs	r1, #1
  40 0004 4FF00050 		mov	r0, #536870912
  41 0008 FFF7FEFF 		bl	RCC_APB1PeriphResetCmd
  42              	.LVL0:
 184:libraries/STM32F4xx_StdPeriph_Driver/src/stm32f4xx_dac.c ****   /* Release DAC from reset state */
 185:libraries/STM32F4xx_StdPeriph_Driver/src/stm32f4xx_dac.c ****   RCC_APB1PeriphResetCmd(RCC_APB1Periph_DAC, DISABLE);
  43              		.loc 1 185 3 view .LVU2
  44 000c 0021     		movs	r1, #0
ARM GAS  C:\Users\ktkuru\AppData\Local\Temp\cckTEIlV.s 			page 5


  45 000e 4FF00050 		mov	r0, #536870912
  46 0012 FFF7FEFF 		bl	RCC_APB1PeriphResetCmd
  47              	.LVL1:
 186:libraries/STM32F4xx_StdPeriph_Driver/src/stm32f4xx_dac.c **** }
  48              		.loc 1 186 1 is_stmt 0 view .LVU3
  49 0016 08BD     		pop	{r3, pc}
  50              		.cfi_endproc
  51              	.LFE123:
  53              		.section	.text.DAC_Init,"ax",%progbits
  54              		.align	1
  55              		.global	DAC_Init
  56              		.syntax unified
  57              		.thumb
  58              		.thumb_func
  60              	DAC_Init:
  61              	.LVL2:
  62              	.LFB124:
 187:libraries/STM32F4xx_StdPeriph_Driver/src/stm32f4xx_dac.c **** 
 188:libraries/STM32F4xx_StdPeriph_Driver/src/stm32f4xx_dac.c **** /**
 189:libraries/STM32F4xx_StdPeriph_Driver/src/stm32f4xx_dac.c ****   * @brief  Initializes the DAC peripheral according to the specified parameters
 190:libraries/STM32F4xx_StdPeriph_Driver/src/stm32f4xx_dac.c ****   *         in the DAC_InitStruct.
 191:libraries/STM32F4xx_StdPeriph_Driver/src/stm32f4xx_dac.c ****   * @param  DAC_Channel: the selected DAC channel. 
 192:libraries/STM32F4xx_StdPeriph_Driver/src/stm32f4xx_dac.c ****   *          This parameter can be one of the following values:
 193:libraries/STM32F4xx_StdPeriph_Driver/src/stm32f4xx_dac.c ****   *            @arg DAC_Channel_1: DAC Channel1 selected
 194:libraries/STM32F4xx_StdPeriph_Driver/src/stm32f4xx_dac.c ****   *            @arg DAC_Channel_2: DAC Channel2 selected
 195:libraries/STM32F4xx_StdPeriph_Driver/src/stm32f4xx_dac.c ****   * @param  DAC_InitStruct: pointer to a DAC_InitTypeDef structure that contains
 196:libraries/STM32F4xx_StdPeriph_Driver/src/stm32f4xx_dac.c ****   *         the configuration information for the  specified DAC channel.
 197:libraries/STM32F4xx_StdPeriph_Driver/src/stm32f4xx_dac.c ****   * @retval None
 198:libraries/STM32F4xx_StdPeriph_Driver/src/stm32f4xx_dac.c ****   */
 199:libraries/STM32F4xx_StdPeriph_Driver/src/stm32f4xx_dac.c **** void DAC_Init(uint32_t DAC_Channel, DAC_InitTypeDef* DAC_InitStruct)
 200:libraries/STM32F4xx_StdPeriph_Driver/src/stm32f4xx_dac.c **** {
  63              		.loc 1 200 1 is_stmt 1 view -0
  64              		.cfi_startproc
  65              		@ args = 0, pretend = 0, frame = 0
  66              		@ frame_needed = 0, uses_anonymous_args = 0
  67              		@ link register save eliminated.
  68              		.loc 1 200 1 is_stmt 0 view .LVU5
  69 0000 30B4     		push	{r4, r5}
  70              	.LCFI1:
  71              		.cfi_def_cfa_offset 8
  72              		.cfi_offset 4, -8
  73              		.cfi_offset 5, -4
 201:libraries/STM32F4xx_StdPeriph_Driver/src/stm32f4xx_dac.c ****   uint32_t tmpreg1 = 0, tmpreg2 = 0;
  74              		.loc 1 201 3 is_stmt 1 view .LVU6
  75              	.LVL3:
 202:libraries/STM32F4xx_StdPeriph_Driver/src/stm32f4xx_dac.c **** 
 203:libraries/STM32F4xx_StdPeriph_Driver/src/stm32f4xx_dac.c ****   /* Check the DAC parameters */
 204:libraries/STM32F4xx_StdPeriph_Driver/src/stm32f4xx_dac.c ****   assert_param(IS_DAC_TRIGGER(DAC_InitStruct->DAC_Trigger));
  76              		.loc 1 204 3 view .LVU7
 205:libraries/STM32F4xx_StdPeriph_Driver/src/stm32f4xx_dac.c ****   assert_param(IS_DAC_GENERATE_WAVE(DAC_InitStruct->DAC_WaveGeneration));
  77              		.loc 1 205 3 view .LVU8
 206:libraries/STM32F4xx_StdPeriph_Driver/src/stm32f4xx_dac.c ****   assert_param(IS_DAC_LFSR_UNMASK_TRIANGLE_AMPLITUDE(DAC_InitStruct->DAC_LFSRUnmask_TriangleAmplitu
  78              		.loc 1 206 3 view .LVU9
 207:libraries/STM32F4xx_StdPeriph_Driver/src/stm32f4xx_dac.c ****   assert_param(IS_DAC_OUTPUT_BUFFER_STATE(DAC_InitStruct->DAC_OutputBuffer));
  79              		.loc 1 207 3 view .LVU10
 208:libraries/STM32F4xx_StdPeriph_Driver/src/stm32f4xx_dac.c **** 
 209:libraries/STM32F4xx_StdPeriph_Driver/src/stm32f4xx_dac.c **** /*---------------------------- DAC CR Configuration --------------------------*/
ARM GAS  C:\Users\ktkuru\AppData\Local\Temp\cckTEIlV.s 			page 6


 210:libraries/STM32F4xx_StdPeriph_Driver/src/stm32f4xx_dac.c ****   /* Get the DAC CR value */
 211:libraries/STM32F4xx_StdPeriph_Driver/src/stm32f4xx_dac.c ****   tmpreg1 = DAC->CR;
  80              		.loc 1 211 3 view .LVU11
  81              		.loc 1 211 11 is_stmt 0 view .LVU12
  82 0002 094C     		ldr	r4, .L5
  83 0004 2268     		ldr	r2, [r4]
  84              	.LVL4:
 212:libraries/STM32F4xx_StdPeriph_Driver/src/stm32f4xx_dac.c ****   /* Clear BOFFx, TENx, TSELx, WAVEx and MAMPx bits */
 213:libraries/STM32F4xx_StdPeriph_Driver/src/stm32f4xx_dac.c ****   tmpreg1 &= ~(CR_CLEAR_MASK << DAC_Channel);
  85              		.loc 1 213 3 is_stmt 1 view .LVU13
  86              		.loc 1 213 30 is_stmt 0 view .LVU14
  87 0006 40F6FE73 		movw	r3, #4094
  88 000a 8340     		lsls	r3, r3, r0
  89              		.loc 1 213 11 view .LVU15
  90 000c 22EA0302 		bic	r2, r2, r3
  91              	.LVL5:
 214:libraries/STM32F4xx_StdPeriph_Driver/src/stm32f4xx_dac.c ****   /* Configure for the selected DAC channel: buffer output, trigger, 
 215:libraries/STM32F4xx_StdPeriph_Driver/src/stm32f4xx_dac.c ****      wave generation, mask/amplitude for wave generation */
 216:libraries/STM32F4xx_StdPeriph_Driver/src/stm32f4xx_dac.c ****   /* Set TSELx and TENx bits according to DAC_Trigger value */
 217:libraries/STM32F4xx_StdPeriph_Driver/src/stm32f4xx_dac.c ****   /* Set WAVEx bits according to DAC_WaveGeneration value */
 218:libraries/STM32F4xx_StdPeriph_Driver/src/stm32f4xx_dac.c ****   /* Set MAMPx bits according to DAC_LFSRUnmask_TriangleAmplitude value */ 
 219:libraries/STM32F4xx_StdPeriph_Driver/src/stm32f4xx_dac.c ****   /* Set BOFFx bit according to DAC_OutputBuffer value */   
 220:libraries/STM32F4xx_StdPeriph_Driver/src/stm32f4xx_dac.c ****   tmpreg2 = (DAC_InitStruct->DAC_Trigger | DAC_InitStruct->DAC_WaveGeneration |
  92              		.loc 1 220 3 is_stmt 1 view .LVU16
  93              		.loc 1 220 28 is_stmt 0 view .LVU17
  94 0010 0B68     		ldr	r3, [r1]
  95              		.loc 1 220 42 view .LVU18
  96 0012 4D68     		ldr	r5, [r1, #4]
  97 0014 2B43     		orrs	r3, r3, r5
  98              		.loc 1 220 79 view .LVU19
  99 0016 8D68     		ldr	r5, [r1, #8]
 100 0018 2B43     		orrs	r3, r3, r5
 221:libraries/STM32F4xx_StdPeriph_Driver/src/stm32f4xx_dac.c ****              DAC_InitStruct->DAC_LFSRUnmask_TriangleAmplitude | \
 222:libraries/STM32F4xx_StdPeriph_Driver/src/stm32f4xx_dac.c ****              DAC_InitStruct->DAC_OutputBuffer);
 101              		.loc 1 222 28 view .LVU20
 102 001a C968     		ldr	r1, [r1, #12]
 103              	.LVL6:
 220:libraries/STM32F4xx_StdPeriph_Driver/src/stm32f4xx_dac.c ****              DAC_InitStruct->DAC_LFSRUnmask_TriangleAmplitude | \
 104              		.loc 1 220 11 view .LVU21
 105 001c 0B43     		orrs	r3, r3, r1
 106              	.LVL7:
 223:libraries/STM32F4xx_StdPeriph_Driver/src/stm32f4xx_dac.c ****   /* Calculate CR register value depending on DAC_Channel */
 224:libraries/STM32F4xx_StdPeriph_Driver/src/stm32f4xx_dac.c ****   tmpreg1 |= tmpreg2 << DAC_Channel;
 107              		.loc 1 224 3 is_stmt 1 view .LVU22
 108              		.loc 1 224 22 is_stmt 0 view .LVU23
 109 001e 8340     		lsls	r3, r3, r0
 110              	.LVL8:
 111              		.loc 1 224 11 view .LVU24
 112 0020 1343     		orrs	r3, r3, r2
 113              	.LVL9:
 225:libraries/STM32F4xx_StdPeriph_Driver/src/stm32f4xx_dac.c ****   /* Write to DAC CR */
 226:libraries/STM32F4xx_StdPeriph_Driver/src/stm32f4xx_dac.c ****   DAC->CR = tmpreg1;
 114              		.loc 1 226 3 is_stmt 1 view .LVU25
 115              		.loc 1 226 11 is_stmt 0 view .LVU26
 116 0022 2360     		str	r3, [r4]
 117              	.LVL10:
 227:libraries/STM32F4xx_StdPeriph_Driver/src/stm32f4xx_dac.c **** }
ARM GAS  C:\Users\ktkuru\AppData\Local\Temp\cckTEIlV.s 			page 7


 118              		.loc 1 227 1 view .LVU27
 119 0024 30BC     		pop	{r4, r5}
 120              	.LCFI2:
 121              		.cfi_restore 5
 122              		.cfi_restore 4
 123              		.cfi_def_cfa_offset 0
 124 0026 7047     		bx	lr
 125              	.L6:
 126              		.align	2
 127              	.L5:
 128 0028 00740040 		.word	1073771520
 129              		.cfi_endproc
 130              	.LFE124:
 132              		.section	.text.DAC_StructInit,"ax",%progbits
 133              		.align	1
 134              		.global	DAC_StructInit
 135              		.syntax unified
 136              		.thumb
 137              		.thumb_func
 139              	DAC_StructInit:
 140              	.LVL11:
 141              	.LFB125:
 228:libraries/STM32F4xx_StdPeriph_Driver/src/stm32f4xx_dac.c **** 
 229:libraries/STM32F4xx_StdPeriph_Driver/src/stm32f4xx_dac.c **** /**
 230:libraries/STM32F4xx_StdPeriph_Driver/src/stm32f4xx_dac.c ****   * @brief  Fills each DAC_InitStruct member with its default value.
 231:libraries/STM32F4xx_StdPeriph_Driver/src/stm32f4xx_dac.c ****   * @param  DAC_InitStruct: pointer to a DAC_InitTypeDef structure which will 
 232:libraries/STM32F4xx_StdPeriph_Driver/src/stm32f4xx_dac.c ****   *         be initialized.
 233:libraries/STM32F4xx_StdPeriph_Driver/src/stm32f4xx_dac.c ****   * @retval None
 234:libraries/STM32F4xx_StdPeriph_Driver/src/stm32f4xx_dac.c ****   */
 235:libraries/STM32F4xx_StdPeriph_Driver/src/stm32f4xx_dac.c **** void DAC_StructInit(DAC_InitTypeDef* DAC_InitStruct)
 236:libraries/STM32F4xx_StdPeriph_Driver/src/stm32f4xx_dac.c **** {
 142              		.loc 1 236 1 is_stmt 1 view -0
 143              		.cfi_startproc
 144              		@ args = 0, pretend = 0, frame = 0
 145              		@ frame_needed = 0, uses_anonymous_args = 0
 146              		@ link register save eliminated.
 237:libraries/STM32F4xx_StdPeriph_Driver/src/stm32f4xx_dac.c **** /*--------------- Reset DAC init structure parameters values -----------------*/
 238:libraries/STM32F4xx_StdPeriph_Driver/src/stm32f4xx_dac.c ****   /* Initialize the DAC_Trigger member */
 239:libraries/STM32F4xx_StdPeriph_Driver/src/stm32f4xx_dac.c ****   DAC_InitStruct->DAC_Trigger = DAC_Trigger_None;
 147              		.loc 1 239 3 view .LVU29
 148              		.loc 1 239 31 is_stmt 0 view .LVU30
 149 0000 0023     		movs	r3, #0
 150 0002 0360     		str	r3, [r0]
 240:libraries/STM32F4xx_StdPeriph_Driver/src/stm32f4xx_dac.c ****   /* Initialize the DAC_WaveGeneration member */
 241:libraries/STM32F4xx_StdPeriph_Driver/src/stm32f4xx_dac.c ****   DAC_InitStruct->DAC_WaveGeneration = DAC_WaveGeneration_None;
 151              		.loc 1 241 3 is_stmt 1 view .LVU31
 152              		.loc 1 241 38 is_stmt 0 view .LVU32
 153 0004 4360     		str	r3, [r0, #4]
 242:libraries/STM32F4xx_StdPeriph_Driver/src/stm32f4xx_dac.c ****   /* Initialize the DAC_LFSRUnmask_TriangleAmplitude member */
 243:libraries/STM32F4xx_StdPeriph_Driver/src/stm32f4xx_dac.c ****   DAC_InitStruct->DAC_LFSRUnmask_TriangleAmplitude = DAC_LFSRUnmask_Bit0;
 154              		.loc 1 243 3 is_stmt 1 view .LVU33
 155              		.loc 1 243 52 is_stmt 0 view .LVU34
 156 0006 8360     		str	r3, [r0, #8]
 244:libraries/STM32F4xx_StdPeriph_Driver/src/stm32f4xx_dac.c ****   /* Initialize the DAC_OutputBuffer member */
 245:libraries/STM32F4xx_StdPeriph_Driver/src/stm32f4xx_dac.c ****   DAC_InitStruct->DAC_OutputBuffer = DAC_OutputBuffer_Enable;
 157              		.loc 1 245 3 is_stmt 1 view .LVU35
 158              		.loc 1 245 36 is_stmt 0 view .LVU36
ARM GAS  C:\Users\ktkuru\AppData\Local\Temp\cckTEIlV.s 			page 8


 159 0008 C360     		str	r3, [r0, #12]
 246:libraries/STM32F4xx_StdPeriph_Driver/src/stm32f4xx_dac.c **** }
 160              		.loc 1 246 1 view .LVU37
 161 000a 7047     		bx	lr
 162              		.cfi_endproc
 163              	.LFE125:
 165              		.section	.text.DAC_Cmd,"ax",%progbits
 166              		.align	1
 167              		.global	DAC_Cmd
 168              		.syntax unified
 169              		.thumb
 170              		.thumb_func
 172              	DAC_Cmd:
 173              	.LVL12:
 174              	.LFB126:
 247:libraries/STM32F4xx_StdPeriph_Driver/src/stm32f4xx_dac.c **** 
 248:libraries/STM32F4xx_StdPeriph_Driver/src/stm32f4xx_dac.c **** /**
 249:libraries/STM32F4xx_StdPeriph_Driver/src/stm32f4xx_dac.c ****   * @brief  Enables or disables the specified DAC channel.
 250:libraries/STM32F4xx_StdPeriph_Driver/src/stm32f4xx_dac.c ****   * @param  DAC_Channel: The selected DAC channel. 
 251:libraries/STM32F4xx_StdPeriph_Driver/src/stm32f4xx_dac.c ****   *          This parameter can be one of the following values:
 252:libraries/STM32F4xx_StdPeriph_Driver/src/stm32f4xx_dac.c ****   *            @arg DAC_Channel_1: DAC Channel1 selected
 253:libraries/STM32F4xx_StdPeriph_Driver/src/stm32f4xx_dac.c ****   *            @arg DAC_Channel_2: DAC Channel2 selected
 254:libraries/STM32F4xx_StdPeriph_Driver/src/stm32f4xx_dac.c ****   * @param  NewState: new state of the DAC channel. 
 255:libraries/STM32F4xx_StdPeriph_Driver/src/stm32f4xx_dac.c ****   *          This parameter can be: ENABLE or DISABLE.
 256:libraries/STM32F4xx_StdPeriph_Driver/src/stm32f4xx_dac.c ****   * @note   When the DAC channel is enabled the trigger source can no more be modified.
 257:libraries/STM32F4xx_StdPeriph_Driver/src/stm32f4xx_dac.c ****   * @retval None
 258:libraries/STM32F4xx_StdPeriph_Driver/src/stm32f4xx_dac.c ****   */
 259:libraries/STM32F4xx_StdPeriph_Driver/src/stm32f4xx_dac.c **** void DAC_Cmd(uint32_t DAC_Channel, FunctionalState NewState)
 260:libraries/STM32F4xx_StdPeriph_Driver/src/stm32f4xx_dac.c **** {
 175              		.loc 1 260 1 is_stmt 1 view -0
 176              		.cfi_startproc
 177              		@ args = 0, pretend = 0, frame = 0
 178              		@ frame_needed = 0, uses_anonymous_args = 0
 179              		@ link register save eliminated.
 261:libraries/STM32F4xx_StdPeriph_Driver/src/stm32f4xx_dac.c ****   /* Check the parameters */
 262:libraries/STM32F4xx_StdPeriph_Driver/src/stm32f4xx_dac.c ****   assert_param(IS_DAC_CHANNEL(DAC_Channel));
 180              		.loc 1 262 3 view .LVU39
 263:libraries/STM32F4xx_StdPeriph_Driver/src/stm32f4xx_dac.c ****   assert_param(IS_FUNCTIONAL_STATE(NewState));
 181              		.loc 1 263 3 view .LVU40
 264:libraries/STM32F4xx_StdPeriph_Driver/src/stm32f4xx_dac.c **** 
 265:libraries/STM32F4xx_StdPeriph_Driver/src/stm32f4xx_dac.c ****   if (NewState != DISABLE)
 182              		.loc 1 265 3 view .LVU41
 183              		.loc 1 265 6 is_stmt 0 view .LVU42
 184 0000 31B1     		cbz	r1, .L9
 266:libraries/STM32F4xx_StdPeriph_Driver/src/stm32f4xx_dac.c ****   {
 267:libraries/STM32F4xx_StdPeriph_Driver/src/stm32f4xx_dac.c ****     /* Enable the selected DAC channel */
 268:libraries/STM32F4xx_StdPeriph_Driver/src/stm32f4xx_dac.c ****     DAC->CR |= (DAC_CR_EN1 << DAC_Channel);
 185              		.loc 1 268 5 is_stmt 1 view .LVU43
 186              		.loc 1 268 8 is_stmt 0 view .LVU44
 187 0002 0749     		ldr	r1, .L11
 188              	.LVL13:
 189              		.loc 1 268 8 view .LVU45
 190 0004 0B68     		ldr	r3, [r1]
 191              		.loc 1 268 28 view .LVU46
 192 0006 0122     		movs	r2, #1
 193 0008 8240     		lsls	r2, r2, r0
 194              		.loc 1 268 13 view .LVU47
ARM GAS  C:\Users\ktkuru\AppData\Local\Temp\cckTEIlV.s 			page 9


 195 000a 1343     		orrs	r3, r3, r2
 196 000c 0B60     		str	r3, [r1]
 197 000e 7047     		bx	lr
 198              	.LVL14:
 199              	.L9:
 269:libraries/STM32F4xx_StdPeriph_Driver/src/stm32f4xx_dac.c ****   }
 270:libraries/STM32F4xx_StdPeriph_Driver/src/stm32f4xx_dac.c ****   else
 271:libraries/STM32F4xx_StdPeriph_Driver/src/stm32f4xx_dac.c ****   {
 272:libraries/STM32F4xx_StdPeriph_Driver/src/stm32f4xx_dac.c ****     /* Disable the selected DAC channel */
 273:libraries/STM32F4xx_StdPeriph_Driver/src/stm32f4xx_dac.c ****     DAC->CR &= (~(DAC_CR_EN1 << DAC_Channel));
 200              		.loc 1 273 5 is_stmt 1 view .LVU48
 201              		.loc 1 273 8 is_stmt 0 view .LVU49
 202 0010 0349     		ldr	r1, .L11
 203              	.LVL15:
 204              		.loc 1 273 8 view .LVU50
 205 0012 0B68     		ldr	r3, [r1]
 206              		.loc 1 273 30 view .LVU51
 207 0014 0122     		movs	r2, #1
 208 0016 8240     		lsls	r2, r2, r0
 209              		.loc 1 273 13 view .LVU52
 210 0018 23EA0203 		bic	r3, r3, r2
 211 001c 0B60     		str	r3, [r1]
 274:libraries/STM32F4xx_StdPeriph_Driver/src/stm32f4xx_dac.c ****   }
 275:libraries/STM32F4xx_StdPeriph_Driver/src/stm32f4xx_dac.c **** }
 212              		.loc 1 275 1 view .LVU53
 213 001e 7047     		bx	lr
 214              	.L12:
 215              		.align	2
 216              	.L11:
 217 0020 00740040 		.word	1073771520
 218              		.cfi_endproc
 219              	.LFE126:
 221              		.section	.text.DAC_SoftwareTriggerCmd,"ax",%progbits
 222              		.align	1
 223              		.global	DAC_SoftwareTriggerCmd
 224              		.syntax unified
 225              		.thumb
 226              		.thumb_func
 228              	DAC_SoftwareTriggerCmd:
 229              	.LVL16:
 230              	.LFB127:
 276:libraries/STM32F4xx_StdPeriph_Driver/src/stm32f4xx_dac.c **** 
 277:libraries/STM32F4xx_StdPeriph_Driver/src/stm32f4xx_dac.c **** /**
 278:libraries/STM32F4xx_StdPeriph_Driver/src/stm32f4xx_dac.c ****   * @brief  Enables or disables the selected DAC channel software trigger.
 279:libraries/STM32F4xx_StdPeriph_Driver/src/stm32f4xx_dac.c ****   * @param  DAC_Channel: The selected DAC channel. 
 280:libraries/STM32F4xx_StdPeriph_Driver/src/stm32f4xx_dac.c ****   *          This parameter can be one of the following values:
 281:libraries/STM32F4xx_StdPeriph_Driver/src/stm32f4xx_dac.c ****   *            @arg DAC_Channel_1: DAC Channel1 selected
 282:libraries/STM32F4xx_StdPeriph_Driver/src/stm32f4xx_dac.c ****   *            @arg DAC_Channel_2: DAC Channel2 selected
 283:libraries/STM32F4xx_StdPeriph_Driver/src/stm32f4xx_dac.c ****   * @param  NewState: new state of the selected DAC channel software trigger.
 284:libraries/STM32F4xx_StdPeriph_Driver/src/stm32f4xx_dac.c ****   *          This parameter can be: ENABLE or DISABLE.
 285:libraries/STM32F4xx_StdPeriph_Driver/src/stm32f4xx_dac.c ****   * @retval None
 286:libraries/STM32F4xx_StdPeriph_Driver/src/stm32f4xx_dac.c ****   */
 287:libraries/STM32F4xx_StdPeriph_Driver/src/stm32f4xx_dac.c **** void DAC_SoftwareTriggerCmd(uint32_t DAC_Channel, FunctionalState NewState)
 288:libraries/STM32F4xx_StdPeriph_Driver/src/stm32f4xx_dac.c **** {
 231              		.loc 1 288 1 is_stmt 1 view -0
 232              		.cfi_startproc
 233              		@ args = 0, pretend = 0, frame = 0
ARM GAS  C:\Users\ktkuru\AppData\Local\Temp\cckTEIlV.s 			page 10


 234              		@ frame_needed = 0, uses_anonymous_args = 0
 235              		@ link register save eliminated.
 289:libraries/STM32F4xx_StdPeriph_Driver/src/stm32f4xx_dac.c ****   /* Check the parameters */
 290:libraries/STM32F4xx_StdPeriph_Driver/src/stm32f4xx_dac.c ****   assert_param(IS_DAC_CHANNEL(DAC_Channel));
 236              		.loc 1 290 3 view .LVU55
 291:libraries/STM32F4xx_StdPeriph_Driver/src/stm32f4xx_dac.c ****   assert_param(IS_FUNCTIONAL_STATE(NewState));
 237              		.loc 1 291 3 view .LVU56
 292:libraries/STM32F4xx_StdPeriph_Driver/src/stm32f4xx_dac.c **** 
 293:libraries/STM32F4xx_StdPeriph_Driver/src/stm32f4xx_dac.c ****   if (NewState != DISABLE)
 238              		.loc 1 293 3 view .LVU57
 239              		.loc 1 293 6 is_stmt 0 view .LVU58
 240 0000 39B1     		cbz	r1, .L14
 294:libraries/STM32F4xx_StdPeriph_Driver/src/stm32f4xx_dac.c ****   {
 295:libraries/STM32F4xx_StdPeriph_Driver/src/stm32f4xx_dac.c ****     /* Enable software trigger for the selected DAC channel */
 296:libraries/STM32F4xx_StdPeriph_Driver/src/stm32f4xx_dac.c ****     DAC->SWTRIGR |= (uint32_t)DAC_SWTRIGR_SWTRIG1 << (DAC_Channel >> 4);
 241              		.loc 1 296 5 is_stmt 1 view .LVU59
 242              		.loc 1 296 8 is_stmt 0 view .LVU60
 243 0002 0849     		ldr	r1, .L16
 244              	.LVL17:
 245              		.loc 1 296 8 view .LVU61
 246 0004 4B68     		ldr	r3, [r1, #4]
 247              		.loc 1 296 67 view .LVU62
 248 0006 0009     		lsrs	r0, r0, #4
 249              	.LVL18:
 250              		.loc 1 296 51 view .LVU63
 251 0008 0122     		movs	r2, #1
 252 000a 8240     		lsls	r2, r2, r0
 253              		.loc 1 296 18 view .LVU64
 254 000c 1343     		orrs	r3, r3, r2
 255 000e 4B60     		str	r3, [r1, #4]
 256 0010 7047     		bx	lr
 257              	.LVL19:
 258              	.L14:
 297:libraries/STM32F4xx_StdPeriph_Driver/src/stm32f4xx_dac.c ****   }
 298:libraries/STM32F4xx_StdPeriph_Driver/src/stm32f4xx_dac.c ****   else
 299:libraries/STM32F4xx_StdPeriph_Driver/src/stm32f4xx_dac.c ****   {
 300:libraries/STM32F4xx_StdPeriph_Driver/src/stm32f4xx_dac.c ****     /* Disable software trigger for the selected DAC channel */
 301:libraries/STM32F4xx_StdPeriph_Driver/src/stm32f4xx_dac.c ****     DAC->SWTRIGR &= ~((uint32_t)DAC_SWTRIGR_SWTRIG1 << (DAC_Channel >> 4));
 259              		.loc 1 301 5 is_stmt 1 view .LVU65
 260              		.loc 1 301 8 is_stmt 0 view .LVU66
 261 0012 0449     		ldr	r1, .L16
 262              	.LVL20:
 263              		.loc 1 301 8 view .LVU67
 264 0014 4B68     		ldr	r3, [r1, #4]
 265              		.loc 1 301 69 view .LVU68
 266 0016 0009     		lsrs	r0, r0, #4
 267              	.LVL21:
 268              		.loc 1 301 53 view .LVU69
 269 0018 0122     		movs	r2, #1
 270 001a 8240     		lsls	r2, r2, r0
 271              		.loc 1 301 18 view .LVU70
 272 001c 23EA0203 		bic	r3, r3, r2
 273 0020 4B60     		str	r3, [r1, #4]
 302:libraries/STM32F4xx_StdPeriph_Driver/src/stm32f4xx_dac.c ****   }
 303:libraries/STM32F4xx_StdPeriph_Driver/src/stm32f4xx_dac.c **** }
 274              		.loc 1 303 1 view .LVU71
 275 0022 7047     		bx	lr
ARM GAS  C:\Users\ktkuru\AppData\Local\Temp\cckTEIlV.s 			page 11


 276              	.L17:
 277              		.align	2
 278              	.L16:
 279 0024 00740040 		.word	1073771520
 280              		.cfi_endproc
 281              	.LFE127:
 283              		.section	.text.DAC_DualSoftwareTriggerCmd,"ax",%progbits
 284              		.align	1
 285              		.global	DAC_DualSoftwareTriggerCmd
 286              		.syntax unified
 287              		.thumb
 288              		.thumb_func
 290              	DAC_DualSoftwareTriggerCmd:
 291              	.LVL22:
 292              	.LFB128:
 304:libraries/STM32F4xx_StdPeriph_Driver/src/stm32f4xx_dac.c **** 
 305:libraries/STM32F4xx_StdPeriph_Driver/src/stm32f4xx_dac.c **** /**
 306:libraries/STM32F4xx_StdPeriph_Driver/src/stm32f4xx_dac.c ****   * @brief  Enables or disables simultaneously the two DAC channels software triggers.
 307:libraries/STM32F4xx_StdPeriph_Driver/src/stm32f4xx_dac.c ****   * @param  NewState: new state of the DAC channels software triggers.
 308:libraries/STM32F4xx_StdPeriph_Driver/src/stm32f4xx_dac.c ****   *          This parameter can be: ENABLE or DISABLE.
 309:libraries/STM32F4xx_StdPeriph_Driver/src/stm32f4xx_dac.c ****   * @retval None
 310:libraries/STM32F4xx_StdPeriph_Driver/src/stm32f4xx_dac.c ****   */
 311:libraries/STM32F4xx_StdPeriph_Driver/src/stm32f4xx_dac.c **** void DAC_DualSoftwareTriggerCmd(FunctionalState NewState)
 312:libraries/STM32F4xx_StdPeriph_Driver/src/stm32f4xx_dac.c **** {
 293              		.loc 1 312 1 is_stmt 1 view -0
 294              		.cfi_startproc
 295              		@ args = 0, pretend = 0, frame = 0
 296              		@ frame_needed = 0, uses_anonymous_args = 0
 297              		@ link register save eliminated.
 313:libraries/STM32F4xx_StdPeriph_Driver/src/stm32f4xx_dac.c ****   /* Check the parameters */
 314:libraries/STM32F4xx_StdPeriph_Driver/src/stm32f4xx_dac.c ****   assert_param(IS_FUNCTIONAL_STATE(NewState));
 298              		.loc 1 314 3 view .LVU73
 315:libraries/STM32F4xx_StdPeriph_Driver/src/stm32f4xx_dac.c **** 
 316:libraries/STM32F4xx_StdPeriph_Driver/src/stm32f4xx_dac.c ****   if (NewState != DISABLE)
 299              		.loc 1 316 3 view .LVU74
 300              		.loc 1 316 6 is_stmt 0 view .LVU75
 301 0000 28B1     		cbz	r0, .L19
 317:libraries/STM32F4xx_StdPeriph_Driver/src/stm32f4xx_dac.c ****   {
 318:libraries/STM32F4xx_StdPeriph_Driver/src/stm32f4xx_dac.c ****     /* Enable software trigger for both DAC channels */
 319:libraries/STM32F4xx_StdPeriph_Driver/src/stm32f4xx_dac.c ****     DAC->SWTRIGR |= DUAL_SWTRIG_SET;
 302              		.loc 1 319 5 is_stmt 1 view .LVU76
 303              		.loc 1 319 8 is_stmt 0 view .LVU77
 304 0002 064A     		ldr	r2, .L21
 305 0004 5368     		ldr	r3, [r2, #4]
 306              		.loc 1 319 18 view .LVU78
 307 0006 43F00303 		orr	r3, r3, #3
 308 000a 5360     		str	r3, [r2, #4]
 309 000c 7047     		bx	lr
 310              	.L19:
 320:libraries/STM32F4xx_StdPeriph_Driver/src/stm32f4xx_dac.c ****   }
 321:libraries/STM32F4xx_StdPeriph_Driver/src/stm32f4xx_dac.c ****   else
 322:libraries/STM32F4xx_StdPeriph_Driver/src/stm32f4xx_dac.c ****   {
 323:libraries/STM32F4xx_StdPeriph_Driver/src/stm32f4xx_dac.c ****     /* Disable software trigger for both DAC channels */
 324:libraries/STM32F4xx_StdPeriph_Driver/src/stm32f4xx_dac.c ****     DAC->SWTRIGR &= DUAL_SWTRIG_RESET;
 311              		.loc 1 324 5 is_stmt 1 view .LVU79
 312              		.loc 1 324 8 is_stmt 0 view .LVU80
 313 000e 034A     		ldr	r2, .L21
ARM GAS  C:\Users\ktkuru\AppData\Local\Temp\cckTEIlV.s 			page 12


 314 0010 5368     		ldr	r3, [r2, #4]
 315              		.loc 1 324 18 view .LVU81
 316 0012 23F00303 		bic	r3, r3, #3
 317 0016 5360     		str	r3, [r2, #4]
 325:libraries/STM32F4xx_StdPeriph_Driver/src/stm32f4xx_dac.c ****   }
 326:libraries/STM32F4xx_StdPeriph_Driver/src/stm32f4xx_dac.c **** }
 318              		.loc 1 326 1 view .LVU82
 319 0018 7047     		bx	lr
 320              	.L22:
 321 001a 00BF     		.align	2
 322              	.L21:
 323 001c 00740040 		.word	1073771520
 324              		.cfi_endproc
 325              	.LFE128:
 327              		.section	.text.DAC_WaveGenerationCmd,"ax",%progbits
 328              		.align	1
 329              		.global	DAC_WaveGenerationCmd
 330              		.syntax unified
 331              		.thumb
 332              		.thumb_func
 334              	DAC_WaveGenerationCmd:
 335              	.LVL23:
 336              	.LFB129:
 327:libraries/STM32F4xx_StdPeriph_Driver/src/stm32f4xx_dac.c **** 
 328:libraries/STM32F4xx_StdPeriph_Driver/src/stm32f4xx_dac.c **** /**
 329:libraries/STM32F4xx_StdPeriph_Driver/src/stm32f4xx_dac.c ****   * @brief  Enables or disables the selected DAC channel wave generation.
 330:libraries/STM32F4xx_StdPeriph_Driver/src/stm32f4xx_dac.c ****   * @param  DAC_Channel: The selected DAC channel. 
 331:libraries/STM32F4xx_StdPeriph_Driver/src/stm32f4xx_dac.c ****   *          This parameter can be one of the following values:
 332:libraries/STM32F4xx_StdPeriph_Driver/src/stm32f4xx_dac.c ****   *            @arg DAC_Channel_1: DAC Channel1 selected
 333:libraries/STM32F4xx_StdPeriph_Driver/src/stm32f4xx_dac.c ****   *            @arg DAC_Channel_2: DAC Channel2 selected
 334:libraries/STM32F4xx_StdPeriph_Driver/src/stm32f4xx_dac.c ****   * @param  DAC_Wave: specifies the wave type to enable or disable.
 335:libraries/STM32F4xx_StdPeriph_Driver/src/stm32f4xx_dac.c ****   *          This parameter can be one of the following values:
 336:libraries/STM32F4xx_StdPeriph_Driver/src/stm32f4xx_dac.c ****   *            @arg DAC_Wave_Noise: noise wave generation
 337:libraries/STM32F4xx_StdPeriph_Driver/src/stm32f4xx_dac.c ****   *            @arg DAC_Wave_Triangle: triangle wave generation
 338:libraries/STM32F4xx_StdPeriph_Driver/src/stm32f4xx_dac.c ****   * @param  NewState: new state of the selected DAC channel wave generation.
 339:libraries/STM32F4xx_StdPeriph_Driver/src/stm32f4xx_dac.c ****   *          This parameter can be: ENABLE or DISABLE.  
 340:libraries/STM32F4xx_StdPeriph_Driver/src/stm32f4xx_dac.c ****   * @retval None
 341:libraries/STM32F4xx_StdPeriph_Driver/src/stm32f4xx_dac.c ****   */
 342:libraries/STM32F4xx_StdPeriph_Driver/src/stm32f4xx_dac.c **** void DAC_WaveGenerationCmd(uint32_t DAC_Channel, uint32_t DAC_Wave, FunctionalState NewState)
 343:libraries/STM32F4xx_StdPeriph_Driver/src/stm32f4xx_dac.c **** {
 337              		.loc 1 343 1 is_stmt 1 view -0
 338              		.cfi_startproc
 339              		@ args = 0, pretend = 0, frame = 0
 340              		@ frame_needed = 0, uses_anonymous_args = 0
 341              		@ link register save eliminated.
 344:libraries/STM32F4xx_StdPeriph_Driver/src/stm32f4xx_dac.c ****   /* Check the parameters */
 345:libraries/STM32F4xx_StdPeriph_Driver/src/stm32f4xx_dac.c ****   assert_param(IS_DAC_CHANNEL(DAC_Channel));
 342              		.loc 1 345 3 view .LVU84
 346:libraries/STM32F4xx_StdPeriph_Driver/src/stm32f4xx_dac.c ****   assert_param(IS_DAC_WAVE(DAC_Wave)); 
 343              		.loc 1 346 3 view .LVU85
 347:libraries/STM32F4xx_StdPeriph_Driver/src/stm32f4xx_dac.c ****   assert_param(IS_FUNCTIONAL_STATE(NewState));
 344              		.loc 1 347 3 view .LVU86
 348:libraries/STM32F4xx_StdPeriph_Driver/src/stm32f4xx_dac.c **** 
 349:libraries/STM32F4xx_StdPeriph_Driver/src/stm32f4xx_dac.c ****   if (NewState != DISABLE)
 345              		.loc 1 349 3 view .LVU87
 346              		.loc 1 349 6 is_stmt 0 view .LVU88
 347 0000 2AB1     		cbz	r2, .L24
ARM GAS  C:\Users\ktkuru\AppData\Local\Temp\cckTEIlV.s 			page 13


 350:libraries/STM32F4xx_StdPeriph_Driver/src/stm32f4xx_dac.c ****   {
 351:libraries/STM32F4xx_StdPeriph_Driver/src/stm32f4xx_dac.c ****     /* Enable the selected wave generation for the selected DAC channel */
 352:libraries/STM32F4xx_StdPeriph_Driver/src/stm32f4xx_dac.c ****     DAC->CR |= DAC_Wave << DAC_Channel;
 348              		.loc 1 352 5 is_stmt 1 view .LVU89
 349              		.loc 1 352 8 is_stmt 0 view .LVU90
 350 0002 064A     		ldr	r2, .L26
 351              	.LVL24:
 352              		.loc 1 352 8 view .LVU91
 353 0004 1368     		ldr	r3, [r2]
 354              		.loc 1 352 25 view .LVU92
 355 0006 8140     		lsls	r1, r1, r0
 356              	.LVL25:
 357              		.loc 1 352 13 view .LVU93
 358 0008 0B43     		orrs	r3, r3, r1
 359 000a 1360     		str	r3, [r2]
 360 000c 7047     		bx	lr
 361              	.LVL26:
 362              	.L24:
 353:libraries/STM32F4xx_StdPeriph_Driver/src/stm32f4xx_dac.c ****   }
 354:libraries/STM32F4xx_StdPeriph_Driver/src/stm32f4xx_dac.c ****   else
 355:libraries/STM32F4xx_StdPeriph_Driver/src/stm32f4xx_dac.c ****   {
 356:libraries/STM32F4xx_StdPeriph_Driver/src/stm32f4xx_dac.c ****     /* Disable the selected wave generation for the selected DAC channel */
 357:libraries/STM32F4xx_StdPeriph_Driver/src/stm32f4xx_dac.c ****     DAC->CR &= ~(DAC_Wave << DAC_Channel);
 363              		.loc 1 357 5 is_stmt 1 view .LVU94
 364              		.loc 1 357 8 is_stmt 0 view .LVU95
 365 000e 034A     		ldr	r2, .L26
 366              	.LVL27:
 367              		.loc 1 357 8 view .LVU96
 368 0010 1368     		ldr	r3, [r2]
 369              		.loc 1 357 27 view .LVU97
 370 0012 8140     		lsls	r1, r1, r0
 371              	.LVL28:
 372              		.loc 1 357 13 view .LVU98
 373 0014 23EA0103 		bic	r3, r3, r1
 374 0018 1360     		str	r3, [r2]
 358:libraries/STM32F4xx_StdPeriph_Driver/src/stm32f4xx_dac.c ****   }
 359:libraries/STM32F4xx_StdPeriph_Driver/src/stm32f4xx_dac.c **** }
 375              		.loc 1 359 1 view .LVU99
 376 001a 7047     		bx	lr
 377              	.L27:
 378              		.align	2
 379              	.L26:
 380 001c 00740040 		.word	1073771520
 381              		.cfi_endproc
 382              	.LFE129:
 384              		.section	.text.DAC_SetChannel1Data,"ax",%progbits
 385              		.align	1
 386              		.global	DAC_SetChannel1Data
 387              		.syntax unified
 388              		.thumb
 389              		.thumb_func
 391              	DAC_SetChannel1Data:
 392              	.LVL29:
 393              	.LFB130:
 360:libraries/STM32F4xx_StdPeriph_Driver/src/stm32f4xx_dac.c **** 
 361:libraries/STM32F4xx_StdPeriph_Driver/src/stm32f4xx_dac.c **** /**
 362:libraries/STM32F4xx_StdPeriph_Driver/src/stm32f4xx_dac.c ****   * @brief  Set the specified data holding register value for DAC channel1.
ARM GAS  C:\Users\ktkuru\AppData\Local\Temp\cckTEIlV.s 			page 14


 363:libraries/STM32F4xx_StdPeriph_Driver/src/stm32f4xx_dac.c ****   * @param  DAC_Align: Specifies the data alignment for DAC channel1.
 364:libraries/STM32F4xx_StdPeriph_Driver/src/stm32f4xx_dac.c ****   *          This parameter can be one of the following values:
 365:libraries/STM32F4xx_StdPeriph_Driver/src/stm32f4xx_dac.c ****   *            @arg DAC_Align_8b_R: 8bit right data alignment selected
 366:libraries/STM32F4xx_StdPeriph_Driver/src/stm32f4xx_dac.c ****   *            @arg DAC_Align_12b_L: 12bit left data alignment selected
 367:libraries/STM32F4xx_StdPeriph_Driver/src/stm32f4xx_dac.c ****   *            @arg DAC_Align_12b_R: 12bit right data alignment selected
 368:libraries/STM32F4xx_StdPeriph_Driver/src/stm32f4xx_dac.c ****   * @param  Data: Data to be loaded in the selected data holding register.
 369:libraries/STM32F4xx_StdPeriph_Driver/src/stm32f4xx_dac.c ****   * @retval None
 370:libraries/STM32F4xx_StdPeriph_Driver/src/stm32f4xx_dac.c ****   */
 371:libraries/STM32F4xx_StdPeriph_Driver/src/stm32f4xx_dac.c **** void DAC_SetChannel1Data(uint32_t DAC_Align, uint16_t Data)
 372:libraries/STM32F4xx_StdPeriph_Driver/src/stm32f4xx_dac.c **** {  
 394              		.loc 1 372 1 is_stmt 1 view -0
 395              		.cfi_startproc
 396              		@ args = 0, pretend = 0, frame = 8
 397              		@ frame_needed = 0, uses_anonymous_args = 0
 398              		@ link register save eliminated.
 399              		.loc 1 372 1 is_stmt 0 view .LVU101
 400 0000 82B0     		sub	sp, sp, #8
 401              	.LCFI3:
 402              		.cfi_def_cfa_offset 8
 373:libraries/STM32F4xx_StdPeriph_Driver/src/stm32f4xx_dac.c ****   __IO uint32_t tmp = 0;
 403              		.loc 1 373 3 is_stmt 1 view .LVU102
 404              		.loc 1 373 17 is_stmt 0 view .LVU103
 405 0002 0023     		movs	r3, #0
 406 0004 0193     		str	r3, [sp, #4]
 374:libraries/STM32F4xx_StdPeriph_Driver/src/stm32f4xx_dac.c ****   
 375:libraries/STM32F4xx_StdPeriph_Driver/src/stm32f4xx_dac.c ****   /* Check the parameters */
 376:libraries/STM32F4xx_StdPeriph_Driver/src/stm32f4xx_dac.c ****   assert_param(IS_DAC_ALIGN(DAC_Align));
 407              		.loc 1 376 3 is_stmt 1 view .LVU104
 377:libraries/STM32F4xx_StdPeriph_Driver/src/stm32f4xx_dac.c ****   assert_param(IS_DAC_DATA(Data));
 408              		.loc 1 377 3 view .LVU105
 378:libraries/STM32F4xx_StdPeriph_Driver/src/stm32f4xx_dac.c ****   
 379:libraries/STM32F4xx_StdPeriph_Driver/src/stm32f4xx_dac.c ****   tmp = (uint32_t)DAC_BASE; 
 409              		.loc 1 379 3 view .LVU106
 410              		.loc 1 379 7 is_stmt 0 view .LVU107
 411 0006 054B     		ldr	r3, .L30
 412 0008 0193     		str	r3, [sp, #4]
 380:libraries/STM32F4xx_StdPeriph_Driver/src/stm32f4xx_dac.c ****   tmp += DHR12R1_OFFSET + DAC_Align;
 413              		.loc 1 380 3 is_stmt 1 view .LVU108
 414              		.loc 1 380 7 is_stmt 0 view .LVU109
 415 000a 019B     		ldr	r3, [sp, #4]
 416 000c 0344     		add	r3, r3, r0
 417 000e 0833     		adds	r3, r3, #8
 418 0010 0193     		str	r3, [sp, #4]
 381:libraries/STM32F4xx_StdPeriph_Driver/src/stm32f4xx_dac.c **** 
 382:libraries/STM32F4xx_StdPeriph_Driver/src/stm32f4xx_dac.c ****   /* Set the DAC channel1 selected data holding register */
 383:libraries/STM32F4xx_StdPeriph_Driver/src/stm32f4xx_dac.c ****   *(__IO uint32_t *) tmp = Data;
 419              		.loc 1 383 3 is_stmt 1 view .LVU110
 420              		.loc 1 383 4 is_stmt 0 view .LVU111
 421 0012 019B     		ldr	r3, [sp, #4]
 422              		.loc 1 383 26 view .LVU112
 423 0014 1960     		str	r1, [r3]
 384:libraries/STM32F4xx_StdPeriph_Driver/src/stm32f4xx_dac.c **** }
 424              		.loc 1 384 1 view .LVU113
 425 0016 02B0     		add	sp, sp, #8
 426              	.LCFI4:
 427              		.cfi_def_cfa_offset 0
 428              		@ sp needed
ARM GAS  C:\Users\ktkuru\AppData\Local\Temp\cckTEIlV.s 			page 15


 429 0018 7047     		bx	lr
 430              	.L31:
 431 001a 00BF     		.align	2
 432              	.L30:
 433 001c 00740040 		.word	1073771520
 434              		.cfi_endproc
 435              	.LFE130:
 437              		.section	.text.DAC_SetChannel2Data,"ax",%progbits
 438              		.align	1
 439              		.global	DAC_SetChannel2Data
 440              		.syntax unified
 441              		.thumb
 442              		.thumb_func
 444              	DAC_SetChannel2Data:
 445              	.LVL30:
 446              	.LFB131:
 385:libraries/STM32F4xx_StdPeriph_Driver/src/stm32f4xx_dac.c **** 
 386:libraries/STM32F4xx_StdPeriph_Driver/src/stm32f4xx_dac.c **** /**
 387:libraries/STM32F4xx_StdPeriph_Driver/src/stm32f4xx_dac.c ****   * @brief  Set the specified data holding register value for DAC channel2.
 388:libraries/STM32F4xx_StdPeriph_Driver/src/stm32f4xx_dac.c ****   * @param  DAC_Align: Specifies the data alignment for DAC channel2.
 389:libraries/STM32F4xx_StdPeriph_Driver/src/stm32f4xx_dac.c ****   *          This parameter can be one of the following values:
 390:libraries/STM32F4xx_StdPeriph_Driver/src/stm32f4xx_dac.c ****   *            @arg DAC_Align_8b_R: 8bit right data alignment selected
 391:libraries/STM32F4xx_StdPeriph_Driver/src/stm32f4xx_dac.c ****   *            @arg DAC_Align_12b_L: 12bit left data alignment selected
 392:libraries/STM32F4xx_StdPeriph_Driver/src/stm32f4xx_dac.c ****   *            @arg DAC_Align_12b_R: 12bit right data alignment selected
 393:libraries/STM32F4xx_StdPeriph_Driver/src/stm32f4xx_dac.c ****   * @param  Data: Data to be loaded in the selected data holding register.
 394:libraries/STM32F4xx_StdPeriph_Driver/src/stm32f4xx_dac.c ****   * @retval None
 395:libraries/STM32F4xx_StdPeriph_Driver/src/stm32f4xx_dac.c ****   */
 396:libraries/STM32F4xx_StdPeriph_Driver/src/stm32f4xx_dac.c **** void DAC_SetChannel2Data(uint32_t DAC_Align, uint16_t Data)
 397:libraries/STM32F4xx_StdPeriph_Driver/src/stm32f4xx_dac.c **** {
 447              		.loc 1 397 1 is_stmt 1 view -0
 448              		.cfi_startproc
 449              		@ args = 0, pretend = 0, frame = 8
 450              		@ frame_needed = 0, uses_anonymous_args = 0
 451              		@ link register save eliminated.
 452              		.loc 1 397 1 is_stmt 0 view .LVU115
 453 0000 82B0     		sub	sp, sp, #8
 454              	.LCFI5:
 455              		.cfi_def_cfa_offset 8
 398:libraries/STM32F4xx_StdPeriph_Driver/src/stm32f4xx_dac.c ****   __IO uint32_t tmp = 0;
 456              		.loc 1 398 3 is_stmt 1 view .LVU116
 457              		.loc 1 398 17 is_stmt 0 view .LVU117
 458 0002 0023     		movs	r3, #0
 459 0004 0193     		str	r3, [sp, #4]
 399:libraries/STM32F4xx_StdPeriph_Driver/src/stm32f4xx_dac.c **** 
 400:libraries/STM32F4xx_StdPeriph_Driver/src/stm32f4xx_dac.c ****   /* Check the parameters */
 401:libraries/STM32F4xx_StdPeriph_Driver/src/stm32f4xx_dac.c ****   assert_param(IS_DAC_ALIGN(DAC_Align));
 460              		.loc 1 401 3 is_stmt 1 view .LVU118
 402:libraries/STM32F4xx_StdPeriph_Driver/src/stm32f4xx_dac.c ****   assert_param(IS_DAC_DATA(Data));
 461              		.loc 1 402 3 view .LVU119
 403:libraries/STM32F4xx_StdPeriph_Driver/src/stm32f4xx_dac.c ****   
 404:libraries/STM32F4xx_StdPeriph_Driver/src/stm32f4xx_dac.c ****   tmp = (uint32_t)DAC_BASE;
 462              		.loc 1 404 3 view .LVU120
 463              		.loc 1 404 7 is_stmt 0 view .LVU121
 464 0006 054B     		ldr	r3, .L34
 465 0008 0193     		str	r3, [sp, #4]
 405:libraries/STM32F4xx_StdPeriph_Driver/src/stm32f4xx_dac.c ****   tmp += DHR12R2_OFFSET + DAC_Align;
 466              		.loc 1 405 3 is_stmt 1 view .LVU122
ARM GAS  C:\Users\ktkuru\AppData\Local\Temp\cckTEIlV.s 			page 16


 467              		.loc 1 405 7 is_stmt 0 view .LVU123
 468 000a 019B     		ldr	r3, [sp, #4]
 469 000c 0344     		add	r3, r3, r0
 470 000e 1433     		adds	r3, r3, #20
 471 0010 0193     		str	r3, [sp, #4]
 406:libraries/STM32F4xx_StdPeriph_Driver/src/stm32f4xx_dac.c **** 
 407:libraries/STM32F4xx_StdPeriph_Driver/src/stm32f4xx_dac.c ****   /* Set the DAC channel2 selected data holding register */
 408:libraries/STM32F4xx_StdPeriph_Driver/src/stm32f4xx_dac.c ****   *(__IO uint32_t *)tmp = Data;
 472              		.loc 1 408 3 is_stmt 1 view .LVU124
 473              		.loc 1 408 4 is_stmt 0 view .LVU125
 474 0012 019B     		ldr	r3, [sp, #4]
 475              		.loc 1 408 25 view .LVU126
 476 0014 1960     		str	r1, [r3]
 409:libraries/STM32F4xx_StdPeriph_Driver/src/stm32f4xx_dac.c **** }
 477              		.loc 1 409 1 view .LVU127
 478 0016 02B0     		add	sp, sp, #8
 479              	.LCFI6:
 480              		.cfi_def_cfa_offset 0
 481              		@ sp needed
 482 0018 7047     		bx	lr
 483              	.L35:
 484 001a 00BF     		.align	2
 485              	.L34:
 486 001c 00740040 		.word	1073771520
 487              		.cfi_endproc
 488              	.LFE131:
 490              		.section	.text.DAC_SetDualChannelData,"ax",%progbits
 491              		.align	1
 492              		.global	DAC_SetDualChannelData
 493              		.syntax unified
 494              		.thumb
 495              		.thumb_func
 497              	DAC_SetDualChannelData:
 498              	.LVL31:
 499              	.LFB132:
 410:libraries/STM32F4xx_StdPeriph_Driver/src/stm32f4xx_dac.c **** 
 411:libraries/STM32F4xx_StdPeriph_Driver/src/stm32f4xx_dac.c **** /**
 412:libraries/STM32F4xx_StdPeriph_Driver/src/stm32f4xx_dac.c ****   * @brief  Set the specified data holding register value for dual channel DAC.
 413:libraries/STM32F4xx_StdPeriph_Driver/src/stm32f4xx_dac.c ****   * @param  DAC_Align: Specifies the data alignment for dual channel DAC.
 414:libraries/STM32F4xx_StdPeriph_Driver/src/stm32f4xx_dac.c ****   *          This parameter can be one of the following values:
 415:libraries/STM32F4xx_StdPeriph_Driver/src/stm32f4xx_dac.c ****   *            @arg DAC_Align_8b_R: 8bit right data alignment selected
 416:libraries/STM32F4xx_StdPeriph_Driver/src/stm32f4xx_dac.c ****   *            @arg DAC_Align_12b_L: 12bit left data alignment selected
 417:libraries/STM32F4xx_StdPeriph_Driver/src/stm32f4xx_dac.c ****   *            @arg DAC_Align_12b_R: 12bit right data alignment selected
 418:libraries/STM32F4xx_StdPeriph_Driver/src/stm32f4xx_dac.c ****   * @param  Data2: Data for DAC Channel2 to be loaded in the selected data holding register.
 419:libraries/STM32F4xx_StdPeriph_Driver/src/stm32f4xx_dac.c ****   * @param  Data1: Data for DAC Channel1 to be loaded in the selected data  holding register.
 420:libraries/STM32F4xx_StdPeriph_Driver/src/stm32f4xx_dac.c ****   * @note   In dual mode, a unique register access is required to write in both
 421:libraries/STM32F4xx_StdPeriph_Driver/src/stm32f4xx_dac.c ****   *          DAC channels at the same time.
 422:libraries/STM32F4xx_StdPeriph_Driver/src/stm32f4xx_dac.c ****   * @retval None
 423:libraries/STM32F4xx_StdPeriph_Driver/src/stm32f4xx_dac.c ****   */
 424:libraries/STM32F4xx_StdPeriph_Driver/src/stm32f4xx_dac.c **** void DAC_SetDualChannelData(uint32_t DAC_Align, uint16_t Data2, uint16_t Data1)
 425:libraries/STM32F4xx_StdPeriph_Driver/src/stm32f4xx_dac.c **** {
 500              		.loc 1 425 1 is_stmt 1 view -0
 501              		.cfi_startproc
 502              		@ args = 0, pretend = 0, frame = 0
 503              		@ frame_needed = 0, uses_anonymous_args = 0
 504              		@ link register save eliminated.
 426:libraries/STM32F4xx_StdPeriph_Driver/src/stm32f4xx_dac.c ****   uint32_t data = 0, tmp = 0;
ARM GAS  C:\Users\ktkuru\AppData\Local\Temp\cckTEIlV.s 			page 17


 505              		.loc 1 426 3 view .LVU129
 427:libraries/STM32F4xx_StdPeriph_Driver/src/stm32f4xx_dac.c ****   
 428:libraries/STM32F4xx_StdPeriph_Driver/src/stm32f4xx_dac.c ****   /* Check the parameters */
 429:libraries/STM32F4xx_StdPeriph_Driver/src/stm32f4xx_dac.c ****   assert_param(IS_DAC_ALIGN(DAC_Align));
 506              		.loc 1 429 3 view .LVU130
 430:libraries/STM32F4xx_StdPeriph_Driver/src/stm32f4xx_dac.c ****   assert_param(IS_DAC_DATA(Data1));
 507              		.loc 1 430 3 view .LVU131
 431:libraries/STM32F4xx_StdPeriph_Driver/src/stm32f4xx_dac.c ****   assert_param(IS_DAC_DATA(Data2));
 508              		.loc 1 431 3 view .LVU132
 432:libraries/STM32F4xx_StdPeriph_Driver/src/stm32f4xx_dac.c ****   
 433:libraries/STM32F4xx_StdPeriph_Driver/src/stm32f4xx_dac.c ****   /* Calculate and set dual DAC data holding register value */
 434:libraries/STM32F4xx_StdPeriph_Driver/src/stm32f4xx_dac.c ****   if (DAC_Align == DAC_Align_8b_R)
 509              		.loc 1 434 3 view .LVU133
 510              		.loc 1 434 6 is_stmt 0 view .LVU134
 511 0000 0828     		cmp	r0, #8
 512 0002 04D0     		beq	.L39
 435:libraries/STM32F4xx_StdPeriph_Driver/src/stm32f4xx_dac.c ****   {
 436:libraries/STM32F4xx_StdPeriph_Driver/src/stm32f4xx_dac.c ****     data = ((uint32_t)Data2 << 8) | Data1; 
 437:libraries/STM32F4xx_StdPeriph_Driver/src/stm32f4xx_dac.c ****   }
 438:libraries/STM32F4xx_StdPeriph_Driver/src/stm32f4xx_dac.c ****   else
 439:libraries/STM32F4xx_StdPeriph_Driver/src/stm32f4xx_dac.c ****   {
 440:libraries/STM32F4xx_StdPeriph_Driver/src/stm32f4xx_dac.c ****     data = ((uint32_t)Data2 << 16) | Data1;
 513              		.loc 1 440 5 is_stmt 1 view .LVU135
 514              		.loc 1 440 10 is_stmt 0 view .LVU136
 515 0004 42EA0142 		orr	r2, r2, r1, lsl #16
 516              	.LVL32:
 517              	.L38:
 441:libraries/STM32F4xx_StdPeriph_Driver/src/stm32f4xx_dac.c ****   }
 442:libraries/STM32F4xx_StdPeriph_Driver/src/stm32f4xx_dac.c ****   
 443:libraries/STM32F4xx_StdPeriph_Driver/src/stm32f4xx_dac.c ****   tmp = (uint32_t)DAC_BASE;
 518              		.loc 1 443 3 is_stmt 1 view .LVU137
 444:libraries/STM32F4xx_StdPeriph_Driver/src/stm32f4xx_dac.c ****   tmp += DHR12RD_OFFSET + DAC_Align;
 519              		.loc 1 444 3 view .LVU138
 520              		.loc 1 444 7 is_stmt 0 view .LVU139
 521 0008 024B     		ldr	r3, .L40
 522              	.LVL33:
 445:libraries/STM32F4xx_StdPeriph_Driver/src/stm32f4xx_dac.c **** 
 446:libraries/STM32F4xx_StdPeriph_Driver/src/stm32f4xx_dac.c ****   /* Set the dual DAC selected data holding register */
 447:libraries/STM32F4xx_StdPeriph_Driver/src/stm32f4xx_dac.c ****   *(__IO uint32_t *)tmp = data;
 523              		.loc 1 447 3 is_stmt 1 view .LVU140
 524              		.loc 1 447 25 is_stmt 0 view .LVU141
 525 000a C250     		str	r2, [r0, r3]
 448:libraries/STM32F4xx_StdPeriph_Driver/src/stm32f4xx_dac.c **** }
 526              		.loc 1 448 1 view .LVU142
 527 000c 7047     		bx	lr
 528              	.LVL34:
 529              	.L39:
 436:libraries/STM32F4xx_StdPeriph_Driver/src/stm32f4xx_dac.c ****   }
 530              		.loc 1 436 5 is_stmt 1 view .LVU143
 436:libraries/STM32F4xx_StdPeriph_Driver/src/stm32f4xx_dac.c ****   }
 531              		.loc 1 436 10 is_stmt 0 view .LVU144
 532 000e 42EA0122 		orr	r2, r2, r1, lsl #8
 533              	.LVL35:
 436:libraries/STM32F4xx_StdPeriph_Driver/src/stm32f4xx_dac.c ****   }
 534              		.loc 1 436 10 view .LVU145
 535 0012 F9E7     		b	.L38
 536              	.L41:
ARM GAS  C:\Users\ktkuru\AppData\Local\Temp\cckTEIlV.s 			page 18


 537              		.align	2
 538              	.L40:
 539 0014 20740040 		.word	1073771552
 540              		.cfi_endproc
 541              	.LFE132:
 543              		.section	.text.DAC_GetDataOutputValue,"ax",%progbits
 544              		.align	1
 545              		.global	DAC_GetDataOutputValue
 546              		.syntax unified
 547              		.thumb
 548              		.thumb_func
 550              	DAC_GetDataOutputValue:
 551              	.LVL36:
 552              	.LFB133:
 449:libraries/STM32F4xx_StdPeriph_Driver/src/stm32f4xx_dac.c **** 
 450:libraries/STM32F4xx_StdPeriph_Driver/src/stm32f4xx_dac.c **** /**
 451:libraries/STM32F4xx_StdPeriph_Driver/src/stm32f4xx_dac.c ****   * @brief  Returns the last data output value of the selected DAC channel.
 452:libraries/STM32F4xx_StdPeriph_Driver/src/stm32f4xx_dac.c ****   * @param  DAC_Channel: The selected DAC channel. 
 453:libraries/STM32F4xx_StdPeriph_Driver/src/stm32f4xx_dac.c ****   *          This parameter can be one of the following values:
 454:libraries/STM32F4xx_StdPeriph_Driver/src/stm32f4xx_dac.c ****   *            @arg DAC_Channel_1: DAC Channel1 selected
 455:libraries/STM32F4xx_StdPeriph_Driver/src/stm32f4xx_dac.c ****   *            @arg DAC_Channel_2: DAC Channel2 selected
 456:libraries/STM32F4xx_StdPeriph_Driver/src/stm32f4xx_dac.c ****   * @retval The selected DAC channel data output value.
 457:libraries/STM32F4xx_StdPeriph_Driver/src/stm32f4xx_dac.c ****   */
 458:libraries/STM32F4xx_StdPeriph_Driver/src/stm32f4xx_dac.c **** uint16_t DAC_GetDataOutputValue(uint32_t DAC_Channel)
 459:libraries/STM32F4xx_StdPeriph_Driver/src/stm32f4xx_dac.c **** {
 553              		.loc 1 459 1 is_stmt 1 view -0
 554              		.cfi_startproc
 555              		@ args = 0, pretend = 0, frame = 8
 556              		@ frame_needed = 0, uses_anonymous_args = 0
 557              		@ link register save eliminated.
 558              		.loc 1 459 1 is_stmt 0 view .LVU147
 559 0000 82B0     		sub	sp, sp, #8
 560              	.LCFI7:
 561              		.cfi_def_cfa_offset 8
 460:libraries/STM32F4xx_StdPeriph_Driver/src/stm32f4xx_dac.c ****   __IO uint32_t tmp = 0;
 562              		.loc 1 460 3 is_stmt 1 view .LVU148
 563              		.loc 1 460 17 is_stmt 0 view .LVU149
 564 0002 0023     		movs	r3, #0
 565 0004 0193     		str	r3, [sp, #4]
 461:libraries/STM32F4xx_StdPeriph_Driver/src/stm32f4xx_dac.c ****   
 462:libraries/STM32F4xx_StdPeriph_Driver/src/stm32f4xx_dac.c ****   /* Check the parameters */
 463:libraries/STM32F4xx_StdPeriph_Driver/src/stm32f4xx_dac.c ****   assert_param(IS_DAC_CHANNEL(DAC_Channel));
 566              		.loc 1 463 3 is_stmt 1 view .LVU150
 464:libraries/STM32F4xx_StdPeriph_Driver/src/stm32f4xx_dac.c ****   
 465:libraries/STM32F4xx_StdPeriph_Driver/src/stm32f4xx_dac.c ****   tmp = (uint32_t) DAC_BASE ;
 567              		.loc 1 465 3 view .LVU151
 568              		.loc 1 465 7 is_stmt 0 view .LVU152
 569 0006 064B     		ldr	r3, .L44
 570 0008 0193     		str	r3, [sp, #4]
 466:libraries/STM32F4xx_StdPeriph_Driver/src/stm32f4xx_dac.c ****   tmp += DOR_OFFSET + ((uint32_t)DAC_Channel >> 2);
 571              		.loc 1 466 3 is_stmt 1 view .LVU153
 572              		.loc 1 466 7 is_stmt 0 view .LVU154
 573 000a 019B     		ldr	r3, [sp, #4]
 574 000c 03EB9003 		add	r3, r3, r0, lsr #2
 575 0010 2C33     		adds	r3, r3, #44
 576 0012 0193     		str	r3, [sp, #4]
 467:libraries/STM32F4xx_StdPeriph_Driver/src/stm32f4xx_dac.c ****   
ARM GAS  C:\Users\ktkuru\AppData\Local\Temp\cckTEIlV.s 			page 19


 468:libraries/STM32F4xx_StdPeriph_Driver/src/stm32f4xx_dac.c ****   /* Returns the DAC channel data output register value */
 469:libraries/STM32F4xx_StdPeriph_Driver/src/stm32f4xx_dac.c ****   return (uint16_t) (*(__IO uint32_t*) tmp);
 577              		.loc 1 469 3 is_stmt 1 view .LVU155
 578              		.loc 1 469 23 is_stmt 0 view .LVU156
 579 0014 019B     		ldr	r3, [sp, #4]
 580              		.loc 1 469 22 view .LVU157
 581 0016 1868     		ldr	r0, [r3]
 582              	.LVL37:
 470:libraries/STM32F4xx_StdPeriph_Driver/src/stm32f4xx_dac.c **** }
 583              		.loc 1 470 1 view .LVU158
 584 0018 80B2     		uxth	r0, r0
 585 001a 02B0     		add	sp, sp, #8
 586              	.LCFI8:
 587              		.cfi_def_cfa_offset 0
 588              		@ sp needed
 589 001c 7047     		bx	lr
 590              	.L45:
 591 001e 00BF     		.align	2
 592              	.L44:
 593 0020 00740040 		.word	1073771520
 594              		.cfi_endproc
 595              	.LFE133:
 597              		.section	.text.DAC_DMACmd,"ax",%progbits
 598              		.align	1
 599              		.global	DAC_DMACmd
 600              		.syntax unified
 601              		.thumb
 602              		.thumb_func
 604              	DAC_DMACmd:
 605              	.LVL38:
 606              	.LFB134:
 471:libraries/STM32F4xx_StdPeriph_Driver/src/stm32f4xx_dac.c **** /**
 472:libraries/STM32F4xx_StdPeriph_Driver/src/stm32f4xx_dac.c ****   * @}
 473:libraries/STM32F4xx_StdPeriph_Driver/src/stm32f4xx_dac.c ****   */
 474:libraries/STM32F4xx_StdPeriph_Driver/src/stm32f4xx_dac.c **** 
 475:libraries/STM32F4xx_StdPeriph_Driver/src/stm32f4xx_dac.c **** /** @defgroup DAC_Group2 DMA management functions
 476:libraries/STM32F4xx_StdPeriph_Driver/src/stm32f4xx_dac.c ****  *  @brief   DMA management functions
 477:libraries/STM32F4xx_StdPeriph_Driver/src/stm32f4xx_dac.c ****  *
 478:libraries/STM32F4xx_StdPeriph_Driver/src/stm32f4xx_dac.c **** @verbatim   
 479:libraries/STM32F4xx_StdPeriph_Driver/src/stm32f4xx_dac.c ****  ===============================================================================
 480:libraries/STM32F4xx_StdPeriph_Driver/src/stm32f4xx_dac.c ****                        ##### DMA management functions #####
 481:libraries/STM32F4xx_StdPeriph_Driver/src/stm32f4xx_dac.c ****  ===============================================================================  
 482:libraries/STM32F4xx_StdPeriph_Driver/src/stm32f4xx_dac.c **** 
 483:libraries/STM32F4xx_StdPeriph_Driver/src/stm32f4xx_dac.c **** @endverbatim
 484:libraries/STM32F4xx_StdPeriph_Driver/src/stm32f4xx_dac.c ****   * @{
 485:libraries/STM32F4xx_StdPeriph_Driver/src/stm32f4xx_dac.c ****   */
 486:libraries/STM32F4xx_StdPeriph_Driver/src/stm32f4xx_dac.c **** 
 487:libraries/STM32F4xx_StdPeriph_Driver/src/stm32f4xx_dac.c **** /**
 488:libraries/STM32F4xx_StdPeriph_Driver/src/stm32f4xx_dac.c ****   * @brief  Enables or disables the specified DAC channel DMA request.
 489:libraries/STM32F4xx_StdPeriph_Driver/src/stm32f4xx_dac.c ****   * @note   When enabled DMA1 is generated when an external trigger (EXTI Line9,
 490:libraries/STM32F4xx_StdPeriph_Driver/src/stm32f4xx_dac.c ****   *         TIM2, TIM4, TIM5, TIM6, TIM7 or TIM8  but not a software trigger) occurs.
 491:libraries/STM32F4xx_StdPeriph_Driver/src/stm32f4xx_dac.c ****   * @param  DAC_Channel: The selected DAC channel. 
 492:libraries/STM32F4xx_StdPeriph_Driver/src/stm32f4xx_dac.c ****   *          This parameter can be one of the following values:
 493:libraries/STM32F4xx_StdPeriph_Driver/src/stm32f4xx_dac.c ****   *            @arg DAC_Channel_1: DAC Channel1 selected
 494:libraries/STM32F4xx_StdPeriph_Driver/src/stm32f4xx_dac.c ****   *            @arg DAC_Channel_2: DAC Channel2 selected
 495:libraries/STM32F4xx_StdPeriph_Driver/src/stm32f4xx_dac.c ****   * @param  NewState: new state of the selected DAC channel DMA request.
 496:libraries/STM32F4xx_StdPeriph_Driver/src/stm32f4xx_dac.c ****   *          This parameter can be: ENABLE or DISABLE.
ARM GAS  C:\Users\ktkuru\AppData\Local\Temp\cckTEIlV.s 			page 20


 497:libraries/STM32F4xx_StdPeriph_Driver/src/stm32f4xx_dac.c ****   * @note   The DAC channel1 is mapped on DMA1 Stream 5 channel7 which must be
 498:libraries/STM32F4xx_StdPeriph_Driver/src/stm32f4xx_dac.c ****   *          already configured.
 499:libraries/STM32F4xx_StdPeriph_Driver/src/stm32f4xx_dac.c ****   * @note   The DAC channel2 is mapped on DMA1 Stream 6 channel7 which must be
 500:libraries/STM32F4xx_StdPeriph_Driver/src/stm32f4xx_dac.c ****   *          already configured.    
 501:libraries/STM32F4xx_StdPeriph_Driver/src/stm32f4xx_dac.c ****   * @retval None
 502:libraries/STM32F4xx_StdPeriph_Driver/src/stm32f4xx_dac.c ****   */
 503:libraries/STM32F4xx_StdPeriph_Driver/src/stm32f4xx_dac.c **** void DAC_DMACmd(uint32_t DAC_Channel, FunctionalState NewState)
 504:libraries/STM32F4xx_StdPeriph_Driver/src/stm32f4xx_dac.c **** {
 607              		.loc 1 504 1 is_stmt 1 view -0
 608              		.cfi_startproc
 609              		@ args = 0, pretend = 0, frame = 0
 610              		@ frame_needed = 0, uses_anonymous_args = 0
 611              		@ link register save eliminated.
 505:libraries/STM32F4xx_StdPeriph_Driver/src/stm32f4xx_dac.c ****   /* Check the parameters */
 506:libraries/STM32F4xx_StdPeriph_Driver/src/stm32f4xx_dac.c ****   assert_param(IS_DAC_CHANNEL(DAC_Channel));
 612              		.loc 1 506 3 view .LVU160
 507:libraries/STM32F4xx_StdPeriph_Driver/src/stm32f4xx_dac.c ****   assert_param(IS_FUNCTIONAL_STATE(NewState));
 613              		.loc 1 507 3 view .LVU161
 508:libraries/STM32F4xx_StdPeriph_Driver/src/stm32f4xx_dac.c **** 
 509:libraries/STM32F4xx_StdPeriph_Driver/src/stm32f4xx_dac.c ****   if (NewState != DISABLE)
 614              		.loc 1 509 3 view .LVU162
 615              		.loc 1 509 6 is_stmt 0 view .LVU163
 616 0000 39B1     		cbz	r1, .L47
 510:libraries/STM32F4xx_StdPeriph_Driver/src/stm32f4xx_dac.c ****   {
 511:libraries/STM32F4xx_StdPeriph_Driver/src/stm32f4xx_dac.c ****     /* Enable the selected DAC channel DMA request */
 512:libraries/STM32F4xx_StdPeriph_Driver/src/stm32f4xx_dac.c ****     DAC->CR |= (DAC_CR_DMAEN1 << DAC_Channel);
 617              		.loc 1 512 5 is_stmt 1 view .LVU164
 618              		.loc 1 512 8 is_stmt 0 view .LVU165
 619 0002 0849     		ldr	r1, .L49
 620              	.LVL39:
 621              		.loc 1 512 8 view .LVU166
 622 0004 0B68     		ldr	r3, [r1]
 623              		.loc 1 512 31 view .LVU167
 624 0006 4FF48052 		mov	r2, #4096
 625 000a 8240     		lsls	r2, r2, r0
 626              		.loc 1 512 13 view .LVU168
 627 000c 1343     		orrs	r3, r3, r2
 628 000e 0B60     		str	r3, [r1]
 629 0010 7047     		bx	lr
 630              	.LVL40:
 631              	.L47:
 513:libraries/STM32F4xx_StdPeriph_Driver/src/stm32f4xx_dac.c ****   }
 514:libraries/STM32F4xx_StdPeriph_Driver/src/stm32f4xx_dac.c ****   else
 515:libraries/STM32F4xx_StdPeriph_Driver/src/stm32f4xx_dac.c ****   {
 516:libraries/STM32F4xx_StdPeriph_Driver/src/stm32f4xx_dac.c ****     /* Disable the selected DAC channel DMA request */
 517:libraries/STM32F4xx_StdPeriph_Driver/src/stm32f4xx_dac.c ****     DAC->CR &= (~(DAC_CR_DMAEN1 << DAC_Channel));
 632              		.loc 1 517 5 is_stmt 1 view .LVU169
 633              		.loc 1 517 8 is_stmt 0 view .LVU170
 634 0012 0449     		ldr	r1, .L49
 635              	.LVL41:
 636              		.loc 1 517 8 view .LVU171
 637 0014 0B68     		ldr	r3, [r1]
 638              		.loc 1 517 33 view .LVU172
 639 0016 4FF48052 		mov	r2, #4096
 640 001a 8240     		lsls	r2, r2, r0
 641              		.loc 1 517 13 view .LVU173
 642 001c 23EA0203 		bic	r3, r3, r2
ARM GAS  C:\Users\ktkuru\AppData\Local\Temp\cckTEIlV.s 			page 21


 643 0020 0B60     		str	r3, [r1]
 518:libraries/STM32F4xx_StdPeriph_Driver/src/stm32f4xx_dac.c ****   }
 519:libraries/STM32F4xx_StdPeriph_Driver/src/stm32f4xx_dac.c **** }
 644              		.loc 1 519 1 view .LVU174
 645 0022 7047     		bx	lr
 646              	.L50:
 647              		.align	2
 648              	.L49:
 649 0024 00740040 		.word	1073771520
 650              		.cfi_endproc
 651              	.LFE134:
 653              		.section	.text.DAC_ITConfig,"ax",%progbits
 654              		.align	1
 655              		.global	DAC_ITConfig
 656              		.syntax unified
 657              		.thumb
 658              		.thumb_func
 660              	DAC_ITConfig:
 661              	.LVL42:
 662              	.LFB135:
 520:libraries/STM32F4xx_StdPeriph_Driver/src/stm32f4xx_dac.c **** /**
 521:libraries/STM32F4xx_StdPeriph_Driver/src/stm32f4xx_dac.c ****   * @}
 522:libraries/STM32F4xx_StdPeriph_Driver/src/stm32f4xx_dac.c ****   */
 523:libraries/STM32F4xx_StdPeriph_Driver/src/stm32f4xx_dac.c **** 
 524:libraries/STM32F4xx_StdPeriph_Driver/src/stm32f4xx_dac.c **** /** @defgroup DAC_Group3 Interrupts and flags management functions
 525:libraries/STM32F4xx_StdPeriph_Driver/src/stm32f4xx_dac.c ****  *  @brief   Interrupts and flags management functions
 526:libraries/STM32F4xx_StdPeriph_Driver/src/stm32f4xx_dac.c ****  *
 527:libraries/STM32F4xx_StdPeriph_Driver/src/stm32f4xx_dac.c **** @verbatim   
 528:libraries/STM32F4xx_StdPeriph_Driver/src/stm32f4xx_dac.c ****  ===============================================================================
 529:libraries/STM32F4xx_StdPeriph_Driver/src/stm32f4xx_dac.c ****              ##### Interrupts and flags management functions #####
 530:libraries/STM32F4xx_StdPeriph_Driver/src/stm32f4xx_dac.c ****  ===============================================================================  
 531:libraries/STM32F4xx_StdPeriph_Driver/src/stm32f4xx_dac.c **** 
 532:libraries/STM32F4xx_StdPeriph_Driver/src/stm32f4xx_dac.c **** @endverbatim
 533:libraries/STM32F4xx_StdPeriph_Driver/src/stm32f4xx_dac.c ****   * @{
 534:libraries/STM32F4xx_StdPeriph_Driver/src/stm32f4xx_dac.c ****   */
 535:libraries/STM32F4xx_StdPeriph_Driver/src/stm32f4xx_dac.c **** 
 536:libraries/STM32F4xx_StdPeriph_Driver/src/stm32f4xx_dac.c **** /**
 537:libraries/STM32F4xx_StdPeriph_Driver/src/stm32f4xx_dac.c ****   * @brief  Enables or disables the specified DAC interrupts.
 538:libraries/STM32F4xx_StdPeriph_Driver/src/stm32f4xx_dac.c ****   * @param  DAC_Channel: The selected DAC channel. 
 539:libraries/STM32F4xx_StdPeriph_Driver/src/stm32f4xx_dac.c ****   *          This parameter can be one of the following values:
 540:libraries/STM32F4xx_StdPeriph_Driver/src/stm32f4xx_dac.c ****   *            @arg DAC_Channel_1: DAC Channel1 selected
 541:libraries/STM32F4xx_StdPeriph_Driver/src/stm32f4xx_dac.c ****   *            @arg DAC_Channel_2: DAC Channel2 selected
 542:libraries/STM32F4xx_StdPeriph_Driver/src/stm32f4xx_dac.c ****   * @param  DAC_IT: specifies the DAC interrupt sources to be enabled or disabled. 
 543:libraries/STM32F4xx_StdPeriph_Driver/src/stm32f4xx_dac.c ****   *          This parameter can be the following values:
 544:libraries/STM32F4xx_StdPeriph_Driver/src/stm32f4xx_dac.c ****   *            @arg DAC_IT_DMAUDR: DMA underrun interrupt mask
 545:libraries/STM32F4xx_StdPeriph_Driver/src/stm32f4xx_dac.c ****   * @note   The DMA underrun occurs when a second external trigger arrives before the 
 546:libraries/STM32F4xx_StdPeriph_Driver/src/stm32f4xx_dac.c ****   *         acknowledgement for the first external trigger is received (first request).
 547:libraries/STM32F4xx_StdPeriph_Driver/src/stm32f4xx_dac.c ****   * @param  NewState: new state of the specified DAC interrupts.
 548:libraries/STM32F4xx_StdPeriph_Driver/src/stm32f4xx_dac.c ****   *          This parameter can be: ENABLE or DISABLE.
 549:libraries/STM32F4xx_StdPeriph_Driver/src/stm32f4xx_dac.c ****   * @retval None
 550:libraries/STM32F4xx_StdPeriph_Driver/src/stm32f4xx_dac.c ****   */ 
 551:libraries/STM32F4xx_StdPeriph_Driver/src/stm32f4xx_dac.c **** void DAC_ITConfig(uint32_t DAC_Channel, uint32_t DAC_IT, FunctionalState NewState)  
 552:libraries/STM32F4xx_StdPeriph_Driver/src/stm32f4xx_dac.c **** {
 663              		.loc 1 552 1 is_stmt 1 view -0
 664              		.cfi_startproc
 665              		@ args = 0, pretend = 0, frame = 0
 666              		@ frame_needed = 0, uses_anonymous_args = 0
ARM GAS  C:\Users\ktkuru\AppData\Local\Temp\cckTEIlV.s 			page 22


 667              		@ link register save eliminated.
 553:libraries/STM32F4xx_StdPeriph_Driver/src/stm32f4xx_dac.c ****   /* Check the parameters */
 554:libraries/STM32F4xx_StdPeriph_Driver/src/stm32f4xx_dac.c ****   assert_param(IS_DAC_CHANNEL(DAC_Channel));
 668              		.loc 1 554 3 view .LVU176
 555:libraries/STM32F4xx_StdPeriph_Driver/src/stm32f4xx_dac.c ****   assert_param(IS_FUNCTIONAL_STATE(NewState));
 669              		.loc 1 555 3 view .LVU177
 556:libraries/STM32F4xx_StdPeriph_Driver/src/stm32f4xx_dac.c ****   assert_param(IS_DAC_IT(DAC_IT)); 
 670              		.loc 1 556 3 view .LVU178
 557:libraries/STM32F4xx_StdPeriph_Driver/src/stm32f4xx_dac.c **** 
 558:libraries/STM32F4xx_StdPeriph_Driver/src/stm32f4xx_dac.c ****   if (NewState != DISABLE)
 671              		.loc 1 558 3 view .LVU179
 672              		.loc 1 558 6 is_stmt 0 view .LVU180
 673 0000 2AB1     		cbz	r2, .L52
 559:libraries/STM32F4xx_StdPeriph_Driver/src/stm32f4xx_dac.c ****   {
 560:libraries/STM32F4xx_StdPeriph_Driver/src/stm32f4xx_dac.c ****     /* Enable the selected DAC interrupts */
 561:libraries/STM32F4xx_StdPeriph_Driver/src/stm32f4xx_dac.c ****     DAC->CR |=  (DAC_IT << DAC_Channel);
 674              		.loc 1 561 5 is_stmt 1 view .LVU181
 675              		.loc 1 561 8 is_stmt 0 view .LVU182
 676 0002 064A     		ldr	r2, .L54
 677              	.LVL43:
 678              		.loc 1 561 8 view .LVU183
 679 0004 1368     		ldr	r3, [r2]
 680              		.loc 1 561 25 view .LVU184
 681 0006 8140     		lsls	r1, r1, r0
 682              	.LVL44:
 683              		.loc 1 561 13 view .LVU185
 684 0008 0B43     		orrs	r3, r3, r1
 685 000a 1360     		str	r3, [r2]
 686 000c 7047     		bx	lr
 687              	.LVL45:
 688              	.L52:
 562:libraries/STM32F4xx_StdPeriph_Driver/src/stm32f4xx_dac.c ****   }
 563:libraries/STM32F4xx_StdPeriph_Driver/src/stm32f4xx_dac.c ****   else
 564:libraries/STM32F4xx_StdPeriph_Driver/src/stm32f4xx_dac.c ****   {
 565:libraries/STM32F4xx_StdPeriph_Driver/src/stm32f4xx_dac.c ****     /* Disable the selected DAC interrupts */
 566:libraries/STM32F4xx_StdPeriph_Driver/src/stm32f4xx_dac.c ****     DAC->CR &= (~(uint32_t)(DAC_IT << DAC_Channel));
 689              		.loc 1 566 5 is_stmt 1 view .LVU186
 690              		.loc 1 566 8 is_stmt 0 view .LVU187
 691 000e 034A     		ldr	r2, .L54
 692              	.LVL46:
 693              		.loc 1 566 8 view .LVU188
 694 0010 1368     		ldr	r3, [r2]
 695              		.loc 1 566 36 view .LVU189
 696 0012 8140     		lsls	r1, r1, r0
 697              	.LVL47:
 698              		.loc 1 566 13 view .LVU190
 699 0014 23EA0103 		bic	r3, r3, r1
 700 0018 1360     		str	r3, [r2]
 567:libraries/STM32F4xx_StdPeriph_Driver/src/stm32f4xx_dac.c ****   }
 568:libraries/STM32F4xx_StdPeriph_Driver/src/stm32f4xx_dac.c **** }
 701              		.loc 1 568 1 view .LVU191
 702 001a 7047     		bx	lr
 703              	.L55:
 704              		.align	2
 705              	.L54:
 706 001c 00740040 		.word	1073771520
 707              		.cfi_endproc
ARM GAS  C:\Users\ktkuru\AppData\Local\Temp\cckTEIlV.s 			page 23


 708              	.LFE135:
 710              		.section	.text.DAC_GetFlagStatus,"ax",%progbits
 711              		.align	1
 712              		.global	DAC_GetFlagStatus
 713              		.syntax unified
 714              		.thumb
 715              		.thumb_func
 717              	DAC_GetFlagStatus:
 718              	.LVL48:
 719              	.LFB136:
 569:libraries/STM32F4xx_StdPeriph_Driver/src/stm32f4xx_dac.c **** 
 570:libraries/STM32F4xx_StdPeriph_Driver/src/stm32f4xx_dac.c **** /**
 571:libraries/STM32F4xx_StdPeriph_Driver/src/stm32f4xx_dac.c ****   * @brief  Checks whether the specified DAC flag is set or not.
 572:libraries/STM32F4xx_StdPeriph_Driver/src/stm32f4xx_dac.c ****   * @param  DAC_Channel: The selected DAC channel. 
 573:libraries/STM32F4xx_StdPeriph_Driver/src/stm32f4xx_dac.c ****   *          This parameter can be one of the following values:
 574:libraries/STM32F4xx_StdPeriph_Driver/src/stm32f4xx_dac.c ****   *            @arg DAC_Channel_1: DAC Channel1 selected
 575:libraries/STM32F4xx_StdPeriph_Driver/src/stm32f4xx_dac.c ****   *            @arg DAC_Channel_2: DAC Channel2 selected
 576:libraries/STM32F4xx_StdPeriph_Driver/src/stm32f4xx_dac.c ****   * @param  DAC_FLAG: specifies the flag to check. 
 577:libraries/STM32F4xx_StdPeriph_Driver/src/stm32f4xx_dac.c ****   *          This parameter can be only of the following value:
 578:libraries/STM32F4xx_StdPeriph_Driver/src/stm32f4xx_dac.c ****   *            @arg DAC_FLAG_DMAUDR: DMA underrun flag
 579:libraries/STM32F4xx_StdPeriph_Driver/src/stm32f4xx_dac.c ****   * @note   The DMA underrun occurs when a second external trigger arrives before the 
 580:libraries/STM32F4xx_StdPeriph_Driver/src/stm32f4xx_dac.c ****   *         acknowledgement for the first external trigger is received (first request).
 581:libraries/STM32F4xx_StdPeriph_Driver/src/stm32f4xx_dac.c ****   * @retval The new state of DAC_FLAG (SET or RESET).
 582:libraries/STM32F4xx_StdPeriph_Driver/src/stm32f4xx_dac.c ****   */
 583:libraries/STM32F4xx_StdPeriph_Driver/src/stm32f4xx_dac.c **** FlagStatus DAC_GetFlagStatus(uint32_t DAC_Channel, uint32_t DAC_FLAG)
 584:libraries/STM32F4xx_StdPeriph_Driver/src/stm32f4xx_dac.c **** {
 720              		.loc 1 584 1 is_stmt 1 view -0
 721              		.cfi_startproc
 722              		@ args = 0, pretend = 0, frame = 0
 723              		@ frame_needed = 0, uses_anonymous_args = 0
 724              		@ link register save eliminated.
 585:libraries/STM32F4xx_StdPeriph_Driver/src/stm32f4xx_dac.c ****   FlagStatus bitstatus = RESET;
 725              		.loc 1 585 3 view .LVU193
 586:libraries/STM32F4xx_StdPeriph_Driver/src/stm32f4xx_dac.c ****   /* Check the parameters */
 587:libraries/STM32F4xx_StdPeriph_Driver/src/stm32f4xx_dac.c ****   assert_param(IS_DAC_CHANNEL(DAC_Channel));
 726              		.loc 1 587 3 view .LVU194
 588:libraries/STM32F4xx_StdPeriph_Driver/src/stm32f4xx_dac.c ****   assert_param(IS_DAC_FLAG(DAC_FLAG));
 727              		.loc 1 588 3 view .LVU195
 589:libraries/STM32F4xx_StdPeriph_Driver/src/stm32f4xx_dac.c **** 
 590:libraries/STM32F4xx_StdPeriph_Driver/src/stm32f4xx_dac.c ****   /* Check the status of the specified DAC flag */
 591:libraries/STM32F4xx_StdPeriph_Driver/src/stm32f4xx_dac.c ****   if ((DAC->SR & (DAC_FLAG << DAC_Channel)) != (uint8_t)RESET)
 728              		.loc 1 591 3 view .LVU196
 729              		.loc 1 591 11 is_stmt 0 view .LVU197
 730 0000 044B     		ldr	r3, .L59
 731 0002 5B6B     		ldr	r3, [r3, #52]
 732              		.loc 1 591 28 view .LVU198
 733 0004 8140     		lsls	r1, r1, r0
 734              	.LVL49:
 735              		.loc 1 591 6 view .LVU199
 736 0006 0B42     		tst	r3, r1
 737 0008 01D0     		beq	.L58
 592:libraries/STM32F4xx_StdPeriph_Driver/src/stm32f4xx_dac.c ****   {
 593:libraries/STM32F4xx_StdPeriph_Driver/src/stm32f4xx_dac.c ****     /* DAC_FLAG is set */
 594:libraries/STM32F4xx_StdPeriph_Driver/src/stm32f4xx_dac.c ****     bitstatus = SET;
 738              		.loc 1 594 15 view .LVU200
 739 000a 0120     		movs	r0, #1
 740              	.LVL50:
ARM GAS  C:\Users\ktkuru\AppData\Local\Temp\cckTEIlV.s 			page 24


 741              		.loc 1 594 15 view .LVU201
 742 000c 7047     		bx	lr
 743              	.LVL51:
 744              	.L58:
 595:libraries/STM32F4xx_StdPeriph_Driver/src/stm32f4xx_dac.c ****   }
 596:libraries/STM32F4xx_StdPeriph_Driver/src/stm32f4xx_dac.c ****   else
 597:libraries/STM32F4xx_StdPeriph_Driver/src/stm32f4xx_dac.c ****   {
 598:libraries/STM32F4xx_StdPeriph_Driver/src/stm32f4xx_dac.c ****     /* DAC_FLAG is reset */
 599:libraries/STM32F4xx_StdPeriph_Driver/src/stm32f4xx_dac.c ****     bitstatus = RESET;
 745              		.loc 1 599 15 view .LVU202
 746 000e 0020     		movs	r0, #0
 747              	.LVL52:
 600:libraries/STM32F4xx_StdPeriph_Driver/src/stm32f4xx_dac.c ****   }
 601:libraries/STM32F4xx_StdPeriph_Driver/src/stm32f4xx_dac.c ****   /* Return the DAC_FLAG status */
 602:libraries/STM32F4xx_StdPeriph_Driver/src/stm32f4xx_dac.c ****   return  bitstatus;
 748              		.loc 1 602 3 is_stmt 1 view .LVU203
 603:libraries/STM32F4xx_StdPeriph_Driver/src/stm32f4xx_dac.c **** }
 749              		.loc 1 603 1 is_stmt 0 view .LVU204
 750 0010 7047     		bx	lr
 751              	.L60:
 752 0012 00BF     		.align	2
 753              	.L59:
 754 0014 00740040 		.word	1073771520
 755              		.cfi_endproc
 756              	.LFE136:
 758              		.section	.text.DAC_ClearFlag,"ax",%progbits
 759              		.align	1
 760              		.global	DAC_ClearFlag
 761              		.syntax unified
 762              		.thumb
 763              		.thumb_func
 765              	DAC_ClearFlag:
 766              	.LVL53:
 767              	.LFB137:
 604:libraries/STM32F4xx_StdPeriph_Driver/src/stm32f4xx_dac.c **** 
 605:libraries/STM32F4xx_StdPeriph_Driver/src/stm32f4xx_dac.c **** /**
 606:libraries/STM32F4xx_StdPeriph_Driver/src/stm32f4xx_dac.c ****   * @brief  Clears the DAC channel's pending flags.
 607:libraries/STM32F4xx_StdPeriph_Driver/src/stm32f4xx_dac.c ****   * @param  DAC_Channel: The selected DAC channel. 
 608:libraries/STM32F4xx_StdPeriph_Driver/src/stm32f4xx_dac.c ****   *          This parameter can be one of the following values:
 609:libraries/STM32F4xx_StdPeriph_Driver/src/stm32f4xx_dac.c ****   *            @arg DAC_Channel_1: DAC Channel1 selected
 610:libraries/STM32F4xx_StdPeriph_Driver/src/stm32f4xx_dac.c ****   *            @arg DAC_Channel_2: DAC Channel2 selected
 611:libraries/STM32F4xx_StdPeriph_Driver/src/stm32f4xx_dac.c ****   * @param  DAC_FLAG: specifies the flag to clear. 
 612:libraries/STM32F4xx_StdPeriph_Driver/src/stm32f4xx_dac.c ****   *          This parameter can be of the following value:
 613:libraries/STM32F4xx_StdPeriph_Driver/src/stm32f4xx_dac.c ****   *            @arg DAC_FLAG_DMAUDR: DMA underrun flag 
 614:libraries/STM32F4xx_StdPeriph_Driver/src/stm32f4xx_dac.c ****   * @note   The DMA underrun occurs when a second external trigger arrives before the 
 615:libraries/STM32F4xx_StdPeriph_Driver/src/stm32f4xx_dac.c ****   *         acknowledgement for the first external trigger is received (first request).            
 616:libraries/STM32F4xx_StdPeriph_Driver/src/stm32f4xx_dac.c ****   * @retval None
 617:libraries/STM32F4xx_StdPeriph_Driver/src/stm32f4xx_dac.c ****   */
 618:libraries/STM32F4xx_StdPeriph_Driver/src/stm32f4xx_dac.c **** void DAC_ClearFlag(uint32_t DAC_Channel, uint32_t DAC_FLAG)
 619:libraries/STM32F4xx_StdPeriph_Driver/src/stm32f4xx_dac.c **** {
 768              		.loc 1 619 1 is_stmt 1 view -0
 769              		.cfi_startproc
 770              		@ args = 0, pretend = 0, frame = 0
 771              		@ frame_needed = 0, uses_anonymous_args = 0
 772              		@ link register save eliminated.
 620:libraries/STM32F4xx_StdPeriph_Driver/src/stm32f4xx_dac.c ****   /* Check the parameters */
 621:libraries/STM32F4xx_StdPeriph_Driver/src/stm32f4xx_dac.c ****   assert_param(IS_DAC_CHANNEL(DAC_Channel));
ARM GAS  C:\Users\ktkuru\AppData\Local\Temp\cckTEIlV.s 			page 25


 773              		.loc 1 621 3 view .LVU206
 622:libraries/STM32F4xx_StdPeriph_Driver/src/stm32f4xx_dac.c ****   assert_param(IS_DAC_FLAG(DAC_FLAG));
 774              		.loc 1 622 3 view .LVU207
 623:libraries/STM32F4xx_StdPeriph_Driver/src/stm32f4xx_dac.c **** 
 624:libraries/STM32F4xx_StdPeriph_Driver/src/stm32f4xx_dac.c ****   /* Clear the selected DAC flags */
 625:libraries/STM32F4xx_StdPeriph_Driver/src/stm32f4xx_dac.c ****   DAC->SR = (DAC_FLAG << DAC_Channel);
 775              		.loc 1 625 3 view .LVU208
 776              		.loc 1 625 23 is_stmt 0 view .LVU209
 777 0000 8140     		lsls	r1, r1, r0
 778              	.LVL54:
 779              		.loc 1 625 11 view .LVU210
 780 0002 014B     		ldr	r3, .L62
 781 0004 5963     		str	r1, [r3, #52]
 626:libraries/STM32F4xx_StdPeriph_Driver/src/stm32f4xx_dac.c **** }
 782              		.loc 1 626 1 view .LVU211
 783 0006 7047     		bx	lr
 784              	.L63:
 785              		.align	2
 786              	.L62:
 787 0008 00740040 		.word	1073771520
 788              		.cfi_endproc
 789              	.LFE137:
 791              		.section	.text.DAC_GetITStatus,"ax",%progbits
 792              		.align	1
 793              		.global	DAC_GetITStatus
 794              		.syntax unified
 795              		.thumb
 796              		.thumb_func
 798              	DAC_GetITStatus:
 799              	.LVL55:
 800              	.LFB138:
 627:libraries/STM32F4xx_StdPeriph_Driver/src/stm32f4xx_dac.c **** 
 628:libraries/STM32F4xx_StdPeriph_Driver/src/stm32f4xx_dac.c **** /**
 629:libraries/STM32F4xx_StdPeriph_Driver/src/stm32f4xx_dac.c ****   * @brief  Checks whether the specified DAC interrupt has occurred or not.
 630:libraries/STM32F4xx_StdPeriph_Driver/src/stm32f4xx_dac.c ****   * @param  DAC_Channel: The selected DAC channel. 
 631:libraries/STM32F4xx_StdPeriph_Driver/src/stm32f4xx_dac.c ****   *          This parameter can be one of the following values:
 632:libraries/STM32F4xx_StdPeriph_Driver/src/stm32f4xx_dac.c ****   *            @arg DAC_Channel_1: DAC Channel1 selected
 633:libraries/STM32F4xx_StdPeriph_Driver/src/stm32f4xx_dac.c ****   *            @arg DAC_Channel_2: DAC Channel2 selected
 634:libraries/STM32F4xx_StdPeriph_Driver/src/stm32f4xx_dac.c ****   * @param  DAC_IT: specifies the DAC interrupt source to check. 
 635:libraries/STM32F4xx_StdPeriph_Driver/src/stm32f4xx_dac.c ****   *          This parameter can be the following values:
 636:libraries/STM32F4xx_StdPeriph_Driver/src/stm32f4xx_dac.c ****   *            @arg DAC_IT_DMAUDR: DMA underrun interrupt mask
 637:libraries/STM32F4xx_StdPeriph_Driver/src/stm32f4xx_dac.c ****   * @note   The DMA underrun occurs when a second external trigger arrives before the 
 638:libraries/STM32F4xx_StdPeriph_Driver/src/stm32f4xx_dac.c ****   *         acknowledgement for the first external trigger is received (first request).
 639:libraries/STM32F4xx_StdPeriph_Driver/src/stm32f4xx_dac.c ****   * @retval The new state of DAC_IT (SET or RESET).
 640:libraries/STM32F4xx_StdPeriph_Driver/src/stm32f4xx_dac.c ****   */
 641:libraries/STM32F4xx_StdPeriph_Driver/src/stm32f4xx_dac.c **** ITStatus DAC_GetITStatus(uint32_t DAC_Channel, uint32_t DAC_IT)
 642:libraries/STM32F4xx_StdPeriph_Driver/src/stm32f4xx_dac.c **** {
 801              		.loc 1 642 1 is_stmt 1 view -0
 802              		.cfi_startproc
 803              		@ args = 0, pretend = 0, frame = 0
 804              		@ frame_needed = 0, uses_anonymous_args = 0
 805              		@ link register save eliminated.
 643:libraries/STM32F4xx_StdPeriph_Driver/src/stm32f4xx_dac.c ****   ITStatus bitstatus = RESET;
 806              		.loc 1 643 3 view .LVU213
 644:libraries/STM32F4xx_StdPeriph_Driver/src/stm32f4xx_dac.c ****   uint32_t enablestatus = 0;
 807              		.loc 1 644 3 view .LVU214
 645:libraries/STM32F4xx_StdPeriph_Driver/src/stm32f4xx_dac.c ****   
ARM GAS  C:\Users\ktkuru\AppData\Local\Temp\cckTEIlV.s 			page 26


 646:libraries/STM32F4xx_StdPeriph_Driver/src/stm32f4xx_dac.c ****   /* Check the parameters */
 647:libraries/STM32F4xx_StdPeriph_Driver/src/stm32f4xx_dac.c ****   assert_param(IS_DAC_CHANNEL(DAC_Channel));
 808              		.loc 1 647 3 view .LVU215
 648:libraries/STM32F4xx_StdPeriph_Driver/src/stm32f4xx_dac.c ****   assert_param(IS_DAC_IT(DAC_IT));
 809              		.loc 1 648 3 view .LVU216
 649:libraries/STM32F4xx_StdPeriph_Driver/src/stm32f4xx_dac.c **** 
 650:libraries/STM32F4xx_StdPeriph_Driver/src/stm32f4xx_dac.c ****   /* Get the DAC_IT enable bit status */
 651:libraries/STM32F4xx_StdPeriph_Driver/src/stm32f4xx_dac.c ****   enablestatus = (DAC->CR & (DAC_IT << DAC_Channel)) ;
 810              		.loc 1 651 3 view .LVU217
 811              		.loc 1 651 22 is_stmt 0 view .LVU218
 812 0000 064A     		ldr	r2, .L68
 813 0002 1368     		ldr	r3, [r2]
 814              		.loc 1 651 37 view .LVU219
 815 0004 8140     		lsls	r1, r1, r0
 816              	.LVL56:
 817              		.loc 1 651 16 view .LVU220
 818 0006 0B40     		ands	r3, r3, r1
 819              	.LVL57:
 652:libraries/STM32F4xx_StdPeriph_Driver/src/stm32f4xx_dac.c ****   
 653:libraries/STM32F4xx_StdPeriph_Driver/src/stm32f4xx_dac.c ****   /* Check the status of the specified DAC interrupt */
 654:libraries/STM32F4xx_StdPeriph_Driver/src/stm32f4xx_dac.c ****   if (((DAC->SR & (DAC_IT << DAC_Channel)) != (uint32_t)RESET) && enablestatus)
 820              		.loc 1 654 3 is_stmt 1 view .LVU221
 821              		.loc 1 654 12 is_stmt 0 view .LVU222
 822 0008 526B     		ldr	r2, [r2, #52]
 823              		.loc 1 654 6 view .LVU223
 824 000a 1142     		tst	r1, r2
 825 000c 02D0     		beq	.L66
 826              		.loc 1 654 64 discriminator 1 view .LVU224
 827 000e 1BB9     		cbnz	r3, .L67
 655:libraries/STM32F4xx_StdPeriph_Driver/src/stm32f4xx_dac.c ****   {
 656:libraries/STM32F4xx_StdPeriph_Driver/src/stm32f4xx_dac.c ****     /* DAC_IT is set */
 657:libraries/STM32F4xx_StdPeriph_Driver/src/stm32f4xx_dac.c ****     bitstatus = SET;
 658:libraries/STM32F4xx_StdPeriph_Driver/src/stm32f4xx_dac.c ****   }
 659:libraries/STM32F4xx_StdPeriph_Driver/src/stm32f4xx_dac.c ****   else
 660:libraries/STM32F4xx_StdPeriph_Driver/src/stm32f4xx_dac.c ****   {
 661:libraries/STM32F4xx_StdPeriph_Driver/src/stm32f4xx_dac.c ****     /* DAC_IT is reset */
 662:libraries/STM32F4xx_StdPeriph_Driver/src/stm32f4xx_dac.c ****     bitstatus = RESET;
 828              		.loc 1 662 15 view .LVU225
 829 0010 0020     		movs	r0, #0
 830              	.LVL58:
 831              		.loc 1 662 15 view .LVU226
 832 0012 7047     		bx	lr
 833              	.LVL59:
 834              	.L66:
 835              		.loc 1 662 15 view .LVU227
 836 0014 0020     		movs	r0, #0
 837              	.LVL60:
 838              		.loc 1 662 15 view .LVU228
 839 0016 7047     		bx	lr
 840              	.LVL61:
 841              	.L67:
 657:libraries/STM32F4xx_StdPeriph_Driver/src/stm32f4xx_dac.c ****   }
 842              		.loc 1 657 15 view .LVU229
 843 0018 0120     		movs	r0, #1
 844              	.LVL62:
 663:libraries/STM32F4xx_StdPeriph_Driver/src/stm32f4xx_dac.c ****   }
 664:libraries/STM32F4xx_StdPeriph_Driver/src/stm32f4xx_dac.c ****   /* Return the DAC_IT status */
ARM GAS  C:\Users\ktkuru\AppData\Local\Temp\cckTEIlV.s 			page 27


 665:libraries/STM32F4xx_StdPeriph_Driver/src/stm32f4xx_dac.c ****   return  bitstatus;
 845              		.loc 1 665 3 is_stmt 1 view .LVU230
 666:libraries/STM32F4xx_StdPeriph_Driver/src/stm32f4xx_dac.c **** }
 846              		.loc 1 666 1 is_stmt 0 view .LVU231
 847 001a 7047     		bx	lr
 848              	.L69:
 849              		.align	2
 850              	.L68:
 851 001c 00740040 		.word	1073771520
 852              		.cfi_endproc
 853              	.LFE138:
 855              		.section	.text.DAC_ClearITPendingBit,"ax",%progbits
 856              		.align	1
 857              		.global	DAC_ClearITPendingBit
 858              		.syntax unified
 859              		.thumb
 860              		.thumb_func
 862              	DAC_ClearITPendingBit:
 863              	.LVL63:
 864              	.LFB139:
 667:libraries/STM32F4xx_StdPeriph_Driver/src/stm32f4xx_dac.c **** 
 668:libraries/STM32F4xx_StdPeriph_Driver/src/stm32f4xx_dac.c **** /**
 669:libraries/STM32F4xx_StdPeriph_Driver/src/stm32f4xx_dac.c ****   * @brief  Clears the DAC channel's interrupt pending bits.
 670:libraries/STM32F4xx_StdPeriph_Driver/src/stm32f4xx_dac.c ****   * @param  DAC_Channel: The selected DAC channel. 
 671:libraries/STM32F4xx_StdPeriph_Driver/src/stm32f4xx_dac.c ****   *          This parameter can be one of the following values:
 672:libraries/STM32F4xx_StdPeriph_Driver/src/stm32f4xx_dac.c ****   *            @arg DAC_Channel_1: DAC Channel1 selected
 673:libraries/STM32F4xx_StdPeriph_Driver/src/stm32f4xx_dac.c ****   *            @arg DAC_Channel_2: DAC Channel2 selected
 674:libraries/STM32F4xx_StdPeriph_Driver/src/stm32f4xx_dac.c ****   * @param  DAC_IT: specifies the DAC interrupt pending bit to clear.
 675:libraries/STM32F4xx_StdPeriph_Driver/src/stm32f4xx_dac.c ****   *          This parameter can be the following values:
 676:libraries/STM32F4xx_StdPeriph_Driver/src/stm32f4xx_dac.c ****   *            @arg DAC_IT_DMAUDR: DMA underrun interrupt mask                         
 677:libraries/STM32F4xx_StdPeriph_Driver/src/stm32f4xx_dac.c ****   * @note   The DMA underrun occurs when a second external trigger arrives before the 
 678:libraries/STM32F4xx_StdPeriph_Driver/src/stm32f4xx_dac.c ****   *         acknowledgement for the first external trigger is received (first request).            
 679:libraries/STM32F4xx_StdPeriph_Driver/src/stm32f4xx_dac.c ****   * @retval None
 680:libraries/STM32F4xx_StdPeriph_Driver/src/stm32f4xx_dac.c ****   */
 681:libraries/STM32F4xx_StdPeriph_Driver/src/stm32f4xx_dac.c **** void DAC_ClearITPendingBit(uint32_t DAC_Channel, uint32_t DAC_IT)
 682:libraries/STM32F4xx_StdPeriph_Driver/src/stm32f4xx_dac.c **** {
 865              		.loc 1 682 1 is_stmt 1 view -0
 866              		.cfi_startproc
 867              		@ args = 0, pretend = 0, frame = 0
 868              		@ frame_needed = 0, uses_anonymous_args = 0
 869              		@ link register save eliminated.
 683:libraries/STM32F4xx_StdPeriph_Driver/src/stm32f4xx_dac.c ****   /* Check the parameters */
 684:libraries/STM32F4xx_StdPeriph_Driver/src/stm32f4xx_dac.c ****   assert_param(IS_DAC_CHANNEL(DAC_Channel));
 870              		.loc 1 684 3 view .LVU233
 685:libraries/STM32F4xx_StdPeriph_Driver/src/stm32f4xx_dac.c ****   assert_param(IS_DAC_IT(DAC_IT)); 
 871              		.loc 1 685 3 view .LVU234
 686:libraries/STM32F4xx_StdPeriph_Driver/src/stm32f4xx_dac.c **** 
 687:libraries/STM32F4xx_StdPeriph_Driver/src/stm32f4xx_dac.c ****   /* Clear the selected DAC interrupt pending bits */
 688:libraries/STM32F4xx_StdPeriph_Driver/src/stm32f4xx_dac.c ****   DAC->SR = (DAC_IT << DAC_Channel);
 872              		.loc 1 688 3 view .LVU235
 873              		.loc 1 688 21 is_stmt 0 view .LVU236
 874 0000 8140     		lsls	r1, r1, r0
 875              	.LVL64:
 876              		.loc 1 688 11 view .LVU237
 877 0002 014B     		ldr	r3, .L71
 878 0004 5963     		str	r1, [r3, #52]
 689:libraries/STM32F4xx_StdPeriph_Driver/src/stm32f4xx_dac.c **** }
ARM GAS  C:\Users\ktkuru\AppData\Local\Temp\cckTEIlV.s 			page 28


 879              		.loc 1 689 1 view .LVU238
 880 0006 7047     		bx	lr
 881              	.L72:
 882              		.align	2
 883              	.L71:
 884 0008 00740040 		.word	1073771520
 885              		.cfi_endproc
 886              	.LFE139:
 888              		.text
 889              	.Letext0:
 890              		.file 2 "C:/Program Files (x86)/Arm GNU Toolchain arm-none-eabi/13.3 rel1/arm-none-eabi/include/ma
 891              		.file 3 "C:/Program Files (x86)/Arm GNU Toolchain arm-none-eabi/13.3 rel1/arm-none-eabi/include/sy
 892              		.file 4 "libraries/CMSIS/Device/ST/STM32F4xx/include/stm32f4xx.h"
 893              		.file 5 "libraries/STM32F4xx_StdPeriph_Driver/inc/stm32f4xx_dac.h"
 894              		.file 6 "libraries/STM32F4xx_StdPeriph_Driver/inc/stm32f4xx_rcc.h"
ARM GAS  C:\Users\ktkuru\AppData\Local\Temp\cckTEIlV.s 			page 29

