ARM GAS  /tmp/ccVzVw77.s 			page 1


   1              		.cpu cortex-m4
   2              		.eabi_attribute 27, 1
   3              		.eabi_attribute 28, 1
   4              		.eabi_attribute 20, 1
   5              		.eabi_attribute 21, 1
   6              		.eabi_attribute 23, 3
   7              		.eabi_attribute 24, 1
   8              		.eabi_attribute 25, 1
   9              		.eabi_attribute 26, 1
  10              		.eabi_attribute 30, 1
  11              		.eabi_attribute 34, 1
  12              		.eabi_attribute 18, 4
  13              		.file	"stm32f4xx_dac.c"
  14              		.text
  15              	.Ltext0:
  16              		.cfi_sections	.debug_frame
  17              		.section	.text.DAC_DeInit,"ax",%progbits
  18              		.align	1
  19              		.global	DAC_DeInit
  20              		.arch armv7e-m
  21              		.syntax unified
  22              		.thumb
  23              		.thumb_func
  24              		.fpu fpv4-sp-d16
  26              	DAC_DeInit:
  27              	.LFB123:
  28              		.file 1 "Libraries/STM32F4xx_StdPeriph_Driver/src/stm32f4xx_dac.c"
   1:Libraries/STM32F4xx_StdPeriph_Driver/src/stm32f4xx_dac.c **** /**
   2:Libraries/STM32F4xx_StdPeriph_Driver/src/stm32f4xx_dac.c ****   ******************************************************************************
   3:Libraries/STM32F4xx_StdPeriph_Driver/src/stm32f4xx_dac.c ****   * @file    stm32f4xx_dac.c
   4:Libraries/STM32F4xx_StdPeriph_Driver/src/stm32f4xx_dac.c ****   * @author  MCD Application Team
   5:Libraries/STM32F4xx_StdPeriph_Driver/src/stm32f4xx_dac.c ****   * @version V1.8.1
   6:Libraries/STM32F4xx_StdPeriph_Driver/src/stm32f4xx_dac.c ****   * @date    27-January-2022
   7:Libraries/STM32F4xx_StdPeriph_Driver/src/stm32f4xx_dac.c ****    * @brief   This file provides firmware functions to manage the following 
   8:Libraries/STM32F4xx_StdPeriph_Driver/src/stm32f4xx_dac.c ****   *          functionalities of the Digital-to-Analog Converter (DAC) peripheral: 
   9:Libraries/STM32F4xx_StdPeriph_Driver/src/stm32f4xx_dac.c ****   *           + DAC channels configuration: trigger, output buffer, data format
  10:Libraries/STM32F4xx_StdPeriph_Driver/src/stm32f4xx_dac.c ****   *           + DMA management      
  11:Libraries/STM32F4xx_StdPeriph_Driver/src/stm32f4xx_dac.c ****   *           + Interrupts and flags management
  12:Libraries/STM32F4xx_StdPeriph_Driver/src/stm32f4xx_dac.c ****   *
  13:Libraries/STM32F4xx_StdPeriph_Driver/src/stm32f4xx_dac.c ****  @verbatim      
  14:Libraries/STM32F4xx_StdPeriph_Driver/src/stm32f4xx_dac.c ****  ===============================================================================
  15:Libraries/STM32F4xx_StdPeriph_Driver/src/stm32f4xx_dac.c ****                       ##### DAC Peripheral features #####
  16:Libraries/STM32F4xx_StdPeriph_Driver/src/stm32f4xx_dac.c ****  ===============================================================================
  17:Libraries/STM32F4xx_StdPeriph_Driver/src/stm32f4xx_dac.c ****     [..]        
  18:Libraries/STM32F4xx_StdPeriph_Driver/src/stm32f4xx_dac.c ****       *** DAC Channels ***
  19:Libraries/STM32F4xx_StdPeriph_Driver/src/stm32f4xx_dac.c ****       ====================  
  20:Libraries/STM32F4xx_StdPeriph_Driver/src/stm32f4xx_dac.c ****     [..]  
  21:Libraries/STM32F4xx_StdPeriph_Driver/src/stm32f4xx_dac.c ****     The device integrates two 12-bit Digital Analog Converters that can 
  22:Libraries/STM32F4xx_StdPeriph_Driver/src/stm32f4xx_dac.c ****     be used independently or simultaneously (dual mode):
  23:Libraries/STM32F4xx_StdPeriph_Driver/src/stm32f4xx_dac.c ****       (#) DAC channel1 with DAC_OUT1 (PA4) as output
  24:Libraries/STM32F4xx_StdPeriph_Driver/src/stm32f4xx_dac.c ****       (#) DAC channel2 with DAC_OUT2 (PA5) as output
  25:Libraries/STM32F4xx_StdPeriph_Driver/src/stm32f4xx_dac.c ****   
  26:Libraries/STM32F4xx_StdPeriph_Driver/src/stm32f4xx_dac.c ****       *** DAC Triggers ***
  27:Libraries/STM32F4xx_StdPeriph_Driver/src/stm32f4xx_dac.c ****       ====================
  28:Libraries/STM32F4xx_StdPeriph_Driver/src/stm32f4xx_dac.c ****     [..]
  29:Libraries/STM32F4xx_StdPeriph_Driver/src/stm32f4xx_dac.c ****     Digital to Analog conversion can be non-triggered using DAC_Trigger_None
  30:Libraries/STM32F4xx_StdPeriph_Driver/src/stm32f4xx_dac.c ****     and DAC_OUT1/DAC_OUT2 is available once writing to DHRx register 
ARM GAS  /tmp/ccVzVw77.s 			page 2


  31:Libraries/STM32F4xx_StdPeriph_Driver/src/stm32f4xx_dac.c ****     using DAC_SetChannel1Data() / DAC_SetChannel2Data() functions.
  32:Libraries/STM32F4xx_StdPeriph_Driver/src/stm32f4xx_dac.c ****     [..] 
  33:Libraries/STM32F4xx_StdPeriph_Driver/src/stm32f4xx_dac.c ****     Digital to Analog conversion can be triggered by:
  34:Libraries/STM32F4xx_StdPeriph_Driver/src/stm32f4xx_dac.c ****       (#) External event: EXTI Line 9 (any GPIOx_Pin9) using DAC_Trigger_Ext_IT9.
  35:Libraries/STM32F4xx_StdPeriph_Driver/src/stm32f4xx_dac.c ****           The used pin (GPIOx_Pin9) must be configured in input mode.
  36:Libraries/STM32F4xx_StdPeriph_Driver/src/stm32f4xx_dac.c ****   
  37:Libraries/STM32F4xx_StdPeriph_Driver/src/stm32f4xx_dac.c ****       (#) Timers TRGO: TIM2, TIM4, TIM5, TIM6, TIM7 and TIM8 
  38:Libraries/STM32F4xx_StdPeriph_Driver/src/stm32f4xx_dac.c ****           (DAC_Trigger_T2_TRGO, DAC_Trigger_T4_TRGO...)
  39:Libraries/STM32F4xx_StdPeriph_Driver/src/stm32f4xx_dac.c ****           The timer TRGO event should be selected using TIM_SelectOutputTrigger()
  40:Libraries/STM32F4xx_StdPeriph_Driver/src/stm32f4xx_dac.c ****   
  41:Libraries/STM32F4xx_StdPeriph_Driver/src/stm32f4xx_dac.c ****       (#) Software using DAC_Trigger_Software
  42:Libraries/STM32F4xx_StdPeriph_Driver/src/stm32f4xx_dac.c ****   
  43:Libraries/STM32F4xx_StdPeriph_Driver/src/stm32f4xx_dac.c ****       *** DAC Buffer mode feature ***
  44:Libraries/STM32F4xx_StdPeriph_Driver/src/stm32f4xx_dac.c ****       =============================== 
  45:Libraries/STM32F4xx_StdPeriph_Driver/src/stm32f4xx_dac.c ****       [..] 
  46:Libraries/STM32F4xx_StdPeriph_Driver/src/stm32f4xx_dac.c ****       Each DAC channel integrates an output buffer that can be used to 
  47:Libraries/STM32F4xx_StdPeriph_Driver/src/stm32f4xx_dac.c ****       reduce the output impedance, and to drive external loads directly
  48:Libraries/STM32F4xx_StdPeriph_Driver/src/stm32f4xx_dac.c ****       without having to add an external operational amplifier.
  49:Libraries/STM32F4xx_StdPeriph_Driver/src/stm32f4xx_dac.c ****       To enable, the output buffer use  
  50:Libraries/STM32F4xx_StdPeriph_Driver/src/stm32f4xx_dac.c ****       DAC_InitStructure.DAC_OutputBuffer = DAC_OutputBuffer_Enable;
  51:Libraries/STM32F4xx_StdPeriph_Driver/src/stm32f4xx_dac.c ****       [..]           
  52:Libraries/STM32F4xx_StdPeriph_Driver/src/stm32f4xx_dac.c ****       (@) Refer to the device datasheet for more details about output 
  53:Libraries/STM32F4xx_StdPeriph_Driver/src/stm32f4xx_dac.c ****           impedance value with and without output buffer.
  54:Libraries/STM32F4xx_StdPeriph_Driver/src/stm32f4xx_dac.c ****             
  55:Libraries/STM32F4xx_StdPeriph_Driver/src/stm32f4xx_dac.c ****        *** DAC wave generation feature ***
  56:Libraries/STM32F4xx_StdPeriph_Driver/src/stm32f4xx_dac.c ****        =================================== 
  57:Libraries/STM32F4xx_StdPeriph_Driver/src/stm32f4xx_dac.c ****        [..]     
  58:Libraries/STM32F4xx_StdPeriph_Driver/src/stm32f4xx_dac.c ****        Both DAC channels can be used to generate
  59:Libraries/STM32F4xx_StdPeriph_Driver/src/stm32f4xx_dac.c ****          (#) Noise wave using DAC_WaveGeneration_Noise
  60:Libraries/STM32F4xx_StdPeriph_Driver/src/stm32f4xx_dac.c ****          (#) Triangle wave using DAC_WaveGeneration_Triangle
  61:Libraries/STM32F4xx_StdPeriph_Driver/src/stm32f4xx_dac.c ****           
  62:Libraries/STM32F4xx_StdPeriph_Driver/src/stm32f4xx_dac.c ****           -@-  Wave generation can be disabled using DAC_WaveGeneration_None
  63:Libraries/STM32F4xx_StdPeriph_Driver/src/stm32f4xx_dac.c ****   
  64:Libraries/STM32F4xx_StdPeriph_Driver/src/stm32f4xx_dac.c ****        *** DAC data format ***
  65:Libraries/STM32F4xx_StdPeriph_Driver/src/stm32f4xx_dac.c ****        =======================
  66:Libraries/STM32F4xx_StdPeriph_Driver/src/stm32f4xx_dac.c ****        [..]   
  67:Libraries/STM32F4xx_StdPeriph_Driver/src/stm32f4xx_dac.c ****        The DAC data format can be:
  68:Libraries/STM32F4xx_StdPeriph_Driver/src/stm32f4xx_dac.c ****          (#) 8-bit right alignment using DAC_Align_8b_R
  69:Libraries/STM32F4xx_StdPeriph_Driver/src/stm32f4xx_dac.c ****          (#) 12-bit left alignment using DAC_Align_12b_L
  70:Libraries/STM32F4xx_StdPeriph_Driver/src/stm32f4xx_dac.c ****          (#) 12-bit right alignment using DAC_Align_12b_R
  71:Libraries/STM32F4xx_StdPeriph_Driver/src/stm32f4xx_dac.c ****   
  72:Libraries/STM32F4xx_StdPeriph_Driver/src/stm32f4xx_dac.c ****        *** DAC data value to voltage correspondence ***  
  73:Libraries/STM32F4xx_StdPeriph_Driver/src/stm32f4xx_dac.c ****        ================================================ 
  74:Libraries/STM32F4xx_StdPeriph_Driver/src/stm32f4xx_dac.c ****        [..] 
  75:Libraries/STM32F4xx_StdPeriph_Driver/src/stm32f4xx_dac.c ****        The analog output voltage on each DAC channel pin is determined
  76:Libraries/STM32F4xx_StdPeriph_Driver/src/stm32f4xx_dac.c ****        by the following equation: 
  77:Libraries/STM32F4xx_StdPeriph_Driver/src/stm32f4xx_dac.c ****        DAC_OUTx = VREF+ * DOR / 4095
  78:Libraries/STM32F4xx_StdPeriph_Driver/src/stm32f4xx_dac.c ****        with  DOR is the Data Output Register
  79:Libraries/STM32F4xx_StdPeriph_Driver/src/stm32f4xx_dac.c ****           VEF+ is the input voltage reference (refer to the device datasheet)
  80:Libraries/STM32F4xx_StdPeriph_Driver/src/stm32f4xx_dac.c ****         e.g. To set DAC_OUT1 to 0.7V, use
  81:Libraries/STM32F4xx_StdPeriph_Driver/src/stm32f4xx_dac.c ****           DAC_SetChannel1Data(DAC_Align_12b_R, 868);
  82:Libraries/STM32F4xx_StdPeriph_Driver/src/stm32f4xx_dac.c ****           Assuming that VREF+ = 3.3V, DAC_OUT1 = (3.3 * 868) / 4095 = 0.7V
  83:Libraries/STM32F4xx_StdPeriph_Driver/src/stm32f4xx_dac.c ****   
  84:Libraries/STM32F4xx_StdPeriph_Driver/src/stm32f4xx_dac.c ****        *** DMA requests  ***
  85:Libraries/STM32F4xx_StdPeriph_Driver/src/stm32f4xx_dac.c ****        =====================
  86:Libraries/STM32F4xx_StdPeriph_Driver/src/stm32f4xx_dac.c ****        [..]    
  87:Libraries/STM32F4xx_StdPeriph_Driver/src/stm32f4xx_dac.c ****        A DMA1 request can be generated when an external trigger (but not
ARM GAS  /tmp/ccVzVw77.s 			page 3


  88:Libraries/STM32F4xx_StdPeriph_Driver/src/stm32f4xx_dac.c ****        a software trigger) occurs if DMA1 requests are enabled using
  89:Libraries/STM32F4xx_StdPeriph_Driver/src/stm32f4xx_dac.c ****        DAC_DMACmd()
  90:Libraries/STM32F4xx_StdPeriph_Driver/src/stm32f4xx_dac.c ****        [..]
  91:Libraries/STM32F4xx_StdPeriph_Driver/src/stm32f4xx_dac.c ****        DMA1 requests are mapped as following:
  92:Libraries/STM32F4xx_StdPeriph_Driver/src/stm32f4xx_dac.c ****          (#) DAC channel1 : mapped on DMA1 Stream5 channel7 which must be 
  93:Libraries/STM32F4xx_StdPeriph_Driver/src/stm32f4xx_dac.c ****              already configured
  94:Libraries/STM32F4xx_StdPeriph_Driver/src/stm32f4xx_dac.c ****          (#) DAC channel2 : mapped on DMA1 Stream6 channel7 which must be 
  95:Libraries/STM32F4xx_StdPeriph_Driver/src/stm32f4xx_dac.c ****              already configured
  96:Libraries/STM32F4xx_StdPeriph_Driver/src/stm32f4xx_dac.c ****   
  97:Libraries/STM32F4xx_StdPeriph_Driver/src/stm32f4xx_dac.c ****       
  98:Libraries/STM32F4xx_StdPeriph_Driver/src/stm32f4xx_dac.c ****                       ##### How to use this driver #####
  99:Libraries/STM32F4xx_StdPeriph_Driver/src/stm32f4xx_dac.c ****  ===============================================================================
 100:Libraries/STM32F4xx_StdPeriph_Driver/src/stm32f4xx_dac.c ****     [..]          
 101:Libraries/STM32F4xx_StdPeriph_Driver/src/stm32f4xx_dac.c ****       (+) DAC APB clock must be enabled to get write access to DAC
 102:Libraries/STM32F4xx_StdPeriph_Driver/src/stm32f4xx_dac.c ****           registers using
 103:Libraries/STM32F4xx_StdPeriph_Driver/src/stm32f4xx_dac.c ****           RCC_APB1PeriphClockCmd(RCC_APB1Periph_DAC, ENABLE)
 104:Libraries/STM32F4xx_StdPeriph_Driver/src/stm32f4xx_dac.c ****       (+) Configure DAC_OUTx (DAC_OUT1: PA4, DAC_OUT2: PA5) in analog mode.
 105:Libraries/STM32F4xx_StdPeriph_Driver/src/stm32f4xx_dac.c ****       (+) Configure the DAC channel using DAC_Init() function
 106:Libraries/STM32F4xx_StdPeriph_Driver/src/stm32f4xx_dac.c ****       (+) Enable the DAC channel using DAC_Cmd() function
 107:Libraries/STM32F4xx_StdPeriph_Driver/src/stm32f4xx_dac.c ****    
 108:Libraries/STM32F4xx_StdPeriph_Driver/src/stm32f4xx_dac.c ****  @endverbatim    
 109:Libraries/STM32F4xx_StdPeriph_Driver/src/stm32f4xx_dac.c ****   ******************************************************************************
 110:Libraries/STM32F4xx_StdPeriph_Driver/src/stm32f4xx_dac.c ****   * @attention
 111:Libraries/STM32F4xx_StdPeriph_Driver/src/stm32f4xx_dac.c ****   *
 112:Libraries/STM32F4xx_StdPeriph_Driver/src/stm32f4xx_dac.c ****   * Copyright (c) 2016 STMicroelectronics.
 113:Libraries/STM32F4xx_StdPeriph_Driver/src/stm32f4xx_dac.c ****   * All rights reserved.
 114:Libraries/STM32F4xx_StdPeriph_Driver/src/stm32f4xx_dac.c ****   *
 115:Libraries/STM32F4xx_StdPeriph_Driver/src/stm32f4xx_dac.c ****   * This software is licensed under terms that can be found in the LICENSE file
 116:Libraries/STM32F4xx_StdPeriph_Driver/src/stm32f4xx_dac.c ****   * in the root directory of this software component.
 117:Libraries/STM32F4xx_StdPeriph_Driver/src/stm32f4xx_dac.c ****   * If no LICENSE file comes with this software, it is provided AS-IS.
 118:Libraries/STM32F4xx_StdPeriph_Driver/src/stm32f4xx_dac.c ****   *
 119:Libraries/STM32F4xx_StdPeriph_Driver/src/stm32f4xx_dac.c ****   ******************************************************************************
 120:Libraries/STM32F4xx_StdPeriph_Driver/src/stm32f4xx_dac.c ****   */
 121:Libraries/STM32F4xx_StdPeriph_Driver/src/stm32f4xx_dac.c **** 
 122:Libraries/STM32F4xx_StdPeriph_Driver/src/stm32f4xx_dac.c **** 
 123:Libraries/STM32F4xx_StdPeriph_Driver/src/stm32f4xx_dac.c **** /* Includes ------------------------------------------------------------------*/
 124:Libraries/STM32F4xx_StdPeriph_Driver/src/stm32f4xx_dac.c **** #include "stm32f4xx_dac.h"
 125:Libraries/STM32F4xx_StdPeriph_Driver/src/stm32f4xx_dac.c **** #include "stm32f4xx_rcc.h"
 126:Libraries/STM32F4xx_StdPeriph_Driver/src/stm32f4xx_dac.c **** 
 127:Libraries/STM32F4xx_StdPeriph_Driver/src/stm32f4xx_dac.c **** /** @addtogroup STM32F4xx_StdPeriph_Driver
 128:Libraries/STM32F4xx_StdPeriph_Driver/src/stm32f4xx_dac.c ****   * @{
 129:Libraries/STM32F4xx_StdPeriph_Driver/src/stm32f4xx_dac.c ****   */
 130:Libraries/STM32F4xx_StdPeriph_Driver/src/stm32f4xx_dac.c **** 
 131:Libraries/STM32F4xx_StdPeriph_Driver/src/stm32f4xx_dac.c **** /** @defgroup DAC 
 132:Libraries/STM32F4xx_StdPeriph_Driver/src/stm32f4xx_dac.c ****   * @brief DAC driver modules
 133:Libraries/STM32F4xx_StdPeriph_Driver/src/stm32f4xx_dac.c ****   * @{
 134:Libraries/STM32F4xx_StdPeriph_Driver/src/stm32f4xx_dac.c ****   */ 
 135:Libraries/STM32F4xx_StdPeriph_Driver/src/stm32f4xx_dac.c **** 
 136:Libraries/STM32F4xx_StdPeriph_Driver/src/stm32f4xx_dac.c **** /* Private typedef -----------------------------------------------------------*/
 137:Libraries/STM32F4xx_StdPeriph_Driver/src/stm32f4xx_dac.c **** /* Private define ------------------------------------------------------------*/
 138:Libraries/STM32F4xx_StdPeriph_Driver/src/stm32f4xx_dac.c **** 
 139:Libraries/STM32F4xx_StdPeriph_Driver/src/stm32f4xx_dac.c **** /* CR register Mask */
 140:Libraries/STM32F4xx_StdPeriph_Driver/src/stm32f4xx_dac.c **** #define CR_CLEAR_MASK              ((uint32_t)0x00000FFE)
 141:Libraries/STM32F4xx_StdPeriph_Driver/src/stm32f4xx_dac.c **** 
 142:Libraries/STM32F4xx_StdPeriph_Driver/src/stm32f4xx_dac.c **** /* DAC Dual Channels SWTRIG masks */
 143:Libraries/STM32F4xx_StdPeriph_Driver/src/stm32f4xx_dac.c **** #define DUAL_SWTRIG_SET            ((uint32_t)0x00000003)
 144:Libraries/STM32F4xx_StdPeriph_Driver/src/stm32f4xx_dac.c **** #define DUAL_SWTRIG_RESET          ((uint32_t)0xFFFFFFFC)
ARM GAS  /tmp/ccVzVw77.s 			page 4


 145:Libraries/STM32F4xx_StdPeriph_Driver/src/stm32f4xx_dac.c **** 
 146:Libraries/STM32F4xx_StdPeriph_Driver/src/stm32f4xx_dac.c **** /* DHR registers offsets */
 147:Libraries/STM32F4xx_StdPeriph_Driver/src/stm32f4xx_dac.c **** #define DHR12R1_OFFSET             ((uint32_t)0x00000008)
 148:Libraries/STM32F4xx_StdPeriph_Driver/src/stm32f4xx_dac.c **** #define DHR12R2_OFFSET             ((uint32_t)0x00000014)
 149:Libraries/STM32F4xx_StdPeriph_Driver/src/stm32f4xx_dac.c **** #define DHR12RD_OFFSET             ((uint32_t)0x00000020)
 150:Libraries/STM32F4xx_StdPeriph_Driver/src/stm32f4xx_dac.c **** 
 151:Libraries/STM32F4xx_StdPeriph_Driver/src/stm32f4xx_dac.c **** /* DOR register offset */
 152:Libraries/STM32F4xx_StdPeriph_Driver/src/stm32f4xx_dac.c **** #define DOR_OFFSET                 ((uint32_t)0x0000002C)
 153:Libraries/STM32F4xx_StdPeriph_Driver/src/stm32f4xx_dac.c **** 
 154:Libraries/STM32F4xx_StdPeriph_Driver/src/stm32f4xx_dac.c **** /* Private macro -------------------------------------------------------------*/
 155:Libraries/STM32F4xx_StdPeriph_Driver/src/stm32f4xx_dac.c **** /* Private variables ---------------------------------------------------------*/
 156:Libraries/STM32F4xx_StdPeriph_Driver/src/stm32f4xx_dac.c **** /* Private function prototypes -----------------------------------------------*/
 157:Libraries/STM32F4xx_StdPeriph_Driver/src/stm32f4xx_dac.c **** /* Private functions ---------------------------------------------------------*/
 158:Libraries/STM32F4xx_StdPeriph_Driver/src/stm32f4xx_dac.c **** 
 159:Libraries/STM32F4xx_StdPeriph_Driver/src/stm32f4xx_dac.c **** /** @defgroup DAC_Private_Functions
 160:Libraries/STM32F4xx_StdPeriph_Driver/src/stm32f4xx_dac.c ****   * @{
 161:Libraries/STM32F4xx_StdPeriph_Driver/src/stm32f4xx_dac.c ****   */
 162:Libraries/STM32F4xx_StdPeriph_Driver/src/stm32f4xx_dac.c **** 
 163:Libraries/STM32F4xx_StdPeriph_Driver/src/stm32f4xx_dac.c **** /** @defgroup DAC_Group1 DAC channels configuration
 164:Libraries/STM32F4xx_StdPeriph_Driver/src/stm32f4xx_dac.c ****  *  @brief   DAC channels configuration: trigger, output buffer, data format 
 165:Libraries/STM32F4xx_StdPeriph_Driver/src/stm32f4xx_dac.c ****  *
 166:Libraries/STM32F4xx_StdPeriph_Driver/src/stm32f4xx_dac.c **** @verbatim   
 167:Libraries/STM32F4xx_StdPeriph_Driver/src/stm32f4xx_dac.c ****  ===============================================================================
 168:Libraries/STM32F4xx_StdPeriph_Driver/src/stm32f4xx_dac.c ****    ##### DAC channels configuration: trigger, output buffer, data format #####
 169:Libraries/STM32F4xx_StdPeriph_Driver/src/stm32f4xx_dac.c ****  ===============================================================================  
 170:Libraries/STM32F4xx_StdPeriph_Driver/src/stm32f4xx_dac.c **** 
 171:Libraries/STM32F4xx_StdPeriph_Driver/src/stm32f4xx_dac.c **** @endverbatim
 172:Libraries/STM32F4xx_StdPeriph_Driver/src/stm32f4xx_dac.c ****   * @{
 173:Libraries/STM32F4xx_StdPeriph_Driver/src/stm32f4xx_dac.c ****   */
 174:Libraries/STM32F4xx_StdPeriph_Driver/src/stm32f4xx_dac.c **** 
 175:Libraries/STM32F4xx_StdPeriph_Driver/src/stm32f4xx_dac.c **** /**
 176:Libraries/STM32F4xx_StdPeriph_Driver/src/stm32f4xx_dac.c ****   * @brief  Deinitializes the DAC peripheral registers to their default reset values.
 177:Libraries/STM32F4xx_StdPeriph_Driver/src/stm32f4xx_dac.c ****   * @param  None
 178:Libraries/STM32F4xx_StdPeriph_Driver/src/stm32f4xx_dac.c ****   * @retval None
 179:Libraries/STM32F4xx_StdPeriph_Driver/src/stm32f4xx_dac.c ****   */
 180:Libraries/STM32F4xx_StdPeriph_Driver/src/stm32f4xx_dac.c **** void DAC_DeInit(void)
 181:Libraries/STM32F4xx_StdPeriph_Driver/src/stm32f4xx_dac.c **** {
  29              		.loc 1 181 1 view -0
  30              		.cfi_startproc
  31              		@ args = 0, pretend = 0, frame = 0
  32              		@ frame_needed = 0, uses_anonymous_args = 0
  33 0000 08B5     		push	{r3, lr}
  34              	.LCFI0:
  35              		.cfi_def_cfa_offset 8
  36              		.cfi_offset 3, -8
  37              		.cfi_offset 14, -4
 182:Libraries/STM32F4xx_StdPeriph_Driver/src/stm32f4xx_dac.c ****   /* Enable DAC reset state */
 183:Libraries/STM32F4xx_StdPeriph_Driver/src/stm32f4xx_dac.c ****   RCC_APB1PeriphResetCmd(RCC_APB1Periph_DAC, ENABLE);
  38              		.loc 1 183 3 view .LVU1
  39 0002 0121     		movs	r1, #1
  40 0004 4FF00050 		mov	r0, #536870912
  41 0008 FFF7FEFF 		bl	RCC_APB1PeriphResetCmd
  42              	.LVL0:
 184:Libraries/STM32F4xx_StdPeriph_Driver/src/stm32f4xx_dac.c ****   /* Release DAC from reset state */
 185:Libraries/STM32F4xx_StdPeriph_Driver/src/stm32f4xx_dac.c ****   RCC_APB1PeriphResetCmd(RCC_APB1Periph_DAC, DISABLE);
  43              		.loc 1 185 3 view .LVU2
  44 000c 0021     		movs	r1, #0
ARM GAS  /tmp/ccVzVw77.s 			page 5


  45 000e 4FF00050 		mov	r0, #536870912
  46 0012 FFF7FEFF 		bl	RCC_APB1PeriphResetCmd
  47              	.LVL1:
 186:Libraries/STM32F4xx_StdPeriph_Driver/src/stm32f4xx_dac.c **** }
  48              		.loc 1 186 1 is_stmt 0 view .LVU3
  49 0016 08BD     		pop	{r3, pc}
  50              		.cfi_endproc
  51              	.LFE123:
  53              		.section	.text.DAC_Init,"ax",%progbits
  54              		.align	1
  55              		.global	DAC_Init
  56              		.syntax unified
  57              		.thumb
  58              		.thumb_func
  59              		.fpu fpv4-sp-d16
  61              	DAC_Init:
  62              	.LVL2:
  63              	.LFB124:
 187:Libraries/STM32F4xx_StdPeriph_Driver/src/stm32f4xx_dac.c **** 
 188:Libraries/STM32F4xx_StdPeriph_Driver/src/stm32f4xx_dac.c **** /**
 189:Libraries/STM32F4xx_StdPeriph_Driver/src/stm32f4xx_dac.c ****   * @brief  Initializes the DAC peripheral according to the specified parameters
 190:Libraries/STM32F4xx_StdPeriph_Driver/src/stm32f4xx_dac.c ****   *         in the DAC_InitStruct.
 191:Libraries/STM32F4xx_StdPeriph_Driver/src/stm32f4xx_dac.c ****   * @param  DAC_Channel: the selected DAC channel. 
 192:Libraries/STM32F4xx_StdPeriph_Driver/src/stm32f4xx_dac.c ****   *          This parameter can be one of the following values:
 193:Libraries/STM32F4xx_StdPeriph_Driver/src/stm32f4xx_dac.c ****   *            @arg DAC_Channel_1: DAC Channel1 selected
 194:Libraries/STM32F4xx_StdPeriph_Driver/src/stm32f4xx_dac.c ****   *            @arg DAC_Channel_2: DAC Channel2 selected
 195:Libraries/STM32F4xx_StdPeriph_Driver/src/stm32f4xx_dac.c ****   * @param  DAC_InitStruct: pointer to a DAC_InitTypeDef structure that contains
 196:Libraries/STM32F4xx_StdPeriph_Driver/src/stm32f4xx_dac.c ****   *         the configuration information for the  specified DAC channel.
 197:Libraries/STM32F4xx_StdPeriph_Driver/src/stm32f4xx_dac.c ****   * @retval None
 198:Libraries/STM32F4xx_StdPeriph_Driver/src/stm32f4xx_dac.c ****   */
 199:Libraries/STM32F4xx_StdPeriph_Driver/src/stm32f4xx_dac.c **** void DAC_Init(uint32_t DAC_Channel, DAC_InitTypeDef* DAC_InitStruct)
 200:Libraries/STM32F4xx_StdPeriph_Driver/src/stm32f4xx_dac.c **** {
  64              		.loc 1 200 1 is_stmt 1 view -0
  65              		.cfi_startproc
  66              		@ args = 0, pretend = 0, frame = 0
  67              		@ frame_needed = 0, uses_anonymous_args = 0
  68              		@ link register save eliminated.
  69              		.loc 1 200 1 is_stmt 0 view .LVU5
  70 0000 30B4     		push	{r4, r5}
  71              	.LCFI1:
  72              		.cfi_def_cfa_offset 8
  73              		.cfi_offset 4, -8
  74              		.cfi_offset 5, -4
 201:Libraries/STM32F4xx_StdPeriph_Driver/src/stm32f4xx_dac.c ****   uint32_t tmpreg1 = 0, tmpreg2 = 0;
  75              		.loc 1 201 3 is_stmt 1 view .LVU6
  76              	.LVL3:
 202:Libraries/STM32F4xx_StdPeriph_Driver/src/stm32f4xx_dac.c **** 
 203:Libraries/STM32F4xx_StdPeriph_Driver/src/stm32f4xx_dac.c ****   /* Check the DAC parameters */
 204:Libraries/STM32F4xx_StdPeriph_Driver/src/stm32f4xx_dac.c ****   assert_param(IS_DAC_TRIGGER(DAC_InitStruct->DAC_Trigger));
  77              		.loc 1 204 3 view .LVU7
 205:Libraries/STM32F4xx_StdPeriph_Driver/src/stm32f4xx_dac.c ****   assert_param(IS_DAC_GENERATE_WAVE(DAC_InitStruct->DAC_WaveGeneration));
  78              		.loc 1 205 3 view .LVU8
 206:Libraries/STM32F4xx_StdPeriph_Driver/src/stm32f4xx_dac.c ****   assert_param(IS_DAC_LFSR_UNMASK_TRIANGLE_AMPLITUDE(DAC_InitStruct->DAC_LFSRUnmask_TriangleAmplitu
  79              		.loc 1 206 3 view .LVU9
 207:Libraries/STM32F4xx_StdPeriph_Driver/src/stm32f4xx_dac.c ****   assert_param(IS_DAC_OUTPUT_BUFFER_STATE(DAC_InitStruct->DAC_OutputBuffer));
  80              		.loc 1 207 3 view .LVU10
 208:Libraries/STM32F4xx_StdPeriph_Driver/src/stm32f4xx_dac.c **** 
ARM GAS  /tmp/ccVzVw77.s 			page 6


 209:Libraries/STM32F4xx_StdPeriph_Driver/src/stm32f4xx_dac.c **** /*---------------------------- DAC CR Configuration --------------------------*/
 210:Libraries/STM32F4xx_StdPeriph_Driver/src/stm32f4xx_dac.c ****   /* Get the DAC CR value */
 211:Libraries/STM32F4xx_StdPeriph_Driver/src/stm32f4xx_dac.c ****   tmpreg1 = DAC->CR;
  81              		.loc 1 211 3 view .LVU11
  82              		.loc 1 211 11 is_stmt 0 view .LVU12
  83 0002 0A4C     		ldr	r4, .L5
  84 0004 2268     		ldr	r2, [r4]
  85              	.LVL4:
 212:Libraries/STM32F4xx_StdPeriph_Driver/src/stm32f4xx_dac.c ****   /* Clear BOFFx, TENx, TSELx, WAVEx and MAMPx bits */
 213:Libraries/STM32F4xx_StdPeriph_Driver/src/stm32f4xx_dac.c ****   tmpreg1 &= ~(CR_CLEAR_MASK << DAC_Channel);
  86              		.loc 1 213 3 is_stmt 1 view .LVU13
  87              		.loc 1 213 30 is_stmt 0 view .LVU14
  88 0006 40F6FE73 		movw	r3, #4094
  89 000a 8340     		lsls	r3, r3, r0
  90              		.loc 1 213 11 view .LVU15
  91 000c 22EA0302 		bic	r2, r2, r3
  92              	.LVL5:
 214:Libraries/STM32F4xx_StdPeriph_Driver/src/stm32f4xx_dac.c ****   /* Configure for the selected DAC channel: buffer output, trigger, 
 215:Libraries/STM32F4xx_StdPeriph_Driver/src/stm32f4xx_dac.c ****      wave generation, mask/amplitude for wave generation */
 216:Libraries/STM32F4xx_StdPeriph_Driver/src/stm32f4xx_dac.c ****   /* Set TSELx and TENx bits according to DAC_Trigger value */
 217:Libraries/STM32F4xx_StdPeriph_Driver/src/stm32f4xx_dac.c ****   /* Set WAVEx bits according to DAC_WaveGeneration value */
 218:Libraries/STM32F4xx_StdPeriph_Driver/src/stm32f4xx_dac.c ****   /* Set MAMPx bits according to DAC_LFSRUnmask_TriangleAmplitude value */ 
 219:Libraries/STM32F4xx_StdPeriph_Driver/src/stm32f4xx_dac.c ****   /* Set BOFFx bit according to DAC_OutputBuffer value */   
 220:Libraries/STM32F4xx_StdPeriph_Driver/src/stm32f4xx_dac.c ****   tmpreg2 = (DAC_InitStruct->DAC_Trigger | DAC_InitStruct->DAC_WaveGeneration |
  93              		.loc 1 220 3 is_stmt 1 view .LVU16
  94              		.loc 1 220 28 is_stmt 0 view .LVU17
  95 0010 0B68     		ldr	r3, [r1]
  96              		.loc 1 220 42 view .LVU18
  97 0012 4D68     		ldr	r5, [r1, #4]
  98 0014 2B43     		orrs	r3, r3, r5
  99              		.loc 1 220 79 view .LVU19
 100 0016 8D68     		ldr	r5, [r1, #8]
 101 0018 2B43     		orrs	r3, r3, r5
 221:Libraries/STM32F4xx_StdPeriph_Driver/src/stm32f4xx_dac.c ****              DAC_InitStruct->DAC_LFSRUnmask_TriangleAmplitude | \
 222:Libraries/STM32F4xx_StdPeriph_Driver/src/stm32f4xx_dac.c ****              DAC_InitStruct->DAC_OutputBuffer);
 102              		.loc 1 222 28 view .LVU20
 103 001a C968     		ldr	r1, [r1, #12]
 104              	.LVL6:
 220:Libraries/STM32F4xx_StdPeriph_Driver/src/stm32f4xx_dac.c ****              DAC_InitStruct->DAC_LFSRUnmask_TriangleAmplitude | \
 105              		.loc 1 220 11 view .LVU21
 106 001c 0B43     		orrs	r3, r3, r1
 107              	.LVL7:
 223:Libraries/STM32F4xx_StdPeriph_Driver/src/stm32f4xx_dac.c ****   /* Calculate CR register value depending on DAC_Channel */
 224:Libraries/STM32F4xx_StdPeriph_Driver/src/stm32f4xx_dac.c ****   tmpreg1 |= tmpreg2 << DAC_Channel;
 108              		.loc 1 224 3 is_stmt 1 view .LVU22
 109              		.loc 1 224 22 is_stmt 0 view .LVU23
 110 001e 03FA00F0 		lsl	r0, r3, r0
 111              	.LVL8:
 112              		.loc 1 224 11 view .LVU24
 113 0022 1043     		orrs	r0, r0, r2
 114              	.LVL9:
 225:Libraries/STM32F4xx_StdPeriph_Driver/src/stm32f4xx_dac.c ****   /* Write to DAC CR */
 226:Libraries/STM32F4xx_StdPeriph_Driver/src/stm32f4xx_dac.c ****   DAC->CR = tmpreg1;
 115              		.loc 1 226 3 is_stmt 1 view .LVU25
 116              		.loc 1 226 11 is_stmt 0 view .LVU26
 117 0024 2060     		str	r0, [r4]
 227:Libraries/STM32F4xx_StdPeriph_Driver/src/stm32f4xx_dac.c **** }
ARM GAS  /tmp/ccVzVw77.s 			page 7


 118              		.loc 1 227 1 view .LVU27
 119 0026 30BC     		pop	{r4, r5}
 120              	.LCFI2:
 121              		.cfi_restore 5
 122              		.cfi_restore 4
 123              		.cfi_def_cfa_offset 0
 124 0028 7047     		bx	lr
 125              	.L6:
 126 002a 00BF     		.align	2
 127              	.L5:
 128 002c 00740040 		.word	1073771520
 129              		.cfi_endproc
 130              	.LFE124:
 132              		.section	.text.DAC_StructInit,"ax",%progbits
 133              		.align	1
 134              		.global	DAC_StructInit
 135              		.syntax unified
 136              		.thumb
 137              		.thumb_func
 138              		.fpu fpv4-sp-d16
 140              	DAC_StructInit:
 141              	.LVL10:
 142              	.LFB125:
 228:Libraries/STM32F4xx_StdPeriph_Driver/src/stm32f4xx_dac.c **** 
 229:Libraries/STM32F4xx_StdPeriph_Driver/src/stm32f4xx_dac.c **** /**
 230:Libraries/STM32F4xx_StdPeriph_Driver/src/stm32f4xx_dac.c ****   * @brief  Fills each DAC_InitStruct member with its default value.
 231:Libraries/STM32F4xx_StdPeriph_Driver/src/stm32f4xx_dac.c ****   * @param  DAC_InitStruct: pointer to a DAC_InitTypeDef structure which will 
 232:Libraries/STM32F4xx_StdPeriph_Driver/src/stm32f4xx_dac.c ****   *         be initialized.
 233:Libraries/STM32F4xx_StdPeriph_Driver/src/stm32f4xx_dac.c ****   * @retval None
 234:Libraries/STM32F4xx_StdPeriph_Driver/src/stm32f4xx_dac.c ****   */
 235:Libraries/STM32F4xx_StdPeriph_Driver/src/stm32f4xx_dac.c **** void DAC_StructInit(DAC_InitTypeDef* DAC_InitStruct)
 236:Libraries/STM32F4xx_StdPeriph_Driver/src/stm32f4xx_dac.c **** {
 143              		.loc 1 236 1 is_stmt 1 view -0
 144              		.cfi_startproc
 145              		@ args = 0, pretend = 0, frame = 0
 146              		@ frame_needed = 0, uses_anonymous_args = 0
 147              		@ link register save eliminated.
 237:Libraries/STM32F4xx_StdPeriph_Driver/src/stm32f4xx_dac.c **** /*--------------- Reset DAC init structure parameters values -----------------*/
 238:Libraries/STM32F4xx_StdPeriph_Driver/src/stm32f4xx_dac.c ****   /* Initialize the DAC_Trigger member */
 239:Libraries/STM32F4xx_StdPeriph_Driver/src/stm32f4xx_dac.c ****   DAC_InitStruct->DAC_Trigger = DAC_Trigger_None;
 148              		.loc 1 239 3 view .LVU29
 149              		.loc 1 239 31 is_stmt 0 view .LVU30
 150 0000 0023     		movs	r3, #0
 151 0002 0360     		str	r3, [r0]
 240:Libraries/STM32F4xx_StdPeriph_Driver/src/stm32f4xx_dac.c ****   /* Initialize the DAC_WaveGeneration member */
 241:Libraries/STM32F4xx_StdPeriph_Driver/src/stm32f4xx_dac.c ****   DAC_InitStruct->DAC_WaveGeneration = DAC_WaveGeneration_None;
 152              		.loc 1 241 3 is_stmt 1 view .LVU31
 153              		.loc 1 241 38 is_stmt 0 view .LVU32
 154 0004 4360     		str	r3, [r0, #4]
 242:Libraries/STM32F4xx_StdPeriph_Driver/src/stm32f4xx_dac.c ****   /* Initialize the DAC_LFSRUnmask_TriangleAmplitude member */
 243:Libraries/STM32F4xx_StdPeriph_Driver/src/stm32f4xx_dac.c ****   DAC_InitStruct->DAC_LFSRUnmask_TriangleAmplitude = DAC_LFSRUnmask_Bit0;
 155              		.loc 1 243 3 is_stmt 1 view .LVU33
 156              		.loc 1 243 52 is_stmt 0 view .LVU34
 157 0006 8360     		str	r3, [r0, #8]
 244:Libraries/STM32F4xx_StdPeriph_Driver/src/stm32f4xx_dac.c ****   /* Initialize the DAC_OutputBuffer member */
 245:Libraries/STM32F4xx_StdPeriph_Driver/src/stm32f4xx_dac.c ****   DAC_InitStruct->DAC_OutputBuffer = DAC_OutputBuffer_Enable;
 158              		.loc 1 245 3 is_stmt 1 view .LVU35
ARM GAS  /tmp/ccVzVw77.s 			page 8


 159              		.loc 1 245 36 is_stmt 0 view .LVU36
 160 0008 C360     		str	r3, [r0, #12]
 246:Libraries/STM32F4xx_StdPeriph_Driver/src/stm32f4xx_dac.c **** }
 161              		.loc 1 246 1 view .LVU37
 162 000a 7047     		bx	lr
 163              		.cfi_endproc
 164              	.LFE125:
 166              		.section	.text.DAC_Cmd,"ax",%progbits
 167              		.align	1
 168              		.global	DAC_Cmd
 169              		.syntax unified
 170              		.thumb
 171              		.thumb_func
 172              		.fpu fpv4-sp-d16
 174              	DAC_Cmd:
 175              	.LVL11:
 176              	.LFB126:
 247:Libraries/STM32F4xx_StdPeriph_Driver/src/stm32f4xx_dac.c **** 
 248:Libraries/STM32F4xx_StdPeriph_Driver/src/stm32f4xx_dac.c **** /**
 249:Libraries/STM32F4xx_StdPeriph_Driver/src/stm32f4xx_dac.c ****   * @brief  Enables or disables the specified DAC channel.
 250:Libraries/STM32F4xx_StdPeriph_Driver/src/stm32f4xx_dac.c ****   * @param  DAC_Channel: The selected DAC channel. 
 251:Libraries/STM32F4xx_StdPeriph_Driver/src/stm32f4xx_dac.c ****   *          This parameter can be one of the following values:
 252:Libraries/STM32F4xx_StdPeriph_Driver/src/stm32f4xx_dac.c ****   *            @arg DAC_Channel_1: DAC Channel1 selected
 253:Libraries/STM32F4xx_StdPeriph_Driver/src/stm32f4xx_dac.c ****   *            @arg DAC_Channel_2: DAC Channel2 selected
 254:Libraries/STM32F4xx_StdPeriph_Driver/src/stm32f4xx_dac.c ****   * @param  NewState: new state of the DAC channel. 
 255:Libraries/STM32F4xx_StdPeriph_Driver/src/stm32f4xx_dac.c ****   *          This parameter can be: ENABLE or DISABLE.
 256:Libraries/STM32F4xx_StdPeriph_Driver/src/stm32f4xx_dac.c ****   * @note   When the DAC channel is enabled the trigger source can no more be modified.
 257:Libraries/STM32F4xx_StdPeriph_Driver/src/stm32f4xx_dac.c ****   * @retval None
 258:Libraries/STM32F4xx_StdPeriph_Driver/src/stm32f4xx_dac.c ****   */
 259:Libraries/STM32F4xx_StdPeriph_Driver/src/stm32f4xx_dac.c **** void DAC_Cmd(uint32_t DAC_Channel, FunctionalState NewState)
 260:Libraries/STM32F4xx_StdPeriph_Driver/src/stm32f4xx_dac.c **** {
 177              		.loc 1 260 1 is_stmt 1 view -0
 178              		.cfi_startproc
 179              		@ args = 0, pretend = 0, frame = 0
 180              		@ frame_needed = 0, uses_anonymous_args = 0
 181              		@ link register save eliminated.
 261:Libraries/STM32F4xx_StdPeriph_Driver/src/stm32f4xx_dac.c ****   /* Check the parameters */
 262:Libraries/STM32F4xx_StdPeriph_Driver/src/stm32f4xx_dac.c ****   assert_param(IS_DAC_CHANNEL(DAC_Channel));
 182              		.loc 1 262 3 view .LVU39
 263:Libraries/STM32F4xx_StdPeriph_Driver/src/stm32f4xx_dac.c ****   assert_param(IS_FUNCTIONAL_STATE(NewState));
 183              		.loc 1 263 3 view .LVU40
 264:Libraries/STM32F4xx_StdPeriph_Driver/src/stm32f4xx_dac.c **** 
 265:Libraries/STM32F4xx_StdPeriph_Driver/src/stm32f4xx_dac.c ****   if (NewState != DISABLE)
 184              		.loc 1 265 3 view .LVU41
 185              		.loc 1 265 6 is_stmt 0 view .LVU42
 186 0000 39B1     		cbz	r1, .L9
 266:Libraries/STM32F4xx_StdPeriph_Driver/src/stm32f4xx_dac.c ****   {
 267:Libraries/STM32F4xx_StdPeriph_Driver/src/stm32f4xx_dac.c ****     /* Enable the selected DAC channel */
 268:Libraries/STM32F4xx_StdPeriph_Driver/src/stm32f4xx_dac.c ****     DAC->CR |= (DAC_CR_EN1 << DAC_Channel);
 187              		.loc 1 268 5 is_stmt 1 view .LVU43
 188              		.loc 1 268 13 is_stmt 0 view .LVU44
 189 0002 0849     		ldr	r1, .L11
 190              	.LVL12:
 191              		.loc 1 268 13 view .LVU45
 192 0004 0B68     		ldr	r3, [r1]
 193              		.loc 1 268 28 view .LVU46
 194 0006 0122     		movs	r2, #1
ARM GAS  /tmp/ccVzVw77.s 			page 9


 195 0008 02FA00F0 		lsl	r0, r2, r0
 196              	.LVL13:
 197              		.loc 1 268 13 view .LVU47
 198 000c 1843     		orrs	r0, r0, r3
 199 000e 0860     		str	r0, [r1]
 200 0010 7047     		bx	lr
 201              	.LVL14:
 202              	.L9:
 269:Libraries/STM32F4xx_StdPeriph_Driver/src/stm32f4xx_dac.c ****   }
 270:Libraries/STM32F4xx_StdPeriph_Driver/src/stm32f4xx_dac.c ****   else
 271:Libraries/STM32F4xx_StdPeriph_Driver/src/stm32f4xx_dac.c ****   {
 272:Libraries/STM32F4xx_StdPeriph_Driver/src/stm32f4xx_dac.c ****     /* Disable the selected DAC channel */
 273:Libraries/STM32F4xx_StdPeriph_Driver/src/stm32f4xx_dac.c ****     DAC->CR &= (~(DAC_CR_EN1 << DAC_Channel));
 203              		.loc 1 273 5 is_stmt 1 view .LVU48
 204              		.loc 1 273 13 is_stmt 0 view .LVU49
 205 0012 0449     		ldr	r1, .L11
 206              	.LVL15:
 207              		.loc 1 273 13 view .LVU50
 208 0014 0B68     		ldr	r3, [r1]
 209              		.loc 1 273 30 view .LVU51
 210 0016 0122     		movs	r2, #1
 211 0018 02FA00F0 		lsl	r0, r2, r0
 212              	.LVL16:
 213              		.loc 1 273 13 view .LVU52
 214 001c 23EA0000 		bic	r0, r3, r0
 215 0020 0860     		str	r0, [r1]
 274:Libraries/STM32F4xx_StdPeriph_Driver/src/stm32f4xx_dac.c ****   }
 275:Libraries/STM32F4xx_StdPeriph_Driver/src/stm32f4xx_dac.c **** }
 216              		.loc 1 275 1 view .LVU53
 217 0022 7047     		bx	lr
 218              	.L12:
 219              		.align	2
 220              	.L11:
 221 0024 00740040 		.word	1073771520
 222              		.cfi_endproc
 223              	.LFE126:
 225              		.section	.text.DAC_SoftwareTriggerCmd,"ax",%progbits
 226              		.align	1
 227              		.global	DAC_SoftwareTriggerCmd
 228              		.syntax unified
 229              		.thumb
 230              		.thumb_func
 231              		.fpu fpv4-sp-d16
 233              	DAC_SoftwareTriggerCmd:
 234              	.LVL17:
 235              	.LFB127:
 276:Libraries/STM32F4xx_StdPeriph_Driver/src/stm32f4xx_dac.c **** 
 277:Libraries/STM32F4xx_StdPeriph_Driver/src/stm32f4xx_dac.c **** /**
 278:Libraries/STM32F4xx_StdPeriph_Driver/src/stm32f4xx_dac.c ****   * @brief  Enables or disables the selected DAC channel software trigger.
 279:Libraries/STM32F4xx_StdPeriph_Driver/src/stm32f4xx_dac.c ****   * @param  DAC_Channel: The selected DAC channel. 
 280:Libraries/STM32F4xx_StdPeriph_Driver/src/stm32f4xx_dac.c ****   *          This parameter can be one of the following values:
 281:Libraries/STM32F4xx_StdPeriph_Driver/src/stm32f4xx_dac.c ****   *            @arg DAC_Channel_1: DAC Channel1 selected
 282:Libraries/STM32F4xx_StdPeriph_Driver/src/stm32f4xx_dac.c ****   *            @arg DAC_Channel_2: DAC Channel2 selected
 283:Libraries/STM32F4xx_StdPeriph_Driver/src/stm32f4xx_dac.c ****   * @param  NewState: new state of the selected DAC channel software trigger.
 284:Libraries/STM32F4xx_StdPeriph_Driver/src/stm32f4xx_dac.c ****   *          This parameter can be: ENABLE or DISABLE.
 285:Libraries/STM32F4xx_StdPeriph_Driver/src/stm32f4xx_dac.c ****   * @retval None
 286:Libraries/STM32F4xx_StdPeriph_Driver/src/stm32f4xx_dac.c ****   */
ARM GAS  /tmp/ccVzVw77.s 			page 10


 287:Libraries/STM32F4xx_StdPeriph_Driver/src/stm32f4xx_dac.c **** void DAC_SoftwareTriggerCmd(uint32_t DAC_Channel, FunctionalState NewState)
 288:Libraries/STM32F4xx_StdPeriph_Driver/src/stm32f4xx_dac.c **** {
 236              		.loc 1 288 1 is_stmt 1 view -0
 237              		.cfi_startproc
 238              		@ args = 0, pretend = 0, frame = 0
 239              		@ frame_needed = 0, uses_anonymous_args = 0
 240              		@ link register save eliminated.
 289:Libraries/STM32F4xx_StdPeriph_Driver/src/stm32f4xx_dac.c ****   /* Check the parameters */
 290:Libraries/STM32F4xx_StdPeriph_Driver/src/stm32f4xx_dac.c ****   assert_param(IS_DAC_CHANNEL(DAC_Channel));
 241              		.loc 1 290 3 view .LVU55
 291:Libraries/STM32F4xx_StdPeriph_Driver/src/stm32f4xx_dac.c ****   assert_param(IS_FUNCTIONAL_STATE(NewState));
 242              		.loc 1 291 3 view .LVU56
 292:Libraries/STM32F4xx_StdPeriph_Driver/src/stm32f4xx_dac.c **** 
 293:Libraries/STM32F4xx_StdPeriph_Driver/src/stm32f4xx_dac.c ****   if (NewState != DISABLE)
 243              		.loc 1 293 3 view .LVU57
 244              		.loc 1 293 6 is_stmt 0 view .LVU58
 245 0000 41B1     		cbz	r1, .L14
 294:Libraries/STM32F4xx_StdPeriph_Driver/src/stm32f4xx_dac.c ****   {
 295:Libraries/STM32F4xx_StdPeriph_Driver/src/stm32f4xx_dac.c ****     /* Enable software trigger for the selected DAC channel */
 296:Libraries/STM32F4xx_StdPeriph_Driver/src/stm32f4xx_dac.c ****     DAC->SWTRIGR |= (uint32_t)DAC_SWTRIGR_SWTRIG1 << (DAC_Channel >> 4);
 246              		.loc 1 296 5 is_stmt 1 view .LVU59
 247              		.loc 1 296 18 is_stmt 0 view .LVU60
 248 0002 0949     		ldr	r1, .L16
 249              	.LVL18:
 250              		.loc 1 296 18 view .LVU61
 251 0004 4B68     		ldr	r3, [r1, #4]
 252              		.loc 1 296 67 view .LVU62
 253 0006 0009     		lsrs	r0, r0, #4
 254              	.LVL19:
 255              		.loc 1 296 51 view .LVU63
 256 0008 0122     		movs	r2, #1
 257 000a 02FA00F0 		lsl	r0, r2, r0
 258              		.loc 1 296 18 view .LVU64
 259 000e 1843     		orrs	r0, r0, r3
 260 0010 4860     		str	r0, [r1, #4]
 261 0012 7047     		bx	lr
 262              	.LVL20:
 263              	.L14:
 297:Libraries/STM32F4xx_StdPeriph_Driver/src/stm32f4xx_dac.c ****   }
 298:Libraries/STM32F4xx_StdPeriph_Driver/src/stm32f4xx_dac.c ****   else
 299:Libraries/STM32F4xx_StdPeriph_Driver/src/stm32f4xx_dac.c ****   {
 300:Libraries/STM32F4xx_StdPeriph_Driver/src/stm32f4xx_dac.c ****     /* Disable software trigger for the selected DAC channel */
 301:Libraries/STM32F4xx_StdPeriph_Driver/src/stm32f4xx_dac.c ****     DAC->SWTRIGR &= ~((uint32_t)DAC_SWTRIGR_SWTRIG1 << (DAC_Channel >> 4));
 264              		.loc 1 301 5 is_stmt 1 view .LVU65
 265              		.loc 1 301 18 is_stmt 0 view .LVU66
 266 0014 0449     		ldr	r1, .L16
 267              	.LVL21:
 268              		.loc 1 301 18 view .LVU67
 269 0016 4B68     		ldr	r3, [r1, #4]
 270              		.loc 1 301 69 view .LVU68
 271 0018 0009     		lsrs	r0, r0, #4
 272              	.LVL22:
 273              		.loc 1 301 53 view .LVU69
 274 001a 0122     		movs	r2, #1
 275 001c 02FA00F0 		lsl	r0, r2, r0
 276              		.loc 1 301 18 view .LVU70
 277 0020 23EA0000 		bic	r0, r3, r0
ARM GAS  /tmp/ccVzVw77.s 			page 11


 278 0024 4860     		str	r0, [r1, #4]
 302:Libraries/STM32F4xx_StdPeriph_Driver/src/stm32f4xx_dac.c ****   }
 303:Libraries/STM32F4xx_StdPeriph_Driver/src/stm32f4xx_dac.c **** }
 279              		.loc 1 303 1 view .LVU71
 280 0026 7047     		bx	lr
 281              	.L17:
 282              		.align	2
 283              	.L16:
 284 0028 00740040 		.word	1073771520
 285              		.cfi_endproc
 286              	.LFE127:
 288              		.section	.text.DAC_DualSoftwareTriggerCmd,"ax",%progbits
 289              		.align	1
 290              		.global	DAC_DualSoftwareTriggerCmd
 291              		.syntax unified
 292              		.thumb
 293              		.thumb_func
 294              		.fpu fpv4-sp-d16
 296              	DAC_DualSoftwareTriggerCmd:
 297              	.LVL23:
 298              	.LFB128:
 304:Libraries/STM32F4xx_StdPeriph_Driver/src/stm32f4xx_dac.c **** 
 305:Libraries/STM32F4xx_StdPeriph_Driver/src/stm32f4xx_dac.c **** /**
 306:Libraries/STM32F4xx_StdPeriph_Driver/src/stm32f4xx_dac.c ****   * @brief  Enables or disables simultaneously the two DAC channels software triggers.
 307:Libraries/STM32F4xx_StdPeriph_Driver/src/stm32f4xx_dac.c ****   * @param  NewState: new state of the DAC channels software triggers.
 308:Libraries/STM32F4xx_StdPeriph_Driver/src/stm32f4xx_dac.c ****   *          This parameter can be: ENABLE or DISABLE.
 309:Libraries/STM32F4xx_StdPeriph_Driver/src/stm32f4xx_dac.c ****   * @retval None
 310:Libraries/STM32F4xx_StdPeriph_Driver/src/stm32f4xx_dac.c ****   */
 311:Libraries/STM32F4xx_StdPeriph_Driver/src/stm32f4xx_dac.c **** void DAC_DualSoftwareTriggerCmd(FunctionalState NewState)
 312:Libraries/STM32F4xx_StdPeriph_Driver/src/stm32f4xx_dac.c **** {
 299              		.loc 1 312 1 is_stmt 1 view -0
 300              		.cfi_startproc
 301              		@ args = 0, pretend = 0, frame = 0
 302              		@ frame_needed = 0, uses_anonymous_args = 0
 303              		@ link register save eliminated.
 313:Libraries/STM32F4xx_StdPeriph_Driver/src/stm32f4xx_dac.c ****   /* Check the parameters */
 314:Libraries/STM32F4xx_StdPeriph_Driver/src/stm32f4xx_dac.c ****   assert_param(IS_FUNCTIONAL_STATE(NewState));
 304              		.loc 1 314 3 view .LVU73
 315:Libraries/STM32F4xx_StdPeriph_Driver/src/stm32f4xx_dac.c **** 
 316:Libraries/STM32F4xx_StdPeriph_Driver/src/stm32f4xx_dac.c ****   if (NewState != DISABLE)
 305              		.loc 1 316 3 view .LVU74
 306              		.loc 1 316 6 is_stmt 0 view .LVU75
 307 0000 28B1     		cbz	r0, .L19
 317:Libraries/STM32F4xx_StdPeriph_Driver/src/stm32f4xx_dac.c ****   {
 318:Libraries/STM32F4xx_StdPeriph_Driver/src/stm32f4xx_dac.c ****     /* Enable software trigger for both DAC channels */
 319:Libraries/STM32F4xx_StdPeriph_Driver/src/stm32f4xx_dac.c ****     DAC->SWTRIGR |= DUAL_SWTRIG_SET;
 308              		.loc 1 319 5 is_stmt 1 view .LVU76
 309              		.loc 1 319 18 is_stmt 0 view .LVU77
 310 0002 064A     		ldr	r2, .L21
 311 0004 5368     		ldr	r3, [r2, #4]
 312 0006 43F00303 		orr	r3, r3, #3
 313 000a 5360     		str	r3, [r2, #4]
 314 000c 7047     		bx	lr
 315              	.L19:
 320:Libraries/STM32F4xx_StdPeriph_Driver/src/stm32f4xx_dac.c ****   }
 321:Libraries/STM32F4xx_StdPeriph_Driver/src/stm32f4xx_dac.c ****   else
 322:Libraries/STM32F4xx_StdPeriph_Driver/src/stm32f4xx_dac.c ****   {
ARM GAS  /tmp/ccVzVw77.s 			page 12


 323:Libraries/STM32F4xx_StdPeriph_Driver/src/stm32f4xx_dac.c ****     /* Disable software trigger for both DAC channels */
 324:Libraries/STM32F4xx_StdPeriph_Driver/src/stm32f4xx_dac.c ****     DAC->SWTRIGR &= DUAL_SWTRIG_RESET;
 316              		.loc 1 324 5 is_stmt 1 view .LVU78
 317              		.loc 1 324 18 is_stmt 0 view .LVU79
 318 000e 034A     		ldr	r2, .L21
 319 0010 5368     		ldr	r3, [r2, #4]
 320 0012 23F00303 		bic	r3, r3, #3
 321 0016 5360     		str	r3, [r2, #4]
 325:Libraries/STM32F4xx_StdPeriph_Driver/src/stm32f4xx_dac.c ****   }
 326:Libraries/STM32F4xx_StdPeriph_Driver/src/stm32f4xx_dac.c **** }
 322              		.loc 1 326 1 view .LVU80
 323 0018 7047     		bx	lr
 324              	.L22:
 325 001a 00BF     		.align	2
 326              	.L21:
 327 001c 00740040 		.word	1073771520
 328              		.cfi_endproc
 329              	.LFE128:
 331              		.section	.text.DAC_WaveGenerationCmd,"ax",%progbits
 332              		.align	1
 333              		.global	DAC_WaveGenerationCmd
 334              		.syntax unified
 335              		.thumb
 336              		.thumb_func
 337              		.fpu fpv4-sp-d16
 339              	DAC_WaveGenerationCmd:
 340              	.LVL24:
 341              	.LFB129:
 327:Libraries/STM32F4xx_StdPeriph_Driver/src/stm32f4xx_dac.c **** 
 328:Libraries/STM32F4xx_StdPeriph_Driver/src/stm32f4xx_dac.c **** /**
 329:Libraries/STM32F4xx_StdPeriph_Driver/src/stm32f4xx_dac.c ****   * @brief  Enables or disables the selected DAC channel wave generation.
 330:Libraries/STM32F4xx_StdPeriph_Driver/src/stm32f4xx_dac.c ****   * @param  DAC_Channel: The selected DAC channel. 
 331:Libraries/STM32F4xx_StdPeriph_Driver/src/stm32f4xx_dac.c ****   *          This parameter can be one of the following values:
 332:Libraries/STM32F4xx_StdPeriph_Driver/src/stm32f4xx_dac.c ****   *            @arg DAC_Channel_1: DAC Channel1 selected
 333:Libraries/STM32F4xx_StdPeriph_Driver/src/stm32f4xx_dac.c ****   *            @arg DAC_Channel_2: DAC Channel2 selected
 334:Libraries/STM32F4xx_StdPeriph_Driver/src/stm32f4xx_dac.c ****   * @param  DAC_Wave: specifies the wave type to enable or disable.
 335:Libraries/STM32F4xx_StdPeriph_Driver/src/stm32f4xx_dac.c ****   *          This parameter can be one of the following values:
 336:Libraries/STM32F4xx_StdPeriph_Driver/src/stm32f4xx_dac.c ****   *            @arg DAC_Wave_Noise: noise wave generation
 337:Libraries/STM32F4xx_StdPeriph_Driver/src/stm32f4xx_dac.c ****   *            @arg DAC_Wave_Triangle: triangle wave generation
 338:Libraries/STM32F4xx_StdPeriph_Driver/src/stm32f4xx_dac.c ****   * @param  NewState: new state of the selected DAC channel wave generation.
 339:Libraries/STM32F4xx_StdPeriph_Driver/src/stm32f4xx_dac.c ****   *          This parameter can be: ENABLE or DISABLE.  
 340:Libraries/STM32F4xx_StdPeriph_Driver/src/stm32f4xx_dac.c ****   * @retval None
 341:Libraries/STM32F4xx_StdPeriph_Driver/src/stm32f4xx_dac.c ****   */
 342:Libraries/STM32F4xx_StdPeriph_Driver/src/stm32f4xx_dac.c **** void DAC_WaveGenerationCmd(uint32_t DAC_Channel, uint32_t DAC_Wave, FunctionalState NewState)
 343:Libraries/STM32F4xx_StdPeriph_Driver/src/stm32f4xx_dac.c **** {
 342              		.loc 1 343 1 is_stmt 1 view -0
 343              		.cfi_startproc
 344              		@ args = 0, pretend = 0, frame = 0
 345              		@ frame_needed = 0, uses_anonymous_args = 0
 346              		@ link register save eliminated.
 344:Libraries/STM32F4xx_StdPeriph_Driver/src/stm32f4xx_dac.c ****   /* Check the parameters */
 345:Libraries/STM32F4xx_StdPeriph_Driver/src/stm32f4xx_dac.c ****   assert_param(IS_DAC_CHANNEL(DAC_Channel));
 347              		.loc 1 345 3 view .LVU82
 346:Libraries/STM32F4xx_StdPeriph_Driver/src/stm32f4xx_dac.c ****   assert_param(IS_DAC_WAVE(DAC_Wave)); 
 348              		.loc 1 346 3 view .LVU83
 347:Libraries/STM32F4xx_StdPeriph_Driver/src/stm32f4xx_dac.c ****   assert_param(IS_FUNCTIONAL_STATE(NewState));
 349              		.loc 1 347 3 view .LVU84
ARM GAS  /tmp/ccVzVw77.s 			page 13


 348:Libraries/STM32F4xx_StdPeriph_Driver/src/stm32f4xx_dac.c **** 
 349:Libraries/STM32F4xx_StdPeriph_Driver/src/stm32f4xx_dac.c ****   if (NewState != DISABLE)
 350              		.loc 1 349 3 view .LVU85
 351              		.loc 1 349 6 is_stmt 0 view .LVU86
 352 0000 2AB1     		cbz	r2, .L24
 350:Libraries/STM32F4xx_StdPeriph_Driver/src/stm32f4xx_dac.c ****   {
 351:Libraries/STM32F4xx_StdPeriph_Driver/src/stm32f4xx_dac.c ****     /* Enable the selected wave generation for the selected DAC channel */
 352:Libraries/STM32F4xx_StdPeriph_Driver/src/stm32f4xx_dac.c ****     DAC->CR |= DAC_Wave << DAC_Channel;
 353              		.loc 1 352 5 is_stmt 1 view .LVU87
 354              		.loc 1 352 13 is_stmt 0 view .LVU88
 355 0002 064A     		ldr	r2, .L26
 356              	.LVL25:
 357              		.loc 1 352 13 view .LVU89
 358 0004 1368     		ldr	r3, [r2]
 359              		.loc 1 352 25 view .LVU90
 360 0006 8140     		lsls	r1, r1, r0
 361              	.LVL26:
 362              		.loc 1 352 13 view .LVU91
 363 0008 1943     		orrs	r1, r1, r3
 364 000a 1160     		str	r1, [r2]
 365 000c 7047     		bx	lr
 366              	.LVL27:
 367              	.L24:
 353:Libraries/STM32F4xx_StdPeriph_Driver/src/stm32f4xx_dac.c ****   }
 354:Libraries/STM32F4xx_StdPeriph_Driver/src/stm32f4xx_dac.c ****   else
 355:Libraries/STM32F4xx_StdPeriph_Driver/src/stm32f4xx_dac.c ****   {
 356:Libraries/STM32F4xx_StdPeriph_Driver/src/stm32f4xx_dac.c ****     /* Disable the selected wave generation for the selected DAC channel */
 357:Libraries/STM32F4xx_StdPeriph_Driver/src/stm32f4xx_dac.c ****     DAC->CR &= ~(DAC_Wave << DAC_Channel);
 368              		.loc 1 357 5 is_stmt 1 view .LVU92
 369              		.loc 1 357 13 is_stmt 0 view .LVU93
 370 000e 034A     		ldr	r2, .L26
 371              	.LVL28:
 372              		.loc 1 357 13 view .LVU94
 373 0010 1368     		ldr	r3, [r2]
 374              		.loc 1 357 27 view .LVU95
 375 0012 8140     		lsls	r1, r1, r0
 376              	.LVL29:
 377              		.loc 1 357 13 view .LVU96
 378 0014 23EA0101 		bic	r1, r3, r1
 379 0018 1160     		str	r1, [r2]
 358:Libraries/STM32F4xx_StdPeriph_Driver/src/stm32f4xx_dac.c ****   }
 359:Libraries/STM32F4xx_StdPeriph_Driver/src/stm32f4xx_dac.c **** }
 380              		.loc 1 359 1 view .LVU97
 381 001a 7047     		bx	lr
 382              	.L27:
 383              		.align	2
 384              	.L26:
 385 001c 00740040 		.word	1073771520
 386              		.cfi_endproc
 387              	.LFE129:
 389              		.section	.text.DAC_SetChannel1Data,"ax",%progbits
 390              		.align	1
 391              		.global	DAC_SetChannel1Data
 392              		.syntax unified
 393              		.thumb
 394              		.thumb_func
 395              		.fpu fpv4-sp-d16
ARM GAS  /tmp/ccVzVw77.s 			page 14


 397              	DAC_SetChannel1Data:
 398              	.LVL30:
 399              	.LFB130:
 360:Libraries/STM32F4xx_StdPeriph_Driver/src/stm32f4xx_dac.c **** 
 361:Libraries/STM32F4xx_StdPeriph_Driver/src/stm32f4xx_dac.c **** /**
 362:Libraries/STM32F4xx_StdPeriph_Driver/src/stm32f4xx_dac.c ****   * @brief  Set the specified data holding register value for DAC channel1.
 363:Libraries/STM32F4xx_StdPeriph_Driver/src/stm32f4xx_dac.c ****   * @param  DAC_Align: Specifies the data alignment for DAC channel1.
 364:Libraries/STM32F4xx_StdPeriph_Driver/src/stm32f4xx_dac.c ****   *          This parameter can be one of the following values:
 365:Libraries/STM32F4xx_StdPeriph_Driver/src/stm32f4xx_dac.c ****   *            @arg DAC_Align_8b_R: 8bit right data alignment selected
 366:Libraries/STM32F4xx_StdPeriph_Driver/src/stm32f4xx_dac.c ****   *            @arg DAC_Align_12b_L: 12bit left data alignment selected
 367:Libraries/STM32F4xx_StdPeriph_Driver/src/stm32f4xx_dac.c ****   *            @arg DAC_Align_12b_R: 12bit right data alignment selected
 368:Libraries/STM32F4xx_StdPeriph_Driver/src/stm32f4xx_dac.c ****   * @param  Data: Data to be loaded in the selected data holding register.
 369:Libraries/STM32F4xx_StdPeriph_Driver/src/stm32f4xx_dac.c ****   * @retval None
 370:Libraries/STM32F4xx_StdPeriph_Driver/src/stm32f4xx_dac.c ****   */
 371:Libraries/STM32F4xx_StdPeriph_Driver/src/stm32f4xx_dac.c **** void DAC_SetChannel1Data(uint32_t DAC_Align, uint16_t Data)
 372:Libraries/STM32F4xx_StdPeriph_Driver/src/stm32f4xx_dac.c **** {  
 400              		.loc 1 372 1 is_stmt 1 view -0
 401              		.cfi_startproc
 402              		@ args = 0, pretend = 0, frame = 8
 403              		@ frame_needed = 0, uses_anonymous_args = 0
 404              		@ link register save eliminated.
 405              		.loc 1 372 1 is_stmt 0 view .LVU99
 406 0000 82B0     		sub	sp, sp, #8
 407              	.LCFI3:
 408              		.cfi_def_cfa_offset 8
 373:Libraries/STM32F4xx_StdPeriph_Driver/src/stm32f4xx_dac.c ****   __IO uint32_t tmp = 0;
 409              		.loc 1 373 3 is_stmt 1 view .LVU100
 410              		.loc 1 373 17 is_stmt 0 view .LVU101
 411 0002 0023     		movs	r3, #0
 412 0004 0193     		str	r3, [sp, #4]
 374:Libraries/STM32F4xx_StdPeriph_Driver/src/stm32f4xx_dac.c ****   
 375:Libraries/STM32F4xx_StdPeriph_Driver/src/stm32f4xx_dac.c ****   /* Check the parameters */
 376:Libraries/STM32F4xx_StdPeriph_Driver/src/stm32f4xx_dac.c ****   assert_param(IS_DAC_ALIGN(DAC_Align));
 413              		.loc 1 376 3 is_stmt 1 view .LVU102
 377:Libraries/STM32F4xx_StdPeriph_Driver/src/stm32f4xx_dac.c ****   assert_param(IS_DAC_DATA(Data));
 414              		.loc 1 377 3 view .LVU103
 378:Libraries/STM32F4xx_StdPeriph_Driver/src/stm32f4xx_dac.c ****   
 379:Libraries/STM32F4xx_StdPeriph_Driver/src/stm32f4xx_dac.c ****   tmp = (uint32_t)DAC_BASE; 
 415              		.loc 1 379 3 view .LVU104
 416              		.loc 1 379 7 is_stmt 0 view .LVU105
 417 0006 054B     		ldr	r3, .L30
 418 0008 0193     		str	r3, [sp, #4]
 380:Libraries/STM32F4xx_StdPeriph_Driver/src/stm32f4xx_dac.c ****   tmp += DHR12R1_OFFSET + DAC_Align;
 419              		.loc 1 380 3 is_stmt 1 view .LVU106
 420              		.loc 1 380 7 is_stmt 0 view .LVU107
 421 000a 019B     		ldr	r3, [sp, #4]
 422 000c 0344     		add	r3, r3, r0
 423 000e 0833     		adds	r3, r3, #8
 424 0010 0193     		str	r3, [sp, #4]
 381:Libraries/STM32F4xx_StdPeriph_Driver/src/stm32f4xx_dac.c **** 
 382:Libraries/STM32F4xx_StdPeriph_Driver/src/stm32f4xx_dac.c ****   /* Set the DAC channel1 selected data holding register */
 383:Libraries/STM32F4xx_StdPeriph_Driver/src/stm32f4xx_dac.c ****   *(__IO uint32_t *) tmp = Data;
 425              		.loc 1 383 3 is_stmt 1 view .LVU108
 426              		.loc 1 383 4 is_stmt 0 view .LVU109
 427 0012 019B     		ldr	r3, [sp, #4]
 428              		.loc 1 383 26 view .LVU110
 429 0014 1960     		str	r1, [r3]
ARM GAS  /tmp/ccVzVw77.s 			page 15


 384:Libraries/STM32F4xx_StdPeriph_Driver/src/stm32f4xx_dac.c **** }
 430              		.loc 1 384 1 view .LVU111
 431 0016 02B0     		add	sp, sp, #8
 432              	.LCFI4:
 433              		.cfi_def_cfa_offset 0
 434              		@ sp needed
 435 0018 7047     		bx	lr
 436              	.L31:
 437 001a 00BF     		.align	2
 438              	.L30:
 439 001c 00740040 		.word	1073771520
 440              		.cfi_endproc
 441              	.LFE130:
 443              		.section	.text.DAC_SetChannel2Data,"ax",%progbits
 444              		.align	1
 445              		.global	DAC_SetChannel2Data
 446              		.syntax unified
 447              		.thumb
 448              		.thumb_func
 449              		.fpu fpv4-sp-d16
 451              	DAC_SetChannel2Data:
 452              	.LVL31:
 453              	.LFB131:
 385:Libraries/STM32F4xx_StdPeriph_Driver/src/stm32f4xx_dac.c **** 
 386:Libraries/STM32F4xx_StdPeriph_Driver/src/stm32f4xx_dac.c **** /**
 387:Libraries/STM32F4xx_StdPeriph_Driver/src/stm32f4xx_dac.c ****   * @brief  Set the specified data holding register value for DAC channel2.
 388:Libraries/STM32F4xx_StdPeriph_Driver/src/stm32f4xx_dac.c ****   * @param  DAC_Align: Specifies the data alignment for DAC channel2.
 389:Libraries/STM32F4xx_StdPeriph_Driver/src/stm32f4xx_dac.c ****   *          This parameter can be one of the following values:
 390:Libraries/STM32F4xx_StdPeriph_Driver/src/stm32f4xx_dac.c ****   *            @arg DAC_Align_8b_R: 8bit right data alignment selected
 391:Libraries/STM32F4xx_StdPeriph_Driver/src/stm32f4xx_dac.c ****   *            @arg DAC_Align_12b_L: 12bit left data alignment selected
 392:Libraries/STM32F4xx_StdPeriph_Driver/src/stm32f4xx_dac.c ****   *            @arg DAC_Align_12b_R: 12bit right data alignment selected
 393:Libraries/STM32F4xx_StdPeriph_Driver/src/stm32f4xx_dac.c ****   * @param  Data: Data to be loaded in the selected data holding register.
 394:Libraries/STM32F4xx_StdPeriph_Driver/src/stm32f4xx_dac.c ****   * @retval None
 395:Libraries/STM32F4xx_StdPeriph_Driver/src/stm32f4xx_dac.c ****   */
 396:Libraries/STM32F4xx_StdPeriph_Driver/src/stm32f4xx_dac.c **** void DAC_SetChannel2Data(uint32_t DAC_Align, uint16_t Data)
 397:Libraries/STM32F4xx_StdPeriph_Driver/src/stm32f4xx_dac.c **** {
 454              		.loc 1 397 1 is_stmt 1 view -0
 455              		.cfi_startproc
 456              		@ args = 0, pretend = 0, frame = 8
 457              		@ frame_needed = 0, uses_anonymous_args = 0
 458              		@ link register save eliminated.
 459              		.loc 1 397 1 is_stmt 0 view .LVU113
 460 0000 82B0     		sub	sp, sp, #8
 461              	.LCFI5:
 462              		.cfi_def_cfa_offset 8
 398:Libraries/STM32F4xx_StdPeriph_Driver/src/stm32f4xx_dac.c ****   __IO uint32_t tmp = 0;
 463              		.loc 1 398 3 is_stmt 1 view .LVU114
 464              		.loc 1 398 17 is_stmt 0 view .LVU115
 465 0002 0023     		movs	r3, #0
 466 0004 0193     		str	r3, [sp, #4]
 399:Libraries/STM32F4xx_StdPeriph_Driver/src/stm32f4xx_dac.c **** 
 400:Libraries/STM32F4xx_StdPeriph_Driver/src/stm32f4xx_dac.c ****   /* Check the parameters */
 401:Libraries/STM32F4xx_StdPeriph_Driver/src/stm32f4xx_dac.c ****   assert_param(IS_DAC_ALIGN(DAC_Align));
 467              		.loc 1 401 3 is_stmt 1 view .LVU116
 402:Libraries/STM32F4xx_StdPeriph_Driver/src/stm32f4xx_dac.c ****   assert_param(IS_DAC_DATA(Data));
 468              		.loc 1 402 3 view .LVU117
 403:Libraries/STM32F4xx_StdPeriph_Driver/src/stm32f4xx_dac.c ****   
ARM GAS  /tmp/ccVzVw77.s 			page 16


 404:Libraries/STM32F4xx_StdPeriph_Driver/src/stm32f4xx_dac.c ****   tmp = (uint32_t)DAC_BASE;
 469              		.loc 1 404 3 view .LVU118
 470              		.loc 1 404 7 is_stmt 0 view .LVU119
 471 0006 054B     		ldr	r3, .L34
 472 0008 0193     		str	r3, [sp, #4]
 405:Libraries/STM32F4xx_StdPeriph_Driver/src/stm32f4xx_dac.c ****   tmp += DHR12R2_OFFSET + DAC_Align;
 473              		.loc 1 405 3 is_stmt 1 view .LVU120
 474              		.loc 1 405 7 is_stmt 0 view .LVU121
 475 000a 019B     		ldr	r3, [sp, #4]
 476 000c 0344     		add	r3, r3, r0
 477 000e 1433     		adds	r3, r3, #20
 478 0010 0193     		str	r3, [sp, #4]
 406:Libraries/STM32F4xx_StdPeriph_Driver/src/stm32f4xx_dac.c **** 
 407:Libraries/STM32F4xx_StdPeriph_Driver/src/stm32f4xx_dac.c ****   /* Set the DAC channel2 selected data holding register */
 408:Libraries/STM32F4xx_StdPeriph_Driver/src/stm32f4xx_dac.c ****   *(__IO uint32_t *)tmp = Data;
 479              		.loc 1 408 3 is_stmt 1 view .LVU122
 480              		.loc 1 408 4 is_stmt 0 view .LVU123
 481 0012 019B     		ldr	r3, [sp, #4]
 482              		.loc 1 408 25 view .LVU124
 483 0014 1960     		str	r1, [r3]
 409:Libraries/STM32F4xx_StdPeriph_Driver/src/stm32f4xx_dac.c **** }
 484              		.loc 1 409 1 view .LVU125
 485 0016 02B0     		add	sp, sp, #8
 486              	.LCFI6:
 487              		.cfi_def_cfa_offset 0
 488              		@ sp needed
 489 0018 7047     		bx	lr
 490              	.L35:
 491 001a 00BF     		.align	2
 492              	.L34:
 493 001c 00740040 		.word	1073771520
 494              		.cfi_endproc
 495              	.LFE131:
 497              		.section	.text.DAC_SetDualChannelData,"ax",%progbits
 498              		.align	1
 499              		.global	DAC_SetDualChannelData
 500              		.syntax unified
 501              		.thumb
 502              		.thumb_func
 503              		.fpu fpv4-sp-d16
 505              	DAC_SetDualChannelData:
 506              	.LVL32:
 507              	.LFB132:
 410:Libraries/STM32F4xx_StdPeriph_Driver/src/stm32f4xx_dac.c **** 
 411:Libraries/STM32F4xx_StdPeriph_Driver/src/stm32f4xx_dac.c **** /**
 412:Libraries/STM32F4xx_StdPeriph_Driver/src/stm32f4xx_dac.c ****   * @brief  Set the specified data holding register value for dual channel DAC.
 413:Libraries/STM32F4xx_StdPeriph_Driver/src/stm32f4xx_dac.c ****   * @param  DAC_Align: Specifies the data alignment for dual channel DAC.
 414:Libraries/STM32F4xx_StdPeriph_Driver/src/stm32f4xx_dac.c ****   *          This parameter can be one of the following values:
 415:Libraries/STM32F4xx_StdPeriph_Driver/src/stm32f4xx_dac.c ****   *            @arg DAC_Align_8b_R: 8bit right data alignment selected
 416:Libraries/STM32F4xx_StdPeriph_Driver/src/stm32f4xx_dac.c ****   *            @arg DAC_Align_12b_L: 12bit left data alignment selected
 417:Libraries/STM32F4xx_StdPeriph_Driver/src/stm32f4xx_dac.c ****   *            @arg DAC_Align_12b_R: 12bit right data alignment selected
 418:Libraries/STM32F4xx_StdPeriph_Driver/src/stm32f4xx_dac.c ****   * @param  Data2: Data for DAC Channel2 to be loaded in the selected data holding register.
 419:Libraries/STM32F4xx_StdPeriph_Driver/src/stm32f4xx_dac.c ****   * @param  Data1: Data for DAC Channel1 to be loaded in the selected data  holding register.
 420:Libraries/STM32F4xx_StdPeriph_Driver/src/stm32f4xx_dac.c ****   * @note   In dual mode, a unique register access is required to write in both
 421:Libraries/STM32F4xx_StdPeriph_Driver/src/stm32f4xx_dac.c ****   *          DAC channels at the same time.
 422:Libraries/STM32F4xx_StdPeriph_Driver/src/stm32f4xx_dac.c ****   * @retval None
 423:Libraries/STM32F4xx_StdPeriph_Driver/src/stm32f4xx_dac.c ****   */
ARM GAS  /tmp/ccVzVw77.s 			page 17


 424:Libraries/STM32F4xx_StdPeriph_Driver/src/stm32f4xx_dac.c **** void DAC_SetDualChannelData(uint32_t DAC_Align, uint16_t Data2, uint16_t Data1)
 425:Libraries/STM32F4xx_StdPeriph_Driver/src/stm32f4xx_dac.c **** {
 508              		.loc 1 425 1 is_stmt 1 view -0
 509              		.cfi_startproc
 510              		@ args = 0, pretend = 0, frame = 0
 511              		@ frame_needed = 0, uses_anonymous_args = 0
 512              		@ link register save eliminated.
 426:Libraries/STM32F4xx_StdPeriph_Driver/src/stm32f4xx_dac.c ****   uint32_t data = 0, tmp = 0;
 513              		.loc 1 426 3 view .LVU127
 427:Libraries/STM32F4xx_StdPeriph_Driver/src/stm32f4xx_dac.c ****   
 428:Libraries/STM32F4xx_StdPeriph_Driver/src/stm32f4xx_dac.c ****   /* Check the parameters */
 429:Libraries/STM32F4xx_StdPeriph_Driver/src/stm32f4xx_dac.c ****   assert_param(IS_DAC_ALIGN(DAC_Align));
 514              		.loc 1 429 3 view .LVU128
 430:Libraries/STM32F4xx_StdPeriph_Driver/src/stm32f4xx_dac.c ****   assert_param(IS_DAC_DATA(Data1));
 515              		.loc 1 430 3 view .LVU129
 431:Libraries/STM32F4xx_StdPeriph_Driver/src/stm32f4xx_dac.c ****   assert_param(IS_DAC_DATA(Data2));
 516              		.loc 1 431 3 view .LVU130
 432:Libraries/STM32F4xx_StdPeriph_Driver/src/stm32f4xx_dac.c ****   
 433:Libraries/STM32F4xx_StdPeriph_Driver/src/stm32f4xx_dac.c ****   /* Calculate and set dual DAC data holding register value */
 434:Libraries/STM32F4xx_StdPeriph_Driver/src/stm32f4xx_dac.c ****   if (DAC_Align == DAC_Align_8b_R)
 517              		.loc 1 434 3 view .LVU131
 518              		.loc 1 434 6 is_stmt 0 view .LVU132
 519 0000 0828     		cmp	r0, #8
 520 0002 04D0     		beq	.L39
 435:Libraries/STM32F4xx_StdPeriph_Driver/src/stm32f4xx_dac.c ****   {
 436:Libraries/STM32F4xx_StdPeriph_Driver/src/stm32f4xx_dac.c ****     data = ((uint32_t)Data2 << 8) | Data1; 
 437:Libraries/STM32F4xx_StdPeriph_Driver/src/stm32f4xx_dac.c ****   }
 438:Libraries/STM32F4xx_StdPeriph_Driver/src/stm32f4xx_dac.c ****   else
 439:Libraries/STM32F4xx_StdPeriph_Driver/src/stm32f4xx_dac.c ****   {
 440:Libraries/STM32F4xx_StdPeriph_Driver/src/stm32f4xx_dac.c ****     data = ((uint32_t)Data2 << 16) | Data1;
 521              		.loc 1 440 5 is_stmt 1 view .LVU133
 522              		.loc 1 440 10 is_stmt 0 view .LVU134
 523 0004 42EA0142 		orr	r2, r2, r1, lsl #16
 524              	.LVL33:
 525              	.L38:
 441:Libraries/STM32F4xx_StdPeriph_Driver/src/stm32f4xx_dac.c ****   }
 442:Libraries/STM32F4xx_StdPeriph_Driver/src/stm32f4xx_dac.c ****   
 443:Libraries/STM32F4xx_StdPeriph_Driver/src/stm32f4xx_dac.c ****   tmp = (uint32_t)DAC_BASE;
 526              		.loc 1 443 3 is_stmt 1 view .LVU135
 444:Libraries/STM32F4xx_StdPeriph_Driver/src/stm32f4xx_dac.c ****   tmp += DHR12RD_OFFSET + DAC_Align;
 527              		.loc 1 444 3 view .LVU136
 528              		.loc 1 444 7 is_stmt 0 view .LVU137
 529 0008 024B     		ldr	r3, .L40
 530              	.LVL34:
 445:Libraries/STM32F4xx_StdPeriph_Driver/src/stm32f4xx_dac.c **** 
 446:Libraries/STM32F4xx_StdPeriph_Driver/src/stm32f4xx_dac.c ****   /* Set the dual DAC selected data holding register */
 447:Libraries/STM32F4xx_StdPeriph_Driver/src/stm32f4xx_dac.c ****   *(__IO uint32_t *)tmp = data;
 531              		.loc 1 447 3 is_stmt 1 view .LVU138
 532              		.loc 1 447 25 is_stmt 0 view .LVU139
 533 000a C250     		str	r2, [r0, r3]
 448:Libraries/STM32F4xx_StdPeriph_Driver/src/stm32f4xx_dac.c **** }
 534              		.loc 1 448 1 view .LVU140
 535 000c 7047     		bx	lr
 536              	.LVL35:
 537              	.L39:
 436:Libraries/STM32F4xx_StdPeriph_Driver/src/stm32f4xx_dac.c ****   }
 538              		.loc 1 436 5 is_stmt 1 view .LVU141
ARM GAS  /tmp/ccVzVw77.s 			page 18


 436:Libraries/STM32F4xx_StdPeriph_Driver/src/stm32f4xx_dac.c ****   }
 539              		.loc 1 436 10 is_stmt 0 view .LVU142
 540 000e 42EA0122 		orr	r2, r2, r1, lsl #8
 541              	.LVL36:
 436:Libraries/STM32F4xx_StdPeriph_Driver/src/stm32f4xx_dac.c ****   }
 542              		.loc 1 436 10 view .LVU143
 543 0012 F9E7     		b	.L38
 544              	.L41:
 545              		.align	2
 546              	.L40:
 547 0014 20740040 		.word	1073771552
 548              		.cfi_endproc
 549              	.LFE132:
 551              		.section	.text.DAC_GetDataOutputValue,"ax",%progbits
 552              		.align	1
 553              		.global	DAC_GetDataOutputValue
 554              		.syntax unified
 555              		.thumb
 556              		.thumb_func
 557              		.fpu fpv4-sp-d16
 559              	DAC_GetDataOutputValue:
 560              	.LVL37:
 561              	.LFB133:
 449:Libraries/STM32F4xx_StdPeriph_Driver/src/stm32f4xx_dac.c **** 
 450:Libraries/STM32F4xx_StdPeriph_Driver/src/stm32f4xx_dac.c **** /**
 451:Libraries/STM32F4xx_StdPeriph_Driver/src/stm32f4xx_dac.c ****   * @brief  Returns the last data output value of the selected DAC channel.
 452:Libraries/STM32F4xx_StdPeriph_Driver/src/stm32f4xx_dac.c ****   * @param  DAC_Channel: The selected DAC channel. 
 453:Libraries/STM32F4xx_StdPeriph_Driver/src/stm32f4xx_dac.c ****   *          This parameter can be one of the following values:
 454:Libraries/STM32F4xx_StdPeriph_Driver/src/stm32f4xx_dac.c ****   *            @arg DAC_Channel_1: DAC Channel1 selected
 455:Libraries/STM32F4xx_StdPeriph_Driver/src/stm32f4xx_dac.c ****   *            @arg DAC_Channel_2: DAC Channel2 selected
 456:Libraries/STM32F4xx_StdPeriph_Driver/src/stm32f4xx_dac.c ****   * @retval The selected DAC channel data output value.
 457:Libraries/STM32F4xx_StdPeriph_Driver/src/stm32f4xx_dac.c ****   */
 458:Libraries/STM32F4xx_StdPeriph_Driver/src/stm32f4xx_dac.c **** uint16_t DAC_GetDataOutputValue(uint32_t DAC_Channel)
 459:Libraries/STM32F4xx_StdPeriph_Driver/src/stm32f4xx_dac.c **** {
 562              		.loc 1 459 1 is_stmt 1 view -0
 563              		.cfi_startproc
 564              		@ args = 0, pretend = 0, frame = 8
 565              		@ frame_needed = 0, uses_anonymous_args = 0
 566              		@ link register save eliminated.
 567              		.loc 1 459 1 is_stmt 0 view .LVU145
 568 0000 82B0     		sub	sp, sp, #8
 569              	.LCFI7:
 570              		.cfi_def_cfa_offset 8
 460:Libraries/STM32F4xx_StdPeriph_Driver/src/stm32f4xx_dac.c ****   __IO uint32_t tmp = 0;
 571              		.loc 1 460 3 is_stmt 1 view .LVU146
 572              		.loc 1 460 17 is_stmt 0 view .LVU147
 573 0002 0023     		movs	r3, #0
 574 0004 0193     		str	r3, [sp, #4]
 461:Libraries/STM32F4xx_StdPeriph_Driver/src/stm32f4xx_dac.c ****   
 462:Libraries/STM32F4xx_StdPeriph_Driver/src/stm32f4xx_dac.c ****   /* Check the parameters */
 463:Libraries/STM32F4xx_StdPeriph_Driver/src/stm32f4xx_dac.c ****   assert_param(IS_DAC_CHANNEL(DAC_Channel));
 575              		.loc 1 463 3 is_stmt 1 view .LVU148
 464:Libraries/STM32F4xx_StdPeriph_Driver/src/stm32f4xx_dac.c ****   
 465:Libraries/STM32F4xx_StdPeriph_Driver/src/stm32f4xx_dac.c ****   tmp = (uint32_t) DAC_BASE ;
 576              		.loc 1 465 3 view .LVU149
 577              		.loc 1 465 7 is_stmt 0 view .LVU150
 578 0006 064B     		ldr	r3, .L44
ARM GAS  /tmp/ccVzVw77.s 			page 19


 579 0008 0193     		str	r3, [sp, #4]
 466:Libraries/STM32F4xx_StdPeriph_Driver/src/stm32f4xx_dac.c ****   tmp += DOR_OFFSET + ((uint32_t)DAC_Channel >> 2);
 580              		.loc 1 466 3 is_stmt 1 view .LVU151
 581              		.loc 1 466 7 is_stmt 0 view .LVU152
 582 000a 019B     		ldr	r3, [sp, #4]
 583 000c 03EB9003 		add	r3, r3, r0, lsr #2
 584 0010 2C33     		adds	r3, r3, #44
 585 0012 0193     		str	r3, [sp, #4]
 467:Libraries/STM32F4xx_StdPeriph_Driver/src/stm32f4xx_dac.c ****   
 468:Libraries/STM32F4xx_StdPeriph_Driver/src/stm32f4xx_dac.c ****   /* Returns the DAC channel data output register value */
 469:Libraries/STM32F4xx_StdPeriph_Driver/src/stm32f4xx_dac.c ****   return (uint16_t) (*(__IO uint32_t*) tmp);
 586              		.loc 1 469 3 is_stmt 1 view .LVU153
 587              		.loc 1 469 23 is_stmt 0 view .LVU154
 588 0014 019B     		ldr	r3, [sp, #4]
 589              		.loc 1 469 22 view .LVU155
 590 0016 1868     		ldr	r0, [r3]
 591              	.LVL38:
 470:Libraries/STM32F4xx_StdPeriph_Driver/src/stm32f4xx_dac.c **** }
 592              		.loc 1 470 1 view .LVU156
 593 0018 80B2     		uxth	r0, r0
 594 001a 02B0     		add	sp, sp, #8
 595              	.LCFI8:
 596              		.cfi_def_cfa_offset 0
 597              		@ sp needed
 598 001c 7047     		bx	lr
 599              	.L45:
 600 001e 00BF     		.align	2
 601              	.L44:
 602 0020 00740040 		.word	1073771520
 603              		.cfi_endproc
 604              	.LFE133:
 606              		.section	.text.DAC_DMACmd,"ax",%progbits
 607              		.align	1
 608              		.global	DAC_DMACmd
 609              		.syntax unified
 610              		.thumb
 611              		.thumb_func
 612              		.fpu fpv4-sp-d16
 614              	DAC_DMACmd:
 615              	.LVL39:
 616              	.LFB134:
 471:Libraries/STM32F4xx_StdPeriph_Driver/src/stm32f4xx_dac.c **** /**
 472:Libraries/STM32F4xx_StdPeriph_Driver/src/stm32f4xx_dac.c ****   * @}
 473:Libraries/STM32F4xx_StdPeriph_Driver/src/stm32f4xx_dac.c ****   */
 474:Libraries/STM32F4xx_StdPeriph_Driver/src/stm32f4xx_dac.c **** 
 475:Libraries/STM32F4xx_StdPeriph_Driver/src/stm32f4xx_dac.c **** /** @defgroup DAC_Group2 DMA management functions
 476:Libraries/STM32F4xx_StdPeriph_Driver/src/stm32f4xx_dac.c ****  *  @brief   DMA management functions
 477:Libraries/STM32F4xx_StdPeriph_Driver/src/stm32f4xx_dac.c ****  *
 478:Libraries/STM32F4xx_StdPeriph_Driver/src/stm32f4xx_dac.c **** @verbatim   
 479:Libraries/STM32F4xx_StdPeriph_Driver/src/stm32f4xx_dac.c ****  ===============================================================================
 480:Libraries/STM32F4xx_StdPeriph_Driver/src/stm32f4xx_dac.c ****                        ##### DMA management functions #####
 481:Libraries/STM32F4xx_StdPeriph_Driver/src/stm32f4xx_dac.c ****  ===============================================================================  
 482:Libraries/STM32F4xx_StdPeriph_Driver/src/stm32f4xx_dac.c **** 
 483:Libraries/STM32F4xx_StdPeriph_Driver/src/stm32f4xx_dac.c **** @endverbatim
 484:Libraries/STM32F4xx_StdPeriph_Driver/src/stm32f4xx_dac.c ****   * @{
 485:Libraries/STM32F4xx_StdPeriph_Driver/src/stm32f4xx_dac.c ****   */
 486:Libraries/STM32F4xx_StdPeriph_Driver/src/stm32f4xx_dac.c **** 
ARM GAS  /tmp/ccVzVw77.s 			page 20


 487:Libraries/STM32F4xx_StdPeriph_Driver/src/stm32f4xx_dac.c **** /**
 488:Libraries/STM32F4xx_StdPeriph_Driver/src/stm32f4xx_dac.c ****   * @brief  Enables or disables the specified DAC channel DMA request.
 489:Libraries/STM32F4xx_StdPeriph_Driver/src/stm32f4xx_dac.c ****   * @note   When enabled DMA1 is generated when an external trigger (EXTI Line9,
 490:Libraries/STM32F4xx_StdPeriph_Driver/src/stm32f4xx_dac.c ****   *         TIM2, TIM4, TIM5, TIM6, TIM7 or TIM8  but not a software trigger) occurs.
 491:Libraries/STM32F4xx_StdPeriph_Driver/src/stm32f4xx_dac.c ****   * @param  DAC_Channel: The selected DAC channel. 
 492:Libraries/STM32F4xx_StdPeriph_Driver/src/stm32f4xx_dac.c ****   *          This parameter can be one of the following values:
 493:Libraries/STM32F4xx_StdPeriph_Driver/src/stm32f4xx_dac.c ****   *            @arg DAC_Channel_1: DAC Channel1 selected
 494:Libraries/STM32F4xx_StdPeriph_Driver/src/stm32f4xx_dac.c ****   *            @arg DAC_Channel_2: DAC Channel2 selected
 495:Libraries/STM32F4xx_StdPeriph_Driver/src/stm32f4xx_dac.c ****   * @param  NewState: new state of the selected DAC channel DMA request.
 496:Libraries/STM32F4xx_StdPeriph_Driver/src/stm32f4xx_dac.c ****   *          This parameter can be: ENABLE or DISABLE.
 497:Libraries/STM32F4xx_StdPeriph_Driver/src/stm32f4xx_dac.c ****   * @note   The DAC channel1 is mapped on DMA1 Stream 5 channel7 which must be
 498:Libraries/STM32F4xx_StdPeriph_Driver/src/stm32f4xx_dac.c ****   *          already configured.
 499:Libraries/STM32F4xx_StdPeriph_Driver/src/stm32f4xx_dac.c ****   * @note   The DAC channel2 is mapped on DMA1 Stream 6 channel7 which must be
 500:Libraries/STM32F4xx_StdPeriph_Driver/src/stm32f4xx_dac.c ****   *          already configured.    
 501:Libraries/STM32F4xx_StdPeriph_Driver/src/stm32f4xx_dac.c ****   * @retval None
 502:Libraries/STM32F4xx_StdPeriph_Driver/src/stm32f4xx_dac.c ****   */
 503:Libraries/STM32F4xx_StdPeriph_Driver/src/stm32f4xx_dac.c **** void DAC_DMACmd(uint32_t DAC_Channel, FunctionalState NewState)
 504:Libraries/STM32F4xx_StdPeriph_Driver/src/stm32f4xx_dac.c **** {
 617              		.loc 1 504 1 is_stmt 1 view -0
 618              		.cfi_startproc
 619              		@ args = 0, pretend = 0, frame = 0
 620              		@ frame_needed = 0, uses_anonymous_args = 0
 621              		@ link register save eliminated.
 505:Libraries/STM32F4xx_StdPeriph_Driver/src/stm32f4xx_dac.c ****   /* Check the parameters */
 506:Libraries/STM32F4xx_StdPeriph_Driver/src/stm32f4xx_dac.c ****   assert_param(IS_DAC_CHANNEL(DAC_Channel));
 622              		.loc 1 506 3 view .LVU158
 507:Libraries/STM32F4xx_StdPeriph_Driver/src/stm32f4xx_dac.c ****   assert_param(IS_FUNCTIONAL_STATE(NewState));
 623              		.loc 1 507 3 view .LVU159
 508:Libraries/STM32F4xx_StdPeriph_Driver/src/stm32f4xx_dac.c **** 
 509:Libraries/STM32F4xx_StdPeriph_Driver/src/stm32f4xx_dac.c ****   if (NewState != DISABLE)
 624              		.loc 1 509 3 view .LVU160
 625              		.loc 1 509 6 is_stmt 0 view .LVU161
 626 0000 41B1     		cbz	r1, .L47
 510:Libraries/STM32F4xx_StdPeriph_Driver/src/stm32f4xx_dac.c ****   {
 511:Libraries/STM32F4xx_StdPeriph_Driver/src/stm32f4xx_dac.c ****     /* Enable the selected DAC channel DMA request */
 512:Libraries/STM32F4xx_StdPeriph_Driver/src/stm32f4xx_dac.c ****     DAC->CR |= (DAC_CR_DMAEN1 << DAC_Channel);
 627              		.loc 1 512 5 is_stmt 1 view .LVU162
 628              		.loc 1 512 13 is_stmt 0 view .LVU163
 629 0002 0949     		ldr	r1, .L49
 630              	.LVL40:
 631              		.loc 1 512 13 view .LVU164
 632 0004 0B68     		ldr	r3, [r1]
 633              		.loc 1 512 31 view .LVU165
 634 0006 4FF48052 		mov	r2, #4096
 635 000a 02FA00F0 		lsl	r0, r2, r0
 636              	.LVL41:
 637              		.loc 1 512 13 view .LVU166
 638 000e 1843     		orrs	r0, r0, r3
 639 0010 0860     		str	r0, [r1]
 640 0012 7047     		bx	lr
 641              	.LVL42:
 642              	.L47:
 513:Libraries/STM32F4xx_StdPeriph_Driver/src/stm32f4xx_dac.c ****   }
 514:Libraries/STM32F4xx_StdPeriph_Driver/src/stm32f4xx_dac.c ****   else
 515:Libraries/STM32F4xx_StdPeriph_Driver/src/stm32f4xx_dac.c ****   {
 516:Libraries/STM32F4xx_StdPeriph_Driver/src/stm32f4xx_dac.c ****     /* Disable the selected DAC channel DMA request */
 517:Libraries/STM32F4xx_StdPeriph_Driver/src/stm32f4xx_dac.c ****     DAC->CR &= (~(DAC_CR_DMAEN1 << DAC_Channel));
ARM GAS  /tmp/ccVzVw77.s 			page 21


 643              		.loc 1 517 5 is_stmt 1 view .LVU167
 644              		.loc 1 517 13 is_stmt 0 view .LVU168
 645 0014 0449     		ldr	r1, .L49
 646              	.LVL43:
 647              		.loc 1 517 13 view .LVU169
 648 0016 0B68     		ldr	r3, [r1]
 649              		.loc 1 517 33 view .LVU170
 650 0018 4FF48052 		mov	r2, #4096
 651 001c 02FA00F0 		lsl	r0, r2, r0
 652              	.LVL44:
 653              		.loc 1 517 13 view .LVU171
 654 0020 23EA0000 		bic	r0, r3, r0
 655 0024 0860     		str	r0, [r1]
 518:Libraries/STM32F4xx_StdPeriph_Driver/src/stm32f4xx_dac.c ****   }
 519:Libraries/STM32F4xx_StdPeriph_Driver/src/stm32f4xx_dac.c **** }
 656              		.loc 1 519 1 view .LVU172
 657 0026 7047     		bx	lr
 658              	.L50:
 659              		.align	2
 660              	.L49:
 661 0028 00740040 		.word	1073771520
 662              		.cfi_endproc
 663              	.LFE134:
 665              		.section	.text.DAC_ITConfig,"ax",%progbits
 666              		.align	1
 667              		.global	DAC_ITConfig
 668              		.syntax unified
 669              		.thumb
 670              		.thumb_func
 671              		.fpu fpv4-sp-d16
 673              	DAC_ITConfig:
 674              	.LVL45:
 675              	.LFB135:
 520:Libraries/STM32F4xx_StdPeriph_Driver/src/stm32f4xx_dac.c **** /**
 521:Libraries/STM32F4xx_StdPeriph_Driver/src/stm32f4xx_dac.c ****   * @}
 522:Libraries/STM32F4xx_StdPeriph_Driver/src/stm32f4xx_dac.c ****   */
 523:Libraries/STM32F4xx_StdPeriph_Driver/src/stm32f4xx_dac.c **** 
 524:Libraries/STM32F4xx_StdPeriph_Driver/src/stm32f4xx_dac.c **** /** @defgroup DAC_Group3 Interrupts and flags management functions
 525:Libraries/STM32F4xx_StdPeriph_Driver/src/stm32f4xx_dac.c ****  *  @brief   Interrupts and flags management functions
 526:Libraries/STM32F4xx_StdPeriph_Driver/src/stm32f4xx_dac.c ****  *
 527:Libraries/STM32F4xx_StdPeriph_Driver/src/stm32f4xx_dac.c **** @verbatim   
 528:Libraries/STM32F4xx_StdPeriph_Driver/src/stm32f4xx_dac.c ****  ===============================================================================
 529:Libraries/STM32F4xx_StdPeriph_Driver/src/stm32f4xx_dac.c ****              ##### Interrupts and flags management functions #####
 530:Libraries/STM32F4xx_StdPeriph_Driver/src/stm32f4xx_dac.c ****  ===============================================================================  
 531:Libraries/STM32F4xx_StdPeriph_Driver/src/stm32f4xx_dac.c **** 
 532:Libraries/STM32F4xx_StdPeriph_Driver/src/stm32f4xx_dac.c **** @endverbatim
 533:Libraries/STM32F4xx_StdPeriph_Driver/src/stm32f4xx_dac.c ****   * @{
 534:Libraries/STM32F4xx_StdPeriph_Driver/src/stm32f4xx_dac.c ****   */
 535:Libraries/STM32F4xx_StdPeriph_Driver/src/stm32f4xx_dac.c **** 
 536:Libraries/STM32F4xx_StdPeriph_Driver/src/stm32f4xx_dac.c **** /**
 537:Libraries/STM32F4xx_StdPeriph_Driver/src/stm32f4xx_dac.c ****   * @brief  Enables or disables the specified DAC interrupts.
 538:Libraries/STM32F4xx_StdPeriph_Driver/src/stm32f4xx_dac.c ****   * @param  DAC_Channel: The selected DAC channel. 
 539:Libraries/STM32F4xx_StdPeriph_Driver/src/stm32f4xx_dac.c ****   *          This parameter can be one of the following values:
 540:Libraries/STM32F4xx_StdPeriph_Driver/src/stm32f4xx_dac.c ****   *            @arg DAC_Channel_1: DAC Channel1 selected
 541:Libraries/STM32F4xx_StdPeriph_Driver/src/stm32f4xx_dac.c ****   *            @arg DAC_Channel_2: DAC Channel2 selected
 542:Libraries/STM32F4xx_StdPeriph_Driver/src/stm32f4xx_dac.c ****   * @param  DAC_IT: specifies the DAC interrupt sources to be enabled or disabled. 
 543:Libraries/STM32F4xx_StdPeriph_Driver/src/stm32f4xx_dac.c ****   *          This parameter can be the following values:
ARM GAS  /tmp/ccVzVw77.s 			page 22


 544:Libraries/STM32F4xx_StdPeriph_Driver/src/stm32f4xx_dac.c ****   *            @arg DAC_IT_DMAUDR: DMA underrun interrupt mask
 545:Libraries/STM32F4xx_StdPeriph_Driver/src/stm32f4xx_dac.c ****   * @note   The DMA underrun occurs when a second external trigger arrives before the 
 546:Libraries/STM32F4xx_StdPeriph_Driver/src/stm32f4xx_dac.c ****   *         acknowledgement for the first external trigger is received (first request).
 547:Libraries/STM32F4xx_StdPeriph_Driver/src/stm32f4xx_dac.c ****   * @param  NewState: new state of the specified DAC interrupts.
 548:Libraries/STM32F4xx_StdPeriph_Driver/src/stm32f4xx_dac.c ****   *          This parameter can be: ENABLE or DISABLE.
 549:Libraries/STM32F4xx_StdPeriph_Driver/src/stm32f4xx_dac.c ****   * @retval None
 550:Libraries/STM32F4xx_StdPeriph_Driver/src/stm32f4xx_dac.c ****   */ 
 551:Libraries/STM32F4xx_StdPeriph_Driver/src/stm32f4xx_dac.c **** void DAC_ITConfig(uint32_t DAC_Channel, uint32_t DAC_IT, FunctionalState NewState)  
 552:Libraries/STM32F4xx_StdPeriph_Driver/src/stm32f4xx_dac.c **** {
 676              		.loc 1 552 1 is_stmt 1 view -0
 677              		.cfi_startproc
 678              		@ args = 0, pretend = 0, frame = 0
 679              		@ frame_needed = 0, uses_anonymous_args = 0
 680              		@ link register save eliminated.
 553:Libraries/STM32F4xx_StdPeriph_Driver/src/stm32f4xx_dac.c ****   /* Check the parameters */
 554:Libraries/STM32F4xx_StdPeriph_Driver/src/stm32f4xx_dac.c ****   assert_param(IS_DAC_CHANNEL(DAC_Channel));
 681              		.loc 1 554 3 view .LVU174
 555:Libraries/STM32F4xx_StdPeriph_Driver/src/stm32f4xx_dac.c ****   assert_param(IS_FUNCTIONAL_STATE(NewState));
 682              		.loc 1 555 3 view .LVU175
 556:Libraries/STM32F4xx_StdPeriph_Driver/src/stm32f4xx_dac.c ****   assert_param(IS_DAC_IT(DAC_IT)); 
 683              		.loc 1 556 3 view .LVU176
 557:Libraries/STM32F4xx_StdPeriph_Driver/src/stm32f4xx_dac.c **** 
 558:Libraries/STM32F4xx_StdPeriph_Driver/src/stm32f4xx_dac.c ****   if (NewState != DISABLE)
 684              		.loc 1 558 3 view .LVU177
 685              		.loc 1 558 6 is_stmt 0 view .LVU178
 686 0000 2AB1     		cbz	r2, .L52
 559:Libraries/STM32F4xx_StdPeriph_Driver/src/stm32f4xx_dac.c ****   {
 560:Libraries/STM32F4xx_StdPeriph_Driver/src/stm32f4xx_dac.c ****     /* Enable the selected DAC interrupts */
 561:Libraries/STM32F4xx_StdPeriph_Driver/src/stm32f4xx_dac.c ****     DAC->CR |=  (DAC_IT << DAC_Channel);
 687              		.loc 1 561 5 is_stmt 1 view .LVU179
 688              		.loc 1 561 13 is_stmt 0 view .LVU180
 689 0002 064A     		ldr	r2, .L54
 690              	.LVL46:
 691              		.loc 1 561 13 view .LVU181
 692 0004 1368     		ldr	r3, [r2]
 693              		.loc 1 561 25 view .LVU182
 694 0006 8140     		lsls	r1, r1, r0
 695              	.LVL47:
 696              		.loc 1 561 13 view .LVU183
 697 0008 1943     		orrs	r1, r1, r3
 698 000a 1160     		str	r1, [r2]
 699 000c 7047     		bx	lr
 700              	.LVL48:
 701              	.L52:
 562:Libraries/STM32F4xx_StdPeriph_Driver/src/stm32f4xx_dac.c ****   }
 563:Libraries/STM32F4xx_StdPeriph_Driver/src/stm32f4xx_dac.c ****   else
 564:Libraries/STM32F4xx_StdPeriph_Driver/src/stm32f4xx_dac.c ****   {
 565:Libraries/STM32F4xx_StdPeriph_Driver/src/stm32f4xx_dac.c ****     /* Disable the selected DAC interrupts */
 566:Libraries/STM32F4xx_StdPeriph_Driver/src/stm32f4xx_dac.c ****     DAC->CR &= (~(uint32_t)(DAC_IT << DAC_Channel));
 702              		.loc 1 566 5 is_stmt 1 view .LVU184
 703              		.loc 1 566 13 is_stmt 0 view .LVU185
 704 000e 034A     		ldr	r2, .L54
 705              	.LVL49:
 706              		.loc 1 566 13 view .LVU186
 707 0010 1368     		ldr	r3, [r2]
 708              		.loc 1 566 36 view .LVU187
 709 0012 8140     		lsls	r1, r1, r0
ARM GAS  /tmp/ccVzVw77.s 			page 23


 710              	.LVL50:
 711              		.loc 1 566 13 view .LVU188
 712 0014 23EA0101 		bic	r1, r3, r1
 713 0018 1160     		str	r1, [r2]
 567:Libraries/STM32F4xx_StdPeriph_Driver/src/stm32f4xx_dac.c ****   }
 568:Libraries/STM32F4xx_StdPeriph_Driver/src/stm32f4xx_dac.c **** }
 714              		.loc 1 568 1 view .LVU189
 715 001a 7047     		bx	lr
 716              	.L55:
 717              		.align	2
 718              	.L54:
 719 001c 00740040 		.word	1073771520
 720              		.cfi_endproc
 721              	.LFE135:
 723              		.section	.text.DAC_GetFlagStatus,"ax",%progbits
 724              		.align	1
 725              		.global	DAC_GetFlagStatus
 726              		.syntax unified
 727              		.thumb
 728              		.thumb_func
 729              		.fpu fpv4-sp-d16
 731              	DAC_GetFlagStatus:
 732              	.LVL51:
 733              	.LFB136:
 569:Libraries/STM32F4xx_StdPeriph_Driver/src/stm32f4xx_dac.c **** 
 570:Libraries/STM32F4xx_StdPeriph_Driver/src/stm32f4xx_dac.c **** /**
 571:Libraries/STM32F4xx_StdPeriph_Driver/src/stm32f4xx_dac.c ****   * @brief  Checks whether the specified DAC flag is set or not.
 572:Libraries/STM32F4xx_StdPeriph_Driver/src/stm32f4xx_dac.c ****   * @param  DAC_Channel: The selected DAC channel. 
 573:Libraries/STM32F4xx_StdPeriph_Driver/src/stm32f4xx_dac.c ****   *          This parameter can be one of the following values:
 574:Libraries/STM32F4xx_StdPeriph_Driver/src/stm32f4xx_dac.c ****   *            @arg DAC_Channel_1: DAC Channel1 selected
 575:Libraries/STM32F4xx_StdPeriph_Driver/src/stm32f4xx_dac.c ****   *            @arg DAC_Channel_2: DAC Channel2 selected
 576:Libraries/STM32F4xx_StdPeriph_Driver/src/stm32f4xx_dac.c ****   * @param  DAC_FLAG: specifies the flag to check. 
 577:Libraries/STM32F4xx_StdPeriph_Driver/src/stm32f4xx_dac.c ****   *          This parameter can be only of the following value:
 578:Libraries/STM32F4xx_StdPeriph_Driver/src/stm32f4xx_dac.c ****   *            @arg DAC_FLAG_DMAUDR: DMA underrun flag
 579:Libraries/STM32F4xx_StdPeriph_Driver/src/stm32f4xx_dac.c ****   * @note   The DMA underrun occurs when a second external trigger arrives before the 
 580:Libraries/STM32F4xx_StdPeriph_Driver/src/stm32f4xx_dac.c ****   *         acknowledgement for the first external trigger is received (first request).
 581:Libraries/STM32F4xx_StdPeriph_Driver/src/stm32f4xx_dac.c ****   * @retval The new state of DAC_FLAG (SET or RESET).
 582:Libraries/STM32F4xx_StdPeriph_Driver/src/stm32f4xx_dac.c ****   */
 583:Libraries/STM32F4xx_StdPeriph_Driver/src/stm32f4xx_dac.c **** FlagStatus DAC_GetFlagStatus(uint32_t DAC_Channel, uint32_t DAC_FLAG)
 584:Libraries/STM32F4xx_StdPeriph_Driver/src/stm32f4xx_dac.c **** {
 734              		.loc 1 584 1 is_stmt 1 view -0
 735              		.cfi_startproc
 736              		@ args = 0, pretend = 0, frame = 0
 737              		@ frame_needed = 0, uses_anonymous_args = 0
 738              		@ link register save eliminated.
 585:Libraries/STM32F4xx_StdPeriph_Driver/src/stm32f4xx_dac.c ****   FlagStatus bitstatus = RESET;
 739              		.loc 1 585 3 view .LVU191
 586:Libraries/STM32F4xx_StdPeriph_Driver/src/stm32f4xx_dac.c ****   /* Check the parameters */
 587:Libraries/STM32F4xx_StdPeriph_Driver/src/stm32f4xx_dac.c ****   assert_param(IS_DAC_CHANNEL(DAC_Channel));
 740              		.loc 1 587 3 view .LVU192
 588:Libraries/STM32F4xx_StdPeriph_Driver/src/stm32f4xx_dac.c ****   assert_param(IS_DAC_FLAG(DAC_FLAG));
 741              		.loc 1 588 3 view .LVU193
 589:Libraries/STM32F4xx_StdPeriph_Driver/src/stm32f4xx_dac.c **** 
 590:Libraries/STM32F4xx_StdPeriph_Driver/src/stm32f4xx_dac.c ****   /* Check the status of the specified DAC flag */
 591:Libraries/STM32F4xx_StdPeriph_Driver/src/stm32f4xx_dac.c ****   if ((DAC->SR & (DAC_FLAG << DAC_Channel)) != (uint8_t)RESET)
 742              		.loc 1 591 3 view .LVU194
 743              		.loc 1 591 11 is_stmt 0 view .LVU195
ARM GAS  /tmp/ccVzVw77.s 			page 24


 744 0000 044B     		ldr	r3, .L59
 745 0002 5B6B     		ldr	r3, [r3, #52]
 746              		.loc 1 591 28 view .LVU196
 747 0004 8140     		lsls	r1, r1, r0
 748              	.LVL52:
 749              		.loc 1 591 6 view .LVU197
 750 0006 0B42     		tst	r3, r1
 751 0008 01D0     		beq	.L58
 592:Libraries/STM32F4xx_StdPeriph_Driver/src/stm32f4xx_dac.c ****   {
 593:Libraries/STM32F4xx_StdPeriph_Driver/src/stm32f4xx_dac.c ****     /* DAC_FLAG is set */
 594:Libraries/STM32F4xx_StdPeriph_Driver/src/stm32f4xx_dac.c ****     bitstatus = SET;
 752              		.loc 1 594 15 view .LVU198
 753 000a 0120     		movs	r0, #1
 754              	.LVL53:
 755              		.loc 1 594 15 view .LVU199
 756 000c 7047     		bx	lr
 757              	.LVL54:
 758              	.L58:
 595:Libraries/STM32F4xx_StdPeriph_Driver/src/stm32f4xx_dac.c ****   }
 596:Libraries/STM32F4xx_StdPeriph_Driver/src/stm32f4xx_dac.c ****   else
 597:Libraries/STM32F4xx_StdPeriph_Driver/src/stm32f4xx_dac.c ****   {
 598:Libraries/STM32F4xx_StdPeriph_Driver/src/stm32f4xx_dac.c ****     /* DAC_FLAG is reset */
 599:Libraries/STM32F4xx_StdPeriph_Driver/src/stm32f4xx_dac.c ****     bitstatus = RESET;
 759              		.loc 1 599 15 view .LVU200
 760 000e 0020     		movs	r0, #0
 761              	.LVL55:
 600:Libraries/STM32F4xx_StdPeriph_Driver/src/stm32f4xx_dac.c ****   }
 601:Libraries/STM32F4xx_StdPeriph_Driver/src/stm32f4xx_dac.c ****   /* Return the DAC_FLAG status */
 602:Libraries/STM32F4xx_StdPeriph_Driver/src/stm32f4xx_dac.c ****   return  bitstatus;
 762              		.loc 1 602 3 is_stmt 1 view .LVU201
 603:Libraries/STM32F4xx_StdPeriph_Driver/src/stm32f4xx_dac.c **** }
 763              		.loc 1 603 1 is_stmt 0 view .LVU202
 764 0010 7047     		bx	lr
 765              	.L60:
 766 0012 00BF     		.align	2
 767              	.L59:
 768 0014 00740040 		.word	1073771520
 769              		.cfi_endproc
 770              	.LFE136:
 772              		.section	.text.DAC_ClearFlag,"ax",%progbits
 773              		.align	1
 774              		.global	DAC_ClearFlag
 775              		.syntax unified
 776              		.thumb
 777              		.thumb_func
 778              		.fpu fpv4-sp-d16
 780              	DAC_ClearFlag:
 781              	.LVL56:
 782              	.LFB137:
 604:Libraries/STM32F4xx_StdPeriph_Driver/src/stm32f4xx_dac.c **** 
 605:Libraries/STM32F4xx_StdPeriph_Driver/src/stm32f4xx_dac.c **** /**
 606:Libraries/STM32F4xx_StdPeriph_Driver/src/stm32f4xx_dac.c ****   * @brief  Clears the DAC channel's pending flags.
 607:Libraries/STM32F4xx_StdPeriph_Driver/src/stm32f4xx_dac.c ****   * @param  DAC_Channel: The selected DAC channel. 
 608:Libraries/STM32F4xx_StdPeriph_Driver/src/stm32f4xx_dac.c ****   *          This parameter can be one of the following values:
 609:Libraries/STM32F4xx_StdPeriph_Driver/src/stm32f4xx_dac.c ****   *            @arg DAC_Channel_1: DAC Channel1 selected
 610:Libraries/STM32F4xx_StdPeriph_Driver/src/stm32f4xx_dac.c ****   *            @arg DAC_Channel_2: DAC Channel2 selected
 611:Libraries/STM32F4xx_StdPeriph_Driver/src/stm32f4xx_dac.c ****   * @param  DAC_FLAG: specifies the flag to clear. 
ARM GAS  /tmp/ccVzVw77.s 			page 25


 612:Libraries/STM32F4xx_StdPeriph_Driver/src/stm32f4xx_dac.c ****   *          This parameter can be of the following value:
 613:Libraries/STM32F4xx_StdPeriph_Driver/src/stm32f4xx_dac.c ****   *            @arg DAC_FLAG_DMAUDR: DMA underrun flag 
 614:Libraries/STM32F4xx_StdPeriph_Driver/src/stm32f4xx_dac.c ****   * @note   The DMA underrun occurs when a second external trigger arrives before the 
 615:Libraries/STM32F4xx_StdPeriph_Driver/src/stm32f4xx_dac.c ****   *         acknowledgement for the first external trigger is received (first request).            
 616:Libraries/STM32F4xx_StdPeriph_Driver/src/stm32f4xx_dac.c ****   * @retval None
 617:Libraries/STM32F4xx_StdPeriph_Driver/src/stm32f4xx_dac.c ****   */
 618:Libraries/STM32F4xx_StdPeriph_Driver/src/stm32f4xx_dac.c **** void DAC_ClearFlag(uint32_t DAC_Channel, uint32_t DAC_FLAG)
 619:Libraries/STM32F4xx_StdPeriph_Driver/src/stm32f4xx_dac.c **** {
 783              		.loc 1 619 1 is_stmt 1 view -0
 784              		.cfi_startproc
 785              		@ args = 0, pretend = 0, frame = 0
 786              		@ frame_needed = 0, uses_anonymous_args = 0
 787              		@ link register save eliminated.
 620:Libraries/STM32F4xx_StdPeriph_Driver/src/stm32f4xx_dac.c ****   /* Check the parameters */
 621:Libraries/STM32F4xx_StdPeriph_Driver/src/stm32f4xx_dac.c ****   assert_param(IS_DAC_CHANNEL(DAC_Channel));
 788              		.loc 1 621 3 view .LVU204
 622:Libraries/STM32F4xx_StdPeriph_Driver/src/stm32f4xx_dac.c ****   assert_param(IS_DAC_FLAG(DAC_FLAG));
 789              		.loc 1 622 3 view .LVU205
 623:Libraries/STM32F4xx_StdPeriph_Driver/src/stm32f4xx_dac.c **** 
 624:Libraries/STM32F4xx_StdPeriph_Driver/src/stm32f4xx_dac.c ****   /* Clear the selected DAC flags */
 625:Libraries/STM32F4xx_StdPeriph_Driver/src/stm32f4xx_dac.c ****   DAC->SR = (DAC_FLAG << DAC_Channel);
 790              		.loc 1 625 3 view .LVU206
 791              		.loc 1 625 23 is_stmt 0 view .LVU207
 792 0000 8140     		lsls	r1, r1, r0
 793              	.LVL57:
 794              		.loc 1 625 11 view .LVU208
 795 0002 014B     		ldr	r3, .L62
 796 0004 5963     		str	r1, [r3, #52]
 626:Libraries/STM32F4xx_StdPeriph_Driver/src/stm32f4xx_dac.c **** }
 797              		.loc 1 626 1 view .LVU209
 798 0006 7047     		bx	lr
 799              	.L63:
 800              		.align	2
 801              	.L62:
 802 0008 00740040 		.word	1073771520
 803              		.cfi_endproc
 804              	.LFE137:
 806              		.section	.text.DAC_GetITStatus,"ax",%progbits
 807              		.align	1
 808              		.global	DAC_GetITStatus
 809              		.syntax unified
 810              		.thumb
 811              		.thumb_func
 812              		.fpu fpv4-sp-d16
 814              	DAC_GetITStatus:
 815              	.LVL58:
 816              	.LFB138:
 627:Libraries/STM32F4xx_StdPeriph_Driver/src/stm32f4xx_dac.c **** 
 628:Libraries/STM32F4xx_StdPeriph_Driver/src/stm32f4xx_dac.c **** /**
 629:Libraries/STM32F4xx_StdPeriph_Driver/src/stm32f4xx_dac.c ****   * @brief  Checks whether the specified DAC interrupt has occurred or not.
 630:Libraries/STM32F4xx_StdPeriph_Driver/src/stm32f4xx_dac.c ****   * @param  DAC_Channel: The selected DAC channel. 
 631:Libraries/STM32F4xx_StdPeriph_Driver/src/stm32f4xx_dac.c ****   *          This parameter can be one of the following values:
 632:Libraries/STM32F4xx_StdPeriph_Driver/src/stm32f4xx_dac.c ****   *            @arg DAC_Channel_1: DAC Channel1 selected
 633:Libraries/STM32F4xx_StdPeriph_Driver/src/stm32f4xx_dac.c ****   *            @arg DAC_Channel_2: DAC Channel2 selected
 634:Libraries/STM32F4xx_StdPeriph_Driver/src/stm32f4xx_dac.c ****   * @param  DAC_IT: specifies the DAC interrupt source to check. 
 635:Libraries/STM32F4xx_StdPeriph_Driver/src/stm32f4xx_dac.c ****   *          This parameter can be the following values:
 636:Libraries/STM32F4xx_StdPeriph_Driver/src/stm32f4xx_dac.c ****   *            @arg DAC_IT_DMAUDR: DMA underrun interrupt mask
ARM GAS  /tmp/ccVzVw77.s 			page 26


 637:Libraries/STM32F4xx_StdPeriph_Driver/src/stm32f4xx_dac.c ****   * @note   The DMA underrun occurs when a second external trigger arrives before the 
 638:Libraries/STM32F4xx_StdPeriph_Driver/src/stm32f4xx_dac.c ****   *         acknowledgement for the first external trigger is received (first request).
 639:Libraries/STM32F4xx_StdPeriph_Driver/src/stm32f4xx_dac.c ****   * @retval The new state of DAC_IT (SET or RESET).
 640:Libraries/STM32F4xx_StdPeriph_Driver/src/stm32f4xx_dac.c ****   */
 641:Libraries/STM32F4xx_StdPeriph_Driver/src/stm32f4xx_dac.c **** ITStatus DAC_GetITStatus(uint32_t DAC_Channel, uint32_t DAC_IT)
 642:Libraries/STM32F4xx_StdPeriph_Driver/src/stm32f4xx_dac.c **** {
 817              		.loc 1 642 1 is_stmt 1 view -0
 818              		.cfi_startproc
 819              		@ args = 0, pretend = 0, frame = 0
 820              		@ frame_needed = 0, uses_anonymous_args = 0
 821              		@ link register save eliminated.
 643:Libraries/STM32F4xx_StdPeriph_Driver/src/stm32f4xx_dac.c ****   ITStatus bitstatus = RESET;
 822              		.loc 1 643 3 view .LVU211
 644:Libraries/STM32F4xx_StdPeriph_Driver/src/stm32f4xx_dac.c ****   uint32_t enablestatus = 0;
 823              		.loc 1 644 3 view .LVU212
 645:Libraries/STM32F4xx_StdPeriph_Driver/src/stm32f4xx_dac.c ****   
 646:Libraries/STM32F4xx_StdPeriph_Driver/src/stm32f4xx_dac.c ****   /* Check the parameters */
 647:Libraries/STM32F4xx_StdPeriph_Driver/src/stm32f4xx_dac.c ****   assert_param(IS_DAC_CHANNEL(DAC_Channel));
 824              		.loc 1 647 3 view .LVU213
 648:Libraries/STM32F4xx_StdPeriph_Driver/src/stm32f4xx_dac.c ****   assert_param(IS_DAC_IT(DAC_IT));
 825              		.loc 1 648 3 view .LVU214
 649:Libraries/STM32F4xx_StdPeriph_Driver/src/stm32f4xx_dac.c **** 
 650:Libraries/STM32F4xx_StdPeriph_Driver/src/stm32f4xx_dac.c ****   /* Get the DAC_IT enable bit status */
 651:Libraries/STM32F4xx_StdPeriph_Driver/src/stm32f4xx_dac.c ****   enablestatus = (DAC->CR & (DAC_IT << DAC_Channel)) ;
 826              		.loc 1 651 3 view .LVU215
 827              		.loc 1 651 22 is_stmt 0 view .LVU216
 828 0000 064A     		ldr	r2, .L68
 829 0002 1368     		ldr	r3, [r2]
 830              		.loc 1 651 37 view .LVU217
 831 0004 8140     		lsls	r1, r1, r0
 832              	.LVL59:
 833              		.loc 1 651 16 view .LVU218
 834 0006 0B40     		ands	r3, r3, r1
 835              	.LVL60:
 652:Libraries/STM32F4xx_StdPeriph_Driver/src/stm32f4xx_dac.c ****   
 653:Libraries/STM32F4xx_StdPeriph_Driver/src/stm32f4xx_dac.c ****   /* Check the status of the specified DAC interrupt */
 654:Libraries/STM32F4xx_StdPeriph_Driver/src/stm32f4xx_dac.c ****   if (((DAC->SR & (DAC_IT << DAC_Channel)) != (uint32_t)RESET) && enablestatus)
 836              		.loc 1 654 3 is_stmt 1 view .LVU219
 837              		.loc 1 654 12 is_stmt 0 view .LVU220
 838 0008 526B     		ldr	r2, [r2, #52]
 839              		.loc 1 654 6 view .LVU221
 840 000a 1142     		tst	r1, r2
 841 000c 02D0     		beq	.L66
 842              		.loc 1 654 64 discriminator 1 view .LVU222
 843 000e 1BB9     		cbnz	r3, .L67
 655:Libraries/STM32F4xx_StdPeriph_Driver/src/stm32f4xx_dac.c ****   {
 656:Libraries/STM32F4xx_StdPeriph_Driver/src/stm32f4xx_dac.c ****     /* DAC_IT is set */
 657:Libraries/STM32F4xx_StdPeriph_Driver/src/stm32f4xx_dac.c ****     bitstatus = SET;
 658:Libraries/STM32F4xx_StdPeriph_Driver/src/stm32f4xx_dac.c ****   }
 659:Libraries/STM32F4xx_StdPeriph_Driver/src/stm32f4xx_dac.c ****   else
 660:Libraries/STM32F4xx_StdPeriph_Driver/src/stm32f4xx_dac.c ****   {
 661:Libraries/STM32F4xx_StdPeriph_Driver/src/stm32f4xx_dac.c ****     /* DAC_IT is reset */
 662:Libraries/STM32F4xx_StdPeriph_Driver/src/stm32f4xx_dac.c ****     bitstatus = RESET;
 844              		.loc 1 662 15 view .LVU223
 845 0010 0020     		movs	r0, #0
 846              	.LVL61:
 847              		.loc 1 662 15 view .LVU224
ARM GAS  /tmp/ccVzVw77.s 			page 27


 848 0012 7047     		bx	lr
 849              	.LVL62:
 850              	.L66:
 851              		.loc 1 662 15 view .LVU225
 852 0014 0020     		movs	r0, #0
 853              	.LVL63:
 854              		.loc 1 662 15 view .LVU226
 855 0016 7047     		bx	lr
 856              	.LVL64:
 857              	.L67:
 657:Libraries/STM32F4xx_StdPeriph_Driver/src/stm32f4xx_dac.c ****   }
 858              		.loc 1 657 15 view .LVU227
 859 0018 0120     		movs	r0, #1
 860              	.LVL65:
 663:Libraries/STM32F4xx_StdPeriph_Driver/src/stm32f4xx_dac.c ****   }
 664:Libraries/STM32F4xx_StdPeriph_Driver/src/stm32f4xx_dac.c ****   /* Return the DAC_IT status */
 665:Libraries/STM32F4xx_StdPeriph_Driver/src/stm32f4xx_dac.c ****   return  bitstatus;
 861              		.loc 1 665 3 is_stmt 1 view .LVU228
 666:Libraries/STM32F4xx_StdPeriph_Driver/src/stm32f4xx_dac.c **** }
 862              		.loc 1 666 1 is_stmt 0 view .LVU229
 863 001a 7047     		bx	lr
 864              	.L69:
 865              		.align	2
 866              	.L68:
 867 001c 00740040 		.word	1073771520
 868              		.cfi_endproc
 869              	.LFE138:
 871              		.section	.text.DAC_ClearITPendingBit,"ax",%progbits
 872              		.align	1
 873              		.global	DAC_ClearITPendingBit
 874              		.syntax unified
 875              		.thumb
 876              		.thumb_func
 877              		.fpu fpv4-sp-d16
 879              	DAC_ClearITPendingBit:
 880              	.LVL66:
 881              	.LFB139:
 667:Libraries/STM32F4xx_StdPeriph_Driver/src/stm32f4xx_dac.c **** 
 668:Libraries/STM32F4xx_StdPeriph_Driver/src/stm32f4xx_dac.c **** /**
 669:Libraries/STM32F4xx_StdPeriph_Driver/src/stm32f4xx_dac.c ****   * @brief  Clears the DAC channel's interrupt pending bits.
 670:Libraries/STM32F4xx_StdPeriph_Driver/src/stm32f4xx_dac.c ****   * @param  DAC_Channel: The selected DAC channel. 
 671:Libraries/STM32F4xx_StdPeriph_Driver/src/stm32f4xx_dac.c ****   *          This parameter can be one of the following values:
 672:Libraries/STM32F4xx_StdPeriph_Driver/src/stm32f4xx_dac.c ****   *            @arg DAC_Channel_1: DAC Channel1 selected
 673:Libraries/STM32F4xx_StdPeriph_Driver/src/stm32f4xx_dac.c ****   *            @arg DAC_Channel_2: DAC Channel2 selected
 674:Libraries/STM32F4xx_StdPeriph_Driver/src/stm32f4xx_dac.c ****   * @param  DAC_IT: specifies the DAC interrupt pending bit to clear.
 675:Libraries/STM32F4xx_StdPeriph_Driver/src/stm32f4xx_dac.c ****   *          This parameter can be the following values:
 676:Libraries/STM32F4xx_StdPeriph_Driver/src/stm32f4xx_dac.c ****   *            @arg DAC_IT_DMAUDR: DMA underrun interrupt mask                         
 677:Libraries/STM32F4xx_StdPeriph_Driver/src/stm32f4xx_dac.c ****   * @note   The DMA underrun occurs when a second external trigger arrives before the 
 678:Libraries/STM32F4xx_StdPeriph_Driver/src/stm32f4xx_dac.c ****   *         acknowledgement for the first external trigger is received (first request).            
 679:Libraries/STM32F4xx_StdPeriph_Driver/src/stm32f4xx_dac.c ****   * @retval None
 680:Libraries/STM32F4xx_StdPeriph_Driver/src/stm32f4xx_dac.c ****   */
 681:Libraries/STM32F4xx_StdPeriph_Driver/src/stm32f4xx_dac.c **** void DAC_ClearITPendingBit(uint32_t DAC_Channel, uint32_t DAC_IT)
 682:Libraries/STM32F4xx_StdPeriph_Driver/src/stm32f4xx_dac.c **** {
 882              		.loc 1 682 1 is_stmt 1 view -0
 883              		.cfi_startproc
 884              		@ args = 0, pretend = 0, frame = 0
 885              		@ frame_needed = 0, uses_anonymous_args = 0
ARM GAS  /tmp/ccVzVw77.s 			page 28


 886              		@ link register save eliminated.
 683:Libraries/STM32F4xx_StdPeriph_Driver/src/stm32f4xx_dac.c ****   /* Check the parameters */
 684:Libraries/STM32F4xx_StdPeriph_Driver/src/stm32f4xx_dac.c ****   assert_param(IS_DAC_CHANNEL(DAC_Channel));
 887              		.loc 1 684 3 view .LVU231
 685:Libraries/STM32F4xx_StdPeriph_Driver/src/stm32f4xx_dac.c ****   assert_param(IS_DAC_IT(DAC_IT)); 
 888              		.loc 1 685 3 view .LVU232
 686:Libraries/STM32F4xx_StdPeriph_Driver/src/stm32f4xx_dac.c **** 
 687:Libraries/STM32F4xx_StdPeriph_Driver/src/stm32f4xx_dac.c ****   /* Clear the selected DAC interrupt pending bits */
 688:Libraries/STM32F4xx_StdPeriph_Driver/src/stm32f4xx_dac.c ****   DAC->SR = (DAC_IT << DAC_Channel);
 889              		.loc 1 688 3 view .LVU233
 890              		.loc 1 688 21 is_stmt 0 view .LVU234
 891 0000 8140     		lsls	r1, r1, r0
 892              	.LVL67:
 893              		.loc 1 688 11 view .LVU235
 894 0002 014B     		ldr	r3, .L71
 895 0004 5963     		str	r1, [r3, #52]
 689:Libraries/STM32F4xx_StdPeriph_Driver/src/stm32f4xx_dac.c **** }
 896              		.loc 1 689 1 view .LVU236
 897 0006 7047     		bx	lr
 898              	.L72:
 899              		.align	2
 900              	.L71:
 901 0008 00740040 		.word	1073771520
 902              		.cfi_endproc
 903              	.LFE139:
 905              		.text
 906              	.Letext0:
 907              		.file 2 "/home/ktkuri/arm-gcc-tools/arm-none-eabi/include/machine/_default_types.h"
 908              		.file 3 "/home/ktkuri/arm-gcc-tools/arm-none-eabi/include/sys/_stdint.h"
 909              		.file 4 "Libraries/CMSIS/Device/ST/STM32F4xx/Include/stm32f4xx.h"
 910              		.file 5 "Libraries/STM32F4xx_StdPeriph_Driver/inc/stm32f4xx_dac.h"
 911              		.file 6 "Libraries/STM32F4xx_StdPeriph_Driver/inc/stm32f4xx_rcc.h"
ARM GAS  /tmp/ccVzVw77.s 			page 29


DEFINED SYMBOLS
                            *ABS*:0000000000000000 stm32f4xx_dac.c
     /tmp/ccVzVw77.s:18     .text.DAC_DeInit:0000000000000000 $t
     /tmp/ccVzVw77.s:26     .text.DAC_DeInit:0000000000000000 DAC_DeInit
     /tmp/ccVzVw77.s:54     .text.DAC_Init:0000000000000000 $t
     /tmp/ccVzVw77.s:61     .text.DAC_Init:0000000000000000 DAC_Init
     /tmp/ccVzVw77.s:128    .text.DAC_Init:000000000000002c $d
     /tmp/ccVzVw77.s:133    .text.DAC_StructInit:0000000000000000 $t
     /tmp/ccVzVw77.s:140    .text.DAC_StructInit:0000000000000000 DAC_StructInit
     /tmp/ccVzVw77.s:167    .text.DAC_Cmd:0000000000000000 $t
     /tmp/ccVzVw77.s:174    .text.DAC_Cmd:0000000000000000 DAC_Cmd
     /tmp/ccVzVw77.s:221    .text.DAC_Cmd:0000000000000024 $d
     /tmp/ccVzVw77.s:226    .text.DAC_SoftwareTriggerCmd:0000000000000000 $t
     /tmp/ccVzVw77.s:233    .text.DAC_SoftwareTriggerCmd:0000000000000000 DAC_SoftwareTriggerCmd
     /tmp/ccVzVw77.s:284    .text.DAC_SoftwareTriggerCmd:0000000000000028 $d
     /tmp/ccVzVw77.s:289    .text.DAC_DualSoftwareTriggerCmd:0000000000000000 $t
     /tmp/ccVzVw77.s:296    .text.DAC_DualSoftwareTriggerCmd:0000000000000000 DAC_DualSoftwareTriggerCmd
     /tmp/ccVzVw77.s:327    .text.DAC_DualSoftwareTriggerCmd:000000000000001c $d
     /tmp/ccVzVw77.s:332    .text.DAC_WaveGenerationCmd:0000000000000000 $t
     /tmp/ccVzVw77.s:339    .text.DAC_WaveGenerationCmd:0000000000000000 DAC_WaveGenerationCmd
     /tmp/ccVzVw77.s:385    .text.DAC_WaveGenerationCmd:000000000000001c $d
     /tmp/ccVzVw77.s:390    .text.DAC_SetChannel1Data:0000000000000000 $t
     /tmp/ccVzVw77.s:397    .text.DAC_SetChannel1Data:0000000000000000 DAC_SetChannel1Data
     /tmp/ccVzVw77.s:439    .text.DAC_SetChannel1Data:000000000000001c $d
     /tmp/ccVzVw77.s:444    .text.DAC_SetChannel2Data:0000000000000000 $t
     /tmp/ccVzVw77.s:451    .text.DAC_SetChannel2Data:0000000000000000 DAC_SetChannel2Data
     /tmp/ccVzVw77.s:493    .text.DAC_SetChannel2Data:000000000000001c $d
     /tmp/ccVzVw77.s:498    .text.DAC_SetDualChannelData:0000000000000000 $t
     /tmp/ccVzVw77.s:505    .text.DAC_SetDualChannelData:0000000000000000 DAC_SetDualChannelData
     /tmp/ccVzVw77.s:547    .text.DAC_SetDualChannelData:0000000000000014 $d
     /tmp/ccVzVw77.s:552    .text.DAC_GetDataOutputValue:0000000000000000 $t
     /tmp/ccVzVw77.s:559    .text.DAC_GetDataOutputValue:0000000000000000 DAC_GetDataOutputValue
     /tmp/ccVzVw77.s:602    .text.DAC_GetDataOutputValue:0000000000000020 $d
     /tmp/ccVzVw77.s:607    .text.DAC_DMACmd:0000000000000000 $t
     /tmp/ccVzVw77.s:614    .text.DAC_DMACmd:0000000000000000 DAC_DMACmd
     /tmp/ccVzVw77.s:661    .text.DAC_DMACmd:0000000000000028 $d
     /tmp/ccVzVw77.s:666    .text.DAC_ITConfig:0000000000000000 $t
     /tmp/ccVzVw77.s:673    .text.DAC_ITConfig:0000000000000000 DAC_ITConfig
     /tmp/ccVzVw77.s:719    .text.DAC_ITConfig:000000000000001c $d
     /tmp/ccVzVw77.s:724    .text.DAC_GetFlagStatus:0000000000000000 $t
     /tmp/ccVzVw77.s:731    .text.DAC_GetFlagStatus:0000000000000000 DAC_GetFlagStatus
     /tmp/ccVzVw77.s:768    .text.DAC_GetFlagStatus:0000000000000014 $d
     /tmp/ccVzVw77.s:773    .text.DAC_ClearFlag:0000000000000000 $t
     /tmp/ccVzVw77.s:780    .text.DAC_ClearFlag:0000000000000000 DAC_ClearFlag
     /tmp/ccVzVw77.s:802    .text.DAC_ClearFlag:0000000000000008 $d
     /tmp/ccVzVw77.s:807    .text.DAC_GetITStatus:0000000000000000 $t
     /tmp/ccVzVw77.s:814    .text.DAC_GetITStatus:0000000000000000 DAC_GetITStatus
     /tmp/ccVzVw77.s:867    .text.DAC_GetITStatus:000000000000001c $d
     /tmp/ccVzVw77.s:872    .text.DAC_ClearITPendingBit:0000000000000000 $t
     /tmp/ccVzVw77.s:879    .text.DAC_ClearITPendingBit:0000000000000000 DAC_ClearITPendingBit
     /tmp/ccVzVw77.s:901    .text.DAC_ClearITPendingBit:0000000000000008 $d

UNDEFINED SYMBOLS
RCC_APB1PeriphResetCmd
