ARM GAS  /tmp/ccJ7xVEl.s 			page 1


   1              		.cpu cortex-m4
   2              		.eabi_attribute 27, 1
   3              		.eabi_attribute 28, 1
   4              		.eabi_attribute 20, 1
   5              		.eabi_attribute 21, 1
   6              		.eabi_attribute 23, 3
   7              		.eabi_attribute 24, 1
   8              		.eabi_attribute 25, 1
   9              		.eabi_attribute 26, 1
  10              		.eabi_attribute 30, 1
  11              		.eabi_attribute 34, 1
  12              		.eabi_attribute 18, 4
  13              		.file	"stm32f4xx_cryp_tdes.c"
  14              		.text
  15              	.Ltext0:
  16              		.cfi_sections	.debug_frame
  17              		.section	.text.CRYP_TDES_ECB,"ax",%progbits
  18              		.align	1
  19              		.global	CRYP_TDES_ECB
  20              		.arch armv7e-m
  21              		.syntax unified
  22              		.thumb
  23              		.thumb_func
  24              		.fpu fpv4-sp-d16
  26              	CRYP_TDES_ECB:
  27              	.LVL0:
  28              	.LFB123:
  29              		.file 1 "Libraries/STM32F4xx_StdPeriph_Driver/src/stm32f4xx_cryp_tdes.c"
   1:Libraries/STM32F4xx_StdPeriph_Driver/src/stm32f4xx_cryp_tdes.c **** /**
   2:Libraries/STM32F4xx_StdPeriph_Driver/src/stm32f4xx_cryp_tdes.c ****   ******************************************************************************
   3:Libraries/STM32F4xx_StdPeriph_Driver/src/stm32f4xx_cryp_tdes.c ****   * @file    stm32f4xx_cryp_tdes.c
   4:Libraries/STM32F4xx_StdPeriph_Driver/src/stm32f4xx_cryp_tdes.c ****   * @author  MCD Application Team
   5:Libraries/STM32F4xx_StdPeriph_Driver/src/stm32f4xx_cryp_tdes.c ****   * @version V1.8.1
   6:Libraries/STM32F4xx_StdPeriph_Driver/src/stm32f4xx_cryp_tdes.c ****   * @date    27-January-2022
   7:Libraries/STM32F4xx_StdPeriph_Driver/src/stm32f4xx_cryp_tdes.c ****   * @brief   This file provides high level functions to encrypt and decrypt an 
   8:Libraries/STM32F4xx_StdPeriph_Driver/src/stm32f4xx_cryp_tdes.c ****   *          input message using TDES in ECB/CBC modes .
   9:Libraries/STM32F4xx_StdPeriph_Driver/src/stm32f4xx_cryp_tdes.c ****   *          It uses the stm32f4xx_cryp.c/.h drivers to access the STM32F4xx CRYP
  10:Libraries/STM32F4xx_StdPeriph_Driver/src/stm32f4xx_cryp_tdes.c ****   *          peripheral.
  11:Libraries/STM32F4xx_StdPeriph_Driver/src/stm32f4xx_cryp_tdes.c ****   *
  12:Libraries/STM32F4xx_StdPeriph_Driver/src/stm32f4xx_cryp_tdes.c **** @verbatim
  13:Libraries/STM32F4xx_StdPeriph_Driver/src/stm32f4xx_cryp_tdes.c **** 
  14:Libraries/STM32F4xx_StdPeriph_Driver/src/stm32f4xx_cryp_tdes.c ****  ===============================================================================
  15:Libraries/STM32F4xx_StdPeriph_Driver/src/stm32f4xx_cryp_tdes.c ****                            ##### How to use this driver #####
  16:Libraries/STM32F4xx_StdPeriph_Driver/src/stm32f4xx_cryp_tdes.c ****  ===============================================================================
  17:Libraries/STM32F4xx_StdPeriph_Driver/src/stm32f4xx_cryp_tdes.c ****  [..]
  18:Libraries/STM32F4xx_StdPeriph_Driver/src/stm32f4xx_cryp_tdes.c ****    (#) Enable The CRYP controller clock using 
  19:Libraries/STM32F4xx_StdPeriph_Driver/src/stm32f4xx_cryp_tdes.c ****        RCC_AHB2PeriphClockCmd(RCC_AHB2Periph_CRYP, ENABLE); function.
  20:Libraries/STM32F4xx_StdPeriph_Driver/src/stm32f4xx_cryp_tdes.c ****   
  21:Libraries/STM32F4xx_StdPeriph_Driver/src/stm32f4xx_cryp_tdes.c ****    (#) Encrypt and decrypt using TDES in ECB Mode using CRYP_TDES_ECB() function.
  22:Libraries/STM32F4xx_StdPeriph_Driver/src/stm32f4xx_cryp_tdes.c ****   
  23:Libraries/STM32F4xx_StdPeriph_Driver/src/stm32f4xx_cryp_tdes.c ****    (#) Encrypt and decrypt using TDES in CBC Mode using CRYP_TDES_CBC() function.
  24:Libraries/STM32F4xx_StdPeriph_Driver/src/stm32f4xx_cryp_tdes.c ****   
  25:Libraries/STM32F4xx_StdPeriph_Driver/src/stm32f4xx_cryp_tdes.c **** @endverbatim
  26:Libraries/STM32F4xx_StdPeriph_Driver/src/stm32f4xx_cryp_tdes.c ****   *
  27:Libraries/STM32F4xx_StdPeriph_Driver/src/stm32f4xx_cryp_tdes.c ****   ******************************************************************************
  28:Libraries/STM32F4xx_StdPeriph_Driver/src/stm32f4xx_cryp_tdes.c ****   * @attention
  29:Libraries/STM32F4xx_StdPeriph_Driver/src/stm32f4xx_cryp_tdes.c ****   *
ARM GAS  /tmp/ccJ7xVEl.s 			page 2


  30:Libraries/STM32F4xx_StdPeriph_Driver/src/stm32f4xx_cryp_tdes.c ****   * Copyright (c) 2016 STMicroelectronics.
  31:Libraries/STM32F4xx_StdPeriph_Driver/src/stm32f4xx_cryp_tdes.c ****   * All rights reserved.
  32:Libraries/STM32F4xx_StdPeriph_Driver/src/stm32f4xx_cryp_tdes.c ****   *
  33:Libraries/STM32F4xx_StdPeriph_Driver/src/stm32f4xx_cryp_tdes.c ****   * This software is licensed under terms that can be found in the LICENSE file
  34:Libraries/STM32F4xx_StdPeriph_Driver/src/stm32f4xx_cryp_tdes.c ****   * in the root directory of this software component.
  35:Libraries/STM32F4xx_StdPeriph_Driver/src/stm32f4xx_cryp_tdes.c ****   * If no LICENSE file comes with this software, it is provided AS-IS.
  36:Libraries/STM32F4xx_StdPeriph_Driver/src/stm32f4xx_cryp_tdes.c ****   *
  37:Libraries/STM32F4xx_StdPeriph_Driver/src/stm32f4xx_cryp_tdes.c ****   ******************************************************************************
  38:Libraries/STM32F4xx_StdPeriph_Driver/src/stm32f4xx_cryp_tdes.c ****   */
  39:Libraries/STM32F4xx_StdPeriph_Driver/src/stm32f4xx_cryp_tdes.c **** 
  40:Libraries/STM32F4xx_StdPeriph_Driver/src/stm32f4xx_cryp_tdes.c **** /* Includes ------------------------------------------------------------------*/
  41:Libraries/STM32F4xx_StdPeriph_Driver/src/stm32f4xx_cryp_tdes.c **** #include "stm32f4xx_cryp.h"
  42:Libraries/STM32F4xx_StdPeriph_Driver/src/stm32f4xx_cryp_tdes.c **** 
  43:Libraries/STM32F4xx_StdPeriph_Driver/src/stm32f4xx_cryp_tdes.c **** 
  44:Libraries/STM32F4xx_StdPeriph_Driver/src/stm32f4xx_cryp_tdes.c **** /** @addtogroup STM32F4xx_StdPeriph_Driver
  45:Libraries/STM32F4xx_StdPeriph_Driver/src/stm32f4xx_cryp_tdes.c ****   * @{
  46:Libraries/STM32F4xx_StdPeriph_Driver/src/stm32f4xx_cryp_tdes.c ****   */
  47:Libraries/STM32F4xx_StdPeriph_Driver/src/stm32f4xx_cryp_tdes.c **** 
  48:Libraries/STM32F4xx_StdPeriph_Driver/src/stm32f4xx_cryp_tdes.c **** /** @defgroup CRYP 
  49:Libraries/STM32F4xx_StdPeriph_Driver/src/stm32f4xx_cryp_tdes.c ****   * @brief CRYP driver modules
  50:Libraries/STM32F4xx_StdPeriph_Driver/src/stm32f4xx_cryp_tdes.c ****   * @{
  51:Libraries/STM32F4xx_StdPeriph_Driver/src/stm32f4xx_cryp_tdes.c ****   */
  52:Libraries/STM32F4xx_StdPeriph_Driver/src/stm32f4xx_cryp_tdes.c **** 
  53:Libraries/STM32F4xx_StdPeriph_Driver/src/stm32f4xx_cryp_tdes.c **** /* Private typedef -----------------------------------------------------------*/
  54:Libraries/STM32F4xx_StdPeriph_Driver/src/stm32f4xx_cryp_tdes.c **** /* Private define ------------------------------------------------------------*/
  55:Libraries/STM32F4xx_StdPeriph_Driver/src/stm32f4xx_cryp_tdes.c **** #define TDESBUSY_TIMEOUT    ((uint32_t) 0x00010000)
  56:Libraries/STM32F4xx_StdPeriph_Driver/src/stm32f4xx_cryp_tdes.c **** 
  57:Libraries/STM32F4xx_StdPeriph_Driver/src/stm32f4xx_cryp_tdes.c **** /* Private macro -------------------------------------------------------------*/
  58:Libraries/STM32F4xx_StdPeriph_Driver/src/stm32f4xx_cryp_tdes.c **** /* Private variables ---------------------------------------------------------*/
  59:Libraries/STM32F4xx_StdPeriph_Driver/src/stm32f4xx_cryp_tdes.c **** /* Private function prototypes -----------------------------------------------*/
  60:Libraries/STM32F4xx_StdPeriph_Driver/src/stm32f4xx_cryp_tdes.c **** /* Private functions ---------------------------------------------------------*/
  61:Libraries/STM32F4xx_StdPeriph_Driver/src/stm32f4xx_cryp_tdes.c **** 
  62:Libraries/STM32F4xx_StdPeriph_Driver/src/stm32f4xx_cryp_tdes.c **** 
  63:Libraries/STM32F4xx_StdPeriph_Driver/src/stm32f4xx_cryp_tdes.c **** /** @defgroup CRYP_Private_Functions
  64:Libraries/STM32F4xx_StdPeriph_Driver/src/stm32f4xx_cryp_tdes.c ****   * @{
  65:Libraries/STM32F4xx_StdPeriph_Driver/src/stm32f4xx_cryp_tdes.c ****   */ 
  66:Libraries/STM32F4xx_StdPeriph_Driver/src/stm32f4xx_cryp_tdes.c **** 
  67:Libraries/STM32F4xx_StdPeriph_Driver/src/stm32f4xx_cryp_tdes.c **** /** @defgroup CRYP_Group7 High Level TDES functions
  68:Libraries/STM32F4xx_StdPeriph_Driver/src/stm32f4xx_cryp_tdes.c ****  *  @brief   High Level TDES functions 
  69:Libraries/STM32F4xx_StdPeriph_Driver/src/stm32f4xx_cryp_tdes.c ****  *
  70:Libraries/STM32F4xx_StdPeriph_Driver/src/stm32f4xx_cryp_tdes.c **** @verbatim   
  71:Libraries/STM32F4xx_StdPeriph_Driver/src/stm32f4xx_cryp_tdes.c ****  ===============================================================================
  72:Libraries/STM32F4xx_StdPeriph_Driver/src/stm32f4xx_cryp_tdes.c ****                       ##### High Level TDES functions #####
  73:Libraries/STM32F4xx_StdPeriph_Driver/src/stm32f4xx_cryp_tdes.c ****  ===============================================================================
  74:Libraries/STM32F4xx_StdPeriph_Driver/src/stm32f4xx_cryp_tdes.c **** 
  75:Libraries/STM32F4xx_StdPeriph_Driver/src/stm32f4xx_cryp_tdes.c **** @endverbatim
  76:Libraries/STM32F4xx_StdPeriph_Driver/src/stm32f4xx_cryp_tdes.c ****   * @{
  77:Libraries/STM32F4xx_StdPeriph_Driver/src/stm32f4xx_cryp_tdes.c ****   */
  78:Libraries/STM32F4xx_StdPeriph_Driver/src/stm32f4xx_cryp_tdes.c **** 
  79:Libraries/STM32F4xx_StdPeriph_Driver/src/stm32f4xx_cryp_tdes.c **** /**
  80:Libraries/STM32F4xx_StdPeriph_Driver/src/stm32f4xx_cryp_tdes.c ****   * @brief  Encrypt and decrypt using TDES in ECB Mode
  81:Libraries/STM32F4xx_StdPeriph_Driver/src/stm32f4xx_cryp_tdes.c ****   * @param  Mode: encryption or decryption Mode.
  82:Libraries/STM32F4xx_StdPeriph_Driver/src/stm32f4xx_cryp_tdes.c ****   *           This parameter can be one of the following values:
  83:Libraries/STM32F4xx_StdPeriph_Driver/src/stm32f4xx_cryp_tdes.c ****   *            @arg MODE_ENCRYPT: Encryption
  84:Libraries/STM32F4xx_StdPeriph_Driver/src/stm32f4xx_cryp_tdes.c ****   *            @arg MODE_DECRYPT: Decryption
  85:Libraries/STM32F4xx_StdPeriph_Driver/src/stm32f4xx_cryp_tdes.c ****   * @param  Key: Key used for TDES algorithm.
  86:Libraries/STM32F4xx_StdPeriph_Driver/src/stm32f4xx_cryp_tdes.c ****   * @param  Ilength: length of the Input buffer, must be a multiple of 8.
ARM GAS  /tmp/ccJ7xVEl.s 			page 3


  87:Libraries/STM32F4xx_StdPeriph_Driver/src/stm32f4xx_cryp_tdes.c ****   * @param  Input: pointer to the Input buffer.
  88:Libraries/STM32F4xx_StdPeriph_Driver/src/stm32f4xx_cryp_tdes.c ****   * @param  Output: pointer to the returned buffer.
  89:Libraries/STM32F4xx_StdPeriph_Driver/src/stm32f4xx_cryp_tdes.c ****   * @retval An ErrorStatus enumeration value:
  90:Libraries/STM32F4xx_StdPeriph_Driver/src/stm32f4xx_cryp_tdes.c ****   *          - SUCCESS: Operation done
  91:Libraries/STM32F4xx_StdPeriph_Driver/src/stm32f4xx_cryp_tdes.c ****   *          - ERROR: Operation failed
  92:Libraries/STM32F4xx_StdPeriph_Driver/src/stm32f4xx_cryp_tdes.c ****   */
  93:Libraries/STM32F4xx_StdPeriph_Driver/src/stm32f4xx_cryp_tdes.c **** ErrorStatus CRYP_TDES_ECB(uint8_t Mode, uint8_t Key[24], uint8_t *Input, 
  94:Libraries/STM32F4xx_StdPeriph_Driver/src/stm32f4xx_cryp_tdes.c ****                           uint32_t Ilength, uint8_t *Output)
  95:Libraries/STM32F4xx_StdPeriph_Driver/src/stm32f4xx_cryp_tdes.c **** {
  30              		.loc 1 95 1 view -0
  31              		.cfi_startproc
  32              		@ args = 4, pretend = 0, frame = 56
  33              		@ frame_needed = 0, uses_anonymous_args = 0
  34              		.loc 1 95 1 is_stmt 0 view .LVU1
  35 0000 2DE9F041 		push	{r4, r5, r6, r7, r8, lr}
  36              	.LCFI0:
  37              		.cfi_def_cfa_offset 24
  38              		.cfi_offset 4, -24
  39              		.cfi_offset 5, -20
  40              		.cfi_offset 6, -16
  41              		.cfi_offset 7, -12
  42              		.cfi_offset 8, -8
  43              		.cfi_offset 14, -4
  44 0004 8EB0     		sub	sp, sp, #56
  45              	.LCFI1:
  46              		.cfi_def_cfa_offset 80
  47 0006 0646     		mov	r6, r0
  48 0008 0D46     		mov	r5, r1
  49 000a 1F46     		mov	r7, r3
  96:Libraries/STM32F4xx_StdPeriph_Driver/src/stm32f4xx_cryp_tdes.c ****   CRYP_InitTypeDef TDES_CRYP_InitStructure;
  50              		.loc 1 96 3 is_stmt 1 view .LVU2
  97:Libraries/STM32F4xx_StdPeriph_Driver/src/stm32f4xx_cryp_tdes.c ****   CRYP_KeyInitTypeDef TDES_CRYP_KeyInitStructure;
  51              		.loc 1 97 3 view .LVU3
  98:Libraries/STM32F4xx_StdPeriph_Driver/src/stm32f4xx_cryp_tdes.c ****   __IO uint32_t counter = 0;
  52              		.loc 1 98 3 view .LVU4
  53              		.loc 1 98 17 is_stmt 0 view .LVU5
  54 000c 0023     		movs	r3, #0
  55              	.LVL1:
  56              		.loc 1 98 17 view .LVU6
  57 000e 0193     		str	r3, [sp, #4]
  99:Libraries/STM32F4xx_StdPeriph_Driver/src/stm32f4xx_cryp_tdes.c ****   uint32_t busystatus = 0;
  58              		.loc 1 99 3 is_stmt 1 view .LVU7
  59              	.LVL2:
 100:Libraries/STM32F4xx_StdPeriph_Driver/src/stm32f4xx_cryp_tdes.c ****   ErrorStatus status = SUCCESS;
  60              		.loc 1 100 3 view .LVU8
 101:Libraries/STM32F4xx_StdPeriph_Driver/src/stm32f4xx_cryp_tdes.c ****   uint32_t keyaddr    = (uint32_t)Key;
  61              		.loc 1 101 3 view .LVU9
 102:Libraries/STM32F4xx_StdPeriph_Driver/src/stm32f4xx_cryp_tdes.c ****   uint32_t inputaddr  = (uint32_t)Input;
  62              		.loc 1 102 3 view .LVU10
  63              		.loc 1 102 12 is_stmt 0 view .LVU11
  64 0010 1446     		mov	r4, r2
  65              	.LVL3:
 103:Libraries/STM32F4xx_StdPeriph_Driver/src/stm32f4xx_cryp_tdes.c ****   uint32_t outputaddr = (uint32_t)Output;
  66              		.loc 1 103 3 is_stmt 1 view .LVU12
  67              		.loc 1 103 12 is_stmt 0 view .LVU13
  68 0012 DDF85080 		ldr	r8, [sp, #80]
  69              	.LVL4:
ARM GAS  /tmp/ccJ7xVEl.s 			page 4


 104:Libraries/STM32F4xx_StdPeriph_Driver/src/stm32f4xx_cryp_tdes.c ****   uint32_t i = 0;
  70              		.loc 1 104 3 is_stmt 1 view .LVU14
 105:Libraries/STM32F4xx_StdPeriph_Driver/src/stm32f4xx_cryp_tdes.c **** 
 106:Libraries/STM32F4xx_StdPeriph_Driver/src/stm32f4xx_cryp_tdes.c ****   /* Crypto structures initialisation*/
 107:Libraries/STM32F4xx_StdPeriph_Driver/src/stm32f4xx_cryp_tdes.c ****   CRYP_KeyStructInit(&TDES_CRYP_KeyInitStructure);
  71              		.loc 1 107 3 view .LVU15
  72 0016 02A8     		add	r0, sp, #8
  73              	.LVL5:
  74              		.loc 1 107 3 is_stmt 0 view .LVU16
  75 0018 FFF7FEFF 		bl	CRYP_KeyStructInit
  76              	.LVL6:
 108:Libraries/STM32F4xx_StdPeriph_Driver/src/stm32f4xx_cryp_tdes.c **** 
 109:Libraries/STM32F4xx_StdPeriph_Driver/src/stm32f4xx_cryp_tdes.c ****   /* Crypto Init for Encryption process */
 110:Libraries/STM32F4xx_StdPeriph_Driver/src/stm32f4xx_cryp_tdes.c ****   if(Mode == MODE_ENCRYPT) /* TDES encryption */
  77              		.loc 1 110 3 is_stmt 1 view .LVU17
  78              		.loc 1 110 5 is_stmt 0 view .LVU18
  79 001c 012E     		cmp	r6, #1
  80 001e 29D0     		beq	.L13
 111:Libraries/STM32F4xx_StdPeriph_Driver/src/stm32f4xx_cryp_tdes.c ****   {
 112:Libraries/STM32F4xx_StdPeriph_Driver/src/stm32f4xx_cryp_tdes.c ****      TDES_CRYP_InitStructure.CRYP_AlgoDir = CRYP_AlgoDir_Encrypt;
 113:Libraries/STM32F4xx_StdPeriph_Driver/src/stm32f4xx_cryp_tdes.c ****   }
 114:Libraries/STM32F4xx_StdPeriph_Driver/src/stm32f4xx_cryp_tdes.c ****   else /*if(Mode == MODE_DECRYPT)*/ /* TDES decryption */
 115:Libraries/STM32F4xx_StdPeriph_Driver/src/stm32f4xx_cryp_tdes.c ****   {
 116:Libraries/STM32F4xx_StdPeriph_Driver/src/stm32f4xx_cryp_tdes.c ****      TDES_CRYP_InitStructure.CRYP_AlgoDir = CRYP_AlgoDir_Decrypt;
  81              		.loc 1 116 6 is_stmt 1 view .LVU19
  82              		.loc 1 116 43 is_stmt 0 view .LVU20
  83 0020 0423     		movs	r3, #4
  84 0022 0A93     		str	r3, [sp, #40]
  85              	.L3:
 117:Libraries/STM32F4xx_StdPeriph_Driver/src/stm32f4xx_cryp_tdes.c ****   }
 118:Libraries/STM32F4xx_StdPeriph_Driver/src/stm32f4xx_cryp_tdes.c **** 
 119:Libraries/STM32F4xx_StdPeriph_Driver/src/stm32f4xx_cryp_tdes.c ****   TDES_CRYP_InitStructure.CRYP_AlgoMode = CRYP_AlgoMode_TDES_ECB;
  86              		.loc 1 119 3 is_stmt 1 view .LVU21
  87              		.loc 1 119 41 is_stmt 0 view .LVU22
  88 0024 0023     		movs	r3, #0
  89 0026 0B93     		str	r3, [sp, #44]
 120:Libraries/STM32F4xx_StdPeriph_Driver/src/stm32f4xx_cryp_tdes.c ****   TDES_CRYP_InitStructure.CRYP_DataType = CRYP_DataType_8b;
  90              		.loc 1 120 3 is_stmt 1 view .LVU23
  91              		.loc 1 120 41 is_stmt 0 view .LVU24
  92 0028 8023     		movs	r3, #128
  93 002a 0C93     		str	r3, [sp, #48]
 121:Libraries/STM32F4xx_StdPeriph_Driver/src/stm32f4xx_cryp_tdes.c ****   CRYP_Init(&TDES_CRYP_InitStructure);
  94              		.loc 1 121 3 is_stmt 1 view .LVU25
  95 002c 0AA8     		add	r0, sp, #40
  96 002e FFF7FEFF 		bl	CRYP_Init
  97              	.LVL7:
 122:Libraries/STM32F4xx_StdPeriph_Driver/src/stm32f4xx_cryp_tdes.c **** 
 123:Libraries/STM32F4xx_StdPeriph_Driver/src/stm32f4xx_cryp_tdes.c ****   /* Key Initialisation */
 124:Libraries/STM32F4xx_StdPeriph_Driver/src/stm32f4xx_cryp_tdes.c ****   TDES_CRYP_KeyInitStructure.CRYP_Key1Left = __REV(*(uint32_t*)(keyaddr));
  98              		.loc 1 124 3 view .LVU26
  99              		.loc 1 124 46 is_stmt 0 view .LVU27
 100 0032 2B68     		ldr	r3, [r5]
 101              	.LVL8:
 102              	.LBB30:
 103              	.LBI30:
 104              		.file 2 "Libraries/CMSIS/Include/core_cmInstr.h"
   1:Libraries/CMSIS/Include/core_cmInstr.h **** /**************************************************************************//**
ARM GAS  /tmp/ccJ7xVEl.s 			page 5


   2:Libraries/CMSIS/Include/core_cmInstr.h ****  * @file     core_cmInstr.h
   3:Libraries/CMSIS/Include/core_cmInstr.h ****  * @brief    CMSIS Cortex-M Core Instruction Access Header File
   4:Libraries/CMSIS/Include/core_cmInstr.h ****  * @version  V4.10
   5:Libraries/CMSIS/Include/core_cmInstr.h ****  * @date     18. March 2015
   6:Libraries/CMSIS/Include/core_cmInstr.h ****  *
   7:Libraries/CMSIS/Include/core_cmInstr.h ****  * @note
   8:Libraries/CMSIS/Include/core_cmInstr.h ****  *
   9:Libraries/CMSIS/Include/core_cmInstr.h ****  ******************************************************************************/
  10:Libraries/CMSIS/Include/core_cmInstr.h **** /* Copyright (c) 2009 - 2014 ARM LIMITED
  11:Libraries/CMSIS/Include/core_cmInstr.h **** 
  12:Libraries/CMSIS/Include/core_cmInstr.h ****    All rights reserved.
  13:Libraries/CMSIS/Include/core_cmInstr.h ****    Redistribution and use in source and binary forms, with or without
  14:Libraries/CMSIS/Include/core_cmInstr.h ****    modification, are permitted provided that the following conditions are met:
  15:Libraries/CMSIS/Include/core_cmInstr.h ****    - Redistributions of source code must retain the above copyright
  16:Libraries/CMSIS/Include/core_cmInstr.h ****      notice, this list of conditions and the following disclaimer.
  17:Libraries/CMSIS/Include/core_cmInstr.h ****    - Redistributions in binary form must reproduce the above copyright
  18:Libraries/CMSIS/Include/core_cmInstr.h ****      notice, this list of conditions and the following disclaimer in the
  19:Libraries/CMSIS/Include/core_cmInstr.h ****      documentation and/or other materials provided with the distribution.
  20:Libraries/CMSIS/Include/core_cmInstr.h ****    - Neither the name of ARM nor the names of its contributors may be used
  21:Libraries/CMSIS/Include/core_cmInstr.h ****      to endorse or promote products derived from this software without
  22:Libraries/CMSIS/Include/core_cmInstr.h ****      specific prior written permission.
  23:Libraries/CMSIS/Include/core_cmInstr.h ****    *
  24:Libraries/CMSIS/Include/core_cmInstr.h ****    THIS SOFTWARE IS PROVIDED BY THE COPYRIGHT HOLDERS AND CONTRIBUTORS "AS IS"
  25:Libraries/CMSIS/Include/core_cmInstr.h ****    AND ANY EXPRESS OR IMPLIED WARRANTIES, INCLUDING, BUT NOT LIMITED TO, THE
  26:Libraries/CMSIS/Include/core_cmInstr.h ****    IMPLIED WARRANTIES OF MERCHANTABILITY AND FITNESS FOR A PARTICULAR PURPOSE
  27:Libraries/CMSIS/Include/core_cmInstr.h ****    ARE DISCLAIMED. IN NO EVENT SHALL COPYRIGHT HOLDERS AND CONTRIBUTORS BE
  28:Libraries/CMSIS/Include/core_cmInstr.h ****    LIABLE FOR ANY DIRECT, INDIRECT, INCIDENTAL, SPECIAL, EXEMPLARY, OR
  29:Libraries/CMSIS/Include/core_cmInstr.h ****    CONSEQUENTIAL DAMAGES (INCLUDING, BUT NOT LIMITED TO, PROCUREMENT OF
  30:Libraries/CMSIS/Include/core_cmInstr.h ****    SUBSTITUTE GOODS OR SERVICES; LOSS OF USE, DATA, OR PROFITS; OR BUSINESS
  31:Libraries/CMSIS/Include/core_cmInstr.h ****    INTERRUPTION) HOWEVER CAUSED AND ON ANY THEORY OF LIABILITY, WHETHER IN
  32:Libraries/CMSIS/Include/core_cmInstr.h ****    CONTRACT, STRICT LIABILITY, OR TORT (INCLUDING NEGLIGENCE OR OTHERWISE)
  33:Libraries/CMSIS/Include/core_cmInstr.h ****    ARISING IN ANY WAY OUT OF THE USE OF THIS SOFTWARE, EVEN IF ADVISED OF THE
  34:Libraries/CMSIS/Include/core_cmInstr.h ****    POSSIBILITY OF SUCH DAMAGE.
  35:Libraries/CMSIS/Include/core_cmInstr.h ****    ---------------------------------------------------------------------------*/
  36:Libraries/CMSIS/Include/core_cmInstr.h **** 
  37:Libraries/CMSIS/Include/core_cmInstr.h **** 
  38:Libraries/CMSIS/Include/core_cmInstr.h **** #ifndef __CORE_CMINSTR_H
  39:Libraries/CMSIS/Include/core_cmInstr.h **** #define __CORE_CMINSTR_H
  40:Libraries/CMSIS/Include/core_cmInstr.h **** 
  41:Libraries/CMSIS/Include/core_cmInstr.h **** 
  42:Libraries/CMSIS/Include/core_cmInstr.h **** /* ##########################  Core Instruction Access  ######################### */
  43:Libraries/CMSIS/Include/core_cmInstr.h **** /** \defgroup CMSIS_Core_InstructionInterface CMSIS Core Instruction Interface
  44:Libraries/CMSIS/Include/core_cmInstr.h ****   Access to dedicated instructions
  45:Libraries/CMSIS/Include/core_cmInstr.h ****   @{
  46:Libraries/CMSIS/Include/core_cmInstr.h **** */
  47:Libraries/CMSIS/Include/core_cmInstr.h **** 
  48:Libraries/CMSIS/Include/core_cmInstr.h **** #if   defined ( __CC_ARM ) /*------------------RealView Compiler -----------------*/
  49:Libraries/CMSIS/Include/core_cmInstr.h **** /* ARM armcc specific functions */
  50:Libraries/CMSIS/Include/core_cmInstr.h **** 
  51:Libraries/CMSIS/Include/core_cmInstr.h **** #if (__ARMCC_VERSION < 400677)
  52:Libraries/CMSIS/Include/core_cmInstr.h ****   #error "Please use ARM Compiler Toolchain V4.0.677 or later!"
  53:Libraries/CMSIS/Include/core_cmInstr.h **** #endif
  54:Libraries/CMSIS/Include/core_cmInstr.h **** 
  55:Libraries/CMSIS/Include/core_cmInstr.h **** 
  56:Libraries/CMSIS/Include/core_cmInstr.h **** /** \brief  No Operation
  57:Libraries/CMSIS/Include/core_cmInstr.h **** 
  58:Libraries/CMSIS/Include/core_cmInstr.h ****     No Operation does nothing. This instruction can be used for code alignment purposes.
ARM GAS  /tmp/ccJ7xVEl.s 			page 6


  59:Libraries/CMSIS/Include/core_cmInstr.h ****  */
  60:Libraries/CMSIS/Include/core_cmInstr.h **** #define __NOP                             __nop
  61:Libraries/CMSIS/Include/core_cmInstr.h **** 
  62:Libraries/CMSIS/Include/core_cmInstr.h **** 
  63:Libraries/CMSIS/Include/core_cmInstr.h **** /** \brief  Wait For Interrupt
  64:Libraries/CMSIS/Include/core_cmInstr.h **** 
  65:Libraries/CMSIS/Include/core_cmInstr.h ****     Wait For Interrupt is a hint instruction that suspends execution
  66:Libraries/CMSIS/Include/core_cmInstr.h ****     until one of a number of events occurs.
  67:Libraries/CMSIS/Include/core_cmInstr.h ****  */
  68:Libraries/CMSIS/Include/core_cmInstr.h **** #define __WFI                             __wfi
  69:Libraries/CMSIS/Include/core_cmInstr.h **** 
  70:Libraries/CMSIS/Include/core_cmInstr.h **** 
  71:Libraries/CMSIS/Include/core_cmInstr.h **** /** \brief  Wait For Event
  72:Libraries/CMSIS/Include/core_cmInstr.h **** 
  73:Libraries/CMSIS/Include/core_cmInstr.h ****     Wait For Event is a hint instruction that permits the processor to enter
  74:Libraries/CMSIS/Include/core_cmInstr.h ****     a low-power state until one of a number of events occurs.
  75:Libraries/CMSIS/Include/core_cmInstr.h ****  */
  76:Libraries/CMSIS/Include/core_cmInstr.h **** #define __WFE                             __wfe
  77:Libraries/CMSIS/Include/core_cmInstr.h **** 
  78:Libraries/CMSIS/Include/core_cmInstr.h **** 
  79:Libraries/CMSIS/Include/core_cmInstr.h **** /** \brief  Send Event
  80:Libraries/CMSIS/Include/core_cmInstr.h **** 
  81:Libraries/CMSIS/Include/core_cmInstr.h ****     Send Event is a hint instruction. It causes an event to be signaled to the CPU.
  82:Libraries/CMSIS/Include/core_cmInstr.h ****  */
  83:Libraries/CMSIS/Include/core_cmInstr.h **** #define __SEV                             __sev
  84:Libraries/CMSIS/Include/core_cmInstr.h **** 
  85:Libraries/CMSIS/Include/core_cmInstr.h **** 
  86:Libraries/CMSIS/Include/core_cmInstr.h **** /** \brief  Instruction Synchronization Barrier
  87:Libraries/CMSIS/Include/core_cmInstr.h **** 
  88:Libraries/CMSIS/Include/core_cmInstr.h ****     Instruction Synchronization Barrier flushes the pipeline in the processor,
  89:Libraries/CMSIS/Include/core_cmInstr.h ****     so that all instructions following the ISB are fetched from cache or
  90:Libraries/CMSIS/Include/core_cmInstr.h ****     memory, after the instruction has been completed.
  91:Libraries/CMSIS/Include/core_cmInstr.h ****  */
  92:Libraries/CMSIS/Include/core_cmInstr.h **** #define __ISB() do {\
  93:Libraries/CMSIS/Include/core_cmInstr.h ****                    __schedule_barrier();\
  94:Libraries/CMSIS/Include/core_cmInstr.h ****                    __isb(0xF);\
  95:Libraries/CMSIS/Include/core_cmInstr.h ****                    __schedule_barrier();\
  96:Libraries/CMSIS/Include/core_cmInstr.h ****                 } while (0)
  97:Libraries/CMSIS/Include/core_cmInstr.h **** 
  98:Libraries/CMSIS/Include/core_cmInstr.h **** /** \brief  Data Synchronization Barrier
  99:Libraries/CMSIS/Include/core_cmInstr.h **** 
 100:Libraries/CMSIS/Include/core_cmInstr.h ****     This function acts as a special kind of Data Memory Barrier.
 101:Libraries/CMSIS/Include/core_cmInstr.h ****     It completes when all explicit memory accesses before this instruction complete.
 102:Libraries/CMSIS/Include/core_cmInstr.h ****  */
 103:Libraries/CMSIS/Include/core_cmInstr.h **** #define __DSB() do {\
 104:Libraries/CMSIS/Include/core_cmInstr.h ****                    __schedule_barrier();\
 105:Libraries/CMSIS/Include/core_cmInstr.h ****                    __dsb(0xF);\
 106:Libraries/CMSIS/Include/core_cmInstr.h ****                    __schedule_barrier();\
 107:Libraries/CMSIS/Include/core_cmInstr.h ****                 } while (0)
 108:Libraries/CMSIS/Include/core_cmInstr.h **** 
 109:Libraries/CMSIS/Include/core_cmInstr.h **** /** \brief  Data Memory Barrier
 110:Libraries/CMSIS/Include/core_cmInstr.h **** 
 111:Libraries/CMSIS/Include/core_cmInstr.h ****     This function ensures the apparent order of the explicit memory operations before
 112:Libraries/CMSIS/Include/core_cmInstr.h ****     and after the instruction, without ensuring their completion.
 113:Libraries/CMSIS/Include/core_cmInstr.h ****  */
 114:Libraries/CMSIS/Include/core_cmInstr.h **** #define __DMB() do {\
 115:Libraries/CMSIS/Include/core_cmInstr.h ****                    __schedule_barrier();\
ARM GAS  /tmp/ccJ7xVEl.s 			page 7


 116:Libraries/CMSIS/Include/core_cmInstr.h ****                    __dmb(0xF);\
 117:Libraries/CMSIS/Include/core_cmInstr.h ****                    __schedule_barrier();\
 118:Libraries/CMSIS/Include/core_cmInstr.h ****                 } while (0)
 119:Libraries/CMSIS/Include/core_cmInstr.h **** 
 120:Libraries/CMSIS/Include/core_cmInstr.h **** /** \brief  Reverse byte order (32 bit)
 121:Libraries/CMSIS/Include/core_cmInstr.h **** 
 122:Libraries/CMSIS/Include/core_cmInstr.h ****     This function reverses the byte order in integer value.
 123:Libraries/CMSIS/Include/core_cmInstr.h **** 
 124:Libraries/CMSIS/Include/core_cmInstr.h ****     \param [in]    value  Value to reverse
 125:Libraries/CMSIS/Include/core_cmInstr.h ****     \return               Reversed value
 126:Libraries/CMSIS/Include/core_cmInstr.h ****  */
 127:Libraries/CMSIS/Include/core_cmInstr.h **** #define __REV                             __rev
 128:Libraries/CMSIS/Include/core_cmInstr.h **** 
 129:Libraries/CMSIS/Include/core_cmInstr.h **** 
 130:Libraries/CMSIS/Include/core_cmInstr.h **** /** \brief  Reverse byte order (16 bit)
 131:Libraries/CMSIS/Include/core_cmInstr.h **** 
 132:Libraries/CMSIS/Include/core_cmInstr.h ****     This function reverses the byte order in two unsigned short values.
 133:Libraries/CMSIS/Include/core_cmInstr.h **** 
 134:Libraries/CMSIS/Include/core_cmInstr.h ****     \param [in]    value  Value to reverse
 135:Libraries/CMSIS/Include/core_cmInstr.h ****     \return               Reversed value
 136:Libraries/CMSIS/Include/core_cmInstr.h ****  */
 137:Libraries/CMSIS/Include/core_cmInstr.h **** #ifndef __NO_EMBEDDED_ASM
 138:Libraries/CMSIS/Include/core_cmInstr.h **** __attribute__((section(".rev16_text"))) __STATIC_INLINE __ASM uint32_t __REV16(uint32_t value)
 139:Libraries/CMSIS/Include/core_cmInstr.h **** {
 140:Libraries/CMSIS/Include/core_cmInstr.h ****   rev16 r0, r0
 141:Libraries/CMSIS/Include/core_cmInstr.h ****   bx lr
 142:Libraries/CMSIS/Include/core_cmInstr.h **** }
 143:Libraries/CMSIS/Include/core_cmInstr.h **** #endif
 144:Libraries/CMSIS/Include/core_cmInstr.h **** 
 145:Libraries/CMSIS/Include/core_cmInstr.h **** /** \brief  Reverse byte order in signed short value
 146:Libraries/CMSIS/Include/core_cmInstr.h **** 
 147:Libraries/CMSIS/Include/core_cmInstr.h ****     This function reverses the byte order in a signed short value with sign extension to integer.
 148:Libraries/CMSIS/Include/core_cmInstr.h **** 
 149:Libraries/CMSIS/Include/core_cmInstr.h ****     \param [in]    value  Value to reverse
 150:Libraries/CMSIS/Include/core_cmInstr.h ****     \return               Reversed value
 151:Libraries/CMSIS/Include/core_cmInstr.h ****  */
 152:Libraries/CMSIS/Include/core_cmInstr.h **** #ifndef __NO_EMBEDDED_ASM
 153:Libraries/CMSIS/Include/core_cmInstr.h **** __attribute__((section(".revsh_text"))) __STATIC_INLINE __ASM int32_t __REVSH(int32_t value)
 154:Libraries/CMSIS/Include/core_cmInstr.h **** {
 155:Libraries/CMSIS/Include/core_cmInstr.h ****   revsh r0, r0
 156:Libraries/CMSIS/Include/core_cmInstr.h ****   bx lr
 157:Libraries/CMSIS/Include/core_cmInstr.h **** }
 158:Libraries/CMSIS/Include/core_cmInstr.h **** #endif
 159:Libraries/CMSIS/Include/core_cmInstr.h **** 
 160:Libraries/CMSIS/Include/core_cmInstr.h **** 
 161:Libraries/CMSIS/Include/core_cmInstr.h **** /** \brief  Rotate Right in unsigned value (32 bit)
 162:Libraries/CMSIS/Include/core_cmInstr.h **** 
 163:Libraries/CMSIS/Include/core_cmInstr.h ****     This function Rotate Right (immediate) provides the value of the contents of a register rotated
 164:Libraries/CMSIS/Include/core_cmInstr.h **** 
 165:Libraries/CMSIS/Include/core_cmInstr.h ****     \param [in]    value  Value to rotate
 166:Libraries/CMSIS/Include/core_cmInstr.h ****     \param [in]    value  Number of Bits to rotate
 167:Libraries/CMSIS/Include/core_cmInstr.h ****     \return               Rotated value
 168:Libraries/CMSIS/Include/core_cmInstr.h ****  */
 169:Libraries/CMSIS/Include/core_cmInstr.h **** #define __ROR                             __ror
 170:Libraries/CMSIS/Include/core_cmInstr.h **** 
 171:Libraries/CMSIS/Include/core_cmInstr.h **** 
 172:Libraries/CMSIS/Include/core_cmInstr.h **** /** \brief  Breakpoint
ARM GAS  /tmp/ccJ7xVEl.s 			page 8


 173:Libraries/CMSIS/Include/core_cmInstr.h **** 
 174:Libraries/CMSIS/Include/core_cmInstr.h ****     This function causes the processor to enter Debug state.
 175:Libraries/CMSIS/Include/core_cmInstr.h ****     Debug tools can use this to investigate system state when the instruction at a particular addre
 176:Libraries/CMSIS/Include/core_cmInstr.h **** 
 177:Libraries/CMSIS/Include/core_cmInstr.h ****     \param [in]    value  is ignored by the processor.
 178:Libraries/CMSIS/Include/core_cmInstr.h ****                    If required, a debugger can use it to store additional information about the bre
 179:Libraries/CMSIS/Include/core_cmInstr.h ****  */
 180:Libraries/CMSIS/Include/core_cmInstr.h **** #define __BKPT(value)                       __breakpoint(value)
 181:Libraries/CMSIS/Include/core_cmInstr.h **** 
 182:Libraries/CMSIS/Include/core_cmInstr.h **** 
 183:Libraries/CMSIS/Include/core_cmInstr.h **** /** \brief  Reverse bit order of value
 184:Libraries/CMSIS/Include/core_cmInstr.h **** 
 185:Libraries/CMSIS/Include/core_cmInstr.h ****     This function reverses the bit order of the given value.
 186:Libraries/CMSIS/Include/core_cmInstr.h **** 
 187:Libraries/CMSIS/Include/core_cmInstr.h ****     \param [in]    value  Value to reverse
 188:Libraries/CMSIS/Include/core_cmInstr.h ****     \return               Reversed value
 189:Libraries/CMSIS/Include/core_cmInstr.h ****  */
 190:Libraries/CMSIS/Include/core_cmInstr.h **** #if       (__CORTEX_M >= 0x03) || (__CORTEX_SC >= 300)
 191:Libraries/CMSIS/Include/core_cmInstr.h ****   #define __RBIT                          __rbit
 192:Libraries/CMSIS/Include/core_cmInstr.h **** #else
 193:Libraries/CMSIS/Include/core_cmInstr.h **** __attribute__((always_inline)) __STATIC_INLINE uint32_t __RBIT(uint32_t value)
 194:Libraries/CMSIS/Include/core_cmInstr.h **** {
 195:Libraries/CMSIS/Include/core_cmInstr.h ****   uint32_t result;
 196:Libraries/CMSIS/Include/core_cmInstr.h ****   int32_t s = 4 /*sizeof(v)*/ * 8 - 1; // extra shift needed at end
 197:Libraries/CMSIS/Include/core_cmInstr.h **** 
 198:Libraries/CMSIS/Include/core_cmInstr.h ****   result = value;                      // r will be reversed bits of v; first get LSB of v
 199:Libraries/CMSIS/Include/core_cmInstr.h ****   for (value >>= 1; value; value >>= 1)
 200:Libraries/CMSIS/Include/core_cmInstr.h ****   {
 201:Libraries/CMSIS/Include/core_cmInstr.h ****     result <<= 1;
 202:Libraries/CMSIS/Include/core_cmInstr.h ****     result |= value & 1;
 203:Libraries/CMSIS/Include/core_cmInstr.h ****     s--;
 204:Libraries/CMSIS/Include/core_cmInstr.h ****   }
 205:Libraries/CMSIS/Include/core_cmInstr.h ****   result <<= s;                       // shift when v's highest bits are zero
 206:Libraries/CMSIS/Include/core_cmInstr.h ****   return(result);
 207:Libraries/CMSIS/Include/core_cmInstr.h **** }
 208:Libraries/CMSIS/Include/core_cmInstr.h **** #endif
 209:Libraries/CMSIS/Include/core_cmInstr.h **** 
 210:Libraries/CMSIS/Include/core_cmInstr.h **** 
 211:Libraries/CMSIS/Include/core_cmInstr.h **** /** \brief  Count leading zeros
 212:Libraries/CMSIS/Include/core_cmInstr.h **** 
 213:Libraries/CMSIS/Include/core_cmInstr.h ****     This function counts the number of leading zeros of a data value.
 214:Libraries/CMSIS/Include/core_cmInstr.h **** 
 215:Libraries/CMSIS/Include/core_cmInstr.h ****     \param [in]  value  Value to count the leading zeros
 216:Libraries/CMSIS/Include/core_cmInstr.h ****     \return             number of leading zeros in value
 217:Libraries/CMSIS/Include/core_cmInstr.h ****  */
 218:Libraries/CMSIS/Include/core_cmInstr.h **** #define __CLZ                             __clz
 219:Libraries/CMSIS/Include/core_cmInstr.h **** 
 220:Libraries/CMSIS/Include/core_cmInstr.h **** 
 221:Libraries/CMSIS/Include/core_cmInstr.h **** #if       (__CORTEX_M >= 0x03) || (__CORTEX_SC >= 300)
 222:Libraries/CMSIS/Include/core_cmInstr.h **** 
 223:Libraries/CMSIS/Include/core_cmInstr.h **** /** \brief  LDR Exclusive (8 bit)
 224:Libraries/CMSIS/Include/core_cmInstr.h **** 
 225:Libraries/CMSIS/Include/core_cmInstr.h ****     This function executes a exclusive LDR instruction for 8 bit value.
 226:Libraries/CMSIS/Include/core_cmInstr.h **** 
 227:Libraries/CMSIS/Include/core_cmInstr.h ****     \param [in]    ptr  Pointer to data
 228:Libraries/CMSIS/Include/core_cmInstr.h ****     \return             value of type uint8_t at (*ptr)
 229:Libraries/CMSIS/Include/core_cmInstr.h ****  */
ARM GAS  /tmp/ccJ7xVEl.s 			page 9


 230:Libraries/CMSIS/Include/core_cmInstr.h **** #define __LDREXB(ptr)                     ((uint8_t ) __ldrex(ptr))
 231:Libraries/CMSIS/Include/core_cmInstr.h **** 
 232:Libraries/CMSIS/Include/core_cmInstr.h **** 
 233:Libraries/CMSIS/Include/core_cmInstr.h **** /** \brief  LDR Exclusive (16 bit)
 234:Libraries/CMSIS/Include/core_cmInstr.h **** 
 235:Libraries/CMSIS/Include/core_cmInstr.h ****     This function executes a exclusive LDR instruction for 16 bit values.
 236:Libraries/CMSIS/Include/core_cmInstr.h **** 
 237:Libraries/CMSIS/Include/core_cmInstr.h ****     \param [in]    ptr  Pointer to data
 238:Libraries/CMSIS/Include/core_cmInstr.h ****     \return        value of type uint16_t at (*ptr)
 239:Libraries/CMSIS/Include/core_cmInstr.h ****  */
 240:Libraries/CMSIS/Include/core_cmInstr.h **** #define __LDREXH(ptr)                     ((uint16_t) __ldrex(ptr))
 241:Libraries/CMSIS/Include/core_cmInstr.h **** 
 242:Libraries/CMSIS/Include/core_cmInstr.h **** 
 243:Libraries/CMSIS/Include/core_cmInstr.h **** /** \brief  LDR Exclusive (32 bit)
 244:Libraries/CMSIS/Include/core_cmInstr.h **** 
 245:Libraries/CMSIS/Include/core_cmInstr.h ****     This function executes a exclusive LDR instruction for 32 bit values.
 246:Libraries/CMSIS/Include/core_cmInstr.h **** 
 247:Libraries/CMSIS/Include/core_cmInstr.h ****     \param [in]    ptr  Pointer to data
 248:Libraries/CMSIS/Include/core_cmInstr.h ****     \return        value of type uint32_t at (*ptr)
 249:Libraries/CMSIS/Include/core_cmInstr.h ****  */
 250:Libraries/CMSIS/Include/core_cmInstr.h **** #define __LDREXW(ptr)                     ((uint32_t ) __ldrex(ptr))
 251:Libraries/CMSIS/Include/core_cmInstr.h **** 
 252:Libraries/CMSIS/Include/core_cmInstr.h **** 
 253:Libraries/CMSIS/Include/core_cmInstr.h **** /** \brief  STR Exclusive (8 bit)
 254:Libraries/CMSIS/Include/core_cmInstr.h **** 
 255:Libraries/CMSIS/Include/core_cmInstr.h ****     This function executes a exclusive STR instruction for 8 bit values.
 256:Libraries/CMSIS/Include/core_cmInstr.h **** 
 257:Libraries/CMSIS/Include/core_cmInstr.h ****     \param [in]  value  Value to store
 258:Libraries/CMSIS/Include/core_cmInstr.h ****     \param [in]    ptr  Pointer to location
 259:Libraries/CMSIS/Include/core_cmInstr.h ****     \return          0  Function succeeded
 260:Libraries/CMSIS/Include/core_cmInstr.h ****     \return          1  Function failed
 261:Libraries/CMSIS/Include/core_cmInstr.h ****  */
 262:Libraries/CMSIS/Include/core_cmInstr.h **** #define __STREXB(value, ptr)              __strex(value, ptr)
 263:Libraries/CMSIS/Include/core_cmInstr.h **** 
 264:Libraries/CMSIS/Include/core_cmInstr.h **** 
 265:Libraries/CMSIS/Include/core_cmInstr.h **** /** \brief  STR Exclusive (16 bit)
 266:Libraries/CMSIS/Include/core_cmInstr.h **** 
 267:Libraries/CMSIS/Include/core_cmInstr.h ****     This function executes a exclusive STR instruction for 16 bit values.
 268:Libraries/CMSIS/Include/core_cmInstr.h **** 
 269:Libraries/CMSIS/Include/core_cmInstr.h ****     \param [in]  value  Value to store
 270:Libraries/CMSIS/Include/core_cmInstr.h ****     \param [in]    ptr  Pointer to location
 271:Libraries/CMSIS/Include/core_cmInstr.h ****     \return          0  Function succeeded
 272:Libraries/CMSIS/Include/core_cmInstr.h ****     \return          1  Function failed
 273:Libraries/CMSIS/Include/core_cmInstr.h ****  */
 274:Libraries/CMSIS/Include/core_cmInstr.h **** #define __STREXH(value, ptr)              __strex(value, ptr)
 275:Libraries/CMSIS/Include/core_cmInstr.h **** 
 276:Libraries/CMSIS/Include/core_cmInstr.h **** 
 277:Libraries/CMSIS/Include/core_cmInstr.h **** /** \brief  STR Exclusive (32 bit)
 278:Libraries/CMSIS/Include/core_cmInstr.h **** 
 279:Libraries/CMSIS/Include/core_cmInstr.h ****     This function executes a exclusive STR instruction for 32 bit values.
 280:Libraries/CMSIS/Include/core_cmInstr.h **** 
 281:Libraries/CMSIS/Include/core_cmInstr.h ****     \param [in]  value  Value to store
 282:Libraries/CMSIS/Include/core_cmInstr.h ****     \param [in]    ptr  Pointer to location
 283:Libraries/CMSIS/Include/core_cmInstr.h ****     \return          0  Function succeeded
 284:Libraries/CMSIS/Include/core_cmInstr.h ****     \return          1  Function failed
 285:Libraries/CMSIS/Include/core_cmInstr.h ****  */
 286:Libraries/CMSIS/Include/core_cmInstr.h **** #define __STREXW(value, ptr)              __strex(value, ptr)
ARM GAS  /tmp/ccJ7xVEl.s 			page 10


 287:Libraries/CMSIS/Include/core_cmInstr.h **** 
 288:Libraries/CMSIS/Include/core_cmInstr.h **** 
 289:Libraries/CMSIS/Include/core_cmInstr.h **** /** \brief  Remove the exclusive lock
 290:Libraries/CMSIS/Include/core_cmInstr.h **** 
 291:Libraries/CMSIS/Include/core_cmInstr.h ****     This function removes the exclusive lock which is created by LDREX.
 292:Libraries/CMSIS/Include/core_cmInstr.h **** 
 293:Libraries/CMSIS/Include/core_cmInstr.h ****  */
 294:Libraries/CMSIS/Include/core_cmInstr.h **** #define __CLREX                           __clrex
 295:Libraries/CMSIS/Include/core_cmInstr.h **** 
 296:Libraries/CMSIS/Include/core_cmInstr.h **** 
 297:Libraries/CMSIS/Include/core_cmInstr.h **** /** \brief  Signed Saturate
 298:Libraries/CMSIS/Include/core_cmInstr.h **** 
 299:Libraries/CMSIS/Include/core_cmInstr.h ****     This function saturates a signed value.
 300:Libraries/CMSIS/Include/core_cmInstr.h **** 
 301:Libraries/CMSIS/Include/core_cmInstr.h ****     \param [in]  value  Value to be saturated
 302:Libraries/CMSIS/Include/core_cmInstr.h ****     \param [in]    sat  Bit position to saturate to (1..32)
 303:Libraries/CMSIS/Include/core_cmInstr.h ****     \return             Saturated value
 304:Libraries/CMSIS/Include/core_cmInstr.h ****  */
 305:Libraries/CMSIS/Include/core_cmInstr.h **** #define __SSAT                            __ssat
 306:Libraries/CMSIS/Include/core_cmInstr.h **** 
 307:Libraries/CMSIS/Include/core_cmInstr.h **** 
 308:Libraries/CMSIS/Include/core_cmInstr.h **** /** \brief  Unsigned Saturate
 309:Libraries/CMSIS/Include/core_cmInstr.h **** 
 310:Libraries/CMSIS/Include/core_cmInstr.h ****     This function saturates an unsigned value.
 311:Libraries/CMSIS/Include/core_cmInstr.h **** 
 312:Libraries/CMSIS/Include/core_cmInstr.h ****     \param [in]  value  Value to be saturated
 313:Libraries/CMSIS/Include/core_cmInstr.h ****     \param [in]    sat  Bit position to saturate to (0..31)
 314:Libraries/CMSIS/Include/core_cmInstr.h ****     \return             Saturated value
 315:Libraries/CMSIS/Include/core_cmInstr.h ****  */
 316:Libraries/CMSIS/Include/core_cmInstr.h **** #define __USAT                            __usat
 317:Libraries/CMSIS/Include/core_cmInstr.h **** 
 318:Libraries/CMSIS/Include/core_cmInstr.h **** 
 319:Libraries/CMSIS/Include/core_cmInstr.h **** /** \brief  Rotate Right with Extend (32 bit)
 320:Libraries/CMSIS/Include/core_cmInstr.h **** 
 321:Libraries/CMSIS/Include/core_cmInstr.h ****     This function moves each bit of a bitstring right by one bit.
 322:Libraries/CMSIS/Include/core_cmInstr.h ****     The carry input is shifted in at the left end of the bitstring.
 323:Libraries/CMSIS/Include/core_cmInstr.h **** 
 324:Libraries/CMSIS/Include/core_cmInstr.h ****     \param [in]    value  Value to rotate
 325:Libraries/CMSIS/Include/core_cmInstr.h ****     \return               Rotated value
 326:Libraries/CMSIS/Include/core_cmInstr.h ****  */
 327:Libraries/CMSIS/Include/core_cmInstr.h **** #ifndef __NO_EMBEDDED_ASM
 328:Libraries/CMSIS/Include/core_cmInstr.h **** __attribute__((section(".rrx_text"))) __STATIC_INLINE __ASM uint32_t __RRX(uint32_t value)
 329:Libraries/CMSIS/Include/core_cmInstr.h **** {
 330:Libraries/CMSIS/Include/core_cmInstr.h ****   rrx r0, r0
 331:Libraries/CMSIS/Include/core_cmInstr.h ****   bx lr
 332:Libraries/CMSIS/Include/core_cmInstr.h **** }
 333:Libraries/CMSIS/Include/core_cmInstr.h **** #endif
 334:Libraries/CMSIS/Include/core_cmInstr.h **** 
 335:Libraries/CMSIS/Include/core_cmInstr.h **** 
 336:Libraries/CMSIS/Include/core_cmInstr.h **** /** \brief  LDRT Unprivileged (8 bit)
 337:Libraries/CMSIS/Include/core_cmInstr.h **** 
 338:Libraries/CMSIS/Include/core_cmInstr.h ****     This function executes a Unprivileged LDRT instruction for 8 bit value.
 339:Libraries/CMSIS/Include/core_cmInstr.h **** 
 340:Libraries/CMSIS/Include/core_cmInstr.h ****     \param [in]    ptr  Pointer to data
 341:Libraries/CMSIS/Include/core_cmInstr.h ****     \return             value of type uint8_t at (*ptr)
 342:Libraries/CMSIS/Include/core_cmInstr.h ****  */
 343:Libraries/CMSIS/Include/core_cmInstr.h **** #define __LDRBT(ptr)                      ((uint8_t )  __ldrt(ptr))
ARM GAS  /tmp/ccJ7xVEl.s 			page 11


 344:Libraries/CMSIS/Include/core_cmInstr.h **** 
 345:Libraries/CMSIS/Include/core_cmInstr.h **** 
 346:Libraries/CMSIS/Include/core_cmInstr.h **** /** \brief  LDRT Unprivileged (16 bit)
 347:Libraries/CMSIS/Include/core_cmInstr.h **** 
 348:Libraries/CMSIS/Include/core_cmInstr.h ****     This function executes a Unprivileged LDRT instruction for 16 bit values.
 349:Libraries/CMSIS/Include/core_cmInstr.h **** 
 350:Libraries/CMSIS/Include/core_cmInstr.h ****     \param [in]    ptr  Pointer to data
 351:Libraries/CMSIS/Include/core_cmInstr.h ****     \return        value of type uint16_t at (*ptr)
 352:Libraries/CMSIS/Include/core_cmInstr.h ****  */
 353:Libraries/CMSIS/Include/core_cmInstr.h **** #define __LDRHT(ptr)                      ((uint16_t)  __ldrt(ptr))
 354:Libraries/CMSIS/Include/core_cmInstr.h **** 
 355:Libraries/CMSIS/Include/core_cmInstr.h **** 
 356:Libraries/CMSIS/Include/core_cmInstr.h **** /** \brief  LDRT Unprivileged (32 bit)
 357:Libraries/CMSIS/Include/core_cmInstr.h **** 
 358:Libraries/CMSIS/Include/core_cmInstr.h ****     This function executes a Unprivileged LDRT instruction for 32 bit values.
 359:Libraries/CMSIS/Include/core_cmInstr.h **** 
 360:Libraries/CMSIS/Include/core_cmInstr.h ****     \param [in]    ptr  Pointer to data
 361:Libraries/CMSIS/Include/core_cmInstr.h ****     \return        value of type uint32_t at (*ptr)
 362:Libraries/CMSIS/Include/core_cmInstr.h ****  */
 363:Libraries/CMSIS/Include/core_cmInstr.h **** #define __LDRT(ptr)                       ((uint32_t ) __ldrt(ptr))
 364:Libraries/CMSIS/Include/core_cmInstr.h **** 
 365:Libraries/CMSIS/Include/core_cmInstr.h **** 
 366:Libraries/CMSIS/Include/core_cmInstr.h **** /** \brief  STRT Unprivileged (8 bit)
 367:Libraries/CMSIS/Include/core_cmInstr.h **** 
 368:Libraries/CMSIS/Include/core_cmInstr.h ****     This function executes a Unprivileged STRT instruction for 8 bit values.
 369:Libraries/CMSIS/Include/core_cmInstr.h **** 
 370:Libraries/CMSIS/Include/core_cmInstr.h ****     \param [in]  value  Value to store
 371:Libraries/CMSIS/Include/core_cmInstr.h ****     \param [in]    ptr  Pointer to location
 372:Libraries/CMSIS/Include/core_cmInstr.h ****  */
 373:Libraries/CMSIS/Include/core_cmInstr.h **** #define __STRBT(value, ptr)               __strt(value, ptr)
 374:Libraries/CMSIS/Include/core_cmInstr.h **** 
 375:Libraries/CMSIS/Include/core_cmInstr.h **** 
 376:Libraries/CMSIS/Include/core_cmInstr.h **** /** \brief  STRT Unprivileged (16 bit)
 377:Libraries/CMSIS/Include/core_cmInstr.h **** 
 378:Libraries/CMSIS/Include/core_cmInstr.h ****     This function executes a Unprivileged STRT instruction for 16 bit values.
 379:Libraries/CMSIS/Include/core_cmInstr.h **** 
 380:Libraries/CMSIS/Include/core_cmInstr.h ****     \param [in]  value  Value to store
 381:Libraries/CMSIS/Include/core_cmInstr.h ****     \param [in]    ptr  Pointer to location
 382:Libraries/CMSIS/Include/core_cmInstr.h ****  */
 383:Libraries/CMSIS/Include/core_cmInstr.h **** #define __STRHT(value, ptr)               __strt(value, ptr)
 384:Libraries/CMSIS/Include/core_cmInstr.h **** 
 385:Libraries/CMSIS/Include/core_cmInstr.h **** 
 386:Libraries/CMSIS/Include/core_cmInstr.h **** /** \brief  STRT Unprivileged (32 bit)
 387:Libraries/CMSIS/Include/core_cmInstr.h **** 
 388:Libraries/CMSIS/Include/core_cmInstr.h ****     This function executes a Unprivileged STRT instruction for 32 bit values.
 389:Libraries/CMSIS/Include/core_cmInstr.h **** 
 390:Libraries/CMSIS/Include/core_cmInstr.h ****     \param [in]  value  Value to store
 391:Libraries/CMSIS/Include/core_cmInstr.h ****     \param [in]    ptr  Pointer to location
 392:Libraries/CMSIS/Include/core_cmInstr.h ****  */
 393:Libraries/CMSIS/Include/core_cmInstr.h **** #define __STRT(value, ptr)                __strt(value, ptr)
 394:Libraries/CMSIS/Include/core_cmInstr.h **** 
 395:Libraries/CMSIS/Include/core_cmInstr.h **** #endif /* (__CORTEX_M >= 0x03) || (__CORTEX_SC >= 300) */
 396:Libraries/CMSIS/Include/core_cmInstr.h **** 
 397:Libraries/CMSIS/Include/core_cmInstr.h **** 
 398:Libraries/CMSIS/Include/core_cmInstr.h **** #elif defined ( __GNUC__ ) /*------------------ GNU Compiler ---------------------*/
 399:Libraries/CMSIS/Include/core_cmInstr.h **** /* GNU gcc specific functions */
 400:Libraries/CMSIS/Include/core_cmInstr.h **** 
ARM GAS  /tmp/ccJ7xVEl.s 			page 12


 401:Libraries/CMSIS/Include/core_cmInstr.h **** /* Define macros for porting to both thumb1 and thumb2.
 402:Libraries/CMSIS/Include/core_cmInstr.h ****  * For thumb1, use low register (r0-r7), specified by constrant "l"
 403:Libraries/CMSIS/Include/core_cmInstr.h ****  * Otherwise, use general registers, specified by constrant "r" */
 404:Libraries/CMSIS/Include/core_cmInstr.h **** #if defined (__thumb__) && !defined (__thumb2__)
 405:Libraries/CMSIS/Include/core_cmInstr.h **** #define __CMSIS_GCC_OUT_REG(r) "=l" (r)
 406:Libraries/CMSIS/Include/core_cmInstr.h **** #define __CMSIS_GCC_USE_REG(r) "l" (r)
 407:Libraries/CMSIS/Include/core_cmInstr.h **** #else
 408:Libraries/CMSIS/Include/core_cmInstr.h **** #define __CMSIS_GCC_OUT_REG(r) "=r" (r)
 409:Libraries/CMSIS/Include/core_cmInstr.h **** #define __CMSIS_GCC_USE_REG(r) "r" (r)
 410:Libraries/CMSIS/Include/core_cmInstr.h **** #endif
 411:Libraries/CMSIS/Include/core_cmInstr.h **** 
 412:Libraries/CMSIS/Include/core_cmInstr.h **** /** \brief  No Operation
 413:Libraries/CMSIS/Include/core_cmInstr.h **** 
 414:Libraries/CMSIS/Include/core_cmInstr.h ****     No Operation does nothing. This instruction can be used for code alignment purposes.
 415:Libraries/CMSIS/Include/core_cmInstr.h ****  */
 416:Libraries/CMSIS/Include/core_cmInstr.h **** __attribute__((always_inline)) __STATIC_INLINE void __NOP(void)
 417:Libraries/CMSIS/Include/core_cmInstr.h **** {
 418:Libraries/CMSIS/Include/core_cmInstr.h ****   __ASM volatile ("nop");
 419:Libraries/CMSIS/Include/core_cmInstr.h **** }
 420:Libraries/CMSIS/Include/core_cmInstr.h **** 
 421:Libraries/CMSIS/Include/core_cmInstr.h **** 
 422:Libraries/CMSIS/Include/core_cmInstr.h **** /** \brief  Wait For Interrupt
 423:Libraries/CMSIS/Include/core_cmInstr.h **** 
 424:Libraries/CMSIS/Include/core_cmInstr.h ****     Wait For Interrupt is a hint instruction that suspends execution
 425:Libraries/CMSIS/Include/core_cmInstr.h ****     until one of a number of events occurs.
 426:Libraries/CMSIS/Include/core_cmInstr.h ****  */
 427:Libraries/CMSIS/Include/core_cmInstr.h **** __attribute__((always_inline)) __STATIC_INLINE void __WFI(void)
 428:Libraries/CMSIS/Include/core_cmInstr.h **** {
 429:Libraries/CMSIS/Include/core_cmInstr.h ****   __ASM volatile ("wfi");
 430:Libraries/CMSIS/Include/core_cmInstr.h **** }
 431:Libraries/CMSIS/Include/core_cmInstr.h **** 
 432:Libraries/CMSIS/Include/core_cmInstr.h **** 
 433:Libraries/CMSIS/Include/core_cmInstr.h **** /** \brief  Wait For Event
 434:Libraries/CMSIS/Include/core_cmInstr.h **** 
 435:Libraries/CMSIS/Include/core_cmInstr.h ****     Wait For Event is a hint instruction that permits the processor to enter
 436:Libraries/CMSIS/Include/core_cmInstr.h ****     a low-power state until one of a number of events occurs.
 437:Libraries/CMSIS/Include/core_cmInstr.h ****  */
 438:Libraries/CMSIS/Include/core_cmInstr.h **** __attribute__((always_inline)) __STATIC_INLINE void __WFE(void)
 439:Libraries/CMSIS/Include/core_cmInstr.h **** {
 440:Libraries/CMSIS/Include/core_cmInstr.h ****   __ASM volatile ("wfe");
 441:Libraries/CMSIS/Include/core_cmInstr.h **** }
 442:Libraries/CMSIS/Include/core_cmInstr.h **** 
 443:Libraries/CMSIS/Include/core_cmInstr.h **** 
 444:Libraries/CMSIS/Include/core_cmInstr.h **** /** \brief  Send Event
 445:Libraries/CMSIS/Include/core_cmInstr.h **** 
 446:Libraries/CMSIS/Include/core_cmInstr.h ****     Send Event is a hint instruction. It causes an event to be signaled to the CPU.
 447:Libraries/CMSIS/Include/core_cmInstr.h ****  */
 448:Libraries/CMSIS/Include/core_cmInstr.h **** __attribute__((always_inline)) __STATIC_INLINE void __SEV(void)
 449:Libraries/CMSIS/Include/core_cmInstr.h **** {
 450:Libraries/CMSIS/Include/core_cmInstr.h ****   __ASM volatile ("sev");
 451:Libraries/CMSIS/Include/core_cmInstr.h **** }
 452:Libraries/CMSIS/Include/core_cmInstr.h **** 
 453:Libraries/CMSIS/Include/core_cmInstr.h **** 
 454:Libraries/CMSIS/Include/core_cmInstr.h **** /** \brief  Instruction Synchronization Barrier
 455:Libraries/CMSIS/Include/core_cmInstr.h **** 
 456:Libraries/CMSIS/Include/core_cmInstr.h ****     Instruction Synchronization Barrier flushes the pipeline in the processor,
 457:Libraries/CMSIS/Include/core_cmInstr.h ****     so that all instructions following the ISB are fetched from cache or
ARM GAS  /tmp/ccJ7xVEl.s 			page 13


 458:Libraries/CMSIS/Include/core_cmInstr.h ****     memory, after the instruction has been completed.
 459:Libraries/CMSIS/Include/core_cmInstr.h ****  */
 460:Libraries/CMSIS/Include/core_cmInstr.h **** __attribute__((always_inline)) __STATIC_INLINE void __ISB(void)
 461:Libraries/CMSIS/Include/core_cmInstr.h **** {
 462:Libraries/CMSIS/Include/core_cmInstr.h ****   __ASM volatile ("isb 0xF":::"memory");
 463:Libraries/CMSIS/Include/core_cmInstr.h **** }
 464:Libraries/CMSIS/Include/core_cmInstr.h **** 
 465:Libraries/CMSIS/Include/core_cmInstr.h **** 
 466:Libraries/CMSIS/Include/core_cmInstr.h **** /** \brief  Data Synchronization Barrier
 467:Libraries/CMSIS/Include/core_cmInstr.h **** 
 468:Libraries/CMSIS/Include/core_cmInstr.h ****     This function acts as a special kind of Data Memory Barrier.
 469:Libraries/CMSIS/Include/core_cmInstr.h ****     It completes when all explicit memory accesses before this instruction complete.
 470:Libraries/CMSIS/Include/core_cmInstr.h ****  */
 471:Libraries/CMSIS/Include/core_cmInstr.h **** __attribute__((always_inline)) __STATIC_INLINE void __DSB(void)
 472:Libraries/CMSIS/Include/core_cmInstr.h **** {
 473:Libraries/CMSIS/Include/core_cmInstr.h ****   __ASM volatile ("dsb 0xF":::"memory");
 474:Libraries/CMSIS/Include/core_cmInstr.h **** }
 475:Libraries/CMSIS/Include/core_cmInstr.h **** 
 476:Libraries/CMSIS/Include/core_cmInstr.h **** 
 477:Libraries/CMSIS/Include/core_cmInstr.h **** /** \brief  Data Memory Barrier
 478:Libraries/CMSIS/Include/core_cmInstr.h **** 
 479:Libraries/CMSIS/Include/core_cmInstr.h ****     This function ensures the apparent order of the explicit memory operations before
 480:Libraries/CMSIS/Include/core_cmInstr.h ****     and after the instruction, without ensuring their completion.
 481:Libraries/CMSIS/Include/core_cmInstr.h ****  */
 482:Libraries/CMSIS/Include/core_cmInstr.h **** __attribute__((always_inline)) __STATIC_INLINE void __DMB(void)
 483:Libraries/CMSIS/Include/core_cmInstr.h **** {
 484:Libraries/CMSIS/Include/core_cmInstr.h ****   __ASM volatile ("dmb 0xF":::"memory");
 485:Libraries/CMSIS/Include/core_cmInstr.h **** }
 486:Libraries/CMSIS/Include/core_cmInstr.h **** 
 487:Libraries/CMSIS/Include/core_cmInstr.h **** 
 488:Libraries/CMSIS/Include/core_cmInstr.h **** /** \brief  Reverse byte order (32 bit)
 489:Libraries/CMSIS/Include/core_cmInstr.h **** 
 490:Libraries/CMSIS/Include/core_cmInstr.h ****     This function reverses the byte order in integer value.
 491:Libraries/CMSIS/Include/core_cmInstr.h **** 
 492:Libraries/CMSIS/Include/core_cmInstr.h ****     \param [in]    value  Value to reverse
 493:Libraries/CMSIS/Include/core_cmInstr.h ****     \return               Reversed value
 494:Libraries/CMSIS/Include/core_cmInstr.h ****  */
 495:Libraries/CMSIS/Include/core_cmInstr.h **** __attribute__((always_inline)) __STATIC_INLINE uint32_t __REV(uint32_t value)
 105              		.loc 2 495 57 is_stmt 1 view .LVU28
 106              	.LBB31:
 496:Libraries/CMSIS/Include/core_cmInstr.h **** {
 497:Libraries/CMSIS/Include/core_cmInstr.h **** #if (__GNUC__ > 4) || (__GNUC__ == 4 && __GNUC_MINOR__ >= 5)
 498:Libraries/CMSIS/Include/core_cmInstr.h ****   return __builtin_bswap32(value);
 107              		.loc 2 498 3 view .LVU29
 108              		.loc 2 498 10 is_stmt 0 view .LVU30
 109 0034 1BBA     		rev	r3, r3
 110              	.LVL9:
 111              		.loc 2 498 10 view .LVU31
 112              	.LBE31:
 113              	.LBE30:
 114              		.loc 1 124 44 view .LVU32
 115 0036 0493     		str	r3, [sp, #16]
 125:Libraries/STM32F4xx_StdPeriph_Driver/src/stm32f4xx_cryp_tdes.c ****   keyaddr+=4;
 116              		.loc 1 125 3 is_stmt 1 view .LVU33
 117              	.LVL10:
 126:Libraries/STM32F4xx_StdPeriph_Driver/src/stm32f4xx_cryp_tdes.c ****   TDES_CRYP_KeyInitStructure.CRYP_Key1Right= __REV(*(uint32_t*)(keyaddr));
 118              		.loc 1 126 3 view .LVU34
ARM GAS  /tmp/ccJ7xVEl.s 			page 14


 119              		.loc 1 126 46 is_stmt 0 view .LVU35
 120 0038 6B68     		ldr	r3, [r5, #4]
 121              	.LVL11:
 122              	.LBB32:
 123              	.LBI32:
 495:Libraries/CMSIS/Include/core_cmInstr.h **** {
 124              		.loc 2 495 57 is_stmt 1 view .LVU36
 125              	.LBB33:
 126              		.loc 2 498 3 view .LVU37
 127              		.loc 2 498 10 is_stmt 0 view .LVU38
 128 003a 1BBA     		rev	r3, r3
 129              	.LVL12:
 130              		.loc 2 498 10 view .LVU39
 131              	.LBE33:
 132              	.LBE32:
 133              		.loc 1 126 44 view .LVU40
 134 003c 0593     		str	r3, [sp, #20]
 127:Libraries/STM32F4xx_StdPeriph_Driver/src/stm32f4xx_cryp_tdes.c ****   keyaddr+=4;
 135              		.loc 1 127 3 is_stmt 1 view .LVU41
 136              	.LVL13:
 128:Libraries/STM32F4xx_StdPeriph_Driver/src/stm32f4xx_cryp_tdes.c ****   TDES_CRYP_KeyInitStructure.CRYP_Key2Left = __REV(*(uint32_t*)(keyaddr));
 137              		.loc 1 128 3 view .LVU42
 138              		.loc 1 128 46 is_stmt 0 view .LVU43
 139 003e AB68     		ldr	r3, [r5, #8]
 140              	.LVL14:
 141              	.LBB34:
 142              	.LBI34:
 495:Libraries/CMSIS/Include/core_cmInstr.h **** {
 143              		.loc 2 495 57 is_stmt 1 view .LVU44
 144              	.LBB35:
 145              		.loc 2 498 3 view .LVU45
 146              		.loc 2 498 10 is_stmt 0 view .LVU46
 147 0040 1BBA     		rev	r3, r3
 148              	.LVL15:
 149              		.loc 2 498 10 view .LVU47
 150              	.LBE35:
 151              	.LBE34:
 152              		.loc 1 128 44 view .LVU48
 153 0042 0693     		str	r3, [sp, #24]
 129:Libraries/STM32F4xx_StdPeriph_Driver/src/stm32f4xx_cryp_tdes.c ****   keyaddr+=4;
 154              		.loc 1 129 3 is_stmt 1 view .LVU49
 155              	.LVL16:
 130:Libraries/STM32F4xx_StdPeriph_Driver/src/stm32f4xx_cryp_tdes.c ****   TDES_CRYP_KeyInitStructure.CRYP_Key2Right= __REV(*(uint32_t*)(keyaddr));
 156              		.loc 1 130 3 view .LVU50
 157              		.loc 1 130 46 is_stmt 0 view .LVU51
 158 0044 EB68     		ldr	r3, [r5, #12]
 159              	.LVL17:
 160              	.LBB36:
 161              	.LBI36:
 495:Libraries/CMSIS/Include/core_cmInstr.h **** {
 162              		.loc 2 495 57 is_stmt 1 view .LVU52
 163              	.LBB37:
 164              		.loc 2 498 3 view .LVU53
 165              		.loc 2 498 10 is_stmt 0 view .LVU54
 166 0046 1BBA     		rev	r3, r3
 167              	.LVL18:
 168              		.loc 2 498 10 view .LVU55
ARM GAS  /tmp/ccJ7xVEl.s 			page 15


 169              	.LBE37:
 170              	.LBE36:
 171              		.loc 1 130 44 view .LVU56
 172 0048 0793     		str	r3, [sp, #28]
 131:Libraries/STM32F4xx_StdPeriph_Driver/src/stm32f4xx_cryp_tdes.c ****   keyaddr+=4;
 173              		.loc 1 131 3 is_stmt 1 view .LVU57
 174              	.LVL19:
 132:Libraries/STM32F4xx_StdPeriph_Driver/src/stm32f4xx_cryp_tdes.c ****   TDES_CRYP_KeyInitStructure.CRYP_Key3Left = __REV(*(uint32_t*)(keyaddr));
 175              		.loc 1 132 3 view .LVU58
 176              		.loc 1 132 46 is_stmt 0 view .LVU59
 177 004a 2B69     		ldr	r3, [r5, #16]
 178              	.LVL20:
 179              	.LBB38:
 180              	.LBI38:
 495:Libraries/CMSIS/Include/core_cmInstr.h **** {
 181              		.loc 2 495 57 is_stmt 1 view .LVU60
 182              	.LBB39:
 183              		.loc 2 498 3 view .LVU61
 184              		.loc 2 498 10 is_stmt 0 view .LVU62
 185 004c 1BBA     		rev	r3, r3
 186              	.LVL21:
 187              		.loc 2 498 10 view .LVU63
 188              	.LBE39:
 189              	.LBE38:
 190              		.loc 1 132 44 view .LVU64
 191 004e 0893     		str	r3, [sp, #32]
 133:Libraries/STM32F4xx_StdPeriph_Driver/src/stm32f4xx_cryp_tdes.c ****   keyaddr+=4;
 192              		.loc 1 133 3 is_stmt 1 view .LVU65
 193              	.LVL22:
 134:Libraries/STM32F4xx_StdPeriph_Driver/src/stm32f4xx_cryp_tdes.c ****   TDES_CRYP_KeyInitStructure.CRYP_Key3Right= __REV(*(uint32_t*)(keyaddr));
 194              		.loc 1 134 3 view .LVU66
 195              		.loc 1 134 46 is_stmt 0 view .LVU67
 196 0050 6B69     		ldr	r3, [r5, #20]
 197              	.LVL23:
 198              	.LBB40:
 199              	.LBI40:
 495:Libraries/CMSIS/Include/core_cmInstr.h **** {
 200              		.loc 2 495 57 is_stmt 1 view .LVU68
 201              	.LBB41:
 202              		.loc 2 498 3 view .LVU69
 203              		.loc 2 498 10 is_stmt 0 view .LVU70
 204 0052 1BBA     		rev	r3, r3
 205              	.LVL24:
 206              		.loc 2 498 10 view .LVU71
 207              	.LBE41:
 208              	.LBE40:
 209              		.loc 1 134 44 view .LVU72
 210 0054 0993     		str	r3, [sp, #36]
 135:Libraries/STM32F4xx_StdPeriph_Driver/src/stm32f4xx_cryp_tdes.c ****   CRYP_KeyInit(& TDES_CRYP_KeyInitStructure);
 211              		.loc 1 135 3 is_stmt 1 view .LVU73
 212 0056 02A8     		add	r0, sp, #8
 213 0058 FFF7FEFF 		bl	CRYP_KeyInit
 214              	.LVL25:
 136:Libraries/STM32F4xx_StdPeriph_Driver/src/stm32f4xx_cryp_tdes.c **** 
 137:Libraries/STM32F4xx_StdPeriph_Driver/src/stm32f4xx_cryp_tdes.c ****   /* Flush IN/OUT FIFO */
 138:Libraries/STM32F4xx_StdPeriph_Driver/src/stm32f4xx_cryp_tdes.c ****   CRYP_FIFOFlush();
 215              		.loc 1 138 3 view .LVU74
ARM GAS  /tmp/ccJ7xVEl.s 			page 16


 216 005c FFF7FEFF 		bl	CRYP_FIFOFlush
 217              	.LVL26:
 139:Libraries/STM32F4xx_StdPeriph_Driver/src/stm32f4xx_cryp_tdes.c **** 
 140:Libraries/STM32F4xx_StdPeriph_Driver/src/stm32f4xx_cryp_tdes.c ****   /* Enable Crypto processor */
 141:Libraries/STM32F4xx_StdPeriph_Driver/src/stm32f4xx_cryp_tdes.c ****   CRYP_Cmd(ENABLE);
 218              		.loc 1 141 3 view .LVU75
 219 0060 0120     		movs	r0, #1
 220 0062 FFF7FEFF 		bl	CRYP_Cmd
 221              	.LVL27:
 142:Libraries/STM32F4xx_StdPeriph_Driver/src/stm32f4xx_cryp_tdes.c **** 
 143:Libraries/STM32F4xx_StdPeriph_Driver/src/stm32f4xx_cryp_tdes.c ****   if(CRYP_GetCmdStatus() == DISABLE)
 222              		.loc 1 143 3 view .LVU76
 223              		.loc 1 143 6 is_stmt 0 view .LVU77
 224 0066 FFF7FEFF 		bl	CRYP_GetCmdStatus
 225              	.LVL28:
 226              		.loc 1 143 5 view .LVU78
 227 006a 0646     		mov	r6, r0
 228 006c 78B3     		cbz	r0, .L4
 144:Libraries/STM32F4xx_StdPeriph_Driver/src/stm32f4xx_cryp_tdes.c ****   {
 145:Libraries/STM32F4xx_StdPeriph_Driver/src/stm32f4xx_cryp_tdes.c ****     /* The CRYP peripheral clock is not enabled or the device doesn't embed 
 146:Libraries/STM32F4xx_StdPeriph_Driver/src/stm32f4xx_cryp_tdes.c ****     the CRYP peripheral (please check the device sales type. */
 147:Libraries/STM32F4xx_StdPeriph_Driver/src/stm32f4xx_cryp_tdes.c ****     status = ERROR;
 148:Libraries/STM32F4xx_StdPeriph_Driver/src/stm32f4xx_cryp_tdes.c ****   }
 149:Libraries/STM32F4xx_StdPeriph_Driver/src/stm32f4xx_cryp_tdes.c ****   else
 150:Libraries/STM32F4xx_StdPeriph_Driver/src/stm32f4xx_cryp_tdes.c ****   {
 151:Libraries/STM32F4xx_StdPeriph_Driver/src/stm32f4xx_cryp_tdes.c ****     for(i=0; ((i<Ilength) && (status != ERROR)); i+=8)
 229              		.loc 1 151 10 view .LVU79
 230 006e 0025     		movs	r5, #0
 231              	.LVL29:
 100:Libraries/STM32F4xx_StdPeriph_Driver/src/stm32f4xx_cryp_tdes.c ****   uint32_t keyaddr    = (uint32_t)Key;
 232              		.loc 1 100 15 view .LVU80
 233 0070 0126     		movs	r6, #1
 234 0072 05E0     		b	.L5
 235              	.LVL30:
 236              	.L13:
 112:Libraries/STM32F4xx_StdPeriph_Driver/src/stm32f4xx_cryp_tdes.c ****   }
 237              		.loc 1 112 6 is_stmt 1 view .LVU81
 112:Libraries/STM32F4xx_StdPeriph_Driver/src/stm32f4xx_cryp_tdes.c ****   }
 238              		.loc 1 112 43 is_stmt 0 view .LVU82
 239 0074 0023     		movs	r3, #0
 240 0076 0A93     		str	r3, [sp, #40]
 241 0078 D4E7     		b	.L3
 242              	.LVL31:
 243              	.L6:
 152:Libraries/STM32F4xx_StdPeriph_Driver/src/stm32f4xx_cryp_tdes.c ****     {
 153:Libraries/STM32F4xx_StdPeriph_Driver/src/stm32f4xx_cryp_tdes.c ****       /* Write the Input block in the Input FIFO */
 154:Libraries/STM32F4xx_StdPeriph_Driver/src/stm32f4xx_cryp_tdes.c ****       CRYP_DataIn(*(uint32_t*)(inputaddr));
 155:Libraries/STM32F4xx_StdPeriph_Driver/src/stm32f4xx_cryp_tdes.c ****       inputaddr+=4;
 156:Libraries/STM32F4xx_StdPeriph_Driver/src/stm32f4xx_cryp_tdes.c ****       CRYP_DataIn(*(uint32_t*)(inputaddr));
 157:Libraries/STM32F4xx_StdPeriph_Driver/src/stm32f4xx_cryp_tdes.c ****       inputaddr+=4;
 158:Libraries/STM32F4xx_StdPeriph_Driver/src/stm32f4xx_cryp_tdes.c ****       
 159:Libraries/STM32F4xx_StdPeriph_Driver/src/stm32f4xx_cryp_tdes.c ****       /* Wait until the complete message has been processed */
 160:Libraries/STM32F4xx_StdPeriph_Driver/src/stm32f4xx_cryp_tdes.c ****       counter = 0;
 161:Libraries/STM32F4xx_StdPeriph_Driver/src/stm32f4xx_cryp_tdes.c ****       do
 162:Libraries/STM32F4xx_StdPeriph_Driver/src/stm32f4xx_cryp_tdes.c ****       {
 163:Libraries/STM32F4xx_StdPeriph_Driver/src/stm32f4xx_cryp_tdes.c ****         busystatus = CRYP_GetFlagStatus(CRYP_FLAG_BUSY);
 164:Libraries/STM32F4xx_StdPeriph_Driver/src/stm32f4xx_cryp_tdes.c ****         counter++;
ARM GAS  /tmp/ccJ7xVEl.s 			page 17


 165:Libraries/STM32F4xx_StdPeriph_Driver/src/stm32f4xx_cryp_tdes.c ****       }while ((counter != TDESBUSY_TIMEOUT) && (busystatus != RESET));
 166:Libraries/STM32F4xx_StdPeriph_Driver/src/stm32f4xx_cryp_tdes.c ****       
 167:Libraries/STM32F4xx_StdPeriph_Driver/src/stm32f4xx_cryp_tdes.c ****       if (busystatus != RESET)
 244              		.loc 1 167 7 is_stmt 1 view .LVU83
 245              		.loc 1 167 10 is_stmt 0 view .LVU84
 246 007a D0B1     		cbz	r0, .L14
 168:Libraries/STM32F4xx_StdPeriph_Driver/src/stm32f4xx_cryp_tdes.c ****       {
 169:Libraries/STM32F4xx_StdPeriph_Driver/src/stm32f4xx_cryp_tdes.c ****         status = ERROR;
 247              		.loc 1 169 16 view .LVU85
 248 007c 0026     		movs	r6, #0
 249              	.LVL32:
 250              	.L8:
 151:Libraries/STM32F4xx_StdPeriph_Driver/src/stm32f4xx_cryp_tdes.c ****     {
 251              		.loc 1 151 50 is_stmt 1 discriminator 2 view .LVU86
 151:Libraries/STM32F4xx_StdPeriph_Driver/src/stm32f4xx_cryp_tdes.c ****     {
 252              		.loc 1 151 51 is_stmt 0 discriminator 2 view .LVU87
 253 007e 0835     		adds	r5, r5, #8
 254              	.LVL33:
 255              	.L5:
 151:Libraries/STM32F4xx_StdPeriph_Driver/src/stm32f4xx_cryp_tdes.c ****     {
 256              		.loc 1 151 14 is_stmt 1 discriminator 1 view .LVU88
 151:Libraries/STM32F4xx_StdPeriph_Driver/src/stm32f4xx_cryp_tdes.c ****     {
 257              		.loc 1 151 5 is_stmt 0 discriminator 1 view .LVU89
 258 0080 BD42     		cmp	r5, r7
 259 0082 21D2     		bcs	.L9
 151:Libraries/STM32F4xx_StdPeriph_Driver/src/stm32f4xx_cryp_tdes.c ****     {
 260              		.loc 1 151 27 discriminator 3 view .LVU90
 261 0084 06B3     		cbz	r6, .L9
 154:Libraries/STM32F4xx_StdPeriph_Driver/src/stm32f4xx_cryp_tdes.c ****       inputaddr+=4;
 262              		.loc 1 154 7 is_stmt 1 view .LVU91
 263 0086 2068     		ldr	r0, [r4]
 264 0088 FFF7FEFF 		bl	CRYP_DataIn
 265              	.LVL34:
 155:Libraries/STM32F4xx_StdPeriph_Driver/src/stm32f4xx_cryp_tdes.c ****       CRYP_DataIn(*(uint32_t*)(inputaddr));
 266              		.loc 1 155 7 view .LVU92
 156:Libraries/STM32F4xx_StdPeriph_Driver/src/stm32f4xx_cryp_tdes.c ****       inputaddr+=4;
 267              		.loc 1 156 7 view .LVU93
 268 008c 6068     		ldr	r0, [r4, #4]
 269 008e FFF7FEFF 		bl	CRYP_DataIn
 270              	.LVL35:
 157:Libraries/STM32F4xx_StdPeriph_Driver/src/stm32f4xx_cryp_tdes.c ****       
 271              		.loc 1 157 7 view .LVU94
 157:Libraries/STM32F4xx_StdPeriph_Driver/src/stm32f4xx_cryp_tdes.c ****       
 272              		.loc 1 157 16 is_stmt 0 view .LVU95
 273 0092 0834     		adds	r4, r4, #8
 274              	.LVL36:
 160:Libraries/STM32F4xx_StdPeriph_Driver/src/stm32f4xx_cryp_tdes.c ****       do
 275              		.loc 1 160 7 is_stmt 1 view .LVU96
 160:Libraries/STM32F4xx_StdPeriph_Driver/src/stm32f4xx_cryp_tdes.c ****       do
 276              		.loc 1 160 15 is_stmt 0 view .LVU97
 277 0094 0023     		movs	r3, #0
 278 0096 0193     		str	r3, [sp, #4]
 279              	.L7:
 161:Libraries/STM32F4xx_StdPeriph_Driver/src/stm32f4xx_cryp_tdes.c ****       {
 280              		.loc 1 161 7 is_stmt 1 discriminator 2 view .LVU98
 163:Libraries/STM32F4xx_StdPeriph_Driver/src/stm32f4xx_cryp_tdes.c ****         counter++;
 281              		.loc 1 163 9 discriminator 2 view .LVU99
ARM GAS  /tmp/ccJ7xVEl.s 			page 18


 163:Libraries/STM32F4xx_StdPeriph_Driver/src/stm32f4xx_cryp_tdes.c ****         counter++;
 282              		.loc 1 163 22 is_stmt 0 discriminator 2 view .LVU100
 283 0098 1020     		movs	r0, #16
 284 009a FFF7FEFF 		bl	CRYP_GetFlagStatus
 285              	.LVL37:
 164:Libraries/STM32F4xx_StdPeriph_Driver/src/stm32f4xx_cryp_tdes.c ****       }while ((counter != TDESBUSY_TIMEOUT) && (busystatus != RESET));
 286              		.loc 1 164 9 is_stmt 1 discriminator 2 view .LVU101
 164:Libraries/STM32F4xx_StdPeriph_Driver/src/stm32f4xx_cryp_tdes.c ****       }while ((counter != TDESBUSY_TIMEOUT) && (busystatus != RESET));
 287              		.loc 1 164 16 is_stmt 0 discriminator 2 view .LVU102
 288 009e 0199     		ldr	r1, [sp, #4]
 289 00a0 0131     		adds	r1, r1, #1
 290 00a2 0191     		str	r1, [sp, #4]
 165:Libraries/STM32F4xx_StdPeriph_Driver/src/stm32f4xx_cryp_tdes.c ****       
 291              		.loc 1 165 14 is_stmt 1 discriminator 2 view .LVU103
 165:Libraries/STM32F4xx_StdPeriph_Driver/src/stm32f4xx_cryp_tdes.c ****       
 292              		.loc 1 165 24 is_stmt 0 discriminator 2 view .LVU104
 293 00a4 019B     		ldr	r3, [sp, #4]
 165:Libraries/STM32F4xx_StdPeriph_Driver/src/stm32f4xx_cryp_tdes.c ****       
 294              		.loc 1 165 7 discriminator 2 view .LVU105
 295 00a6 B3F5803F 		cmp	r3, #65536
 296 00aa E6D0     		beq	.L6
 165:Libraries/STM32F4xx_StdPeriph_Driver/src/stm32f4xx_cryp_tdes.c ****       
 297              		.loc 1 165 45 discriminator 1 view .LVU106
 298 00ac 0028     		cmp	r0, #0
 299 00ae F3D1     		bne	.L7
 300 00b0 E3E7     		b	.L6
 301              	.L14:
 170:Libraries/STM32F4xx_StdPeriph_Driver/src/stm32f4xx_cryp_tdes.c ****       }
 171:Libraries/STM32F4xx_StdPeriph_Driver/src/stm32f4xx_cryp_tdes.c ****       else
 172:Libraries/STM32F4xx_StdPeriph_Driver/src/stm32f4xx_cryp_tdes.c ****       {
 173:Libraries/STM32F4xx_StdPeriph_Driver/src/stm32f4xx_cryp_tdes.c ****         
 174:Libraries/STM32F4xx_StdPeriph_Driver/src/stm32f4xx_cryp_tdes.c ****         /* Read the Output block from the Output FIFO */
 175:Libraries/STM32F4xx_StdPeriph_Driver/src/stm32f4xx_cryp_tdes.c ****         *(uint32_t*)(outputaddr) = CRYP_DataOut();
 302              		.loc 1 175 9 is_stmt 1 view .LVU107
 303              		.loc 1 175 36 is_stmt 0 view .LVU108
 304 00b2 FFF7FEFF 		bl	CRYP_DataOut
 305              	.LVL38:
 306              		.loc 1 175 34 view .LVU109
 307 00b6 C8F80000 		str	r0, [r8]
 176:Libraries/STM32F4xx_StdPeriph_Driver/src/stm32f4xx_cryp_tdes.c ****         outputaddr+=4;
 308              		.loc 1 176 9 is_stmt 1 view .LVU110
 309              	.LVL39:
 177:Libraries/STM32F4xx_StdPeriph_Driver/src/stm32f4xx_cryp_tdes.c ****         *(uint32_t*)(outputaddr) = CRYP_DataOut();
 310              		.loc 1 177 9 view .LVU111
 311              		.loc 1 177 36 is_stmt 0 view .LVU112
 312 00ba FFF7FEFF 		bl	CRYP_DataOut
 313              	.LVL40:
 314              		.loc 1 177 34 view .LVU113
 315 00be C8F80400 		str	r0, [r8, #4]
 178:Libraries/STM32F4xx_StdPeriph_Driver/src/stm32f4xx_cryp_tdes.c ****         outputaddr+=4;
 316              		.loc 1 178 9 is_stmt 1 view .LVU114
 317              		.loc 1 178 19 is_stmt 0 view .LVU115
 318 00c2 08F10808 		add	r8, r8, #8
 319              	.LVL41:
 320              		.loc 1 178 19 view .LVU116
 321 00c6 DAE7     		b	.L8
 322              	.L9:
ARM GAS  /tmp/ccJ7xVEl.s 			page 19


 179:Libraries/STM32F4xx_StdPeriph_Driver/src/stm32f4xx_cryp_tdes.c ****       }
 180:Libraries/STM32F4xx_StdPeriph_Driver/src/stm32f4xx_cryp_tdes.c ****     }
 181:Libraries/STM32F4xx_StdPeriph_Driver/src/stm32f4xx_cryp_tdes.c ****     
 182:Libraries/STM32F4xx_StdPeriph_Driver/src/stm32f4xx_cryp_tdes.c ****     /* Disable Crypto */
 183:Libraries/STM32F4xx_StdPeriph_Driver/src/stm32f4xx_cryp_tdes.c ****     CRYP_Cmd(DISABLE);
 323              		.loc 1 183 5 is_stmt 1 view .LVU117
 324 00c8 0020     		movs	r0, #0
 325 00ca FFF7FEFF 		bl	CRYP_Cmd
 326              	.LVL42:
 327              	.L4:
 184:Libraries/STM32F4xx_StdPeriph_Driver/src/stm32f4xx_cryp_tdes.c ****   }
 185:Libraries/STM32F4xx_StdPeriph_Driver/src/stm32f4xx_cryp_tdes.c ****   return status; 
 328              		.loc 1 185 3 view .LVU118
 186:Libraries/STM32F4xx_StdPeriph_Driver/src/stm32f4xx_cryp_tdes.c **** }
 329              		.loc 1 186 1 is_stmt 0 view .LVU119
 330 00ce 3046     		mov	r0, r6
 331 00d0 0EB0     		add	sp, sp, #56
 332              	.LCFI2:
 333              		.cfi_def_cfa_offset 24
 334              		@ sp needed
 335 00d2 BDE8F081 		pop	{r4, r5, r6, r7, r8, pc}
 336              		.loc 1 186 1 view .LVU120
 337              		.cfi_endproc
 338              	.LFE123:
 340              		.section	.text.CRYP_TDES_CBC,"ax",%progbits
 341              		.align	1
 342              		.global	CRYP_TDES_CBC
 343              		.syntax unified
 344              		.thumb
 345              		.thumb_func
 346              		.fpu fpv4-sp-d16
 348              	CRYP_TDES_CBC:
 349              	.LVL43:
 350              	.LFB124:
 187:Libraries/STM32F4xx_StdPeriph_Driver/src/stm32f4xx_cryp_tdes.c **** 
 188:Libraries/STM32F4xx_StdPeriph_Driver/src/stm32f4xx_cryp_tdes.c **** /**
 189:Libraries/STM32F4xx_StdPeriph_Driver/src/stm32f4xx_cryp_tdes.c ****   * @brief  Encrypt and decrypt using TDES in CBC Mode
 190:Libraries/STM32F4xx_StdPeriph_Driver/src/stm32f4xx_cryp_tdes.c ****   * @param  Mode: encryption or decryption Mode.
 191:Libraries/STM32F4xx_StdPeriph_Driver/src/stm32f4xx_cryp_tdes.c ****   *           This parameter can be one of the following values:
 192:Libraries/STM32F4xx_StdPeriph_Driver/src/stm32f4xx_cryp_tdes.c ****   *            @arg MODE_ENCRYPT: Encryption
 193:Libraries/STM32F4xx_StdPeriph_Driver/src/stm32f4xx_cryp_tdes.c ****   *            @arg MODE_DECRYPT: Decryption
 194:Libraries/STM32F4xx_StdPeriph_Driver/src/stm32f4xx_cryp_tdes.c ****   * @param  Key: Key used for TDES algorithm.
 195:Libraries/STM32F4xx_StdPeriph_Driver/src/stm32f4xx_cryp_tdes.c ****   * @param  InitVectors: Initialisation Vectors used for TDES algorithm.
 196:Libraries/STM32F4xx_StdPeriph_Driver/src/stm32f4xx_cryp_tdes.c ****   * @param  Input: pointer to the Input buffer.
 197:Libraries/STM32F4xx_StdPeriph_Driver/src/stm32f4xx_cryp_tdes.c ****   * @param  Ilength: length of the Input buffer, must be a multiple of 8.
 198:Libraries/STM32F4xx_StdPeriph_Driver/src/stm32f4xx_cryp_tdes.c ****   * @param  Output: pointer to the returned buffer.
 199:Libraries/STM32F4xx_StdPeriph_Driver/src/stm32f4xx_cryp_tdes.c ****   * @retval An ErrorStatus enumeration value:
 200:Libraries/STM32F4xx_StdPeriph_Driver/src/stm32f4xx_cryp_tdes.c ****   *          - SUCCESS: Operation done
 201:Libraries/STM32F4xx_StdPeriph_Driver/src/stm32f4xx_cryp_tdes.c ****   *          - ERROR: Operation failed
 202:Libraries/STM32F4xx_StdPeriph_Driver/src/stm32f4xx_cryp_tdes.c ****   */
 203:Libraries/STM32F4xx_StdPeriph_Driver/src/stm32f4xx_cryp_tdes.c **** ErrorStatus CRYP_TDES_CBC(uint8_t Mode, uint8_t Key[24], uint8_t InitVectors[8],
 204:Libraries/STM32F4xx_StdPeriph_Driver/src/stm32f4xx_cryp_tdes.c ****                           uint8_t *Input, uint32_t Ilength, uint8_t *Output)
 205:Libraries/STM32F4xx_StdPeriph_Driver/src/stm32f4xx_cryp_tdes.c **** {
 351              		.loc 1 205 1 is_stmt 1 view -0
 352              		.cfi_startproc
 353              		@ args = 8, pretend = 0, frame = 72
 354              		@ frame_needed = 0, uses_anonymous_args = 0
ARM GAS  /tmp/ccJ7xVEl.s 			page 20


 355              		.loc 1 205 1 is_stmt 0 view .LVU122
 356 0000 2DE9F043 		push	{r4, r5, r6, r7, r8, r9, lr}
 357              	.LCFI3:
 358              		.cfi_def_cfa_offset 28
 359              		.cfi_offset 4, -28
 360              		.cfi_offset 5, -24
 361              		.cfi_offset 6, -20
 362              		.cfi_offset 7, -16
 363              		.cfi_offset 8, -12
 364              		.cfi_offset 9, -8
 365              		.cfi_offset 14, -4
 366 0004 93B0     		sub	sp, sp, #76
 367              	.LCFI4:
 368              		.cfi_def_cfa_offset 104
 369 0006 8146     		mov	r9, r0
 370 0008 0D46     		mov	r5, r1
 371 000a 1646     		mov	r6, r2
 372 000c DDF86880 		ldr	r8, [sp, #104]
 206:Libraries/STM32F4xx_StdPeriph_Driver/src/stm32f4xx_cryp_tdes.c ****   CRYP_InitTypeDef TDES_CRYP_InitStructure;
 373              		.loc 1 206 3 is_stmt 1 view .LVU123
 207:Libraries/STM32F4xx_StdPeriph_Driver/src/stm32f4xx_cryp_tdes.c ****   CRYP_KeyInitTypeDef TDES_CRYP_KeyInitStructure;
 374              		.loc 1 207 3 view .LVU124
 208:Libraries/STM32F4xx_StdPeriph_Driver/src/stm32f4xx_cryp_tdes.c ****   CRYP_IVInitTypeDef TDES_CRYP_IVInitStructure;
 375              		.loc 1 208 3 view .LVU125
 209:Libraries/STM32F4xx_StdPeriph_Driver/src/stm32f4xx_cryp_tdes.c ****   __IO uint32_t counter = 0;
 376              		.loc 1 209 3 view .LVU126
 377              		.loc 1 209 17 is_stmt 0 view .LVU127
 378 0010 0022     		movs	r2, #0
 379              	.LVL44:
 380              		.loc 1 209 17 view .LVU128
 381 0012 0192     		str	r2, [sp, #4]
 210:Libraries/STM32F4xx_StdPeriph_Driver/src/stm32f4xx_cryp_tdes.c ****   uint32_t busystatus = 0;
 382              		.loc 1 210 3 is_stmt 1 view .LVU129
 383              	.LVL45:
 211:Libraries/STM32F4xx_StdPeriph_Driver/src/stm32f4xx_cryp_tdes.c ****   ErrorStatus status = SUCCESS;
 384              		.loc 1 211 3 view .LVU130
 212:Libraries/STM32F4xx_StdPeriph_Driver/src/stm32f4xx_cryp_tdes.c ****   uint32_t keyaddr    = (uint32_t)Key;
 385              		.loc 1 212 3 view .LVU131
 213:Libraries/STM32F4xx_StdPeriph_Driver/src/stm32f4xx_cryp_tdes.c ****   uint32_t inputaddr  = (uint32_t)Input;
 386              		.loc 1 213 3 view .LVU132
 387              		.loc 1 213 12 is_stmt 0 view .LVU133
 388 0014 1C46     		mov	r4, r3
 389              	.LVL46:
 214:Libraries/STM32F4xx_StdPeriph_Driver/src/stm32f4xx_cryp_tdes.c ****   uint32_t outputaddr = (uint32_t)Output;
 390              		.loc 1 214 3 is_stmt 1 view .LVU134
 391              		.loc 1 214 12 is_stmt 0 view .LVU135
 392 0016 1B9F     		ldr	r7, [sp, #108]
 393              	.LVL47:
 215:Libraries/STM32F4xx_StdPeriph_Driver/src/stm32f4xx_cryp_tdes.c ****   uint32_t ivaddr     = (uint32_t)InitVectors;
 394              		.loc 1 215 3 is_stmt 1 view .LVU136
 216:Libraries/STM32F4xx_StdPeriph_Driver/src/stm32f4xx_cryp_tdes.c ****   uint32_t i = 0;
 395              		.loc 1 216 3 view .LVU137
 217:Libraries/STM32F4xx_StdPeriph_Driver/src/stm32f4xx_cryp_tdes.c **** 
 218:Libraries/STM32F4xx_StdPeriph_Driver/src/stm32f4xx_cryp_tdes.c ****   /* Crypto structures initialisation*/
 219:Libraries/STM32F4xx_StdPeriph_Driver/src/stm32f4xx_cryp_tdes.c ****   CRYP_KeyStructInit(&TDES_CRYP_KeyInitStructure);
 396              		.loc 1 219 3 view .LVU138
 397 0018 06A8     		add	r0, sp, #24
ARM GAS  /tmp/ccJ7xVEl.s 			page 21


 398              	.LVL48:
 399              		.loc 1 219 3 is_stmt 0 view .LVU139
 400 001a FFF7FEFF 		bl	CRYP_KeyStructInit
 401              	.LVL49:
 220:Libraries/STM32F4xx_StdPeriph_Driver/src/stm32f4xx_cryp_tdes.c **** 
 221:Libraries/STM32F4xx_StdPeriph_Driver/src/stm32f4xx_cryp_tdes.c ****   /* Crypto Init for Encryption process */
 222:Libraries/STM32F4xx_StdPeriph_Driver/src/stm32f4xx_cryp_tdes.c ****   if(Mode == MODE_ENCRYPT) /* TDES encryption */
 402              		.loc 1 222 3 is_stmt 1 view .LVU140
 403              		.loc 1 222 5 is_stmt 0 view .LVU141
 404 001e B9F1010F 		cmp	r9, #1
 405 0022 32D0     		beq	.L27
 223:Libraries/STM32F4xx_StdPeriph_Driver/src/stm32f4xx_cryp_tdes.c ****   {
 224:Libraries/STM32F4xx_StdPeriph_Driver/src/stm32f4xx_cryp_tdes.c ****     TDES_CRYP_InitStructure.CRYP_AlgoDir = CRYP_AlgoDir_Encrypt;
 225:Libraries/STM32F4xx_StdPeriph_Driver/src/stm32f4xx_cryp_tdes.c ****   }
 226:Libraries/STM32F4xx_StdPeriph_Driver/src/stm32f4xx_cryp_tdes.c ****   else
 227:Libraries/STM32F4xx_StdPeriph_Driver/src/stm32f4xx_cryp_tdes.c ****   {
 228:Libraries/STM32F4xx_StdPeriph_Driver/src/stm32f4xx_cryp_tdes.c ****     TDES_CRYP_InitStructure.CRYP_AlgoDir = CRYP_AlgoDir_Decrypt;
 406              		.loc 1 228 5 is_stmt 1 view .LVU142
 407              		.loc 1 228 42 is_stmt 0 view .LVU143
 408 0024 0423     		movs	r3, #4
 409 0026 0E93     		str	r3, [sp, #56]
 410              	.L17:
 229:Libraries/STM32F4xx_StdPeriph_Driver/src/stm32f4xx_cryp_tdes.c ****   }
 230:Libraries/STM32F4xx_StdPeriph_Driver/src/stm32f4xx_cryp_tdes.c ****   TDES_CRYP_InitStructure.CRYP_AlgoMode = CRYP_AlgoMode_TDES_CBC;
 411              		.loc 1 230 3 is_stmt 1 view .LVU144
 412              		.loc 1 230 41 is_stmt 0 view .LVU145
 413 0028 0823     		movs	r3, #8
 414 002a 0F93     		str	r3, [sp, #60]
 231:Libraries/STM32F4xx_StdPeriph_Driver/src/stm32f4xx_cryp_tdes.c ****   TDES_CRYP_InitStructure.CRYP_DataType = CRYP_DataType_8b;
 415              		.loc 1 231 3 is_stmt 1 view .LVU146
 416              		.loc 1 231 41 is_stmt 0 view .LVU147
 417 002c 8023     		movs	r3, #128
 418 002e 1093     		str	r3, [sp, #64]
 232:Libraries/STM32F4xx_StdPeriph_Driver/src/stm32f4xx_cryp_tdes.c **** 
 233:Libraries/STM32F4xx_StdPeriph_Driver/src/stm32f4xx_cryp_tdes.c ****   CRYP_Init(&TDES_CRYP_InitStructure);
 419              		.loc 1 233 3 is_stmt 1 view .LVU148
 420 0030 0EA8     		add	r0, sp, #56
 421 0032 FFF7FEFF 		bl	CRYP_Init
 422              	.LVL50:
 234:Libraries/STM32F4xx_StdPeriph_Driver/src/stm32f4xx_cryp_tdes.c **** 
 235:Libraries/STM32F4xx_StdPeriph_Driver/src/stm32f4xx_cryp_tdes.c ****   /* Key Initialisation */
 236:Libraries/STM32F4xx_StdPeriph_Driver/src/stm32f4xx_cryp_tdes.c ****   TDES_CRYP_KeyInitStructure.CRYP_Key1Left = __REV(*(uint32_t*)(keyaddr));
 423              		.loc 1 236 3 view .LVU149
 424              		.loc 1 236 46 is_stmt 0 view .LVU150
 425 0036 2B68     		ldr	r3, [r5]
 426              	.LVL51:
 427              	.LBB42:
 428              	.LBI42:
 495:Libraries/CMSIS/Include/core_cmInstr.h **** {
 429              		.loc 2 495 57 is_stmt 1 view .LVU151
 430              	.LBB43:
 431              		.loc 2 498 3 view .LVU152
 432              		.loc 2 498 10 is_stmt 0 view .LVU153
 433 0038 1BBA     		rev	r3, r3
 434              	.LVL52:
 435              		.loc 2 498 10 view .LVU154
 436              	.LBE43:
ARM GAS  /tmp/ccJ7xVEl.s 			page 22


 437              	.LBE42:
 438              		.loc 1 236 44 view .LVU155
 439 003a 0893     		str	r3, [sp, #32]
 237:Libraries/STM32F4xx_StdPeriph_Driver/src/stm32f4xx_cryp_tdes.c ****   keyaddr+=4;
 440              		.loc 1 237 3 is_stmt 1 view .LVU156
 441              	.LVL53:
 238:Libraries/STM32F4xx_StdPeriph_Driver/src/stm32f4xx_cryp_tdes.c ****   TDES_CRYP_KeyInitStructure.CRYP_Key1Right= __REV(*(uint32_t*)(keyaddr));
 442              		.loc 1 238 3 view .LVU157
 443              		.loc 1 238 46 is_stmt 0 view .LVU158
 444 003c 6B68     		ldr	r3, [r5, #4]
 445              	.LVL54:
 446              	.LBB44:
 447              	.LBI44:
 495:Libraries/CMSIS/Include/core_cmInstr.h **** {
 448              		.loc 2 495 57 is_stmt 1 view .LVU159
 449              	.LBB45:
 450              		.loc 2 498 3 view .LVU160
 451              		.loc 2 498 10 is_stmt 0 view .LVU161
 452 003e 1BBA     		rev	r3, r3
 453              	.LVL55:
 454              		.loc 2 498 10 view .LVU162
 455              	.LBE45:
 456              	.LBE44:
 457              		.loc 1 238 44 view .LVU163
 458 0040 0993     		str	r3, [sp, #36]
 239:Libraries/STM32F4xx_StdPeriph_Driver/src/stm32f4xx_cryp_tdes.c ****   keyaddr+=4;
 459              		.loc 1 239 3 is_stmt 1 view .LVU164
 460              	.LVL56:
 240:Libraries/STM32F4xx_StdPeriph_Driver/src/stm32f4xx_cryp_tdes.c ****   TDES_CRYP_KeyInitStructure.CRYP_Key2Left = __REV(*(uint32_t*)(keyaddr));
 461              		.loc 1 240 3 view .LVU165
 462              		.loc 1 240 46 is_stmt 0 view .LVU166
 463 0042 AB68     		ldr	r3, [r5, #8]
 464              	.LVL57:
 465              	.LBB46:
 466              	.LBI46:
 495:Libraries/CMSIS/Include/core_cmInstr.h **** {
 467              		.loc 2 495 57 is_stmt 1 view .LVU167
 468              	.LBB47:
 469              		.loc 2 498 3 view .LVU168
 470              		.loc 2 498 10 is_stmt 0 view .LVU169
 471 0044 1BBA     		rev	r3, r3
 472              	.LVL58:
 473              		.loc 2 498 10 view .LVU170
 474              	.LBE47:
 475              	.LBE46:
 476              		.loc 1 240 44 view .LVU171
 477 0046 0A93     		str	r3, [sp, #40]
 241:Libraries/STM32F4xx_StdPeriph_Driver/src/stm32f4xx_cryp_tdes.c ****   keyaddr+=4;
 478              		.loc 1 241 3 is_stmt 1 view .LVU172
 479              	.LVL59:
 242:Libraries/STM32F4xx_StdPeriph_Driver/src/stm32f4xx_cryp_tdes.c ****   TDES_CRYP_KeyInitStructure.CRYP_Key2Right= __REV(*(uint32_t*)(keyaddr));
 480              		.loc 1 242 3 view .LVU173
 481              		.loc 1 242 46 is_stmt 0 view .LVU174
 482 0048 EB68     		ldr	r3, [r5, #12]
 483              	.LVL60:
 484              	.LBB48:
 485              	.LBI48:
ARM GAS  /tmp/ccJ7xVEl.s 			page 23


 495:Libraries/CMSIS/Include/core_cmInstr.h **** {
 486              		.loc 2 495 57 is_stmt 1 view .LVU175
 487              	.LBB49:
 488              		.loc 2 498 3 view .LVU176
 489              		.loc 2 498 10 is_stmt 0 view .LVU177
 490 004a 1BBA     		rev	r3, r3
 491              	.LVL61:
 492              		.loc 2 498 10 view .LVU178
 493              	.LBE49:
 494              	.LBE48:
 495              		.loc 1 242 44 view .LVU179
 496 004c 0B93     		str	r3, [sp, #44]
 243:Libraries/STM32F4xx_StdPeriph_Driver/src/stm32f4xx_cryp_tdes.c ****   keyaddr+=4;
 497              		.loc 1 243 3 is_stmt 1 view .LVU180
 498              	.LVL62:
 244:Libraries/STM32F4xx_StdPeriph_Driver/src/stm32f4xx_cryp_tdes.c ****   TDES_CRYP_KeyInitStructure.CRYP_Key3Left = __REV(*(uint32_t*)(keyaddr));
 499              		.loc 1 244 3 view .LVU181
 500              		.loc 1 244 46 is_stmt 0 view .LVU182
 501 004e 2B69     		ldr	r3, [r5, #16]
 502              	.LVL63:
 503              	.LBB50:
 504              	.LBI50:
 495:Libraries/CMSIS/Include/core_cmInstr.h **** {
 505              		.loc 2 495 57 is_stmt 1 view .LVU183
 506              	.LBB51:
 507              		.loc 2 498 3 view .LVU184
 508              		.loc 2 498 10 is_stmt 0 view .LVU185
 509 0050 1BBA     		rev	r3, r3
 510              	.LVL64:
 511              		.loc 2 498 10 view .LVU186
 512              	.LBE51:
 513              	.LBE50:
 514              		.loc 1 244 44 view .LVU187
 515 0052 0C93     		str	r3, [sp, #48]
 245:Libraries/STM32F4xx_StdPeriph_Driver/src/stm32f4xx_cryp_tdes.c ****   keyaddr+=4;
 516              		.loc 1 245 3 is_stmt 1 view .LVU188
 517              	.LVL65:
 246:Libraries/STM32F4xx_StdPeriph_Driver/src/stm32f4xx_cryp_tdes.c ****   TDES_CRYP_KeyInitStructure.CRYP_Key3Right= __REV(*(uint32_t*)(keyaddr));
 518              		.loc 1 246 3 view .LVU189
 519              		.loc 1 246 46 is_stmt 0 view .LVU190
 520 0054 6B69     		ldr	r3, [r5, #20]
 521              	.LVL66:
 522              	.LBB52:
 523              	.LBI52:
 495:Libraries/CMSIS/Include/core_cmInstr.h **** {
 524              		.loc 2 495 57 is_stmt 1 view .LVU191
 525              	.LBB53:
 526              		.loc 2 498 3 view .LVU192
 527              		.loc 2 498 10 is_stmt 0 view .LVU193
 528 0056 1BBA     		rev	r3, r3
 529              	.LVL67:
 530              		.loc 2 498 10 view .LVU194
 531              	.LBE53:
 532              	.LBE52:
 533              		.loc 1 246 44 view .LVU195
 534 0058 0D93     		str	r3, [sp, #52]
 247:Libraries/STM32F4xx_StdPeriph_Driver/src/stm32f4xx_cryp_tdes.c ****   CRYP_KeyInit(& TDES_CRYP_KeyInitStructure);
ARM GAS  /tmp/ccJ7xVEl.s 			page 24


 535              		.loc 1 247 3 is_stmt 1 view .LVU196
 536 005a 06A8     		add	r0, sp, #24
 537 005c FFF7FEFF 		bl	CRYP_KeyInit
 538              	.LVL68:
 248:Libraries/STM32F4xx_StdPeriph_Driver/src/stm32f4xx_cryp_tdes.c ****   
 249:Libraries/STM32F4xx_StdPeriph_Driver/src/stm32f4xx_cryp_tdes.c ****   /* Initialization Vectors */
 250:Libraries/STM32F4xx_StdPeriph_Driver/src/stm32f4xx_cryp_tdes.c ****   TDES_CRYP_IVInitStructure.CRYP_IV0Left = __REV(*(uint32_t*)(ivaddr));
 539              		.loc 1 250 3 view .LVU197
 540              		.loc 1 250 44 is_stmt 0 view .LVU198
 541 0060 3368     		ldr	r3, [r6]
 542              	.LVL69:
 543              	.LBB54:
 544              	.LBI54:
 495:Libraries/CMSIS/Include/core_cmInstr.h **** {
 545              		.loc 2 495 57 is_stmt 1 view .LVU199
 546              	.LBB55:
 547              		.loc 2 498 3 view .LVU200
 548              		.loc 2 498 10 is_stmt 0 view .LVU201
 549 0062 1BBA     		rev	r3, r3
 550              	.LVL70:
 551              		.loc 2 498 10 view .LVU202
 552              	.LBE55:
 553              	.LBE54:
 554              		.loc 1 250 42 view .LVU203
 555 0064 0293     		str	r3, [sp, #8]
 251:Libraries/STM32F4xx_StdPeriph_Driver/src/stm32f4xx_cryp_tdes.c ****   ivaddr+=4;
 556              		.loc 1 251 3 is_stmt 1 view .LVU204
 557              	.LVL71:
 252:Libraries/STM32F4xx_StdPeriph_Driver/src/stm32f4xx_cryp_tdes.c ****   TDES_CRYP_IVInitStructure.CRYP_IV0Right= __REV(*(uint32_t*)(ivaddr));
 558              		.loc 1 252 3 view .LVU205
 559              		.loc 1 252 44 is_stmt 0 view .LVU206
 560 0066 7368     		ldr	r3, [r6, #4]
 561              	.LVL72:
 562              	.LBB56:
 563              	.LBI56:
 495:Libraries/CMSIS/Include/core_cmInstr.h **** {
 564              		.loc 2 495 57 is_stmt 1 view .LVU207
 565              	.LBB57:
 566              		.loc 2 498 3 view .LVU208
 567              		.loc 2 498 10 is_stmt 0 view .LVU209
 568 0068 1BBA     		rev	r3, r3
 569              	.LVL73:
 570              		.loc 2 498 10 view .LVU210
 571              	.LBE57:
 572              	.LBE56:
 573              		.loc 1 252 42 view .LVU211
 574 006a 0393     		str	r3, [sp, #12]
 253:Libraries/STM32F4xx_StdPeriph_Driver/src/stm32f4xx_cryp_tdes.c ****   CRYP_IVInit(&TDES_CRYP_IVInitStructure);
 575              		.loc 1 253 3 is_stmt 1 view .LVU212
 576 006c 02A8     		add	r0, sp, #8
 577 006e FFF7FEFF 		bl	CRYP_IVInit
 578              	.LVL74:
 254:Libraries/STM32F4xx_StdPeriph_Driver/src/stm32f4xx_cryp_tdes.c ****   
 255:Libraries/STM32F4xx_StdPeriph_Driver/src/stm32f4xx_cryp_tdes.c ****   /* Flush IN/OUT FIFO */
 256:Libraries/STM32F4xx_StdPeriph_Driver/src/stm32f4xx_cryp_tdes.c ****   CRYP_FIFOFlush();
 579              		.loc 1 256 3 view .LVU213
 580 0072 FFF7FEFF 		bl	CRYP_FIFOFlush
ARM GAS  /tmp/ccJ7xVEl.s 			page 25


 581              	.LVL75:
 257:Libraries/STM32F4xx_StdPeriph_Driver/src/stm32f4xx_cryp_tdes.c ****   
 258:Libraries/STM32F4xx_StdPeriph_Driver/src/stm32f4xx_cryp_tdes.c ****   /* Enable Crypto processor */
 259:Libraries/STM32F4xx_StdPeriph_Driver/src/stm32f4xx_cryp_tdes.c ****   CRYP_Cmd(ENABLE);
 582              		.loc 1 259 3 view .LVU214
 583 0076 0120     		movs	r0, #1
 584 0078 FFF7FEFF 		bl	CRYP_Cmd
 585              	.LVL76:
 260:Libraries/STM32F4xx_StdPeriph_Driver/src/stm32f4xx_cryp_tdes.c ****   
 261:Libraries/STM32F4xx_StdPeriph_Driver/src/stm32f4xx_cryp_tdes.c ****   if(CRYP_GetCmdStatus() == DISABLE)
 586              		.loc 1 261 3 view .LVU215
 587              		.loc 1 261 6 is_stmt 0 view .LVU216
 588 007c FFF7FEFF 		bl	CRYP_GetCmdStatus
 589              	.LVL77:
 590              		.loc 1 261 5 view .LVU217
 591 0080 0646     		mov	r6, r0
 592              	.LVL78:
 593              		.loc 1 261 5 view .LVU218
 594 0082 60B3     		cbz	r0, .L18
 262:Libraries/STM32F4xx_StdPeriph_Driver/src/stm32f4xx_cryp_tdes.c ****   {
 263:Libraries/STM32F4xx_StdPeriph_Driver/src/stm32f4xx_cryp_tdes.c ****     /* The CRYP peripheral clock is not enabled or the device doesn't embed 
 264:Libraries/STM32F4xx_StdPeriph_Driver/src/stm32f4xx_cryp_tdes.c ****     the CRYP peripheral (please check the device sales type. */
 265:Libraries/STM32F4xx_StdPeriph_Driver/src/stm32f4xx_cryp_tdes.c ****     status = ERROR;
 266:Libraries/STM32F4xx_StdPeriph_Driver/src/stm32f4xx_cryp_tdes.c ****   }
 267:Libraries/STM32F4xx_StdPeriph_Driver/src/stm32f4xx_cryp_tdes.c ****   else
 268:Libraries/STM32F4xx_StdPeriph_Driver/src/stm32f4xx_cryp_tdes.c ****   {
 269:Libraries/STM32F4xx_StdPeriph_Driver/src/stm32f4xx_cryp_tdes.c ****     for(i=0; ((i<Ilength) && (status != ERROR)); i+=8)
 595              		.loc 1 269 10 view .LVU219
 596 0084 0025     		movs	r5, #0
 597              	.LVL79:
 211:Libraries/STM32F4xx_StdPeriph_Driver/src/stm32f4xx_cryp_tdes.c ****   uint32_t keyaddr    = (uint32_t)Key;
 598              		.loc 1 211 15 view .LVU220
 599 0086 0126     		movs	r6, #1
 600 0088 05E0     		b	.L19
 601              	.LVL80:
 602              	.L27:
 224:Libraries/STM32F4xx_StdPeriph_Driver/src/stm32f4xx_cryp_tdes.c ****   }
 603              		.loc 1 224 5 is_stmt 1 view .LVU221
 224:Libraries/STM32F4xx_StdPeriph_Driver/src/stm32f4xx_cryp_tdes.c ****   }
 604              		.loc 1 224 42 is_stmt 0 view .LVU222
 605 008a 0023     		movs	r3, #0
 606 008c 0E93     		str	r3, [sp, #56]
 607 008e CBE7     		b	.L17
 608              	.LVL81:
 609              	.L20:
 270:Libraries/STM32F4xx_StdPeriph_Driver/src/stm32f4xx_cryp_tdes.c ****     {
 271:Libraries/STM32F4xx_StdPeriph_Driver/src/stm32f4xx_cryp_tdes.c ****       /* Write the Input block in the Input FIFO */
 272:Libraries/STM32F4xx_StdPeriph_Driver/src/stm32f4xx_cryp_tdes.c ****       CRYP_DataIn(*(uint32_t*)(inputaddr));
 273:Libraries/STM32F4xx_StdPeriph_Driver/src/stm32f4xx_cryp_tdes.c ****       inputaddr+=4;
 274:Libraries/STM32F4xx_StdPeriph_Driver/src/stm32f4xx_cryp_tdes.c ****       CRYP_DataIn(*(uint32_t*)(inputaddr));
 275:Libraries/STM32F4xx_StdPeriph_Driver/src/stm32f4xx_cryp_tdes.c ****       inputaddr+=4;
 276:Libraries/STM32F4xx_StdPeriph_Driver/src/stm32f4xx_cryp_tdes.c ****       
 277:Libraries/STM32F4xx_StdPeriph_Driver/src/stm32f4xx_cryp_tdes.c ****       /* Wait until the complete message has been processed */
 278:Libraries/STM32F4xx_StdPeriph_Driver/src/stm32f4xx_cryp_tdes.c ****       counter = 0;
 279:Libraries/STM32F4xx_StdPeriph_Driver/src/stm32f4xx_cryp_tdes.c ****       do
 280:Libraries/STM32F4xx_StdPeriph_Driver/src/stm32f4xx_cryp_tdes.c ****       {
 281:Libraries/STM32F4xx_StdPeriph_Driver/src/stm32f4xx_cryp_tdes.c ****         busystatus = CRYP_GetFlagStatus(CRYP_FLAG_BUSY);
ARM GAS  /tmp/ccJ7xVEl.s 			page 26


 282:Libraries/STM32F4xx_StdPeriph_Driver/src/stm32f4xx_cryp_tdes.c ****         counter++;
 283:Libraries/STM32F4xx_StdPeriph_Driver/src/stm32f4xx_cryp_tdes.c ****       }while ((counter != TDESBUSY_TIMEOUT) && (busystatus != RESET));
 284:Libraries/STM32F4xx_StdPeriph_Driver/src/stm32f4xx_cryp_tdes.c ****       
 285:Libraries/STM32F4xx_StdPeriph_Driver/src/stm32f4xx_cryp_tdes.c ****       if (busystatus != RESET)
 610              		.loc 1 285 7 is_stmt 1 view .LVU223
 611              		.loc 1 285 10 is_stmt 0 view .LVU224
 612 0090 D0B1     		cbz	r0, .L28
 286:Libraries/STM32F4xx_StdPeriph_Driver/src/stm32f4xx_cryp_tdes.c ****       {
 287:Libraries/STM32F4xx_StdPeriph_Driver/src/stm32f4xx_cryp_tdes.c ****         status = ERROR;
 613              		.loc 1 287 16 view .LVU225
 614 0092 0026     		movs	r6, #0
 615              	.LVL82:
 616              	.L22:
 269:Libraries/STM32F4xx_StdPeriph_Driver/src/stm32f4xx_cryp_tdes.c ****     {
 617              		.loc 1 269 50 is_stmt 1 discriminator 2 view .LVU226
 269:Libraries/STM32F4xx_StdPeriph_Driver/src/stm32f4xx_cryp_tdes.c ****     {
 618              		.loc 1 269 51 is_stmt 0 discriminator 2 view .LVU227
 619 0094 0835     		adds	r5, r5, #8
 620              	.LVL83:
 621              	.L19:
 269:Libraries/STM32F4xx_StdPeriph_Driver/src/stm32f4xx_cryp_tdes.c ****     {
 622              		.loc 1 269 14 is_stmt 1 discriminator 1 view .LVU228
 269:Libraries/STM32F4xx_StdPeriph_Driver/src/stm32f4xx_cryp_tdes.c ****     {
 623              		.loc 1 269 5 is_stmt 0 discriminator 1 view .LVU229
 624 0096 4545     		cmp	r5, r8
 625 0098 1ED2     		bcs	.L23
 269:Libraries/STM32F4xx_StdPeriph_Driver/src/stm32f4xx_cryp_tdes.c ****     {
 626              		.loc 1 269 27 discriminator 3 view .LVU230
 627 009a EEB1     		cbz	r6, .L23
 272:Libraries/STM32F4xx_StdPeriph_Driver/src/stm32f4xx_cryp_tdes.c ****       inputaddr+=4;
 628              		.loc 1 272 7 is_stmt 1 view .LVU231
 629 009c 2068     		ldr	r0, [r4]
 630 009e FFF7FEFF 		bl	CRYP_DataIn
 631              	.LVL84:
 273:Libraries/STM32F4xx_StdPeriph_Driver/src/stm32f4xx_cryp_tdes.c ****       CRYP_DataIn(*(uint32_t*)(inputaddr));
 632              		.loc 1 273 7 view .LVU232
 274:Libraries/STM32F4xx_StdPeriph_Driver/src/stm32f4xx_cryp_tdes.c ****       inputaddr+=4;
 633              		.loc 1 274 7 view .LVU233
 634 00a2 6068     		ldr	r0, [r4, #4]
 635 00a4 FFF7FEFF 		bl	CRYP_DataIn
 636              	.LVL85:
 275:Libraries/STM32F4xx_StdPeriph_Driver/src/stm32f4xx_cryp_tdes.c ****       
 637              		.loc 1 275 7 view .LVU234
 275:Libraries/STM32F4xx_StdPeriph_Driver/src/stm32f4xx_cryp_tdes.c ****       
 638              		.loc 1 275 16 is_stmt 0 view .LVU235
 639 00a8 0834     		adds	r4, r4, #8
 640              	.LVL86:
 278:Libraries/STM32F4xx_StdPeriph_Driver/src/stm32f4xx_cryp_tdes.c ****       do
 641              		.loc 1 278 7 is_stmt 1 view .LVU236
 278:Libraries/STM32F4xx_StdPeriph_Driver/src/stm32f4xx_cryp_tdes.c ****       do
 642              		.loc 1 278 15 is_stmt 0 view .LVU237
 643 00aa 0023     		movs	r3, #0
 644 00ac 0193     		str	r3, [sp, #4]
 645              	.L21:
 279:Libraries/STM32F4xx_StdPeriph_Driver/src/stm32f4xx_cryp_tdes.c ****       {
 646              		.loc 1 279 7 is_stmt 1 discriminator 2 view .LVU238
 281:Libraries/STM32F4xx_StdPeriph_Driver/src/stm32f4xx_cryp_tdes.c ****         counter++;
ARM GAS  /tmp/ccJ7xVEl.s 			page 27


 647              		.loc 1 281 9 discriminator 2 view .LVU239
 281:Libraries/STM32F4xx_StdPeriph_Driver/src/stm32f4xx_cryp_tdes.c ****         counter++;
 648              		.loc 1 281 22 is_stmt 0 discriminator 2 view .LVU240
 649 00ae 1020     		movs	r0, #16
 650 00b0 FFF7FEFF 		bl	CRYP_GetFlagStatus
 651              	.LVL87:
 282:Libraries/STM32F4xx_StdPeriph_Driver/src/stm32f4xx_cryp_tdes.c ****       }while ((counter != TDESBUSY_TIMEOUT) && (busystatus != RESET));
 652              		.loc 1 282 9 is_stmt 1 discriminator 2 view .LVU241
 282:Libraries/STM32F4xx_StdPeriph_Driver/src/stm32f4xx_cryp_tdes.c ****       }while ((counter != TDESBUSY_TIMEOUT) && (busystatus != RESET));
 653              		.loc 1 282 16 is_stmt 0 discriminator 2 view .LVU242
 654 00b4 019A     		ldr	r2, [sp, #4]
 655 00b6 0132     		adds	r2, r2, #1
 656 00b8 0192     		str	r2, [sp, #4]
 283:Libraries/STM32F4xx_StdPeriph_Driver/src/stm32f4xx_cryp_tdes.c ****       
 657              		.loc 1 283 14 is_stmt 1 discriminator 2 view .LVU243
 283:Libraries/STM32F4xx_StdPeriph_Driver/src/stm32f4xx_cryp_tdes.c ****       
 658              		.loc 1 283 24 is_stmt 0 discriminator 2 view .LVU244
 659 00ba 019B     		ldr	r3, [sp, #4]
 283:Libraries/STM32F4xx_StdPeriph_Driver/src/stm32f4xx_cryp_tdes.c ****       
 660              		.loc 1 283 7 discriminator 2 view .LVU245
 661 00bc B3F5803F 		cmp	r3, #65536
 662 00c0 E6D0     		beq	.L20
 283:Libraries/STM32F4xx_StdPeriph_Driver/src/stm32f4xx_cryp_tdes.c ****       
 663              		.loc 1 283 45 discriminator 1 view .LVU246
 664 00c2 0028     		cmp	r0, #0
 665 00c4 F3D1     		bne	.L21
 666 00c6 E3E7     		b	.L20
 667              	.L28:
 288:Libraries/STM32F4xx_StdPeriph_Driver/src/stm32f4xx_cryp_tdes.c ****       }
 289:Libraries/STM32F4xx_StdPeriph_Driver/src/stm32f4xx_cryp_tdes.c ****       else
 290:Libraries/STM32F4xx_StdPeriph_Driver/src/stm32f4xx_cryp_tdes.c ****       {
 291:Libraries/STM32F4xx_StdPeriph_Driver/src/stm32f4xx_cryp_tdes.c ****         
 292:Libraries/STM32F4xx_StdPeriph_Driver/src/stm32f4xx_cryp_tdes.c ****         /* Read the Output block from the Output FIFO */
 293:Libraries/STM32F4xx_StdPeriph_Driver/src/stm32f4xx_cryp_tdes.c ****         *(uint32_t*)(outputaddr) = CRYP_DataOut();
 668              		.loc 1 293 9 is_stmt 1 view .LVU247
 669              		.loc 1 293 36 is_stmt 0 view .LVU248
 670 00c8 FFF7FEFF 		bl	CRYP_DataOut
 671              	.LVL88:
 672              		.loc 1 293 34 view .LVU249
 673 00cc 3860     		str	r0, [r7]
 294:Libraries/STM32F4xx_StdPeriph_Driver/src/stm32f4xx_cryp_tdes.c ****         outputaddr+=4;
 674              		.loc 1 294 9 is_stmt 1 view .LVU250
 675              	.LVL89:
 295:Libraries/STM32F4xx_StdPeriph_Driver/src/stm32f4xx_cryp_tdes.c ****         *(uint32_t*)(outputaddr) = CRYP_DataOut();
 676              		.loc 1 295 9 view .LVU251
 677              		.loc 1 295 36 is_stmt 0 view .LVU252
 678 00ce FFF7FEFF 		bl	CRYP_DataOut
 679              	.LVL90:
 680              		.loc 1 295 34 view .LVU253
 681 00d2 7860     		str	r0, [r7, #4]
 296:Libraries/STM32F4xx_StdPeriph_Driver/src/stm32f4xx_cryp_tdes.c ****         outputaddr+=4;
 682              		.loc 1 296 9 is_stmt 1 view .LVU254
 683              		.loc 1 296 19 is_stmt 0 view .LVU255
 684 00d4 0837     		adds	r7, r7, #8
 685              	.LVL91:
 686              		.loc 1 296 19 view .LVU256
 687 00d6 DDE7     		b	.L22
ARM GAS  /tmp/ccJ7xVEl.s 			page 28


 688              	.L23:
 297:Libraries/STM32F4xx_StdPeriph_Driver/src/stm32f4xx_cryp_tdes.c ****       }
 298:Libraries/STM32F4xx_StdPeriph_Driver/src/stm32f4xx_cryp_tdes.c ****     }
 299:Libraries/STM32F4xx_StdPeriph_Driver/src/stm32f4xx_cryp_tdes.c ****     
 300:Libraries/STM32F4xx_StdPeriph_Driver/src/stm32f4xx_cryp_tdes.c ****     /* Disable Crypto */
 301:Libraries/STM32F4xx_StdPeriph_Driver/src/stm32f4xx_cryp_tdes.c ****     CRYP_Cmd(DISABLE);
 689              		.loc 1 301 5 is_stmt 1 view .LVU257
 690 00d8 0020     		movs	r0, #0
 691 00da FFF7FEFF 		bl	CRYP_Cmd
 692              	.LVL92:
 693              	.L18:
 302:Libraries/STM32F4xx_StdPeriph_Driver/src/stm32f4xx_cryp_tdes.c ****   }
 303:Libraries/STM32F4xx_StdPeriph_Driver/src/stm32f4xx_cryp_tdes.c ****   return status; 
 694              		.loc 1 303 3 view .LVU258
 304:Libraries/STM32F4xx_StdPeriph_Driver/src/stm32f4xx_cryp_tdes.c **** }
 695              		.loc 1 304 1 is_stmt 0 view .LVU259
 696 00de 3046     		mov	r0, r6
 697 00e0 13B0     		add	sp, sp, #76
 698              	.LCFI5:
 699              		.cfi_def_cfa_offset 28
 700              		@ sp needed
 701 00e2 BDE8F083 		pop	{r4, r5, r6, r7, r8, r9, pc}
 702              		.loc 1 304 1 view .LVU260
 703              		.cfi_endproc
 704              	.LFE124:
 706              		.text
 707              	.Letext0:
 708              		.file 3 "/home/ktkuri/arm-gcc-tools/arm-none-eabi/include/machine/_default_types.h"
 709              		.file 4 "/home/ktkuri/arm-gcc-tools/arm-none-eabi/include/sys/_stdint.h"
 710              		.file 5 "Libraries/CMSIS/Device/ST/STM32F4xx/Include/stm32f4xx.h"
 711              		.file 6 "Libraries/STM32F4xx_StdPeriph_Driver/inc/stm32f4xx_cryp.h"
ARM GAS  /tmp/ccJ7xVEl.s 			page 29

