ARM GAS  /tmp/ccklj7FS.s 			page 1


   1              		.cpu cortex-m4
   2              		.eabi_attribute 27, 1
   3              		.eabi_attribute 28, 1
   4              		.eabi_attribute 20, 1
   5              		.eabi_attribute 21, 1
   6              		.eabi_attribute 23, 3
   7              		.eabi_attribute 24, 1
   8              		.eabi_attribute 25, 1
   9              		.eabi_attribute 26, 1
  10              		.eabi_attribute 30, 1
  11              		.eabi_attribute 34, 1
  12              		.eabi_attribute 18, 4
  13              		.file	"stm32f4xx_cryp_aes.c"
  14              		.text
  15              	.Ltext0:
  16              		.cfi_sections	.debug_frame
  17              		.section	.text.CRYP_AES_ECB,"ax",%progbits
  18              		.align	1
  19              		.global	CRYP_AES_ECB
  20              		.arch armv7e-m
  21              		.syntax unified
  22              		.thumb
  23              		.thumb_func
  24              		.fpu fpv4-sp-d16
  26              	CRYP_AES_ECB:
  27              	.LVL0:
  28              	.LFB123:
  29              		.file 1 "Libraries/STM32F4xx_StdPeriph_Driver/src/stm32f4xx_cryp_aes.c"
   1:Libraries/STM32F4xx_StdPeriph_Driver/src/stm32f4xx_cryp_aes.c **** /**
   2:Libraries/STM32F4xx_StdPeriph_Driver/src/stm32f4xx_cryp_aes.c ****   ******************************************************************************
   3:Libraries/STM32F4xx_StdPeriph_Driver/src/stm32f4xx_cryp_aes.c ****   * @file    stm32f4xx_cryp_aes.c
   4:Libraries/STM32F4xx_StdPeriph_Driver/src/stm32f4xx_cryp_aes.c ****   * @author  MCD Application Team
   5:Libraries/STM32F4xx_StdPeriph_Driver/src/stm32f4xx_cryp_aes.c ****   * @version V1.8.1
   6:Libraries/STM32F4xx_StdPeriph_Driver/src/stm32f4xx_cryp_aes.c ****   * @date    27-January-2022
   7:Libraries/STM32F4xx_StdPeriph_Driver/src/stm32f4xx_cryp_aes.c ****   * @brief   This file provides high level functions to encrypt and decrypt an 
   8:Libraries/STM32F4xx_StdPeriph_Driver/src/stm32f4xx_cryp_aes.c ****   *          input message using AES in ECB/CBC/CTR/GCM/CCM modes.
   9:Libraries/STM32F4xx_StdPeriph_Driver/src/stm32f4xx_cryp_aes.c ****   *          It uses the stm32f4xx_cryp.c/.h drivers to access the STM32F4xx CRYP
  10:Libraries/STM32F4xx_StdPeriph_Driver/src/stm32f4xx_cryp_aes.c ****   *          peripheral.
  11:Libraries/STM32F4xx_StdPeriph_Driver/src/stm32f4xx_cryp_aes.c ****   *          AES-ECB/CBC/CTR/GCM/CCM modes are available on STM32F437x Devices.
  12:Libraries/STM32F4xx_StdPeriph_Driver/src/stm32f4xx_cryp_aes.c ****   *          For STM32F41xx Devices, only AES-ECB/CBC/CTR modes are available.
  13:Libraries/STM32F4xx_StdPeriph_Driver/src/stm32f4xx_cryp_aes.c ****   *
  14:Libraries/STM32F4xx_StdPeriph_Driver/src/stm32f4xx_cryp_aes.c **** @verbatim
  15:Libraries/STM32F4xx_StdPeriph_Driver/src/stm32f4xx_cryp_aes.c ****  ===================================================================
  16:Libraries/STM32F4xx_StdPeriph_Driver/src/stm32f4xx_cryp_aes.c ****                   ##### How to use this driver #####
  17:Libraries/STM32F4xx_StdPeriph_Driver/src/stm32f4xx_cryp_aes.c ****  ===================================================================
  18:Libraries/STM32F4xx_StdPeriph_Driver/src/stm32f4xx_cryp_aes.c ****  [..]
  19:Libraries/STM32F4xx_StdPeriph_Driver/src/stm32f4xx_cryp_aes.c ****    (#) Enable The CRYP controller clock using 
  20:Libraries/STM32F4xx_StdPeriph_Driver/src/stm32f4xx_cryp_aes.c ****       RCC_AHB2PeriphClockCmd(RCC_AHB2Periph_CRYP, ENABLE); function.
  21:Libraries/STM32F4xx_StdPeriph_Driver/src/stm32f4xx_cryp_aes.c ****   
  22:Libraries/STM32F4xx_StdPeriph_Driver/src/stm32f4xx_cryp_aes.c ****    (#) Encrypt and decrypt using AES in ECB Mode using CRYP_AES_ECB() function.
  23:Libraries/STM32F4xx_StdPeriph_Driver/src/stm32f4xx_cryp_aes.c ****   
  24:Libraries/STM32F4xx_StdPeriph_Driver/src/stm32f4xx_cryp_aes.c ****    (#) Encrypt and decrypt using AES in CBC Mode using CRYP_AES_CBC() function.
  25:Libraries/STM32F4xx_StdPeriph_Driver/src/stm32f4xx_cryp_aes.c ****   
  26:Libraries/STM32F4xx_StdPeriph_Driver/src/stm32f4xx_cryp_aes.c ****    (#) Encrypt and decrypt using AES in CTR Mode using CRYP_AES_CTR() function.
  27:Libraries/STM32F4xx_StdPeriph_Driver/src/stm32f4xx_cryp_aes.c **** 
  28:Libraries/STM32F4xx_StdPeriph_Driver/src/stm32f4xx_cryp_aes.c ****    (#) Encrypt and decrypt using AES in GCM Mode using CRYP_AES_GCM() function.
  29:Libraries/STM32F4xx_StdPeriph_Driver/src/stm32f4xx_cryp_aes.c ****    
ARM GAS  /tmp/ccklj7FS.s 			page 2


  30:Libraries/STM32F4xx_StdPeriph_Driver/src/stm32f4xx_cryp_aes.c ****    (#) Encrypt and decrypt using AES in CCM Mode using CRYP_AES_CCM() function.
  31:Libraries/STM32F4xx_StdPeriph_Driver/src/stm32f4xx_cryp_aes.c ****      
  32:Libraries/STM32F4xx_StdPeriph_Driver/src/stm32f4xx_cryp_aes.c **** @endverbatim
  33:Libraries/STM32F4xx_StdPeriph_Driver/src/stm32f4xx_cryp_aes.c ****   *
  34:Libraries/STM32F4xx_StdPeriph_Driver/src/stm32f4xx_cryp_aes.c ****   ******************************************************************************
  35:Libraries/STM32F4xx_StdPeriph_Driver/src/stm32f4xx_cryp_aes.c ****   * @attention
  36:Libraries/STM32F4xx_StdPeriph_Driver/src/stm32f4xx_cryp_aes.c ****   *
  37:Libraries/STM32F4xx_StdPeriph_Driver/src/stm32f4xx_cryp_aes.c ****   * Copyright (c) 2016 STMicroelectronics.
  38:Libraries/STM32F4xx_StdPeriph_Driver/src/stm32f4xx_cryp_aes.c ****   * All rights reserved.
  39:Libraries/STM32F4xx_StdPeriph_Driver/src/stm32f4xx_cryp_aes.c ****   *
  40:Libraries/STM32F4xx_StdPeriph_Driver/src/stm32f4xx_cryp_aes.c ****   * This software is licensed under terms that can be found in the LICENSE file
  41:Libraries/STM32F4xx_StdPeriph_Driver/src/stm32f4xx_cryp_aes.c ****   * in the root directory of this software component.
  42:Libraries/STM32F4xx_StdPeriph_Driver/src/stm32f4xx_cryp_aes.c ****   * If no LICENSE file comes with this software, it is provided AS-IS.
  43:Libraries/STM32F4xx_StdPeriph_Driver/src/stm32f4xx_cryp_aes.c ****   *
  44:Libraries/STM32F4xx_StdPeriph_Driver/src/stm32f4xx_cryp_aes.c ****   ******************************************************************************
  45:Libraries/STM32F4xx_StdPeriph_Driver/src/stm32f4xx_cryp_aes.c ****   */
  46:Libraries/STM32F4xx_StdPeriph_Driver/src/stm32f4xx_cryp_aes.c **** 
  47:Libraries/STM32F4xx_StdPeriph_Driver/src/stm32f4xx_cryp_aes.c **** /* Includes ------------------------------------------------------------------*/
  48:Libraries/STM32F4xx_StdPeriph_Driver/src/stm32f4xx_cryp_aes.c **** #include "stm32f4xx_cryp.h"
  49:Libraries/STM32F4xx_StdPeriph_Driver/src/stm32f4xx_cryp_aes.c **** 
  50:Libraries/STM32F4xx_StdPeriph_Driver/src/stm32f4xx_cryp_aes.c **** /** @addtogroup STM32F4xx_StdPeriph_Driver
  51:Libraries/STM32F4xx_StdPeriph_Driver/src/stm32f4xx_cryp_aes.c ****   * @{
  52:Libraries/STM32F4xx_StdPeriph_Driver/src/stm32f4xx_cryp_aes.c ****   */
  53:Libraries/STM32F4xx_StdPeriph_Driver/src/stm32f4xx_cryp_aes.c **** 
  54:Libraries/STM32F4xx_StdPeriph_Driver/src/stm32f4xx_cryp_aes.c **** /** @defgroup CRYP 
  55:Libraries/STM32F4xx_StdPeriph_Driver/src/stm32f4xx_cryp_aes.c ****   * @brief CRYP driver modules
  56:Libraries/STM32F4xx_StdPeriph_Driver/src/stm32f4xx_cryp_aes.c ****   * @{
  57:Libraries/STM32F4xx_StdPeriph_Driver/src/stm32f4xx_cryp_aes.c ****   */
  58:Libraries/STM32F4xx_StdPeriph_Driver/src/stm32f4xx_cryp_aes.c **** 
  59:Libraries/STM32F4xx_StdPeriph_Driver/src/stm32f4xx_cryp_aes.c **** /* Private typedef -----------------------------------------------------------*/
  60:Libraries/STM32F4xx_StdPeriph_Driver/src/stm32f4xx_cryp_aes.c **** /* Private define ------------------------------------------------------------*/
  61:Libraries/STM32F4xx_StdPeriph_Driver/src/stm32f4xx_cryp_aes.c **** #define AESBUSY_TIMEOUT    ((uint32_t) 0x00010000)
  62:Libraries/STM32F4xx_StdPeriph_Driver/src/stm32f4xx_cryp_aes.c **** 
  63:Libraries/STM32F4xx_StdPeriph_Driver/src/stm32f4xx_cryp_aes.c **** /* Private macro -------------------------------------------------------------*/
  64:Libraries/STM32F4xx_StdPeriph_Driver/src/stm32f4xx_cryp_aes.c **** /* Private variables ---------------------------------------------------------*/
  65:Libraries/STM32F4xx_StdPeriph_Driver/src/stm32f4xx_cryp_aes.c **** /* Private function prototypes -----------------------------------------------*/
  66:Libraries/STM32F4xx_StdPeriph_Driver/src/stm32f4xx_cryp_aes.c **** /* Private functions ---------------------------------------------------------*/
  67:Libraries/STM32F4xx_StdPeriph_Driver/src/stm32f4xx_cryp_aes.c **** 
  68:Libraries/STM32F4xx_StdPeriph_Driver/src/stm32f4xx_cryp_aes.c **** /** @defgroup CRYP_Private_Functions
  69:Libraries/STM32F4xx_StdPeriph_Driver/src/stm32f4xx_cryp_aes.c ****   * @{
  70:Libraries/STM32F4xx_StdPeriph_Driver/src/stm32f4xx_cryp_aes.c ****   */ 
  71:Libraries/STM32F4xx_StdPeriph_Driver/src/stm32f4xx_cryp_aes.c **** 
  72:Libraries/STM32F4xx_StdPeriph_Driver/src/stm32f4xx_cryp_aes.c **** /** @defgroup CRYP_Group6 High Level AES functions
  73:Libraries/STM32F4xx_StdPeriph_Driver/src/stm32f4xx_cryp_aes.c ****  *  @brief   High Level AES functions 
  74:Libraries/STM32F4xx_StdPeriph_Driver/src/stm32f4xx_cryp_aes.c ****  *
  75:Libraries/STM32F4xx_StdPeriph_Driver/src/stm32f4xx_cryp_aes.c **** @verbatim   
  76:Libraries/STM32F4xx_StdPeriph_Driver/src/stm32f4xx_cryp_aes.c ****  ===============================================================================
  77:Libraries/STM32F4xx_StdPeriph_Driver/src/stm32f4xx_cryp_aes.c ****                        ##### High Level AES functions #####
  78:Libraries/STM32F4xx_StdPeriph_Driver/src/stm32f4xx_cryp_aes.c ****  ===============================================================================
  79:Libraries/STM32F4xx_StdPeriph_Driver/src/stm32f4xx_cryp_aes.c **** 
  80:Libraries/STM32F4xx_StdPeriph_Driver/src/stm32f4xx_cryp_aes.c **** @endverbatim
  81:Libraries/STM32F4xx_StdPeriph_Driver/src/stm32f4xx_cryp_aes.c ****   * @{
  82:Libraries/STM32F4xx_StdPeriph_Driver/src/stm32f4xx_cryp_aes.c ****   */
  83:Libraries/STM32F4xx_StdPeriph_Driver/src/stm32f4xx_cryp_aes.c **** 
  84:Libraries/STM32F4xx_StdPeriph_Driver/src/stm32f4xx_cryp_aes.c **** /**
  85:Libraries/STM32F4xx_StdPeriph_Driver/src/stm32f4xx_cryp_aes.c ****   * @brief  Encrypt and decrypt using AES in ECB Mode
  86:Libraries/STM32F4xx_StdPeriph_Driver/src/stm32f4xx_cryp_aes.c ****   * @param  Mode: encryption or decryption Mode.
ARM GAS  /tmp/ccklj7FS.s 			page 3


  87:Libraries/STM32F4xx_StdPeriph_Driver/src/stm32f4xx_cryp_aes.c ****   *          This parameter can be one of the following values:
  88:Libraries/STM32F4xx_StdPeriph_Driver/src/stm32f4xx_cryp_aes.c ****   *            @arg MODE_ENCRYPT: Encryption
  89:Libraries/STM32F4xx_StdPeriph_Driver/src/stm32f4xx_cryp_aes.c ****   *            @arg MODE_DECRYPT: Decryption
  90:Libraries/STM32F4xx_StdPeriph_Driver/src/stm32f4xx_cryp_aes.c ****   * @param  Key: Key used for AES algorithm.
  91:Libraries/STM32F4xx_StdPeriph_Driver/src/stm32f4xx_cryp_aes.c ****   * @param  Keysize: length of the Key, must be a 128, 192 or 256.
  92:Libraries/STM32F4xx_StdPeriph_Driver/src/stm32f4xx_cryp_aes.c ****   * @param  Input: pointer to the Input buffer.
  93:Libraries/STM32F4xx_StdPeriph_Driver/src/stm32f4xx_cryp_aes.c ****   * @param  Ilength: length of the Input buffer, must be a multiple of 16.
  94:Libraries/STM32F4xx_StdPeriph_Driver/src/stm32f4xx_cryp_aes.c ****   * @param  Output: pointer to the returned buffer.
  95:Libraries/STM32F4xx_StdPeriph_Driver/src/stm32f4xx_cryp_aes.c ****   * @retval An ErrorStatus enumeration value:
  96:Libraries/STM32F4xx_StdPeriph_Driver/src/stm32f4xx_cryp_aes.c ****   *          - SUCCESS: Operation done
  97:Libraries/STM32F4xx_StdPeriph_Driver/src/stm32f4xx_cryp_aes.c ****   *          - ERROR: Operation failed
  98:Libraries/STM32F4xx_StdPeriph_Driver/src/stm32f4xx_cryp_aes.c ****   */
  99:Libraries/STM32F4xx_StdPeriph_Driver/src/stm32f4xx_cryp_aes.c **** ErrorStatus CRYP_AES_ECB(uint8_t Mode, uint8_t* Key, uint16_t Keysize,
 100:Libraries/STM32F4xx_StdPeriph_Driver/src/stm32f4xx_cryp_aes.c ****                          uint8_t* Input, uint32_t Ilength, uint8_t* Output)
 101:Libraries/STM32F4xx_StdPeriph_Driver/src/stm32f4xx_cryp_aes.c **** {
  30              		.loc 1 101 1 view -0
  31              		.cfi_startproc
  32              		@ args = 8, pretend = 0, frame = 56
  33              		@ frame_needed = 0, uses_anonymous_args = 0
  34              		.loc 1 101 1 is_stmt 0 view .LVU1
  35 0000 2DE9F043 		push	{r4, r5, r6, r7, r8, r9, lr}
  36              	.LCFI0:
  37              		.cfi_def_cfa_offset 28
  38              		.cfi_offset 4, -28
  39              		.cfi_offset 5, -24
  40              		.cfi_offset 6, -20
  41              		.cfi_offset 7, -16
  42              		.cfi_offset 8, -12
  43              		.cfi_offset 9, -8
  44              		.cfi_offset 14, -4
  45 0004 8FB0     		sub	sp, sp, #60
  46              	.LCFI1:
  47              		.cfi_def_cfa_offset 88
  48 0006 0646     		mov	r6, r0
  49 0008 0D46     		mov	r5, r1
  50 000a 9146     		mov	r9, r2
  51 000c DDF85880 		ldr	r8, [sp, #88]
 102:Libraries/STM32F4xx_StdPeriph_Driver/src/stm32f4xx_cryp_aes.c ****   CRYP_InitTypeDef AES_CRYP_InitStructure;
  52              		.loc 1 102 3 is_stmt 1 view .LVU2
 103:Libraries/STM32F4xx_StdPeriph_Driver/src/stm32f4xx_cryp_aes.c ****   CRYP_KeyInitTypeDef AES_CRYP_KeyInitStructure;
  53              		.loc 1 103 3 view .LVU3
 104:Libraries/STM32F4xx_StdPeriph_Driver/src/stm32f4xx_cryp_aes.c ****   __IO uint32_t counter = 0;
  54              		.loc 1 104 3 view .LVU4
  55              		.loc 1 104 17 is_stmt 0 view .LVU5
  56 0010 0022     		movs	r2, #0
  57              	.LVL1:
  58              		.loc 1 104 17 view .LVU6
  59 0012 0192     		str	r2, [sp, #4]
 105:Libraries/STM32F4xx_StdPeriph_Driver/src/stm32f4xx_cryp_aes.c ****   uint32_t busystatus = 0;
  60              		.loc 1 105 3 is_stmt 1 view .LVU7
  61              	.LVL2:
 106:Libraries/STM32F4xx_StdPeriph_Driver/src/stm32f4xx_cryp_aes.c ****   ErrorStatus status = SUCCESS;
  62              		.loc 1 106 3 view .LVU8
 107:Libraries/STM32F4xx_StdPeriph_Driver/src/stm32f4xx_cryp_aes.c ****   uint32_t keyaddr    = (uint32_t)Key;
  63              		.loc 1 107 3 view .LVU9
 108:Libraries/STM32F4xx_StdPeriph_Driver/src/stm32f4xx_cryp_aes.c ****   uint32_t inputaddr  = (uint32_t)Input;
  64              		.loc 1 108 3 view .LVU10
ARM GAS  /tmp/ccklj7FS.s 			page 4


  65              		.loc 1 108 12 is_stmt 0 view .LVU11
  66 0014 1C46     		mov	r4, r3
  67              	.LVL3:
 109:Libraries/STM32F4xx_StdPeriph_Driver/src/stm32f4xx_cryp_aes.c ****   uint32_t outputaddr = (uint32_t)Output;
  68              		.loc 1 109 3 is_stmt 1 view .LVU12
  69              		.loc 1 109 12 is_stmt 0 view .LVU13
  70 0016 179F     		ldr	r7, [sp, #92]
  71              	.LVL4:
 110:Libraries/STM32F4xx_StdPeriph_Driver/src/stm32f4xx_cryp_aes.c ****   uint32_t i = 0;
  72              		.loc 1 110 3 is_stmt 1 view .LVU14
 111:Libraries/STM32F4xx_StdPeriph_Driver/src/stm32f4xx_cryp_aes.c **** 
 112:Libraries/STM32F4xx_StdPeriph_Driver/src/stm32f4xx_cryp_aes.c ****   /* Crypto structures initialisation*/
 113:Libraries/STM32F4xx_StdPeriph_Driver/src/stm32f4xx_cryp_aes.c ****   CRYP_KeyStructInit(&AES_CRYP_KeyInitStructure);
  73              		.loc 1 113 3 view .LVU15
  74 0018 02A8     		add	r0, sp, #8
  75              	.LVL5:
  76              		.loc 1 113 3 is_stmt 0 view .LVU16
  77 001a FFF7FEFF 		bl	CRYP_KeyStructInit
  78              	.LVL6:
 114:Libraries/STM32F4xx_StdPeriph_Driver/src/stm32f4xx_cryp_aes.c **** 
 115:Libraries/STM32F4xx_StdPeriph_Driver/src/stm32f4xx_cryp_aes.c ****   switch(Keysize)
  79              		.loc 1 115 3 is_stmt 1 view .LVU17
  80 001e B9F1C00F 		cmp	r9, #192
  81 0022 39D0     		beq	.L2
  82 0024 B9F5807F 		cmp	r9, #256
  83 0028 4CD0     		beq	.L3
  84 002a B9F1800F 		cmp	r9, #128
  85 002e 24D0     		beq	.L18
  86              	.LVL7:
  87              	.L4:
 116:Libraries/STM32F4xx_StdPeriph_Driver/src/stm32f4xx_cryp_aes.c ****   {
 117:Libraries/STM32F4xx_StdPeriph_Driver/src/stm32f4xx_cryp_aes.c ****     case 128:
 118:Libraries/STM32F4xx_StdPeriph_Driver/src/stm32f4xx_cryp_aes.c ****     AES_CRYP_InitStructure.CRYP_KeySize = CRYP_KeySize_128b;
 119:Libraries/STM32F4xx_StdPeriph_Driver/src/stm32f4xx_cryp_aes.c ****     AES_CRYP_KeyInitStructure.CRYP_Key2Left = __REV(*(uint32_t*)(keyaddr));
 120:Libraries/STM32F4xx_StdPeriph_Driver/src/stm32f4xx_cryp_aes.c ****     keyaddr+=4;
 121:Libraries/STM32F4xx_StdPeriph_Driver/src/stm32f4xx_cryp_aes.c ****     AES_CRYP_KeyInitStructure.CRYP_Key2Right= __REV(*(uint32_t*)(keyaddr));
 122:Libraries/STM32F4xx_StdPeriph_Driver/src/stm32f4xx_cryp_aes.c ****     keyaddr+=4;
 123:Libraries/STM32F4xx_StdPeriph_Driver/src/stm32f4xx_cryp_aes.c ****     AES_CRYP_KeyInitStructure.CRYP_Key3Left = __REV(*(uint32_t*)(keyaddr));
 124:Libraries/STM32F4xx_StdPeriph_Driver/src/stm32f4xx_cryp_aes.c ****     keyaddr+=4;
 125:Libraries/STM32F4xx_StdPeriph_Driver/src/stm32f4xx_cryp_aes.c ****     AES_CRYP_KeyInitStructure.CRYP_Key3Right= __REV(*(uint32_t*)(keyaddr));
 126:Libraries/STM32F4xx_StdPeriph_Driver/src/stm32f4xx_cryp_aes.c ****     break;
 127:Libraries/STM32F4xx_StdPeriph_Driver/src/stm32f4xx_cryp_aes.c ****     case 192:
 128:Libraries/STM32F4xx_StdPeriph_Driver/src/stm32f4xx_cryp_aes.c ****     AES_CRYP_InitStructure.CRYP_KeySize  = CRYP_KeySize_192b;
 129:Libraries/STM32F4xx_StdPeriph_Driver/src/stm32f4xx_cryp_aes.c ****     AES_CRYP_KeyInitStructure.CRYP_Key1Left = __REV(*(uint32_t*)(keyaddr));
 130:Libraries/STM32F4xx_StdPeriph_Driver/src/stm32f4xx_cryp_aes.c ****     keyaddr+=4;
 131:Libraries/STM32F4xx_StdPeriph_Driver/src/stm32f4xx_cryp_aes.c ****     AES_CRYP_KeyInitStructure.CRYP_Key1Right= __REV(*(uint32_t*)(keyaddr));
 132:Libraries/STM32F4xx_StdPeriph_Driver/src/stm32f4xx_cryp_aes.c ****     keyaddr+=4;
 133:Libraries/STM32F4xx_StdPeriph_Driver/src/stm32f4xx_cryp_aes.c ****     AES_CRYP_KeyInitStructure.CRYP_Key2Left = __REV(*(uint32_t*)(keyaddr));
 134:Libraries/STM32F4xx_StdPeriph_Driver/src/stm32f4xx_cryp_aes.c ****     keyaddr+=4;
 135:Libraries/STM32F4xx_StdPeriph_Driver/src/stm32f4xx_cryp_aes.c ****     AES_CRYP_KeyInitStructure.CRYP_Key2Right= __REV(*(uint32_t*)(keyaddr));
 136:Libraries/STM32F4xx_StdPeriph_Driver/src/stm32f4xx_cryp_aes.c ****     keyaddr+=4;
 137:Libraries/STM32F4xx_StdPeriph_Driver/src/stm32f4xx_cryp_aes.c ****     AES_CRYP_KeyInitStructure.CRYP_Key3Left = __REV(*(uint32_t*)(keyaddr));
 138:Libraries/STM32F4xx_StdPeriph_Driver/src/stm32f4xx_cryp_aes.c ****     keyaddr+=4;
 139:Libraries/STM32F4xx_StdPeriph_Driver/src/stm32f4xx_cryp_aes.c ****     AES_CRYP_KeyInitStructure.CRYP_Key3Right= __REV(*(uint32_t*)(keyaddr));
 140:Libraries/STM32F4xx_StdPeriph_Driver/src/stm32f4xx_cryp_aes.c ****     break;
 141:Libraries/STM32F4xx_StdPeriph_Driver/src/stm32f4xx_cryp_aes.c ****     case 256:
 142:Libraries/STM32F4xx_StdPeriph_Driver/src/stm32f4xx_cryp_aes.c ****     AES_CRYP_InitStructure.CRYP_KeySize  = CRYP_KeySize_256b;
ARM GAS  /tmp/ccklj7FS.s 			page 5


 143:Libraries/STM32F4xx_StdPeriph_Driver/src/stm32f4xx_cryp_aes.c ****     AES_CRYP_KeyInitStructure.CRYP_Key0Left = __REV(*(uint32_t*)(keyaddr));
 144:Libraries/STM32F4xx_StdPeriph_Driver/src/stm32f4xx_cryp_aes.c ****     keyaddr+=4;
 145:Libraries/STM32F4xx_StdPeriph_Driver/src/stm32f4xx_cryp_aes.c ****     AES_CRYP_KeyInitStructure.CRYP_Key0Right= __REV(*(uint32_t*)(keyaddr));
 146:Libraries/STM32F4xx_StdPeriph_Driver/src/stm32f4xx_cryp_aes.c ****     keyaddr+=4;
 147:Libraries/STM32F4xx_StdPeriph_Driver/src/stm32f4xx_cryp_aes.c ****     AES_CRYP_KeyInitStructure.CRYP_Key1Left = __REV(*(uint32_t*)(keyaddr));
 148:Libraries/STM32F4xx_StdPeriph_Driver/src/stm32f4xx_cryp_aes.c ****     keyaddr+=4;
 149:Libraries/STM32F4xx_StdPeriph_Driver/src/stm32f4xx_cryp_aes.c ****     AES_CRYP_KeyInitStructure.CRYP_Key1Right= __REV(*(uint32_t*)(keyaddr));
 150:Libraries/STM32F4xx_StdPeriph_Driver/src/stm32f4xx_cryp_aes.c ****     keyaddr+=4;
 151:Libraries/STM32F4xx_StdPeriph_Driver/src/stm32f4xx_cryp_aes.c ****     AES_CRYP_KeyInitStructure.CRYP_Key2Left = __REV(*(uint32_t*)(keyaddr));
 152:Libraries/STM32F4xx_StdPeriph_Driver/src/stm32f4xx_cryp_aes.c ****     keyaddr+=4;
 153:Libraries/STM32F4xx_StdPeriph_Driver/src/stm32f4xx_cryp_aes.c ****     AES_CRYP_KeyInitStructure.CRYP_Key2Right= __REV(*(uint32_t*)(keyaddr));
 154:Libraries/STM32F4xx_StdPeriph_Driver/src/stm32f4xx_cryp_aes.c ****     keyaddr+=4;
 155:Libraries/STM32F4xx_StdPeriph_Driver/src/stm32f4xx_cryp_aes.c ****     AES_CRYP_KeyInitStructure.CRYP_Key3Left = __REV(*(uint32_t*)(keyaddr));
 156:Libraries/STM32F4xx_StdPeriph_Driver/src/stm32f4xx_cryp_aes.c ****     keyaddr+=4;
 157:Libraries/STM32F4xx_StdPeriph_Driver/src/stm32f4xx_cryp_aes.c ****     AES_CRYP_KeyInitStructure.CRYP_Key3Right= __REV(*(uint32_t*)(keyaddr));
 158:Libraries/STM32F4xx_StdPeriph_Driver/src/stm32f4xx_cryp_aes.c ****     break;
 159:Libraries/STM32F4xx_StdPeriph_Driver/src/stm32f4xx_cryp_aes.c ****     default:
 160:Libraries/STM32F4xx_StdPeriph_Driver/src/stm32f4xx_cryp_aes.c ****     break;
 161:Libraries/STM32F4xx_StdPeriph_Driver/src/stm32f4xx_cryp_aes.c ****   }
 162:Libraries/STM32F4xx_StdPeriph_Driver/src/stm32f4xx_cryp_aes.c **** 
 163:Libraries/STM32F4xx_StdPeriph_Driver/src/stm32f4xx_cryp_aes.c ****   /*------------------ AES Decryption ------------------*/
 164:Libraries/STM32F4xx_StdPeriph_Driver/src/stm32f4xx_cryp_aes.c ****   if(Mode == MODE_DECRYPT) /* AES decryption */
  88              		.loc 1 164 3 view .LVU18
  89              		.loc 1 164 5 is_stmt 0 view .LVU19
  90 0030 002E     		cmp	r6, #0
  91 0032 63D1     		bne	.L5
 165:Libraries/STM32F4xx_StdPeriph_Driver/src/stm32f4xx_cryp_aes.c ****   {
 166:Libraries/STM32F4xx_StdPeriph_Driver/src/stm32f4xx_cryp_aes.c ****     /* Flush IN/OUT FIFOs */
 167:Libraries/STM32F4xx_StdPeriph_Driver/src/stm32f4xx_cryp_aes.c ****     CRYP_FIFOFlush();
  92              		.loc 1 167 5 is_stmt 1 view .LVU20
  93 0034 FFF7FEFF 		bl	CRYP_FIFOFlush
  94              	.LVL8:
 168:Libraries/STM32F4xx_StdPeriph_Driver/src/stm32f4xx_cryp_aes.c **** 
 169:Libraries/STM32F4xx_StdPeriph_Driver/src/stm32f4xx_cryp_aes.c ****     /* Crypto Init for Key preparation for decryption process */
 170:Libraries/STM32F4xx_StdPeriph_Driver/src/stm32f4xx_cryp_aes.c ****     AES_CRYP_InitStructure.CRYP_AlgoDir = CRYP_AlgoDir_Decrypt;
  95              		.loc 1 170 5 view .LVU21
  96              		.loc 1 170 41 is_stmt 0 view .LVU22
  97 0038 0423     		movs	r3, #4
  98 003a 0A93     		str	r3, [sp, #40]
 171:Libraries/STM32F4xx_StdPeriph_Driver/src/stm32f4xx_cryp_aes.c ****     AES_CRYP_InitStructure.CRYP_AlgoMode = CRYP_AlgoMode_AES_Key;
  99              		.loc 1 171 5 is_stmt 1 view .LVU23
 100              		.loc 1 171 42 is_stmt 0 view .LVU24
 101 003c 3823     		movs	r3, #56
 102 003e 0B93     		str	r3, [sp, #44]
 172:Libraries/STM32F4xx_StdPeriph_Driver/src/stm32f4xx_cryp_aes.c ****     AES_CRYP_InitStructure.CRYP_DataType = CRYP_DataType_32b;
 103              		.loc 1 172 5 is_stmt 1 view .LVU25
 104              		.loc 1 172 42 is_stmt 0 view .LVU26
 105 0040 0023     		movs	r3, #0
 106 0042 0C93     		str	r3, [sp, #48]
 173:Libraries/STM32F4xx_StdPeriph_Driver/src/stm32f4xx_cryp_aes.c ****     CRYP_Init(&AES_CRYP_InitStructure);
 107              		.loc 1 173 5 is_stmt 1 view .LVU27
 108 0044 0AA8     		add	r0, sp, #40
 109 0046 FFF7FEFF 		bl	CRYP_Init
 110              	.LVL9:
 174:Libraries/STM32F4xx_StdPeriph_Driver/src/stm32f4xx_cryp_aes.c **** 
 175:Libraries/STM32F4xx_StdPeriph_Driver/src/stm32f4xx_cryp_aes.c ****     /* Key Initialisation */
 176:Libraries/STM32F4xx_StdPeriph_Driver/src/stm32f4xx_cryp_aes.c ****     CRYP_KeyInit(&AES_CRYP_KeyInitStructure);
ARM GAS  /tmp/ccklj7FS.s 			page 6


 111              		.loc 1 176 5 view .LVU28
 112 004a 02A8     		add	r0, sp, #8
 113 004c FFF7FEFF 		bl	CRYP_KeyInit
 114              	.LVL10:
 177:Libraries/STM32F4xx_StdPeriph_Driver/src/stm32f4xx_cryp_aes.c **** 
 178:Libraries/STM32F4xx_StdPeriph_Driver/src/stm32f4xx_cryp_aes.c ****     /* Enable Crypto processor */
 179:Libraries/STM32F4xx_StdPeriph_Driver/src/stm32f4xx_cryp_aes.c ****     CRYP_Cmd(ENABLE);
 115              		.loc 1 179 5 view .LVU29
 116 0050 0120     		movs	r0, #1
 117 0052 FFF7FEFF 		bl	CRYP_Cmd
 118              	.LVL11:
 119              	.L7:
 180:Libraries/STM32F4xx_StdPeriph_Driver/src/stm32f4xx_cryp_aes.c **** 
 181:Libraries/STM32F4xx_StdPeriph_Driver/src/stm32f4xx_cryp_aes.c ****     /* wait until the Busy flag is RESET */
 182:Libraries/STM32F4xx_StdPeriph_Driver/src/stm32f4xx_cryp_aes.c ****     do
 120              		.loc 1 182 5 discriminator 2 view .LVU30
 183:Libraries/STM32F4xx_StdPeriph_Driver/src/stm32f4xx_cryp_aes.c ****     {
 184:Libraries/STM32F4xx_StdPeriph_Driver/src/stm32f4xx_cryp_aes.c ****       busystatus = CRYP_GetFlagStatus(CRYP_FLAG_BUSY);
 121              		.loc 1 184 7 discriminator 2 view .LVU31
 122              		.loc 1 184 20 is_stmt 0 discriminator 2 view .LVU32
 123 0056 1020     		movs	r0, #16
 124 0058 FFF7FEFF 		bl	CRYP_GetFlagStatus
 125              	.LVL12:
 185:Libraries/STM32F4xx_StdPeriph_Driver/src/stm32f4xx_cryp_aes.c ****       counter++;
 126              		.loc 1 185 7 is_stmt 1 discriminator 2 view .LVU33
 127              		.loc 1 185 14 is_stmt 0 discriminator 2 view .LVU34
 128 005c 019B     		ldr	r3, [sp, #4]
 129 005e 0133     		adds	r3, r3, #1
 130 0060 0193     		str	r3, [sp, #4]
 186:Libraries/STM32F4xx_StdPeriph_Driver/src/stm32f4xx_cryp_aes.c ****     }while ((counter != AESBUSY_TIMEOUT) && (busystatus != RESET));
 131              		.loc 1 186 12 is_stmt 1 discriminator 2 view .LVU35
 132              		.loc 1 186 22 is_stmt 0 discriminator 2 view .LVU36
 133 0062 019B     		ldr	r3, [sp, #4]
 134              		.loc 1 186 5 discriminator 2 view .LVU37
 135 0064 B3F5803F 		cmp	r3, #65536
 136 0068 01D0     		beq	.L6
 137              		.loc 1 186 42 discriminator 1 view .LVU38
 138 006a 0028     		cmp	r0, #0
 139 006c F3D1     		bne	.L7
 140              	.L6:
 187:Libraries/STM32F4xx_StdPeriph_Driver/src/stm32f4xx_cryp_aes.c **** 
 188:Libraries/STM32F4xx_StdPeriph_Driver/src/stm32f4xx_cryp_aes.c ****     if (busystatus != RESET)
 141              		.loc 1 188 5 is_stmt 1 view .LVU39
 142              		.loc 1 188 8 is_stmt 0 view .LVU40
 143 006e 0028     		cmp	r0, #0
 144 0070 4AD1     		bne	.L8
 189:Libraries/STM32F4xx_StdPeriph_Driver/src/stm32f4xx_cryp_aes.c ****    {
 190:Libraries/STM32F4xx_StdPeriph_Driver/src/stm32f4xx_cryp_aes.c ****        status = ERROR;
 191:Libraries/STM32F4xx_StdPeriph_Driver/src/stm32f4xx_cryp_aes.c ****     }
 192:Libraries/STM32F4xx_StdPeriph_Driver/src/stm32f4xx_cryp_aes.c ****     else
 193:Libraries/STM32F4xx_StdPeriph_Driver/src/stm32f4xx_cryp_aes.c ****     {
 194:Libraries/STM32F4xx_StdPeriph_Driver/src/stm32f4xx_cryp_aes.c ****       /* Crypto Init for decryption process */  
 195:Libraries/STM32F4xx_StdPeriph_Driver/src/stm32f4xx_cryp_aes.c ****       AES_CRYP_InitStructure.CRYP_AlgoDir = CRYP_AlgoDir_Decrypt;
 145              		.loc 1 195 7 is_stmt 1 view .LVU41
 146              		.loc 1 195 43 is_stmt 0 view .LVU42
 147 0072 0423     		movs	r3, #4
 148 0074 0A93     		str	r3, [sp, #40]
ARM GAS  /tmp/ccklj7FS.s 			page 7


 106:Libraries/STM32F4xx_StdPeriph_Driver/src/stm32f4xx_cryp_aes.c ****   uint32_t keyaddr    = (uint32_t)Key;
 149              		.loc 1 106 15 view .LVU43
 150 0076 0126     		movs	r6, #1
 151 0078 46E0     		b	.L8
 152              	.LVL13:
 153              	.L18:
 118:Libraries/STM32F4xx_StdPeriph_Driver/src/stm32f4xx_cryp_aes.c ****     AES_CRYP_KeyInitStructure.CRYP_Key2Left = __REV(*(uint32_t*)(keyaddr));
 154              		.loc 1 118 5 is_stmt 1 view .LVU44
 118:Libraries/STM32F4xx_StdPeriph_Driver/src/stm32f4xx_cryp_aes.c ****     AES_CRYP_KeyInitStructure.CRYP_Key2Left = __REV(*(uint32_t*)(keyaddr));
 155              		.loc 1 118 41 is_stmt 0 view .LVU45
 156 007a 0023     		movs	r3, #0
 157 007c 0D93     		str	r3, [sp, #52]
 119:Libraries/STM32F4xx_StdPeriph_Driver/src/stm32f4xx_cryp_aes.c ****     keyaddr+=4;
 158              		.loc 1 119 5 is_stmt 1 view .LVU46
 119:Libraries/STM32F4xx_StdPeriph_Driver/src/stm32f4xx_cryp_aes.c ****     keyaddr+=4;
 159              		.loc 1 119 47 is_stmt 0 view .LVU47
 160 007e 2B68     		ldr	r3, [r5]
 161              	.LVL14:
 162              	.LBB230:
 163              	.LBI230:
 164              		.file 2 "Libraries/CMSIS/Include/core_cmInstr.h"
   1:Libraries/CMSIS/Include/core_cmInstr.h **** /**************************************************************************//**
   2:Libraries/CMSIS/Include/core_cmInstr.h ****  * @file     core_cmInstr.h
   3:Libraries/CMSIS/Include/core_cmInstr.h ****  * @brief    CMSIS Cortex-M Core Instruction Access Header File
   4:Libraries/CMSIS/Include/core_cmInstr.h ****  * @version  V4.10
   5:Libraries/CMSIS/Include/core_cmInstr.h ****  * @date     18. March 2015
   6:Libraries/CMSIS/Include/core_cmInstr.h ****  *
   7:Libraries/CMSIS/Include/core_cmInstr.h ****  * @note
   8:Libraries/CMSIS/Include/core_cmInstr.h ****  *
   9:Libraries/CMSIS/Include/core_cmInstr.h ****  ******************************************************************************/
  10:Libraries/CMSIS/Include/core_cmInstr.h **** /* Copyright (c) 2009 - 2014 ARM LIMITED
  11:Libraries/CMSIS/Include/core_cmInstr.h **** 
  12:Libraries/CMSIS/Include/core_cmInstr.h ****    All rights reserved.
  13:Libraries/CMSIS/Include/core_cmInstr.h ****    Redistribution and use in source and binary forms, with or without
  14:Libraries/CMSIS/Include/core_cmInstr.h ****    modification, are permitted provided that the following conditions are met:
  15:Libraries/CMSIS/Include/core_cmInstr.h ****    - Redistributions of source code must retain the above copyright
  16:Libraries/CMSIS/Include/core_cmInstr.h ****      notice, this list of conditions and the following disclaimer.
  17:Libraries/CMSIS/Include/core_cmInstr.h ****    - Redistributions in binary form must reproduce the above copyright
  18:Libraries/CMSIS/Include/core_cmInstr.h ****      notice, this list of conditions and the following disclaimer in the
  19:Libraries/CMSIS/Include/core_cmInstr.h ****      documentation and/or other materials provided with the distribution.
  20:Libraries/CMSIS/Include/core_cmInstr.h ****    - Neither the name of ARM nor the names of its contributors may be used
  21:Libraries/CMSIS/Include/core_cmInstr.h ****      to endorse or promote products derived from this software without
  22:Libraries/CMSIS/Include/core_cmInstr.h ****      specific prior written permission.
  23:Libraries/CMSIS/Include/core_cmInstr.h ****    *
  24:Libraries/CMSIS/Include/core_cmInstr.h ****    THIS SOFTWARE IS PROVIDED BY THE COPYRIGHT HOLDERS AND CONTRIBUTORS "AS IS"
  25:Libraries/CMSIS/Include/core_cmInstr.h ****    AND ANY EXPRESS OR IMPLIED WARRANTIES, INCLUDING, BUT NOT LIMITED TO, THE
  26:Libraries/CMSIS/Include/core_cmInstr.h ****    IMPLIED WARRANTIES OF MERCHANTABILITY AND FITNESS FOR A PARTICULAR PURPOSE
  27:Libraries/CMSIS/Include/core_cmInstr.h ****    ARE DISCLAIMED. IN NO EVENT SHALL COPYRIGHT HOLDERS AND CONTRIBUTORS BE
  28:Libraries/CMSIS/Include/core_cmInstr.h ****    LIABLE FOR ANY DIRECT, INDIRECT, INCIDENTAL, SPECIAL, EXEMPLARY, OR
  29:Libraries/CMSIS/Include/core_cmInstr.h ****    CONSEQUENTIAL DAMAGES (INCLUDING, BUT NOT LIMITED TO, PROCUREMENT OF
  30:Libraries/CMSIS/Include/core_cmInstr.h ****    SUBSTITUTE GOODS OR SERVICES; LOSS OF USE, DATA, OR PROFITS; OR BUSINESS
  31:Libraries/CMSIS/Include/core_cmInstr.h ****    INTERRUPTION) HOWEVER CAUSED AND ON ANY THEORY OF LIABILITY, WHETHER IN
  32:Libraries/CMSIS/Include/core_cmInstr.h ****    CONTRACT, STRICT LIABILITY, OR TORT (INCLUDING NEGLIGENCE OR OTHERWISE)
  33:Libraries/CMSIS/Include/core_cmInstr.h ****    ARISING IN ANY WAY OUT OF THE USE OF THIS SOFTWARE, EVEN IF ADVISED OF THE
  34:Libraries/CMSIS/Include/core_cmInstr.h ****    POSSIBILITY OF SUCH DAMAGE.
  35:Libraries/CMSIS/Include/core_cmInstr.h ****    ---------------------------------------------------------------------------*/
  36:Libraries/CMSIS/Include/core_cmInstr.h **** 
ARM GAS  /tmp/ccklj7FS.s 			page 8


  37:Libraries/CMSIS/Include/core_cmInstr.h **** 
  38:Libraries/CMSIS/Include/core_cmInstr.h **** #ifndef __CORE_CMINSTR_H
  39:Libraries/CMSIS/Include/core_cmInstr.h **** #define __CORE_CMINSTR_H
  40:Libraries/CMSIS/Include/core_cmInstr.h **** 
  41:Libraries/CMSIS/Include/core_cmInstr.h **** 
  42:Libraries/CMSIS/Include/core_cmInstr.h **** /* ##########################  Core Instruction Access  ######################### */
  43:Libraries/CMSIS/Include/core_cmInstr.h **** /** \defgroup CMSIS_Core_InstructionInterface CMSIS Core Instruction Interface
  44:Libraries/CMSIS/Include/core_cmInstr.h ****   Access to dedicated instructions
  45:Libraries/CMSIS/Include/core_cmInstr.h ****   @{
  46:Libraries/CMSIS/Include/core_cmInstr.h **** */
  47:Libraries/CMSIS/Include/core_cmInstr.h **** 
  48:Libraries/CMSIS/Include/core_cmInstr.h **** #if   defined ( __CC_ARM ) /*------------------RealView Compiler -----------------*/
  49:Libraries/CMSIS/Include/core_cmInstr.h **** /* ARM armcc specific functions */
  50:Libraries/CMSIS/Include/core_cmInstr.h **** 
  51:Libraries/CMSIS/Include/core_cmInstr.h **** #if (__ARMCC_VERSION < 400677)
  52:Libraries/CMSIS/Include/core_cmInstr.h ****   #error "Please use ARM Compiler Toolchain V4.0.677 or later!"
  53:Libraries/CMSIS/Include/core_cmInstr.h **** #endif
  54:Libraries/CMSIS/Include/core_cmInstr.h **** 
  55:Libraries/CMSIS/Include/core_cmInstr.h **** 
  56:Libraries/CMSIS/Include/core_cmInstr.h **** /** \brief  No Operation
  57:Libraries/CMSIS/Include/core_cmInstr.h **** 
  58:Libraries/CMSIS/Include/core_cmInstr.h ****     No Operation does nothing. This instruction can be used for code alignment purposes.
  59:Libraries/CMSIS/Include/core_cmInstr.h ****  */
  60:Libraries/CMSIS/Include/core_cmInstr.h **** #define __NOP                             __nop
  61:Libraries/CMSIS/Include/core_cmInstr.h **** 
  62:Libraries/CMSIS/Include/core_cmInstr.h **** 
  63:Libraries/CMSIS/Include/core_cmInstr.h **** /** \brief  Wait For Interrupt
  64:Libraries/CMSIS/Include/core_cmInstr.h **** 
  65:Libraries/CMSIS/Include/core_cmInstr.h ****     Wait For Interrupt is a hint instruction that suspends execution
  66:Libraries/CMSIS/Include/core_cmInstr.h ****     until one of a number of events occurs.
  67:Libraries/CMSIS/Include/core_cmInstr.h ****  */
  68:Libraries/CMSIS/Include/core_cmInstr.h **** #define __WFI                             __wfi
  69:Libraries/CMSIS/Include/core_cmInstr.h **** 
  70:Libraries/CMSIS/Include/core_cmInstr.h **** 
  71:Libraries/CMSIS/Include/core_cmInstr.h **** /** \brief  Wait For Event
  72:Libraries/CMSIS/Include/core_cmInstr.h **** 
  73:Libraries/CMSIS/Include/core_cmInstr.h ****     Wait For Event is a hint instruction that permits the processor to enter
  74:Libraries/CMSIS/Include/core_cmInstr.h ****     a low-power state until one of a number of events occurs.
  75:Libraries/CMSIS/Include/core_cmInstr.h ****  */
  76:Libraries/CMSIS/Include/core_cmInstr.h **** #define __WFE                             __wfe
  77:Libraries/CMSIS/Include/core_cmInstr.h **** 
  78:Libraries/CMSIS/Include/core_cmInstr.h **** 
  79:Libraries/CMSIS/Include/core_cmInstr.h **** /** \brief  Send Event
  80:Libraries/CMSIS/Include/core_cmInstr.h **** 
  81:Libraries/CMSIS/Include/core_cmInstr.h ****     Send Event is a hint instruction. It causes an event to be signaled to the CPU.
  82:Libraries/CMSIS/Include/core_cmInstr.h ****  */
  83:Libraries/CMSIS/Include/core_cmInstr.h **** #define __SEV                             __sev
  84:Libraries/CMSIS/Include/core_cmInstr.h **** 
  85:Libraries/CMSIS/Include/core_cmInstr.h **** 
  86:Libraries/CMSIS/Include/core_cmInstr.h **** /** \brief  Instruction Synchronization Barrier
  87:Libraries/CMSIS/Include/core_cmInstr.h **** 
  88:Libraries/CMSIS/Include/core_cmInstr.h ****     Instruction Synchronization Barrier flushes the pipeline in the processor,
  89:Libraries/CMSIS/Include/core_cmInstr.h ****     so that all instructions following the ISB are fetched from cache or
  90:Libraries/CMSIS/Include/core_cmInstr.h ****     memory, after the instruction has been completed.
  91:Libraries/CMSIS/Include/core_cmInstr.h ****  */
  92:Libraries/CMSIS/Include/core_cmInstr.h **** #define __ISB() do {\
  93:Libraries/CMSIS/Include/core_cmInstr.h ****                    __schedule_barrier();\
ARM GAS  /tmp/ccklj7FS.s 			page 9


  94:Libraries/CMSIS/Include/core_cmInstr.h ****                    __isb(0xF);\
  95:Libraries/CMSIS/Include/core_cmInstr.h ****                    __schedule_barrier();\
  96:Libraries/CMSIS/Include/core_cmInstr.h ****                 } while (0)
  97:Libraries/CMSIS/Include/core_cmInstr.h **** 
  98:Libraries/CMSIS/Include/core_cmInstr.h **** /** \brief  Data Synchronization Barrier
  99:Libraries/CMSIS/Include/core_cmInstr.h **** 
 100:Libraries/CMSIS/Include/core_cmInstr.h ****     This function acts as a special kind of Data Memory Barrier.
 101:Libraries/CMSIS/Include/core_cmInstr.h ****     It completes when all explicit memory accesses before this instruction complete.
 102:Libraries/CMSIS/Include/core_cmInstr.h ****  */
 103:Libraries/CMSIS/Include/core_cmInstr.h **** #define __DSB() do {\
 104:Libraries/CMSIS/Include/core_cmInstr.h ****                    __schedule_barrier();\
 105:Libraries/CMSIS/Include/core_cmInstr.h ****                    __dsb(0xF);\
 106:Libraries/CMSIS/Include/core_cmInstr.h ****                    __schedule_barrier();\
 107:Libraries/CMSIS/Include/core_cmInstr.h ****                 } while (0)
 108:Libraries/CMSIS/Include/core_cmInstr.h **** 
 109:Libraries/CMSIS/Include/core_cmInstr.h **** /** \brief  Data Memory Barrier
 110:Libraries/CMSIS/Include/core_cmInstr.h **** 
 111:Libraries/CMSIS/Include/core_cmInstr.h ****     This function ensures the apparent order of the explicit memory operations before
 112:Libraries/CMSIS/Include/core_cmInstr.h ****     and after the instruction, without ensuring their completion.
 113:Libraries/CMSIS/Include/core_cmInstr.h ****  */
 114:Libraries/CMSIS/Include/core_cmInstr.h **** #define __DMB() do {\
 115:Libraries/CMSIS/Include/core_cmInstr.h ****                    __schedule_barrier();\
 116:Libraries/CMSIS/Include/core_cmInstr.h ****                    __dmb(0xF);\
 117:Libraries/CMSIS/Include/core_cmInstr.h ****                    __schedule_barrier();\
 118:Libraries/CMSIS/Include/core_cmInstr.h ****                 } while (0)
 119:Libraries/CMSIS/Include/core_cmInstr.h **** 
 120:Libraries/CMSIS/Include/core_cmInstr.h **** /** \brief  Reverse byte order (32 bit)
 121:Libraries/CMSIS/Include/core_cmInstr.h **** 
 122:Libraries/CMSIS/Include/core_cmInstr.h ****     This function reverses the byte order in integer value.
 123:Libraries/CMSIS/Include/core_cmInstr.h **** 
 124:Libraries/CMSIS/Include/core_cmInstr.h ****     \param [in]    value  Value to reverse
 125:Libraries/CMSIS/Include/core_cmInstr.h ****     \return               Reversed value
 126:Libraries/CMSIS/Include/core_cmInstr.h ****  */
 127:Libraries/CMSIS/Include/core_cmInstr.h **** #define __REV                             __rev
 128:Libraries/CMSIS/Include/core_cmInstr.h **** 
 129:Libraries/CMSIS/Include/core_cmInstr.h **** 
 130:Libraries/CMSIS/Include/core_cmInstr.h **** /** \brief  Reverse byte order (16 bit)
 131:Libraries/CMSIS/Include/core_cmInstr.h **** 
 132:Libraries/CMSIS/Include/core_cmInstr.h ****     This function reverses the byte order in two unsigned short values.
 133:Libraries/CMSIS/Include/core_cmInstr.h **** 
 134:Libraries/CMSIS/Include/core_cmInstr.h ****     \param [in]    value  Value to reverse
 135:Libraries/CMSIS/Include/core_cmInstr.h ****     \return               Reversed value
 136:Libraries/CMSIS/Include/core_cmInstr.h ****  */
 137:Libraries/CMSIS/Include/core_cmInstr.h **** #ifndef __NO_EMBEDDED_ASM
 138:Libraries/CMSIS/Include/core_cmInstr.h **** __attribute__((section(".rev16_text"))) __STATIC_INLINE __ASM uint32_t __REV16(uint32_t value)
 139:Libraries/CMSIS/Include/core_cmInstr.h **** {
 140:Libraries/CMSIS/Include/core_cmInstr.h ****   rev16 r0, r0
 141:Libraries/CMSIS/Include/core_cmInstr.h ****   bx lr
 142:Libraries/CMSIS/Include/core_cmInstr.h **** }
 143:Libraries/CMSIS/Include/core_cmInstr.h **** #endif
 144:Libraries/CMSIS/Include/core_cmInstr.h **** 
 145:Libraries/CMSIS/Include/core_cmInstr.h **** /** \brief  Reverse byte order in signed short value
 146:Libraries/CMSIS/Include/core_cmInstr.h **** 
 147:Libraries/CMSIS/Include/core_cmInstr.h ****     This function reverses the byte order in a signed short value with sign extension to integer.
 148:Libraries/CMSIS/Include/core_cmInstr.h **** 
 149:Libraries/CMSIS/Include/core_cmInstr.h ****     \param [in]    value  Value to reverse
 150:Libraries/CMSIS/Include/core_cmInstr.h ****     \return               Reversed value
ARM GAS  /tmp/ccklj7FS.s 			page 10


 151:Libraries/CMSIS/Include/core_cmInstr.h ****  */
 152:Libraries/CMSIS/Include/core_cmInstr.h **** #ifndef __NO_EMBEDDED_ASM
 153:Libraries/CMSIS/Include/core_cmInstr.h **** __attribute__((section(".revsh_text"))) __STATIC_INLINE __ASM int32_t __REVSH(int32_t value)
 154:Libraries/CMSIS/Include/core_cmInstr.h **** {
 155:Libraries/CMSIS/Include/core_cmInstr.h ****   revsh r0, r0
 156:Libraries/CMSIS/Include/core_cmInstr.h ****   bx lr
 157:Libraries/CMSIS/Include/core_cmInstr.h **** }
 158:Libraries/CMSIS/Include/core_cmInstr.h **** #endif
 159:Libraries/CMSIS/Include/core_cmInstr.h **** 
 160:Libraries/CMSIS/Include/core_cmInstr.h **** 
 161:Libraries/CMSIS/Include/core_cmInstr.h **** /** \brief  Rotate Right in unsigned value (32 bit)
 162:Libraries/CMSIS/Include/core_cmInstr.h **** 
 163:Libraries/CMSIS/Include/core_cmInstr.h ****     This function Rotate Right (immediate) provides the value of the contents of a register rotated
 164:Libraries/CMSIS/Include/core_cmInstr.h **** 
 165:Libraries/CMSIS/Include/core_cmInstr.h ****     \param [in]    value  Value to rotate
 166:Libraries/CMSIS/Include/core_cmInstr.h ****     \param [in]    value  Number of Bits to rotate
 167:Libraries/CMSIS/Include/core_cmInstr.h ****     \return               Rotated value
 168:Libraries/CMSIS/Include/core_cmInstr.h ****  */
 169:Libraries/CMSIS/Include/core_cmInstr.h **** #define __ROR                             __ror
 170:Libraries/CMSIS/Include/core_cmInstr.h **** 
 171:Libraries/CMSIS/Include/core_cmInstr.h **** 
 172:Libraries/CMSIS/Include/core_cmInstr.h **** /** \brief  Breakpoint
 173:Libraries/CMSIS/Include/core_cmInstr.h **** 
 174:Libraries/CMSIS/Include/core_cmInstr.h ****     This function causes the processor to enter Debug state.
 175:Libraries/CMSIS/Include/core_cmInstr.h ****     Debug tools can use this to investigate system state when the instruction at a particular addre
 176:Libraries/CMSIS/Include/core_cmInstr.h **** 
 177:Libraries/CMSIS/Include/core_cmInstr.h ****     \param [in]    value  is ignored by the processor.
 178:Libraries/CMSIS/Include/core_cmInstr.h ****                    If required, a debugger can use it to store additional information about the bre
 179:Libraries/CMSIS/Include/core_cmInstr.h ****  */
 180:Libraries/CMSIS/Include/core_cmInstr.h **** #define __BKPT(value)                       __breakpoint(value)
 181:Libraries/CMSIS/Include/core_cmInstr.h **** 
 182:Libraries/CMSIS/Include/core_cmInstr.h **** 
 183:Libraries/CMSIS/Include/core_cmInstr.h **** /** \brief  Reverse bit order of value
 184:Libraries/CMSIS/Include/core_cmInstr.h **** 
 185:Libraries/CMSIS/Include/core_cmInstr.h ****     This function reverses the bit order of the given value.
 186:Libraries/CMSIS/Include/core_cmInstr.h **** 
 187:Libraries/CMSIS/Include/core_cmInstr.h ****     \param [in]    value  Value to reverse
 188:Libraries/CMSIS/Include/core_cmInstr.h ****     \return               Reversed value
 189:Libraries/CMSIS/Include/core_cmInstr.h ****  */
 190:Libraries/CMSIS/Include/core_cmInstr.h **** #if       (__CORTEX_M >= 0x03) || (__CORTEX_SC >= 300)
 191:Libraries/CMSIS/Include/core_cmInstr.h ****   #define __RBIT                          __rbit
 192:Libraries/CMSIS/Include/core_cmInstr.h **** #else
 193:Libraries/CMSIS/Include/core_cmInstr.h **** __attribute__((always_inline)) __STATIC_INLINE uint32_t __RBIT(uint32_t value)
 194:Libraries/CMSIS/Include/core_cmInstr.h **** {
 195:Libraries/CMSIS/Include/core_cmInstr.h ****   uint32_t result;
 196:Libraries/CMSIS/Include/core_cmInstr.h ****   int32_t s = 4 /*sizeof(v)*/ * 8 - 1; // extra shift needed at end
 197:Libraries/CMSIS/Include/core_cmInstr.h **** 
 198:Libraries/CMSIS/Include/core_cmInstr.h ****   result = value;                      // r will be reversed bits of v; first get LSB of v
 199:Libraries/CMSIS/Include/core_cmInstr.h ****   for (value >>= 1; value; value >>= 1)
 200:Libraries/CMSIS/Include/core_cmInstr.h ****   {
 201:Libraries/CMSIS/Include/core_cmInstr.h ****     result <<= 1;
 202:Libraries/CMSIS/Include/core_cmInstr.h ****     result |= value & 1;
 203:Libraries/CMSIS/Include/core_cmInstr.h ****     s--;
 204:Libraries/CMSIS/Include/core_cmInstr.h ****   }
 205:Libraries/CMSIS/Include/core_cmInstr.h ****   result <<= s;                       // shift when v's highest bits are zero
 206:Libraries/CMSIS/Include/core_cmInstr.h ****   return(result);
 207:Libraries/CMSIS/Include/core_cmInstr.h **** }
ARM GAS  /tmp/ccklj7FS.s 			page 11


 208:Libraries/CMSIS/Include/core_cmInstr.h **** #endif
 209:Libraries/CMSIS/Include/core_cmInstr.h **** 
 210:Libraries/CMSIS/Include/core_cmInstr.h **** 
 211:Libraries/CMSIS/Include/core_cmInstr.h **** /** \brief  Count leading zeros
 212:Libraries/CMSIS/Include/core_cmInstr.h **** 
 213:Libraries/CMSIS/Include/core_cmInstr.h ****     This function counts the number of leading zeros of a data value.
 214:Libraries/CMSIS/Include/core_cmInstr.h **** 
 215:Libraries/CMSIS/Include/core_cmInstr.h ****     \param [in]  value  Value to count the leading zeros
 216:Libraries/CMSIS/Include/core_cmInstr.h ****     \return             number of leading zeros in value
 217:Libraries/CMSIS/Include/core_cmInstr.h ****  */
 218:Libraries/CMSIS/Include/core_cmInstr.h **** #define __CLZ                             __clz
 219:Libraries/CMSIS/Include/core_cmInstr.h **** 
 220:Libraries/CMSIS/Include/core_cmInstr.h **** 
 221:Libraries/CMSIS/Include/core_cmInstr.h **** #if       (__CORTEX_M >= 0x03) || (__CORTEX_SC >= 300)
 222:Libraries/CMSIS/Include/core_cmInstr.h **** 
 223:Libraries/CMSIS/Include/core_cmInstr.h **** /** \brief  LDR Exclusive (8 bit)
 224:Libraries/CMSIS/Include/core_cmInstr.h **** 
 225:Libraries/CMSIS/Include/core_cmInstr.h ****     This function executes a exclusive LDR instruction for 8 bit value.
 226:Libraries/CMSIS/Include/core_cmInstr.h **** 
 227:Libraries/CMSIS/Include/core_cmInstr.h ****     \param [in]    ptr  Pointer to data
 228:Libraries/CMSIS/Include/core_cmInstr.h ****     \return             value of type uint8_t at (*ptr)
 229:Libraries/CMSIS/Include/core_cmInstr.h ****  */
 230:Libraries/CMSIS/Include/core_cmInstr.h **** #define __LDREXB(ptr)                     ((uint8_t ) __ldrex(ptr))
 231:Libraries/CMSIS/Include/core_cmInstr.h **** 
 232:Libraries/CMSIS/Include/core_cmInstr.h **** 
 233:Libraries/CMSIS/Include/core_cmInstr.h **** /** \brief  LDR Exclusive (16 bit)
 234:Libraries/CMSIS/Include/core_cmInstr.h **** 
 235:Libraries/CMSIS/Include/core_cmInstr.h ****     This function executes a exclusive LDR instruction for 16 bit values.
 236:Libraries/CMSIS/Include/core_cmInstr.h **** 
 237:Libraries/CMSIS/Include/core_cmInstr.h ****     \param [in]    ptr  Pointer to data
 238:Libraries/CMSIS/Include/core_cmInstr.h ****     \return        value of type uint16_t at (*ptr)
 239:Libraries/CMSIS/Include/core_cmInstr.h ****  */
 240:Libraries/CMSIS/Include/core_cmInstr.h **** #define __LDREXH(ptr)                     ((uint16_t) __ldrex(ptr))
 241:Libraries/CMSIS/Include/core_cmInstr.h **** 
 242:Libraries/CMSIS/Include/core_cmInstr.h **** 
 243:Libraries/CMSIS/Include/core_cmInstr.h **** /** \brief  LDR Exclusive (32 bit)
 244:Libraries/CMSIS/Include/core_cmInstr.h **** 
 245:Libraries/CMSIS/Include/core_cmInstr.h ****     This function executes a exclusive LDR instruction for 32 bit values.
 246:Libraries/CMSIS/Include/core_cmInstr.h **** 
 247:Libraries/CMSIS/Include/core_cmInstr.h ****     \param [in]    ptr  Pointer to data
 248:Libraries/CMSIS/Include/core_cmInstr.h ****     \return        value of type uint32_t at (*ptr)
 249:Libraries/CMSIS/Include/core_cmInstr.h ****  */
 250:Libraries/CMSIS/Include/core_cmInstr.h **** #define __LDREXW(ptr)                     ((uint32_t ) __ldrex(ptr))
 251:Libraries/CMSIS/Include/core_cmInstr.h **** 
 252:Libraries/CMSIS/Include/core_cmInstr.h **** 
 253:Libraries/CMSIS/Include/core_cmInstr.h **** /** \brief  STR Exclusive (8 bit)
 254:Libraries/CMSIS/Include/core_cmInstr.h **** 
 255:Libraries/CMSIS/Include/core_cmInstr.h ****     This function executes a exclusive STR instruction for 8 bit values.
 256:Libraries/CMSIS/Include/core_cmInstr.h **** 
 257:Libraries/CMSIS/Include/core_cmInstr.h ****     \param [in]  value  Value to store
 258:Libraries/CMSIS/Include/core_cmInstr.h ****     \param [in]    ptr  Pointer to location
 259:Libraries/CMSIS/Include/core_cmInstr.h ****     \return          0  Function succeeded
 260:Libraries/CMSIS/Include/core_cmInstr.h ****     \return          1  Function failed
 261:Libraries/CMSIS/Include/core_cmInstr.h ****  */
 262:Libraries/CMSIS/Include/core_cmInstr.h **** #define __STREXB(value, ptr)              __strex(value, ptr)
 263:Libraries/CMSIS/Include/core_cmInstr.h **** 
 264:Libraries/CMSIS/Include/core_cmInstr.h **** 
ARM GAS  /tmp/ccklj7FS.s 			page 12


 265:Libraries/CMSIS/Include/core_cmInstr.h **** /** \brief  STR Exclusive (16 bit)
 266:Libraries/CMSIS/Include/core_cmInstr.h **** 
 267:Libraries/CMSIS/Include/core_cmInstr.h ****     This function executes a exclusive STR instruction for 16 bit values.
 268:Libraries/CMSIS/Include/core_cmInstr.h **** 
 269:Libraries/CMSIS/Include/core_cmInstr.h ****     \param [in]  value  Value to store
 270:Libraries/CMSIS/Include/core_cmInstr.h ****     \param [in]    ptr  Pointer to location
 271:Libraries/CMSIS/Include/core_cmInstr.h ****     \return          0  Function succeeded
 272:Libraries/CMSIS/Include/core_cmInstr.h ****     \return          1  Function failed
 273:Libraries/CMSIS/Include/core_cmInstr.h ****  */
 274:Libraries/CMSIS/Include/core_cmInstr.h **** #define __STREXH(value, ptr)              __strex(value, ptr)
 275:Libraries/CMSIS/Include/core_cmInstr.h **** 
 276:Libraries/CMSIS/Include/core_cmInstr.h **** 
 277:Libraries/CMSIS/Include/core_cmInstr.h **** /** \brief  STR Exclusive (32 bit)
 278:Libraries/CMSIS/Include/core_cmInstr.h **** 
 279:Libraries/CMSIS/Include/core_cmInstr.h ****     This function executes a exclusive STR instruction for 32 bit values.
 280:Libraries/CMSIS/Include/core_cmInstr.h **** 
 281:Libraries/CMSIS/Include/core_cmInstr.h ****     \param [in]  value  Value to store
 282:Libraries/CMSIS/Include/core_cmInstr.h ****     \param [in]    ptr  Pointer to location
 283:Libraries/CMSIS/Include/core_cmInstr.h ****     \return          0  Function succeeded
 284:Libraries/CMSIS/Include/core_cmInstr.h ****     \return          1  Function failed
 285:Libraries/CMSIS/Include/core_cmInstr.h ****  */
 286:Libraries/CMSIS/Include/core_cmInstr.h **** #define __STREXW(value, ptr)              __strex(value, ptr)
 287:Libraries/CMSIS/Include/core_cmInstr.h **** 
 288:Libraries/CMSIS/Include/core_cmInstr.h **** 
 289:Libraries/CMSIS/Include/core_cmInstr.h **** /** \brief  Remove the exclusive lock
 290:Libraries/CMSIS/Include/core_cmInstr.h **** 
 291:Libraries/CMSIS/Include/core_cmInstr.h ****     This function removes the exclusive lock which is created by LDREX.
 292:Libraries/CMSIS/Include/core_cmInstr.h **** 
 293:Libraries/CMSIS/Include/core_cmInstr.h ****  */
 294:Libraries/CMSIS/Include/core_cmInstr.h **** #define __CLREX                           __clrex
 295:Libraries/CMSIS/Include/core_cmInstr.h **** 
 296:Libraries/CMSIS/Include/core_cmInstr.h **** 
 297:Libraries/CMSIS/Include/core_cmInstr.h **** /** \brief  Signed Saturate
 298:Libraries/CMSIS/Include/core_cmInstr.h **** 
 299:Libraries/CMSIS/Include/core_cmInstr.h ****     This function saturates a signed value.
 300:Libraries/CMSIS/Include/core_cmInstr.h **** 
 301:Libraries/CMSIS/Include/core_cmInstr.h ****     \param [in]  value  Value to be saturated
 302:Libraries/CMSIS/Include/core_cmInstr.h ****     \param [in]    sat  Bit position to saturate to (1..32)
 303:Libraries/CMSIS/Include/core_cmInstr.h ****     \return             Saturated value
 304:Libraries/CMSIS/Include/core_cmInstr.h ****  */
 305:Libraries/CMSIS/Include/core_cmInstr.h **** #define __SSAT                            __ssat
 306:Libraries/CMSIS/Include/core_cmInstr.h **** 
 307:Libraries/CMSIS/Include/core_cmInstr.h **** 
 308:Libraries/CMSIS/Include/core_cmInstr.h **** /** \brief  Unsigned Saturate
 309:Libraries/CMSIS/Include/core_cmInstr.h **** 
 310:Libraries/CMSIS/Include/core_cmInstr.h ****     This function saturates an unsigned value.
 311:Libraries/CMSIS/Include/core_cmInstr.h **** 
 312:Libraries/CMSIS/Include/core_cmInstr.h ****     \param [in]  value  Value to be saturated
 313:Libraries/CMSIS/Include/core_cmInstr.h ****     \param [in]    sat  Bit position to saturate to (0..31)
 314:Libraries/CMSIS/Include/core_cmInstr.h ****     \return             Saturated value
 315:Libraries/CMSIS/Include/core_cmInstr.h ****  */
 316:Libraries/CMSIS/Include/core_cmInstr.h **** #define __USAT                            __usat
 317:Libraries/CMSIS/Include/core_cmInstr.h **** 
 318:Libraries/CMSIS/Include/core_cmInstr.h **** 
 319:Libraries/CMSIS/Include/core_cmInstr.h **** /** \brief  Rotate Right with Extend (32 bit)
 320:Libraries/CMSIS/Include/core_cmInstr.h **** 
 321:Libraries/CMSIS/Include/core_cmInstr.h ****     This function moves each bit of a bitstring right by one bit.
ARM GAS  /tmp/ccklj7FS.s 			page 13


 322:Libraries/CMSIS/Include/core_cmInstr.h ****     The carry input is shifted in at the left end of the bitstring.
 323:Libraries/CMSIS/Include/core_cmInstr.h **** 
 324:Libraries/CMSIS/Include/core_cmInstr.h ****     \param [in]    value  Value to rotate
 325:Libraries/CMSIS/Include/core_cmInstr.h ****     \return               Rotated value
 326:Libraries/CMSIS/Include/core_cmInstr.h ****  */
 327:Libraries/CMSIS/Include/core_cmInstr.h **** #ifndef __NO_EMBEDDED_ASM
 328:Libraries/CMSIS/Include/core_cmInstr.h **** __attribute__((section(".rrx_text"))) __STATIC_INLINE __ASM uint32_t __RRX(uint32_t value)
 329:Libraries/CMSIS/Include/core_cmInstr.h **** {
 330:Libraries/CMSIS/Include/core_cmInstr.h ****   rrx r0, r0
 331:Libraries/CMSIS/Include/core_cmInstr.h ****   bx lr
 332:Libraries/CMSIS/Include/core_cmInstr.h **** }
 333:Libraries/CMSIS/Include/core_cmInstr.h **** #endif
 334:Libraries/CMSIS/Include/core_cmInstr.h **** 
 335:Libraries/CMSIS/Include/core_cmInstr.h **** 
 336:Libraries/CMSIS/Include/core_cmInstr.h **** /** \brief  LDRT Unprivileged (8 bit)
 337:Libraries/CMSIS/Include/core_cmInstr.h **** 
 338:Libraries/CMSIS/Include/core_cmInstr.h ****     This function executes a Unprivileged LDRT instruction for 8 bit value.
 339:Libraries/CMSIS/Include/core_cmInstr.h **** 
 340:Libraries/CMSIS/Include/core_cmInstr.h ****     \param [in]    ptr  Pointer to data
 341:Libraries/CMSIS/Include/core_cmInstr.h ****     \return             value of type uint8_t at (*ptr)
 342:Libraries/CMSIS/Include/core_cmInstr.h ****  */
 343:Libraries/CMSIS/Include/core_cmInstr.h **** #define __LDRBT(ptr)                      ((uint8_t )  __ldrt(ptr))
 344:Libraries/CMSIS/Include/core_cmInstr.h **** 
 345:Libraries/CMSIS/Include/core_cmInstr.h **** 
 346:Libraries/CMSIS/Include/core_cmInstr.h **** /** \brief  LDRT Unprivileged (16 bit)
 347:Libraries/CMSIS/Include/core_cmInstr.h **** 
 348:Libraries/CMSIS/Include/core_cmInstr.h ****     This function executes a Unprivileged LDRT instruction for 16 bit values.
 349:Libraries/CMSIS/Include/core_cmInstr.h **** 
 350:Libraries/CMSIS/Include/core_cmInstr.h ****     \param [in]    ptr  Pointer to data
 351:Libraries/CMSIS/Include/core_cmInstr.h ****     \return        value of type uint16_t at (*ptr)
 352:Libraries/CMSIS/Include/core_cmInstr.h ****  */
 353:Libraries/CMSIS/Include/core_cmInstr.h **** #define __LDRHT(ptr)                      ((uint16_t)  __ldrt(ptr))
 354:Libraries/CMSIS/Include/core_cmInstr.h **** 
 355:Libraries/CMSIS/Include/core_cmInstr.h **** 
 356:Libraries/CMSIS/Include/core_cmInstr.h **** /** \brief  LDRT Unprivileged (32 bit)
 357:Libraries/CMSIS/Include/core_cmInstr.h **** 
 358:Libraries/CMSIS/Include/core_cmInstr.h ****     This function executes a Unprivileged LDRT instruction for 32 bit values.
 359:Libraries/CMSIS/Include/core_cmInstr.h **** 
 360:Libraries/CMSIS/Include/core_cmInstr.h ****     \param [in]    ptr  Pointer to data
 361:Libraries/CMSIS/Include/core_cmInstr.h ****     \return        value of type uint32_t at (*ptr)
 362:Libraries/CMSIS/Include/core_cmInstr.h ****  */
 363:Libraries/CMSIS/Include/core_cmInstr.h **** #define __LDRT(ptr)                       ((uint32_t ) __ldrt(ptr))
 364:Libraries/CMSIS/Include/core_cmInstr.h **** 
 365:Libraries/CMSIS/Include/core_cmInstr.h **** 
 366:Libraries/CMSIS/Include/core_cmInstr.h **** /** \brief  STRT Unprivileged (8 bit)
 367:Libraries/CMSIS/Include/core_cmInstr.h **** 
 368:Libraries/CMSIS/Include/core_cmInstr.h ****     This function executes a Unprivileged STRT instruction for 8 bit values.
 369:Libraries/CMSIS/Include/core_cmInstr.h **** 
 370:Libraries/CMSIS/Include/core_cmInstr.h ****     \param [in]  value  Value to store
 371:Libraries/CMSIS/Include/core_cmInstr.h ****     \param [in]    ptr  Pointer to location
 372:Libraries/CMSIS/Include/core_cmInstr.h ****  */
 373:Libraries/CMSIS/Include/core_cmInstr.h **** #define __STRBT(value, ptr)               __strt(value, ptr)
 374:Libraries/CMSIS/Include/core_cmInstr.h **** 
 375:Libraries/CMSIS/Include/core_cmInstr.h **** 
 376:Libraries/CMSIS/Include/core_cmInstr.h **** /** \brief  STRT Unprivileged (16 bit)
 377:Libraries/CMSIS/Include/core_cmInstr.h **** 
 378:Libraries/CMSIS/Include/core_cmInstr.h ****     This function executes a Unprivileged STRT instruction for 16 bit values.
ARM GAS  /tmp/ccklj7FS.s 			page 14


 379:Libraries/CMSIS/Include/core_cmInstr.h **** 
 380:Libraries/CMSIS/Include/core_cmInstr.h ****     \param [in]  value  Value to store
 381:Libraries/CMSIS/Include/core_cmInstr.h ****     \param [in]    ptr  Pointer to location
 382:Libraries/CMSIS/Include/core_cmInstr.h ****  */
 383:Libraries/CMSIS/Include/core_cmInstr.h **** #define __STRHT(value, ptr)               __strt(value, ptr)
 384:Libraries/CMSIS/Include/core_cmInstr.h **** 
 385:Libraries/CMSIS/Include/core_cmInstr.h **** 
 386:Libraries/CMSIS/Include/core_cmInstr.h **** /** \brief  STRT Unprivileged (32 bit)
 387:Libraries/CMSIS/Include/core_cmInstr.h **** 
 388:Libraries/CMSIS/Include/core_cmInstr.h ****     This function executes a Unprivileged STRT instruction for 32 bit values.
 389:Libraries/CMSIS/Include/core_cmInstr.h **** 
 390:Libraries/CMSIS/Include/core_cmInstr.h ****     \param [in]  value  Value to store
 391:Libraries/CMSIS/Include/core_cmInstr.h ****     \param [in]    ptr  Pointer to location
 392:Libraries/CMSIS/Include/core_cmInstr.h ****  */
 393:Libraries/CMSIS/Include/core_cmInstr.h **** #define __STRT(value, ptr)                __strt(value, ptr)
 394:Libraries/CMSIS/Include/core_cmInstr.h **** 
 395:Libraries/CMSIS/Include/core_cmInstr.h **** #endif /* (__CORTEX_M >= 0x03) || (__CORTEX_SC >= 300) */
 396:Libraries/CMSIS/Include/core_cmInstr.h **** 
 397:Libraries/CMSIS/Include/core_cmInstr.h **** 
 398:Libraries/CMSIS/Include/core_cmInstr.h **** #elif defined ( __GNUC__ ) /*------------------ GNU Compiler ---------------------*/
 399:Libraries/CMSIS/Include/core_cmInstr.h **** /* GNU gcc specific functions */
 400:Libraries/CMSIS/Include/core_cmInstr.h **** 
 401:Libraries/CMSIS/Include/core_cmInstr.h **** /* Define macros for porting to both thumb1 and thumb2.
 402:Libraries/CMSIS/Include/core_cmInstr.h ****  * For thumb1, use low register (r0-r7), specified by constrant "l"
 403:Libraries/CMSIS/Include/core_cmInstr.h ****  * Otherwise, use general registers, specified by constrant "r" */
 404:Libraries/CMSIS/Include/core_cmInstr.h **** #if defined (__thumb__) && !defined (__thumb2__)
 405:Libraries/CMSIS/Include/core_cmInstr.h **** #define __CMSIS_GCC_OUT_REG(r) "=l" (r)
 406:Libraries/CMSIS/Include/core_cmInstr.h **** #define __CMSIS_GCC_USE_REG(r) "l" (r)
 407:Libraries/CMSIS/Include/core_cmInstr.h **** #else
 408:Libraries/CMSIS/Include/core_cmInstr.h **** #define __CMSIS_GCC_OUT_REG(r) "=r" (r)
 409:Libraries/CMSIS/Include/core_cmInstr.h **** #define __CMSIS_GCC_USE_REG(r) "r" (r)
 410:Libraries/CMSIS/Include/core_cmInstr.h **** #endif
 411:Libraries/CMSIS/Include/core_cmInstr.h **** 
 412:Libraries/CMSIS/Include/core_cmInstr.h **** /** \brief  No Operation
 413:Libraries/CMSIS/Include/core_cmInstr.h **** 
 414:Libraries/CMSIS/Include/core_cmInstr.h ****     No Operation does nothing. This instruction can be used for code alignment purposes.
 415:Libraries/CMSIS/Include/core_cmInstr.h ****  */
 416:Libraries/CMSIS/Include/core_cmInstr.h **** __attribute__((always_inline)) __STATIC_INLINE void __NOP(void)
 417:Libraries/CMSIS/Include/core_cmInstr.h **** {
 418:Libraries/CMSIS/Include/core_cmInstr.h ****   __ASM volatile ("nop");
 419:Libraries/CMSIS/Include/core_cmInstr.h **** }
 420:Libraries/CMSIS/Include/core_cmInstr.h **** 
 421:Libraries/CMSIS/Include/core_cmInstr.h **** 
 422:Libraries/CMSIS/Include/core_cmInstr.h **** /** \brief  Wait For Interrupt
 423:Libraries/CMSIS/Include/core_cmInstr.h **** 
 424:Libraries/CMSIS/Include/core_cmInstr.h ****     Wait For Interrupt is a hint instruction that suspends execution
 425:Libraries/CMSIS/Include/core_cmInstr.h ****     until one of a number of events occurs.
 426:Libraries/CMSIS/Include/core_cmInstr.h ****  */
 427:Libraries/CMSIS/Include/core_cmInstr.h **** __attribute__((always_inline)) __STATIC_INLINE void __WFI(void)
 428:Libraries/CMSIS/Include/core_cmInstr.h **** {
 429:Libraries/CMSIS/Include/core_cmInstr.h ****   __ASM volatile ("wfi");
 430:Libraries/CMSIS/Include/core_cmInstr.h **** }
 431:Libraries/CMSIS/Include/core_cmInstr.h **** 
 432:Libraries/CMSIS/Include/core_cmInstr.h **** 
 433:Libraries/CMSIS/Include/core_cmInstr.h **** /** \brief  Wait For Event
 434:Libraries/CMSIS/Include/core_cmInstr.h **** 
 435:Libraries/CMSIS/Include/core_cmInstr.h ****     Wait For Event is a hint instruction that permits the processor to enter
ARM GAS  /tmp/ccklj7FS.s 			page 15


 436:Libraries/CMSIS/Include/core_cmInstr.h ****     a low-power state until one of a number of events occurs.
 437:Libraries/CMSIS/Include/core_cmInstr.h ****  */
 438:Libraries/CMSIS/Include/core_cmInstr.h **** __attribute__((always_inline)) __STATIC_INLINE void __WFE(void)
 439:Libraries/CMSIS/Include/core_cmInstr.h **** {
 440:Libraries/CMSIS/Include/core_cmInstr.h ****   __ASM volatile ("wfe");
 441:Libraries/CMSIS/Include/core_cmInstr.h **** }
 442:Libraries/CMSIS/Include/core_cmInstr.h **** 
 443:Libraries/CMSIS/Include/core_cmInstr.h **** 
 444:Libraries/CMSIS/Include/core_cmInstr.h **** /** \brief  Send Event
 445:Libraries/CMSIS/Include/core_cmInstr.h **** 
 446:Libraries/CMSIS/Include/core_cmInstr.h ****     Send Event is a hint instruction. It causes an event to be signaled to the CPU.
 447:Libraries/CMSIS/Include/core_cmInstr.h ****  */
 448:Libraries/CMSIS/Include/core_cmInstr.h **** __attribute__((always_inline)) __STATIC_INLINE void __SEV(void)
 449:Libraries/CMSIS/Include/core_cmInstr.h **** {
 450:Libraries/CMSIS/Include/core_cmInstr.h ****   __ASM volatile ("sev");
 451:Libraries/CMSIS/Include/core_cmInstr.h **** }
 452:Libraries/CMSIS/Include/core_cmInstr.h **** 
 453:Libraries/CMSIS/Include/core_cmInstr.h **** 
 454:Libraries/CMSIS/Include/core_cmInstr.h **** /** \brief  Instruction Synchronization Barrier
 455:Libraries/CMSIS/Include/core_cmInstr.h **** 
 456:Libraries/CMSIS/Include/core_cmInstr.h ****     Instruction Synchronization Barrier flushes the pipeline in the processor,
 457:Libraries/CMSIS/Include/core_cmInstr.h ****     so that all instructions following the ISB are fetched from cache or
 458:Libraries/CMSIS/Include/core_cmInstr.h ****     memory, after the instruction has been completed.
 459:Libraries/CMSIS/Include/core_cmInstr.h ****  */
 460:Libraries/CMSIS/Include/core_cmInstr.h **** __attribute__((always_inline)) __STATIC_INLINE void __ISB(void)
 461:Libraries/CMSIS/Include/core_cmInstr.h **** {
 462:Libraries/CMSIS/Include/core_cmInstr.h ****   __ASM volatile ("isb 0xF":::"memory");
 463:Libraries/CMSIS/Include/core_cmInstr.h **** }
 464:Libraries/CMSIS/Include/core_cmInstr.h **** 
 465:Libraries/CMSIS/Include/core_cmInstr.h **** 
 466:Libraries/CMSIS/Include/core_cmInstr.h **** /** \brief  Data Synchronization Barrier
 467:Libraries/CMSIS/Include/core_cmInstr.h **** 
 468:Libraries/CMSIS/Include/core_cmInstr.h ****     This function acts as a special kind of Data Memory Barrier.
 469:Libraries/CMSIS/Include/core_cmInstr.h ****     It completes when all explicit memory accesses before this instruction complete.
 470:Libraries/CMSIS/Include/core_cmInstr.h ****  */
 471:Libraries/CMSIS/Include/core_cmInstr.h **** __attribute__((always_inline)) __STATIC_INLINE void __DSB(void)
 472:Libraries/CMSIS/Include/core_cmInstr.h **** {
 473:Libraries/CMSIS/Include/core_cmInstr.h ****   __ASM volatile ("dsb 0xF":::"memory");
 474:Libraries/CMSIS/Include/core_cmInstr.h **** }
 475:Libraries/CMSIS/Include/core_cmInstr.h **** 
 476:Libraries/CMSIS/Include/core_cmInstr.h **** 
 477:Libraries/CMSIS/Include/core_cmInstr.h **** /** \brief  Data Memory Barrier
 478:Libraries/CMSIS/Include/core_cmInstr.h **** 
 479:Libraries/CMSIS/Include/core_cmInstr.h ****     This function ensures the apparent order of the explicit memory operations before
 480:Libraries/CMSIS/Include/core_cmInstr.h ****     and after the instruction, without ensuring their completion.
 481:Libraries/CMSIS/Include/core_cmInstr.h ****  */
 482:Libraries/CMSIS/Include/core_cmInstr.h **** __attribute__((always_inline)) __STATIC_INLINE void __DMB(void)
 483:Libraries/CMSIS/Include/core_cmInstr.h **** {
 484:Libraries/CMSIS/Include/core_cmInstr.h ****   __ASM volatile ("dmb 0xF":::"memory");
 485:Libraries/CMSIS/Include/core_cmInstr.h **** }
 486:Libraries/CMSIS/Include/core_cmInstr.h **** 
 487:Libraries/CMSIS/Include/core_cmInstr.h **** 
 488:Libraries/CMSIS/Include/core_cmInstr.h **** /** \brief  Reverse byte order (32 bit)
 489:Libraries/CMSIS/Include/core_cmInstr.h **** 
 490:Libraries/CMSIS/Include/core_cmInstr.h ****     This function reverses the byte order in integer value.
 491:Libraries/CMSIS/Include/core_cmInstr.h **** 
 492:Libraries/CMSIS/Include/core_cmInstr.h ****     \param [in]    value  Value to reverse
ARM GAS  /tmp/ccklj7FS.s 			page 16


 493:Libraries/CMSIS/Include/core_cmInstr.h ****     \return               Reversed value
 494:Libraries/CMSIS/Include/core_cmInstr.h ****  */
 495:Libraries/CMSIS/Include/core_cmInstr.h **** __attribute__((always_inline)) __STATIC_INLINE uint32_t __REV(uint32_t value)
 165              		.loc 2 495 57 is_stmt 1 view .LVU48
 166              	.LBB231:
 496:Libraries/CMSIS/Include/core_cmInstr.h **** {
 497:Libraries/CMSIS/Include/core_cmInstr.h **** #if (__GNUC__ > 4) || (__GNUC__ == 4 && __GNUC_MINOR__ >= 5)
 498:Libraries/CMSIS/Include/core_cmInstr.h ****   return __builtin_bswap32(value);
 167              		.loc 2 498 3 view .LVU49
 168              		.loc 2 498 10 is_stmt 0 view .LVU50
 169 0080 1BBA     		rev	r3, r3
 170              	.LVL15:
 171              		.loc 2 498 10 view .LVU51
 172              	.LBE231:
 173              	.LBE230:
 119:Libraries/STM32F4xx_StdPeriph_Driver/src/stm32f4xx_cryp_aes.c ****     keyaddr+=4;
 174              		.loc 1 119 45 view .LVU52
 175 0082 0693     		str	r3, [sp, #24]
 120:Libraries/STM32F4xx_StdPeriph_Driver/src/stm32f4xx_cryp_aes.c ****     AES_CRYP_KeyInitStructure.CRYP_Key2Right= __REV(*(uint32_t*)(keyaddr));
 176              		.loc 1 120 5 is_stmt 1 view .LVU53
 177              	.LVL16:
 121:Libraries/STM32F4xx_StdPeriph_Driver/src/stm32f4xx_cryp_aes.c ****     keyaddr+=4;
 178              		.loc 1 121 5 view .LVU54
 121:Libraries/STM32F4xx_StdPeriph_Driver/src/stm32f4xx_cryp_aes.c ****     keyaddr+=4;
 179              		.loc 1 121 47 is_stmt 0 view .LVU55
 180 0084 6B68     		ldr	r3, [r5, #4]
 181              	.LVL17:
 182              	.LBB232:
 183              	.LBI232:
 495:Libraries/CMSIS/Include/core_cmInstr.h **** {
 184              		.loc 2 495 57 is_stmt 1 view .LVU56
 185              	.LBB233:
 186              		.loc 2 498 3 view .LVU57
 187              		.loc 2 498 10 is_stmt 0 view .LVU58
 188 0086 1BBA     		rev	r3, r3
 189              	.LVL18:
 190              		.loc 2 498 10 view .LVU59
 191              	.LBE233:
 192              	.LBE232:
 121:Libraries/STM32F4xx_StdPeriph_Driver/src/stm32f4xx_cryp_aes.c ****     keyaddr+=4;
 193              		.loc 1 121 45 view .LVU60
 194 0088 0793     		str	r3, [sp, #28]
 122:Libraries/STM32F4xx_StdPeriph_Driver/src/stm32f4xx_cryp_aes.c ****     AES_CRYP_KeyInitStructure.CRYP_Key3Left = __REV(*(uint32_t*)(keyaddr));
 195              		.loc 1 122 5 is_stmt 1 view .LVU61
 196              	.LVL19:
 123:Libraries/STM32F4xx_StdPeriph_Driver/src/stm32f4xx_cryp_aes.c ****     keyaddr+=4;
 197              		.loc 1 123 5 view .LVU62
 123:Libraries/STM32F4xx_StdPeriph_Driver/src/stm32f4xx_cryp_aes.c ****     keyaddr+=4;
 198              		.loc 1 123 47 is_stmt 0 view .LVU63
 199 008a AB68     		ldr	r3, [r5, #8]
 200              	.LVL20:
 201              	.LBB234:
 202              	.LBI234:
 495:Libraries/CMSIS/Include/core_cmInstr.h **** {
 203              		.loc 2 495 57 is_stmt 1 view .LVU64
 204              	.LBB235:
 205              		.loc 2 498 3 view .LVU65
ARM GAS  /tmp/ccklj7FS.s 			page 17


 206              		.loc 2 498 10 is_stmt 0 view .LVU66
 207 008c 1BBA     		rev	r3, r3
 208              	.LVL21:
 209              		.loc 2 498 10 view .LVU67
 210              	.LBE235:
 211              	.LBE234:
 123:Libraries/STM32F4xx_StdPeriph_Driver/src/stm32f4xx_cryp_aes.c ****     keyaddr+=4;
 212              		.loc 1 123 45 view .LVU68
 213 008e 0893     		str	r3, [sp, #32]
 124:Libraries/STM32F4xx_StdPeriph_Driver/src/stm32f4xx_cryp_aes.c ****     AES_CRYP_KeyInitStructure.CRYP_Key3Right= __REV(*(uint32_t*)(keyaddr));
 214              		.loc 1 124 5 is_stmt 1 view .LVU69
 215              	.LVL22:
 125:Libraries/STM32F4xx_StdPeriph_Driver/src/stm32f4xx_cryp_aes.c ****     break;
 216              		.loc 1 125 5 view .LVU70
 125:Libraries/STM32F4xx_StdPeriph_Driver/src/stm32f4xx_cryp_aes.c ****     break;
 217              		.loc 1 125 47 is_stmt 0 view .LVU71
 218 0090 EB68     		ldr	r3, [r5, #12]
 219              	.LVL23:
 220              	.LBB236:
 221              	.LBI236:
 495:Libraries/CMSIS/Include/core_cmInstr.h **** {
 222              		.loc 2 495 57 is_stmt 1 view .LVU72
 223              	.LBB237:
 224              		.loc 2 498 3 view .LVU73
 225              		.loc 2 498 10 is_stmt 0 view .LVU74
 226 0092 1BBA     		rev	r3, r3
 227              	.LVL24:
 228              		.loc 2 498 10 view .LVU75
 229              	.LBE237:
 230              	.LBE236:
 125:Libraries/STM32F4xx_StdPeriph_Driver/src/stm32f4xx_cryp_aes.c ****     break;
 231              		.loc 1 125 45 view .LVU76
 232 0094 0993     		str	r3, [sp, #36]
 126:Libraries/STM32F4xx_StdPeriph_Driver/src/stm32f4xx_cryp_aes.c ****     case 192:
 233              		.loc 1 126 5 is_stmt 1 view .LVU77
 234 0096 CBE7     		b	.L4
 235              	.LVL25:
 236              	.L2:
 128:Libraries/STM32F4xx_StdPeriph_Driver/src/stm32f4xx_cryp_aes.c ****     AES_CRYP_KeyInitStructure.CRYP_Key1Left = __REV(*(uint32_t*)(keyaddr));
 237              		.loc 1 128 5 view .LVU78
 128:Libraries/STM32F4xx_StdPeriph_Driver/src/stm32f4xx_cryp_aes.c ****     AES_CRYP_KeyInitStructure.CRYP_Key1Left = __REV(*(uint32_t*)(keyaddr));
 238              		.loc 1 128 42 is_stmt 0 view .LVU79
 239 0098 4FF48073 		mov	r3, #256
 240 009c 0D93     		str	r3, [sp, #52]
 129:Libraries/STM32F4xx_StdPeriph_Driver/src/stm32f4xx_cryp_aes.c ****     keyaddr+=4;
 241              		.loc 1 129 5 is_stmt 1 view .LVU80
 129:Libraries/STM32F4xx_StdPeriph_Driver/src/stm32f4xx_cryp_aes.c ****     keyaddr+=4;
 242              		.loc 1 129 47 is_stmt 0 view .LVU81
 243 009e 2B68     		ldr	r3, [r5]
 244              	.LVL26:
 245              	.LBB238:
 246              	.LBI238:
 495:Libraries/CMSIS/Include/core_cmInstr.h **** {
 247              		.loc 2 495 57 is_stmt 1 view .LVU82
 248              	.LBB239:
 249              		.loc 2 498 3 view .LVU83
 250              		.loc 2 498 10 is_stmt 0 view .LVU84
ARM GAS  /tmp/ccklj7FS.s 			page 18


 251 00a0 1BBA     		rev	r3, r3
 252              	.LVL27:
 253              		.loc 2 498 10 view .LVU85
 254              	.LBE239:
 255              	.LBE238:
 129:Libraries/STM32F4xx_StdPeriph_Driver/src/stm32f4xx_cryp_aes.c ****     keyaddr+=4;
 256              		.loc 1 129 45 view .LVU86
 257 00a2 0493     		str	r3, [sp, #16]
 130:Libraries/STM32F4xx_StdPeriph_Driver/src/stm32f4xx_cryp_aes.c ****     AES_CRYP_KeyInitStructure.CRYP_Key1Right= __REV(*(uint32_t*)(keyaddr));
 258              		.loc 1 130 5 is_stmt 1 view .LVU87
 259              	.LVL28:
 131:Libraries/STM32F4xx_StdPeriph_Driver/src/stm32f4xx_cryp_aes.c ****     keyaddr+=4;
 260              		.loc 1 131 5 view .LVU88
 131:Libraries/STM32F4xx_StdPeriph_Driver/src/stm32f4xx_cryp_aes.c ****     keyaddr+=4;
 261              		.loc 1 131 47 is_stmt 0 view .LVU89
 262 00a4 6B68     		ldr	r3, [r5, #4]
 263              	.LVL29:
 264              	.LBB240:
 265              	.LBI240:
 495:Libraries/CMSIS/Include/core_cmInstr.h **** {
 266              		.loc 2 495 57 is_stmt 1 view .LVU90
 267              	.LBB241:
 268              		.loc 2 498 3 view .LVU91
 269              		.loc 2 498 10 is_stmt 0 view .LVU92
 270 00a6 1BBA     		rev	r3, r3
 271              	.LVL30:
 272              		.loc 2 498 10 view .LVU93
 273              	.LBE241:
 274              	.LBE240:
 131:Libraries/STM32F4xx_StdPeriph_Driver/src/stm32f4xx_cryp_aes.c ****     keyaddr+=4;
 275              		.loc 1 131 45 view .LVU94
 276 00a8 0593     		str	r3, [sp, #20]
 132:Libraries/STM32F4xx_StdPeriph_Driver/src/stm32f4xx_cryp_aes.c ****     AES_CRYP_KeyInitStructure.CRYP_Key2Left = __REV(*(uint32_t*)(keyaddr));
 277              		.loc 1 132 5 is_stmt 1 view .LVU95
 278              	.LVL31:
 133:Libraries/STM32F4xx_StdPeriph_Driver/src/stm32f4xx_cryp_aes.c ****     keyaddr+=4;
 279              		.loc 1 133 5 view .LVU96
 133:Libraries/STM32F4xx_StdPeriph_Driver/src/stm32f4xx_cryp_aes.c ****     keyaddr+=4;
 280              		.loc 1 133 47 is_stmt 0 view .LVU97
 281 00aa AB68     		ldr	r3, [r5, #8]
 282              	.LVL32:
 283              	.LBB242:
 284              	.LBI242:
 495:Libraries/CMSIS/Include/core_cmInstr.h **** {
 285              		.loc 2 495 57 is_stmt 1 view .LVU98
 286              	.LBB243:
 287              		.loc 2 498 3 view .LVU99
 288              		.loc 2 498 10 is_stmt 0 view .LVU100
 289 00ac 1BBA     		rev	r3, r3
 290              	.LVL33:
 291              		.loc 2 498 10 view .LVU101
 292              	.LBE243:
 293              	.LBE242:
 133:Libraries/STM32F4xx_StdPeriph_Driver/src/stm32f4xx_cryp_aes.c ****     keyaddr+=4;
 294              		.loc 1 133 45 view .LVU102
 295 00ae 0693     		str	r3, [sp, #24]
 134:Libraries/STM32F4xx_StdPeriph_Driver/src/stm32f4xx_cryp_aes.c ****     AES_CRYP_KeyInitStructure.CRYP_Key2Right= __REV(*(uint32_t*)(keyaddr));
ARM GAS  /tmp/ccklj7FS.s 			page 19


 296              		.loc 1 134 5 is_stmt 1 view .LVU103
 297              	.LVL34:
 135:Libraries/STM32F4xx_StdPeriph_Driver/src/stm32f4xx_cryp_aes.c ****     keyaddr+=4;
 298              		.loc 1 135 5 view .LVU104
 135:Libraries/STM32F4xx_StdPeriph_Driver/src/stm32f4xx_cryp_aes.c ****     keyaddr+=4;
 299              		.loc 1 135 47 is_stmt 0 view .LVU105
 300 00b0 EB68     		ldr	r3, [r5, #12]
 301              	.LVL35:
 302              	.LBB244:
 303              	.LBI244:
 495:Libraries/CMSIS/Include/core_cmInstr.h **** {
 304              		.loc 2 495 57 is_stmt 1 view .LVU106
 305              	.LBB245:
 306              		.loc 2 498 3 view .LVU107
 307              		.loc 2 498 10 is_stmt 0 view .LVU108
 308 00b2 1BBA     		rev	r3, r3
 309              	.LVL36:
 310              		.loc 2 498 10 view .LVU109
 311              	.LBE245:
 312              	.LBE244:
 135:Libraries/STM32F4xx_StdPeriph_Driver/src/stm32f4xx_cryp_aes.c ****     keyaddr+=4;
 313              		.loc 1 135 45 view .LVU110
 314 00b4 0793     		str	r3, [sp, #28]
 136:Libraries/STM32F4xx_StdPeriph_Driver/src/stm32f4xx_cryp_aes.c ****     AES_CRYP_KeyInitStructure.CRYP_Key3Left = __REV(*(uint32_t*)(keyaddr));
 315              		.loc 1 136 5 is_stmt 1 view .LVU111
 316              	.LVL37:
 137:Libraries/STM32F4xx_StdPeriph_Driver/src/stm32f4xx_cryp_aes.c ****     keyaddr+=4;
 317              		.loc 1 137 5 view .LVU112
 137:Libraries/STM32F4xx_StdPeriph_Driver/src/stm32f4xx_cryp_aes.c ****     keyaddr+=4;
 318              		.loc 1 137 47 is_stmt 0 view .LVU113
 319 00b6 2B69     		ldr	r3, [r5, #16]
 320              	.LVL38:
 321              	.LBB246:
 322              	.LBI246:
 495:Libraries/CMSIS/Include/core_cmInstr.h **** {
 323              		.loc 2 495 57 is_stmt 1 view .LVU114
 324              	.LBB247:
 325              		.loc 2 498 3 view .LVU115
 326              		.loc 2 498 10 is_stmt 0 view .LVU116
 327 00b8 1BBA     		rev	r3, r3
 328              	.LVL39:
 329              		.loc 2 498 10 view .LVU117
 330              	.LBE247:
 331              	.LBE246:
 137:Libraries/STM32F4xx_StdPeriph_Driver/src/stm32f4xx_cryp_aes.c ****     keyaddr+=4;
 332              		.loc 1 137 45 view .LVU118
 333 00ba 0893     		str	r3, [sp, #32]
 138:Libraries/STM32F4xx_StdPeriph_Driver/src/stm32f4xx_cryp_aes.c ****     AES_CRYP_KeyInitStructure.CRYP_Key3Right= __REV(*(uint32_t*)(keyaddr));
 334              		.loc 1 138 5 is_stmt 1 view .LVU119
 335              	.LVL40:
 139:Libraries/STM32F4xx_StdPeriph_Driver/src/stm32f4xx_cryp_aes.c ****     break;
 336              		.loc 1 139 5 view .LVU120
 139:Libraries/STM32F4xx_StdPeriph_Driver/src/stm32f4xx_cryp_aes.c ****     break;
 337              		.loc 1 139 47 is_stmt 0 view .LVU121
 338 00bc 6B69     		ldr	r3, [r5, #20]
 339              	.LVL41:
 340              	.LBB248:
ARM GAS  /tmp/ccklj7FS.s 			page 20


 341              	.LBI248:
 495:Libraries/CMSIS/Include/core_cmInstr.h **** {
 342              		.loc 2 495 57 is_stmt 1 view .LVU122
 343              	.LBB249:
 344              		.loc 2 498 3 view .LVU123
 345              		.loc 2 498 10 is_stmt 0 view .LVU124
 346 00be 1BBA     		rev	r3, r3
 347              	.LVL42:
 348              		.loc 2 498 10 view .LVU125
 349              	.LBE249:
 350              	.LBE248:
 139:Libraries/STM32F4xx_StdPeriph_Driver/src/stm32f4xx_cryp_aes.c ****     break;
 351              		.loc 1 139 45 view .LVU126
 352 00c0 0993     		str	r3, [sp, #36]
 140:Libraries/STM32F4xx_StdPeriph_Driver/src/stm32f4xx_cryp_aes.c ****     case 256:
 353              		.loc 1 140 5 is_stmt 1 view .LVU127
 354 00c2 B5E7     		b	.L4
 355              	.LVL43:
 356              	.L3:
 142:Libraries/STM32F4xx_StdPeriph_Driver/src/stm32f4xx_cryp_aes.c ****     AES_CRYP_KeyInitStructure.CRYP_Key0Left = __REV(*(uint32_t*)(keyaddr));
 357              		.loc 1 142 5 view .LVU128
 142:Libraries/STM32F4xx_StdPeriph_Driver/src/stm32f4xx_cryp_aes.c ****     AES_CRYP_KeyInitStructure.CRYP_Key0Left = __REV(*(uint32_t*)(keyaddr));
 358              		.loc 1 142 42 is_stmt 0 view .LVU129
 359 00c4 4FF40073 		mov	r3, #512
 360 00c8 0D93     		str	r3, [sp, #52]
 143:Libraries/STM32F4xx_StdPeriph_Driver/src/stm32f4xx_cryp_aes.c ****     keyaddr+=4;
 361              		.loc 1 143 5 is_stmt 1 view .LVU130
 143:Libraries/STM32F4xx_StdPeriph_Driver/src/stm32f4xx_cryp_aes.c ****     keyaddr+=4;
 362              		.loc 1 143 47 is_stmt 0 view .LVU131
 363 00ca 2B68     		ldr	r3, [r5]
 364              	.LVL44:
 365              	.LBB250:
 366              	.LBI250:
 495:Libraries/CMSIS/Include/core_cmInstr.h **** {
 367              		.loc 2 495 57 is_stmt 1 view .LVU132
 368              	.LBB251:
 369              		.loc 2 498 3 view .LVU133
 370              		.loc 2 498 10 is_stmt 0 view .LVU134
 371 00cc 1BBA     		rev	r3, r3
 372              	.LVL45:
 373              		.loc 2 498 10 view .LVU135
 374              	.LBE251:
 375              	.LBE250:
 143:Libraries/STM32F4xx_StdPeriph_Driver/src/stm32f4xx_cryp_aes.c ****     keyaddr+=4;
 376              		.loc 1 143 45 view .LVU136
 377 00ce 0293     		str	r3, [sp, #8]
 144:Libraries/STM32F4xx_StdPeriph_Driver/src/stm32f4xx_cryp_aes.c ****     AES_CRYP_KeyInitStructure.CRYP_Key0Right= __REV(*(uint32_t*)(keyaddr));
 378              		.loc 1 144 5 is_stmt 1 view .LVU137
 379              	.LVL46:
 145:Libraries/STM32F4xx_StdPeriph_Driver/src/stm32f4xx_cryp_aes.c ****     keyaddr+=4;
 380              		.loc 1 145 5 view .LVU138
 145:Libraries/STM32F4xx_StdPeriph_Driver/src/stm32f4xx_cryp_aes.c ****     keyaddr+=4;
 381              		.loc 1 145 47 is_stmt 0 view .LVU139
 382 00d0 6B68     		ldr	r3, [r5, #4]
 383              	.LVL47:
 384              	.LBB252:
 385              	.LBI252:
ARM GAS  /tmp/ccklj7FS.s 			page 21


 495:Libraries/CMSIS/Include/core_cmInstr.h **** {
 386              		.loc 2 495 57 is_stmt 1 view .LVU140
 387              	.LBB253:
 388              		.loc 2 498 3 view .LVU141
 389              		.loc 2 498 10 is_stmt 0 view .LVU142
 390 00d2 1BBA     		rev	r3, r3
 391              	.LVL48:
 392              		.loc 2 498 10 view .LVU143
 393              	.LBE253:
 394              	.LBE252:
 145:Libraries/STM32F4xx_StdPeriph_Driver/src/stm32f4xx_cryp_aes.c ****     keyaddr+=4;
 395              		.loc 1 145 45 view .LVU144
 396 00d4 0393     		str	r3, [sp, #12]
 146:Libraries/STM32F4xx_StdPeriph_Driver/src/stm32f4xx_cryp_aes.c ****     AES_CRYP_KeyInitStructure.CRYP_Key1Left = __REV(*(uint32_t*)(keyaddr));
 397              		.loc 1 146 5 is_stmt 1 view .LVU145
 398              	.LVL49:
 147:Libraries/STM32F4xx_StdPeriph_Driver/src/stm32f4xx_cryp_aes.c ****     keyaddr+=4;
 399              		.loc 1 147 5 view .LVU146
 147:Libraries/STM32F4xx_StdPeriph_Driver/src/stm32f4xx_cryp_aes.c ****     keyaddr+=4;
 400              		.loc 1 147 47 is_stmt 0 view .LVU147
 401 00d6 AB68     		ldr	r3, [r5, #8]
 402              	.LVL50:
 403              	.LBB254:
 404              	.LBI254:
 495:Libraries/CMSIS/Include/core_cmInstr.h **** {
 405              		.loc 2 495 57 is_stmt 1 view .LVU148
 406              	.LBB255:
 407              		.loc 2 498 3 view .LVU149
 408              		.loc 2 498 10 is_stmt 0 view .LVU150
 409 00d8 1BBA     		rev	r3, r3
 410              	.LVL51:
 411              		.loc 2 498 10 view .LVU151
 412              	.LBE255:
 413              	.LBE254:
 147:Libraries/STM32F4xx_StdPeriph_Driver/src/stm32f4xx_cryp_aes.c ****     keyaddr+=4;
 414              		.loc 1 147 45 view .LVU152
 415 00da 0493     		str	r3, [sp, #16]
 148:Libraries/STM32F4xx_StdPeriph_Driver/src/stm32f4xx_cryp_aes.c ****     AES_CRYP_KeyInitStructure.CRYP_Key1Right= __REV(*(uint32_t*)(keyaddr));
 416              		.loc 1 148 5 is_stmt 1 view .LVU153
 417              	.LVL52:
 149:Libraries/STM32F4xx_StdPeriph_Driver/src/stm32f4xx_cryp_aes.c ****     keyaddr+=4;
 418              		.loc 1 149 5 view .LVU154
 149:Libraries/STM32F4xx_StdPeriph_Driver/src/stm32f4xx_cryp_aes.c ****     keyaddr+=4;
 419              		.loc 1 149 47 is_stmt 0 view .LVU155
 420 00dc EB68     		ldr	r3, [r5, #12]
 421              	.LVL53:
 422              	.LBB256:
 423              	.LBI256:
 495:Libraries/CMSIS/Include/core_cmInstr.h **** {
 424              		.loc 2 495 57 is_stmt 1 view .LVU156
 425              	.LBB257:
 426              		.loc 2 498 3 view .LVU157
 427              		.loc 2 498 10 is_stmt 0 view .LVU158
 428 00de 1BBA     		rev	r3, r3
 429              	.LVL54:
 430              		.loc 2 498 10 view .LVU159
 431              	.LBE257:
ARM GAS  /tmp/ccklj7FS.s 			page 22


 432              	.LBE256:
 149:Libraries/STM32F4xx_StdPeriph_Driver/src/stm32f4xx_cryp_aes.c ****     keyaddr+=4;
 433              		.loc 1 149 45 view .LVU160
 434 00e0 0593     		str	r3, [sp, #20]
 150:Libraries/STM32F4xx_StdPeriph_Driver/src/stm32f4xx_cryp_aes.c ****     AES_CRYP_KeyInitStructure.CRYP_Key2Left = __REV(*(uint32_t*)(keyaddr));
 435              		.loc 1 150 5 is_stmt 1 view .LVU161
 436              	.LVL55:
 151:Libraries/STM32F4xx_StdPeriph_Driver/src/stm32f4xx_cryp_aes.c ****     keyaddr+=4;
 437              		.loc 1 151 5 view .LVU162
 151:Libraries/STM32F4xx_StdPeriph_Driver/src/stm32f4xx_cryp_aes.c ****     keyaddr+=4;
 438              		.loc 1 151 47 is_stmt 0 view .LVU163
 439 00e2 2B69     		ldr	r3, [r5, #16]
 440              	.LVL56:
 441              	.LBB258:
 442              	.LBI258:
 495:Libraries/CMSIS/Include/core_cmInstr.h **** {
 443              		.loc 2 495 57 is_stmt 1 view .LVU164
 444              	.LBB259:
 445              		.loc 2 498 3 view .LVU165
 446              		.loc 2 498 10 is_stmt 0 view .LVU166
 447 00e4 1BBA     		rev	r3, r3
 448              	.LVL57:
 449              		.loc 2 498 10 view .LVU167
 450              	.LBE259:
 451              	.LBE258:
 151:Libraries/STM32F4xx_StdPeriph_Driver/src/stm32f4xx_cryp_aes.c ****     keyaddr+=4;
 452              		.loc 1 151 45 view .LVU168
 453 00e6 0693     		str	r3, [sp, #24]
 152:Libraries/STM32F4xx_StdPeriph_Driver/src/stm32f4xx_cryp_aes.c ****     AES_CRYP_KeyInitStructure.CRYP_Key2Right= __REV(*(uint32_t*)(keyaddr));
 454              		.loc 1 152 5 is_stmt 1 view .LVU169
 455              	.LVL58:
 153:Libraries/STM32F4xx_StdPeriph_Driver/src/stm32f4xx_cryp_aes.c ****     keyaddr+=4;
 456              		.loc 1 153 5 view .LVU170
 153:Libraries/STM32F4xx_StdPeriph_Driver/src/stm32f4xx_cryp_aes.c ****     keyaddr+=4;
 457              		.loc 1 153 47 is_stmt 0 view .LVU171
 458 00e8 6B69     		ldr	r3, [r5, #20]
 459              	.LVL59:
 460              	.LBB260:
 461              	.LBI260:
 495:Libraries/CMSIS/Include/core_cmInstr.h **** {
 462              		.loc 2 495 57 is_stmt 1 view .LVU172
 463              	.LBB261:
 464              		.loc 2 498 3 view .LVU173
 465              		.loc 2 498 10 is_stmt 0 view .LVU174
 466 00ea 1BBA     		rev	r3, r3
 467              	.LVL60:
 468              		.loc 2 498 10 view .LVU175
 469              	.LBE261:
 470              	.LBE260:
 153:Libraries/STM32F4xx_StdPeriph_Driver/src/stm32f4xx_cryp_aes.c ****     keyaddr+=4;
 471              		.loc 1 153 45 view .LVU176
 472 00ec 0793     		str	r3, [sp, #28]
 154:Libraries/STM32F4xx_StdPeriph_Driver/src/stm32f4xx_cryp_aes.c ****     AES_CRYP_KeyInitStructure.CRYP_Key3Left = __REV(*(uint32_t*)(keyaddr));
 473              		.loc 1 154 5 is_stmt 1 view .LVU177
 474              	.LVL61:
 155:Libraries/STM32F4xx_StdPeriph_Driver/src/stm32f4xx_cryp_aes.c ****     keyaddr+=4;
 475              		.loc 1 155 5 view .LVU178
ARM GAS  /tmp/ccklj7FS.s 			page 23


 155:Libraries/STM32F4xx_StdPeriph_Driver/src/stm32f4xx_cryp_aes.c ****     keyaddr+=4;
 476              		.loc 1 155 47 is_stmt 0 view .LVU179
 477 00ee AB69     		ldr	r3, [r5, #24]
 478              	.LVL62:
 479              	.LBB262:
 480              	.LBI262:
 495:Libraries/CMSIS/Include/core_cmInstr.h **** {
 481              		.loc 2 495 57 is_stmt 1 view .LVU180
 482              	.LBB263:
 483              		.loc 2 498 3 view .LVU181
 484              		.loc 2 498 10 is_stmt 0 view .LVU182
 485 00f0 1BBA     		rev	r3, r3
 486              	.LVL63:
 487              		.loc 2 498 10 view .LVU183
 488              	.LBE263:
 489              	.LBE262:
 155:Libraries/STM32F4xx_StdPeriph_Driver/src/stm32f4xx_cryp_aes.c ****     keyaddr+=4;
 490              		.loc 1 155 45 view .LVU184
 491 00f2 0893     		str	r3, [sp, #32]
 156:Libraries/STM32F4xx_StdPeriph_Driver/src/stm32f4xx_cryp_aes.c ****     AES_CRYP_KeyInitStructure.CRYP_Key3Right= __REV(*(uint32_t*)(keyaddr));
 492              		.loc 1 156 5 is_stmt 1 view .LVU185
 493              	.LVL64:
 157:Libraries/STM32F4xx_StdPeriph_Driver/src/stm32f4xx_cryp_aes.c ****     break;
 494              		.loc 1 157 5 view .LVU186
 157:Libraries/STM32F4xx_StdPeriph_Driver/src/stm32f4xx_cryp_aes.c ****     break;
 495              		.loc 1 157 47 is_stmt 0 view .LVU187
 496 00f4 EB69     		ldr	r3, [r5, #28]
 497              	.LVL65:
 498              	.LBB264:
 499              	.LBI264:
 495:Libraries/CMSIS/Include/core_cmInstr.h **** {
 500              		.loc 2 495 57 is_stmt 1 view .LVU188
 501              	.LBB265:
 502              		.loc 2 498 3 view .LVU189
 503              		.loc 2 498 10 is_stmt 0 view .LVU190
 504 00f6 1BBA     		rev	r3, r3
 505              	.LVL66:
 506              		.loc 2 498 10 view .LVU191
 507              	.LBE265:
 508              	.LBE264:
 157:Libraries/STM32F4xx_StdPeriph_Driver/src/stm32f4xx_cryp_aes.c ****     break;
 509              		.loc 1 157 45 view .LVU192
 510 00f8 0993     		str	r3, [sp, #36]
 158:Libraries/STM32F4xx_StdPeriph_Driver/src/stm32f4xx_cryp_aes.c ****     default:
 511              		.loc 1 158 5 is_stmt 1 view .LVU193
 512 00fa 99E7     		b	.L4
 513              	.LVL67:
 514              	.L5:
 196:Libraries/STM32F4xx_StdPeriph_Driver/src/stm32f4xx_cryp_aes.c ****     }
 197:Libraries/STM32F4xx_StdPeriph_Driver/src/stm32f4xx_cryp_aes.c ****   }
 198:Libraries/STM32F4xx_StdPeriph_Driver/src/stm32f4xx_cryp_aes.c ****   /*------------------ AES Encryption ------------------*/
 199:Libraries/STM32F4xx_StdPeriph_Driver/src/stm32f4xx_cryp_aes.c ****   else /* AES encryption */
 200:Libraries/STM32F4xx_StdPeriph_Driver/src/stm32f4xx_cryp_aes.c ****   {
 201:Libraries/STM32F4xx_StdPeriph_Driver/src/stm32f4xx_cryp_aes.c **** 
 202:Libraries/STM32F4xx_StdPeriph_Driver/src/stm32f4xx_cryp_aes.c ****     CRYP_KeyInit(&AES_CRYP_KeyInitStructure);
 515              		.loc 1 202 5 view .LVU194
 516 00fc 02A8     		add	r0, sp, #8
ARM GAS  /tmp/ccklj7FS.s 			page 24


 517 00fe FFF7FEFF 		bl	CRYP_KeyInit
 518              	.LVL68:
 203:Libraries/STM32F4xx_StdPeriph_Driver/src/stm32f4xx_cryp_aes.c **** 
 204:Libraries/STM32F4xx_StdPeriph_Driver/src/stm32f4xx_cryp_aes.c ****     /* Crypto Init for Encryption process */
 205:Libraries/STM32F4xx_StdPeriph_Driver/src/stm32f4xx_cryp_aes.c ****     AES_CRYP_InitStructure.CRYP_AlgoDir  = CRYP_AlgoDir_Encrypt;
 519              		.loc 1 205 5 view .LVU195
 520              		.loc 1 205 42 is_stmt 0 view .LVU196
 521 0102 0023     		movs	r3, #0
 522 0104 0A93     		str	r3, [sp, #40]
 106:Libraries/STM32F4xx_StdPeriph_Driver/src/stm32f4xx_cryp_aes.c ****   uint32_t keyaddr    = (uint32_t)Key;
 523              		.loc 1 106 15 view .LVU197
 524 0106 0126     		movs	r6, #1
 525              	.LVL69:
 526              	.L8:
 206:Libraries/STM32F4xx_StdPeriph_Driver/src/stm32f4xx_cryp_aes.c ****   }
 207:Libraries/STM32F4xx_StdPeriph_Driver/src/stm32f4xx_cryp_aes.c **** 
 208:Libraries/STM32F4xx_StdPeriph_Driver/src/stm32f4xx_cryp_aes.c ****   AES_CRYP_InitStructure.CRYP_AlgoMode = CRYP_AlgoMode_AES_ECB;
 527              		.loc 1 208 3 is_stmt 1 view .LVU198
 528              		.loc 1 208 40 is_stmt 0 view .LVU199
 529 0108 2023     		movs	r3, #32
 530 010a 0B93     		str	r3, [sp, #44]
 209:Libraries/STM32F4xx_StdPeriph_Driver/src/stm32f4xx_cryp_aes.c ****   AES_CRYP_InitStructure.CRYP_DataType = CRYP_DataType_8b;
 531              		.loc 1 209 3 is_stmt 1 view .LVU200
 532              		.loc 1 209 40 is_stmt 0 view .LVU201
 533 010c 8023     		movs	r3, #128
 534 010e 0C93     		str	r3, [sp, #48]
 210:Libraries/STM32F4xx_StdPeriph_Driver/src/stm32f4xx_cryp_aes.c ****   CRYP_Init(&AES_CRYP_InitStructure);
 535              		.loc 1 210 3 is_stmt 1 view .LVU202
 536 0110 0AA8     		add	r0, sp, #40
 537 0112 FFF7FEFF 		bl	CRYP_Init
 538              	.LVL70:
 211:Libraries/STM32F4xx_StdPeriph_Driver/src/stm32f4xx_cryp_aes.c **** 
 212:Libraries/STM32F4xx_StdPeriph_Driver/src/stm32f4xx_cryp_aes.c ****   /* Flush IN/OUT FIFOs */
 213:Libraries/STM32F4xx_StdPeriph_Driver/src/stm32f4xx_cryp_aes.c ****   CRYP_FIFOFlush();
 539              		.loc 1 213 3 view .LVU203
 540 0116 FFF7FEFF 		bl	CRYP_FIFOFlush
 541              	.LVL71:
 214:Libraries/STM32F4xx_StdPeriph_Driver/src/stm32f4xx_cryp_aes.c **** 
 215:Libraries/STM32F4xx_StdPeriph_Driver/src/stm32f4xx_cryp_aes.c ****   /* Enable Crypto processor */
 216:Libraries/STM32F4xx_StdPeriph_Driver/src/stm32f4xx_cryp_aes.c ****   CRYP_Cmd(ENABLE);
 542              		.loc 1 216 3 view .LVU204
 543 011a 0120     		movs	r0, #1
 544 011c FFF7FEFF 		bl	CRYP_Cmd
 545              	.LVL72:
 217:Libraries/STM32F4xx_StdPeriph_Driver/src/stm32f4xx_cryp_aes.c **** 
 218:Libraries/STM32F4xx_StdPeriph_Driver/src/stm32f4xx_cryp_aes.c ****   if(CRYP_GetCmdStatus() == DISABLE)
 546              		.loc 1 218 3 view .LVU205
 547              		.loc 1 218 6 is_stmt 0 view .LVU206
 548 0120 FFF7FEFF 		bl	CRYP_GetCmdStatus
 549              	.LVL73:
 550              		.loc 1 218 5 view .LVU207
 551 0124 0028     		cmp	r0, #0
 552 0126 35D0     		beq	.L9
 219:Libraries/STM32F4xx_StdPeriph_Driver/src/stm32f4xx_cryp_aes.c ****   {
 220:Libraries/STM32F4xx_StdPeriph_Driver/src/stm32f4xx_cryp_aes.c ****     /* The CRYP peripheral clock is not enabled or the device doesn't embed 
 221:Libraries/STM32F4xx_StdPeriph_Driver/src/stm32f4xx_cryp_aes.c ****        the CRYP peripheral (please check the device sales type. */
 222:Libraries/STM32F4xx_StdPeriph_Driver/src/stm32f4xx_cryp_aes.c ****     return(ERROR);
ARM GAS  /tmp/ccklj7FS.s 			page 25


 223:Libraries/STM32F4xx_StdPeriph_Driver/src/stm32f4xx_cryp_aes.c ****   }
 224:Libraries/STM32F4xx_StdPeriph_Driver/src/stm32f4xx_cryp_aes.c ****   
 225:Libraries/STM32F4xx_StdPeriph_Driver/src/stm32f4xx_cryp_aes.c ****   for(i=0; ((i<Ilength) && (status != ERROR)); i+=16)
 553              		.loc 1 225 8 view .LVU208
 554 0128 0025     		movs	r5, #0
 555              	.LVL74:
 556              		.loc 1 225 8 view .LVU209
 557 012a 02E0     		b	.L10
 558              	.LVL75:
 559              	.L11:
 226:Libraries/STM32F4xx_StdPeriph_Driver/src/stm32f4xx_cryp_aes.c ****   {
 227:Libraries/STM32F4xx_StdPeriph_Driver/src/stm32f4xx_cryp_aes.c **** 
 228:Libraries/STM32F4xx_StdPeriph_Driver/src/stm32f4xx_cryp_aes.c ****     /* Write the Input block in the IN FIFO */
 229:Libraries/STM32F4xx_StdPeriph_Driver/src/stm32f4xx_cryp_aes.c ****     CRYP_DataIn(*(uint32_t*)(inputaddr));
 230:Libraries/STM32F4xx_StdPeriph_Driver/src/stm32f4xx_cryp_aes.c ****     inputaddr+=4;
 231:Libraries/STM32F4xx_StdPeriph_Driver/src/stm32f4xx_cryp_aes.c ****     CRYP_DataIn(*(uint32_t*)(inputaddr));
 232:Libraries/STM32F4xx_StdPeriph_Driver/src/stm32f4xx_cryp_aes.c ****     inputaddr+=4;
 233:Libraries/STM32F4xx_StdPeriph_Driver/src/stm32f4xx_cryp_aes.c ****     CRYP_DataIn(*(uint32_t*)(inputaddr));
 234:Libraries/STM32F4xx_StdPeriph_Driver/src/stm32f4xx_cryp_aes.c ****     inputaddr+=4;
 235:Libraries/STM32F4xx_StdPeriph_Driver/src/stm32f4xx_cryp_aes.c ****     CRYP_DataIn(*(uint32_t*)(inputaddr));
 236:Libraries/STM32F4xx_StdPeriph_Driver/src/stm32f4xx_cryp_aes.c ****     inputaddr+=4;
 237:Libraries/STM32F4xx_StdPeriph_Driver/src/stm32f4xx_cryp_aes.c **** 
 238:Libraries/STM32F4xx_StdPeriph_Driver/src/stm32f4xx_cryp_aes.c ****     /* Wait until the complete message has been processed */
 239:Libraries/STM32F4xx_StdPeriph_Driver/src/stm32f4xx_cryp_aes.c ****     counter = 0;
 240:Libraries/STM32F4xx_StdPeriph_Driver/src/stm32f4xx_cryp_aes.c ****     do
 241:Libraries/STM32F4xx_StdPeriph_Driver/src/stm32f4xx_cryp_aes.c ****     {
 242:Libraries/STM32F4xx_StdPeriph_Driver/src/stm32f4xx_cryp_aes.c ****       busystatus = CRYP_GetFlagStatus(CRYP_FLAG_BUSY);
 243:Libraries/STM32F4xx_StdPeriph_Driver/src/stm32f4xx_cryp_aes.c ****       counter++;
 244:Libraries/STM32F4xx_StdPeriph_Driver/src/stm32f4xx_cryp_aes.c ****     }while ((counter != AESBUSY_TIMEOUT) && (busystatus != RESET));
 245:Libraries/STM32F4xx_StdPeriph_Driver/src/stm32f4xx_cryp_aes.c **** 
 246:Libraries/STM32F4xx_StdPeriph_Driver/src/stm32f4xx_cryp_aes.c ****     if (busystatus != RESET)
 560              		.loc 1 246 5 is_stmt 1 view .LVU210
 561              		.loc 1 246 8 is_stmt 0 view .LVU211
 562 012c 00B3     		cbz	r0, .L19
 247:Libraries/STM32F4xx_StdPeriph_Driver/src/stm32f4xx_cryp_aes.c ****    {
 248:Libraries/STM32F4xx_StdPeriph_Driver/src/stm32f4xx_cryp_aes.c ****        status = ERROR;
 563              		.loc 1 248 15 view .LVU212
 564 012e 0026     		movs	r6, #0
 565              	.LVL76:
 566              	.L13:
 225:Libraries/STM32F4xx_StdPeriph_Driver/src/stm32f4xx_cryp_aes.c ****   {
 567              		.loc 1 225 48 is_stmt 1 discriminator 2 view .LVU213
 225:Libraries/STM32F4xx_StdPeriph_Driver/src/stm32f4xx_cryp_aes.c ****   {
 568              		.loc 1 225 49 is_stmt 0 discriminator 2 view .LVU214
 569 0130 1035     		adds	r5, r5, #16
 570              	.LVL77:
 571              	.L10:
 225:Libraries/STM32F4xx_StdPeriph_Driver/src/stm32f4xx_cryp_aes.c ****   {
 572              		.loc 1 225 12 is_stmt 1 discriminator 1 view .LVU215
 225:Libraries/STM32F4xx_StdPeriph_Driver/src/stm32f4xx_cryp_aes.c ****   {
 573              		.loc 1 225 3 is_stmt 0 discriminator 1 view .LVU216
 574 0132 4545     		cmp	r5, r8
 575 0134 2AD2     		bcs	.L14
 225:Libraries/STM32F4xx_StdPeriph_Driver/src/stm32f4xx_cryp_aes.c ****   {
 576              		.loc 1 225 25 discriminator 3 view .LVU217
 577 0136 4EB3     		cbz	r6, .L14
 229:Libraries/STM32F4xx_StdPeriph_Driver/src/stm32f4xx_cryp_aes.c ****     inputaddr+=4;
ARM GAS  /tmp/ccklj7FS.s 			page 26


 578              		.loc 1 229 5 is_stmt 1 view .LVU218
 579 0138 2068     		ldr	r0, [r4]
 580 013a FFF7FEFF 		bl	CRYP_DataIn
 581              	.LVL78:
 230:Libraries/STM32F4xx_StdPeriph_Driver/src/stm32f4xx_cryp_aes.c ****     CRYP_DataIn(*(uint32_t*)(inputaddr));
 582              		.loc 1 230 5 view .LVU219
 231:Libraries/STM32F4xx_StdPeriph_Driver/src/stm32f4xx_cryp_aes.c ****     inputaddr+=4;
 583              		.loc 1 231 5 view .LVU220
 584 013e 6068     		ldr	r0, [r4, #4]
 585 0140 FFF7FEFF 		bl	CRYP_DataIn
 586              	.LVL79:
 232:Libraries/STM32F4xx_StdPeriph_Driver/src/stm32f4xx_cryp_aes.c ****     CRYP_DataIn(*(uint32_t*)(inputaddr));
 587              		.loc 1 232 5 view .LVU221
 233:Libraries/STM32F4xx_StdPeriph_Driver/src/stm32f4xx_cryp_aes.c ****     inputaddr+=4;
 588              		.loc 1 233 5 view .LVU222
 589 0144 A068     		ldr	r0, [r4, #8]
 590 0146 FFF7FEFF 		bl	CRYP_DataIn
 591              	.LVL80:
 234:Libraries/STM32F4xx_StdPeriph_Driver/src/stm32f4xx_cryp_aes.c ****     CRYP_DataIn(*(uint32_t*)(inputaddr));
 592              		.loc 1 234 5 view .LVU223
 235:Libraries/STM32F4xx_StdPeriph_Driver/src/stm32f4xx_cryp_aes.c ****     inputaddr+=4;
 593              		.loc 1 235 5 view .LVU224
 594 014a E068     		ldr	r0, [r4, #12]
 595 014c FFF7FEFF 		bl	CRYP_DataIn
 596              	.LVL81:
 236:Libraries/STM32F4xx_StdPeriph_Driver/src/stm32f4xx_cryp_aes.c **** 
 597              		.loc 1 236 5 view .LVU225
 236:Libraries/STM32F4xx_StdPeriph_Driver/src/stm32f4xx_cryp_aes.c **** 
 598              		.loc 1 236 14 is_stmt 0 view .LVU226
 599 0150 1034     		adds	r4, r4, #16
 600              	.LVL82:
 239:Libraries/STM32F4xx_StdPeriph_Driver/src/stm32f4xx_cryp_aes.c ****     do
 601              		.loc 1 239 5 is_stmt 1 view .LVU227
 239:Libraries/STM32F4xx_StdPeriph_Driver/src/stm32f4xx_cryp_aes.c ****     do
 602              		.loc 1 239 13 is_stmt 0 view .LVU228
 603 0152 0023     		movs	r3, #0
 604 0154 0193     		str	r3, [sp, #4]
 605              	.L12:
 240:Libraries/STM32F4xx_StdPeriph_Driver/src/stm32f4xx_cryp_aes.c ****     {
 606              		.loc 1 240 5 is_stmt 1 discriminator 2 view .LVU229
 242:Libraries/STM32F4xx_StdPeriph_Driver/src/stm32f4xx_cryp_aes.c ****       counter++;
 607              		.loc 1 242 7 discriminator 2 view .LVU230
 242:Libraries/STM32F4xx_StdPeriph_Driver/src/stm32f4xx_cryp_aes.c ****       counter++;
 608              		.loc 1 242 20 is_stmt 0 discriminator 2 view .LVU231
 609 0156 1020     		movs	r0, #16
 610 0158 FFF7FEFF 		bl	CRYP_GetFlagStatus
 611              	.LVL83:
 243:Libraries/STM32F4xx_StdPeriph_Driver/src/stm32f4xx_cryp_aes.c ****     }while ((counter != AESBUSY_TIMEOUT) && (busystatus != RESET));
 612              		.loc 1 243 7 is_stmt 1 discriminator 2 view .LVU232
 243:Libraries/STM32F4xx_StdPeriph_Driver/src/stm32f4xx_cryp_aes.c ****     }while ((counter != AESBUSY_TIMEOUT) && (busystatus != RESET));
 613              		.loc 1 243 14 is_stmt 0 discriminator 2 view .LVU233
 614 015c 019A     		ldr	r2, [sp, #4]
 615 015e 0132     		adds	r2, r2, #1
 616 0160 0192     		str	r2, [sp, #4]
 244:Libraries/STM32F4xx_StdPeriph_Driver/src/stm32f4xx_cryp_aes.c **** 
 617              		.loc 1 244 12 is_stmt 1 discriminator 2 view .LVU234
 244:Libraries/STM32F4xx_StdPeriph_Driver/src/stm32f4xx_cryp_aes.c **** 
ARM GAS  /tmp/ccklj7FS.s 			page 27


 618              		.loc 1 244 22 is_stmt 0 discriminator 2 view .LVU235
 619 0162 019B     		ldr	r3, [sp, #4]
 244:Libraries/STM32F4xx_StdPeriph_Driver/src/stm32f4xx_cryp_aes.c **** 
 620              		.loc 1 244 5 discriminator 2 view .LVU236
 621 0164 B3F5803F 		cmp	r3, #65536
 622 0168 E0D0     		beq	.L11
 244:Libraries/STM32F4xx_StdPeriph_Driver/src/stm32f4xx_cryp_aes.c **** 
 623              		.loc 1 244 42 discriminator 1 view .LVU237
 624 016a 0028     		cmp	r0, #0
 625 016c F3D1     		bne	.L12
 626 016e DDE7     		b	.L11
 627              	.L19:
 249:Libraries/STM32F4xx_StdPeriph_Driver/src/stm32f4xx_cryp_aes.c ****     }
 250:Libraries/STM32F4xx_StdPeriph_Driver/src/stm32f4xx_cryp_aes.c ****     else
 251:Libraries/STM32F4xx_StdPeriph_Driver/src/stm32f4xx_cryp_aes.c ****     {
 252:Libraries/STM32F4xx_StdPeriph_Driver/src/stm32f4xx_cryp_aes.c **** 
 253:Libraries/STM32F4xx_StdPeriph_Driver/src/stm32f4xx_cryp_aes.c ****       /* Read the Output block from the Output FIFO */
 254:Libraries/STM32F4xx_StdPeriph_Driver/src/stm32f4xx_cryp_aes.c ****       *(uint32_t*)(outputaddr) = CRYP_DataOut();
 628              		.loc 1 254 7 is_stmt 1 view .LVU238
 629              		.loc 1 254 34 is_stmt 0 view .LVU239
 630 0170 FFF7FEFF 		bl	CRYP_DataOut
 631              	.LVL84:
 632              		.loc 1 254 32 view .LVU240
 633 0174 3860     		str	r0, [r7]
 255:Libraries/STM32F4xx_StdPeriph_Driver/src/stm32f4xx_cryp_aes.c ****       outputaddr+=4;
 634              		.loc 1 255 7 is_stmt 1 view .LVU241
 635              	.LVL85:
 256:Libraries/STM32F4xx_StdPeriph_Driver/src/stm32f4xx_cryp_aes.c ****       *(uint32_t*)(outputaddr) = CRYP_DataOut();
 636              		.loc 1 256 7 view .LVU242
 637              		.loc 1 256 34 is_stmt 0 view .LVU243
 638 0176 FFF7FEFF 		bl	CRYP_DataOut
 639              	.LVL86:
 640              		.loc 1 256 32 view .LVU244
 641 017a 7860     		str	r0, [r7, #4]
 257:Libraries/STM32F4xx_StdPeriph_Driver/src/stm32f4xx_cryp_aes.c ****       outputaddr+=4;
 642              		.loc 1 257 7 is_stmt 1 view .LVU245
 643              	.LVL87:
 258:Libraries/STM32F4xx_StdPeriph_Driver/src/stm32f4xx_cryp_aes.c ****       *(uint32_t*)(outputaddr) = CRYP_DataOut();
 644              		.loc 1 258 7 view .LVU246
 645              		.loc 1 258 34 is_stmt 0 view .LVU247
 646 017c FFF7FEFF 		bl	CRYP_DataOut
 647              	.LVL88:
 648              		.loc 1 258 32 view .LVU248
 649 0180 B860     		str	r0, [r7, #8]
 259:Libraries/STM32F4xx_StdPeriph_Driver/src/stm32f4xx_cryp_aes.c ****       outputaddr+=4;
 650              		.loc 1 259 7 is_stmt 1 view .LVU249
 651              	.LVL89:
 260:Libraries/STM32F4xx_StdPeriph_Driver/src/stm32f4xx_cryp_aes.c ****       *(uint32_t*)(outputaddr) = CRYP_DataOut(); 
 652              		.loc 1 260 7 view .LVU250
 653              		.loc 1 260 34 is_stmt 0 view .LVU251
 654 0182 FFF7FEFF 		bl	CRYP_DataOut
 655              	.LVL90:
 656              		.loc 1 260 32 view .LVU252
 657 0186 F860     		str	r0, [r7, #12]
 261:Libraries/STM32F4xx_StdPeriph_Driver/src/stm32f4xx_cryp_aes.c ****       outputaddr+=4;
 658              		.loc 1 261 7 is_stmt 1 view .LVU253
 659              		.loc 1 261 17 is_stmt 0 view .LVU254
ARM GAS  /tmp/ccklj7FS.s 			page 28


 660 0188 1037     		adds	r7, r7, #16
 661              	.LVL91:
 662              		.loc 1 261 17 view .LVU255
 663 018a D1E7     		b	.L13
 664              	.L14:
 262:Libraries/STM32F4xx_StdPeriph_Driver/src/stm32f4xx_cryp_aes.c ****     }
 263:Libraries/STM32F4xx_StdPeriph_Driver/src/stm32f4xx_cryp_aes.c ****   }
 264:Libraries/STM32F4xx_StdPeriph_Driver/src/stm32f4xx_cryp_aes.c **** 
 265:Libraries/STM32F4xx_StdPeriph_Driver/src/stm32f4xx_cryp_aes.c ****   /* Disable Crypto */
 266:Libraries/STM32F4xx_StdPeriph_Driver/src/stm32f4xx_cryp_aes.c ****   CRYP_Cmd(DISABLE);
 665              		.loc 1 266 3 is_stmt 1 view .LVU256
 666 018c 0020     		movs	r0, #0
 667 018e FFF7FEFF 		bl	CRYP_Cmd
 668              	.LVL92:
 267:Libraries/STM32F4xx_StdPeriph_Driver/src/stm32f4xx_cryp_aes.c **** 
 268:Libraries/STM32F4xx_StdPeriph_Driver/src/stm32f4xx_cryp_aes.c ****   return status; 
 669              		.loc 1 268 3 view .LVU257
 670              		.loc 1 268 10 is_stmt 0 view .LVU258
 671 0192 3046     		mov	r0, r6
 672              	.LVL93:
 673              	.L9:
 269:Libraries/STM32F4xx_StdPeriph_Driver/src/stm32f4xx_cryp_aes.c **** }
 674              		.loc 1 269 1 view .LVU259
 675 0194 0FB0     		add	sp, sp, #60
 676              	.LCFI2:
 677              		.cfi_def_cfa_offset 28
 678              		@ sp needed
 679 0196 BDE8F083 		pop	{r4, r5, r6, r7, r8, r9, pc}
 680              		.loc 1 269 1 view .LVU260
 681              		.cfi_endproc
 682              	.LFE123:
 684              		.section	.text.CRYP_AES_CBC,"ax",%progbits
 685              		.align	1
 686              		.global	CRYP_AES_CBC
 687              		.syntax unified
 688              		.thumb
 689              		.thumb_func
 690              		.fpu fpv4-sp-d16
 692              	CRYP_AES_CBC:
 693              	.LVL94:
 694              	.LFB124:
 270:Libraries/STM32F4xx_StdPeriph_Driver/src/stm32f4xx_cryp_aes.c **** 
 271:Libraries/STM32F4xx_StdPeriph_Driver/src/stm32f4xx_cryp_aes.c **** /**
 272:Libraries/STM32F4xx_StdPeriph_Driver/src/stm32f4xx_cryp_aes.c ****   * @brief  Encrypt and decrypt using AES in CBC Mode
 273:Libraries/STM32F4xx_StdPeriph_Driver/src/stm32f4xx_cryp_aes.c ****   * @param  Mode: encryption or decryption Mode.
 274:Libraries/STM32F4xx_StdPeriph_Driver/src/stm32f4xx_cryp_aes.c ****   *          This parameter can be one of the following values:
 275:Libraries/STM32F4xx_StdPeriph_Driver/src/stm32f4xx_cryp_aes.c ****   *            @arg MODE_ENCRYPT: Encryption
 276:Libraries/STM32F4xx_StdPeriph_Driver/src/stm32f4xx_cryp_aes.c ****   *            @arg MODE_DECRYPT: Decryption
 277:Libraries/STM32F4xx_StdPeriph_Driver/src/stm32f4xx_cryp_aes.c ****   * @param  InitVectors: Initialisation Vectors used for AES algorithm.
 278:Libraries/STM32F4xx_StdPeriph_Driver/src/stm32f4xx_cryp_aes.c ****   * @param  Key: Key used for AES algorithm.
 279:Libraries/STM32F4xx_StdPeriph_Driver/src/stm32f4xx_cryp_aes.c ****   * @param  Keysize: length of the Key, must be a 128, 192 or 256.
 280:Libraries/STM32F4xx_StdPeriph_Driver/src/stm32f4xx_cryp_aes.c ****   * @param  Input: pointer to the Input buffer.
 281:Libraries/STM32F4xx_StdPeriph_Driver/src/stm32f4xx_cryp_aes.c ****   * @param  Ilength: length of the Input buffer, must be a multiple of 16.
 282:Libraries/STM32F4xx_StdPeriph_Driver/src/stm32f4xx_cryp_aes.c ****   * @param  Output: pointer to the returned buffer.
 283:Libraries/STM32F4xx_StdPeriph_Driver/src/stm32f4xx_cryp_aes.c ****   * @retval An ErrorStatus enumeration value:
 284:Libraries/STM32F4xx_StdPeriph_Driver/src/stm32f4xx_cryp_aes.c ****   *          - SUCCESS: Operation done
 285:Libraries/STM32F4xx_StdPeriph_Driver/src/stm32f4xx_cryp_aes.c ****   *          - ERROR: Operation failed
ARM GAS  /tmp/ccklj7FS.s 			page 29


 286:Libraries/STM32F4xx_StdPeriph_Driver/src/stm32f4xx_cryp_aes.c ****   */
 287:Libraries/STM32F4xx_StdPeriph_Driver/src/stm32f4xx_cryp_aes.c **** ErrorStatus CRYP_AES_CBC(uint8_t Mode, uint8_t InitVectors[16], uint8_t *Key,
 288:Libraries/STM32F4xx_StdPeriph_Driver/src/stm32f4xx_cryp_aes.c ****                          uint16_t Keysize, uint8_t *Input, uint32_t Ilength,
 289:Libraries/STM32F4xx_StdPeriph_Driver/src/stm32f4xx_cryp_aes.c ****                          uint8_t *Output)
 290:Libraries/STM32F4xx_StdPeriph_Driver/src/stm32f4xx_cryp_aes.c **** {
 695              		.loc 1 290 1 is_stmt 1 view -0
 696              		.cfi_startproc
 697              		@ args = 12, pretend = 0, frame = 72
 698              		@ frame_needed = 0, uses_anonymous_args = 0
 699              		.loc 1 290 1 is_stmt 0 view .LVU262
 700 0000 2DE9F047 		push	{r4, r5, r6, r7, r8, r9, r10, lr}
 701              	.LCFI3:
 702              		.cfi_def_cfa_offset 32
 703              		.cfi_offset 4, -32
 704              		.cfi_offset 5, -28
 705              		.cfi_offset 6, -24
 706              		.cfi_offset 7, -20
 707              		.cfi_offset 8, -16
 708              		.cfi_offset 9, -12
 709              		.cfi_offset 10, -8
 710              		.cfi_offset 14, -4
 711 0004 92B0     		sub	sp, sp, #72
 712              	.LCFI4:
 713              		.cfi_def_cfa_offset 104
 714 0006 0646     		mov	r6, r0
 715 0008 0D46     		mov	r5, r1
 716 000a 9146     		mov	r9, r2
 717 000c 9A46     		mov	r10, r3
 718 000e DDF86C80 		ldr	r8, [sp, #108]
 291:Libraries/STM32F4xx_StdPeriph_Driver/src/stm32f4xx_cryp_aes.c ****   CRYP_InitTypeDef AES_CRYP_InitStructure;
 719              		.loc 1 291 3 is_stmt 1 view .LVU263
 292:Libraries/STM32F4xx_StdPeriph_Driver/src/stm32f4xx_cryp_aes.c ****   CRYP_KeyInitTypeDef AES_CRYP_KeyInitStructure;
 720              		.loc 1 292 3 view .LVU264
 293:Libraries/STM32F4xx_StdPeriph_Driver/src/stm32f4xx_cryp_aes.c ****   CRYP_IVInitTypeDef AES_CRYP_IVInitStructure;
 721              		.loc 1 293 3 view .LVU265
 294:Libraries/STM32F4xx_StdPeriph_Driver/src/stm32f4xx_cryp_aes.c ****   __IO uint32_t counter = 0;
 722              		.loc 1 294 3 view .LVU266
 723              		.loc 1 294 17 is_stmt 0 view .LVU267
 724 0012 0023     		movs	r3, #0
 725              	.LVL95:
 726              		.loc 1 294 17 view .LVU268
 727 0014 0193     		str	r3, [sp, #4]
 295:Libraries/STM32F4xx_StdPeriph_Driver/src/stm32f4xx_cryp_aes.c ****   uint32_t busystatus = 0;
 728              		.loc 1 295 3 is_stmt 1 view .LVU269
 729              	.LVL96:
 296:Libraries/STM32F4xx_StdPeriph_Driver/src/stm32f4xx_cryp_aes.c ****   ErrorStatus status = SUCCESS;
 730              		.loc 1 296 3 view .LVU270
 297:Libraries/STM32F4xx_StdPeriph_Driver/src/stm32f4xx_cryp_aes.c ****   uint32_t keyaddr    = (uint32_t)Key;
 731              		.loc 1 297 3 view .LVU271
 298:Libraries/STM32F4xx_StdPeriph_Driver/src/stm32f4xx_cryp_aes.c ****   uint32_t inputaddr  = (uint32_t)Input;
 732              		.loc 1 298 3 view .LVU272
 733              		.loc 1 298 12 is_stmt 0 view .LVU273
 734 0016 1A9C     		ldr	r4, [sp, #104]
 735              	.LVL97:
 299:Libraries/STM32F4xx_StdPeriph_Driver/src/stm32f4xx_cryp_aes.c ****   uint32_t outputaddr = (uint32_t)Output;
 736              		.loc 1 299 3 is_stmt 1 view .LVU274
 737              		.loc 1 299 12 is_stmt 0 view .LVU275
ARM GAS  /tmp/ccklj7FS.s 			page 30


 738 0018 1C9F     		ldr	r7, [sp, #112]
 739              	.LVL98:
 300:Libraries/STM32F4xx_StdPeriph_Driver/src/stm32f4xx_cryp_aes.c ****   uint32_t ivaddr = (uint32_t)InitVectors;
 740              		.loc 1 300 3 is_stmt 1 view .LVU276
 301:Libraries/STM32F4xx_StdPeriph_Driver/src/stm32f4xx_cryp_aes.c ****   uint32_t i = 0;
 741              		.loc 1 301 3 view .LVU277
 302:Libraries/STM32F4xx_StdPeriph_Driver/src/stm32f4xx_cryp_aes.c **** 
 303:Libraries/STM32F4xx_StdPeriph_Driver/src/stm32f4xx_cryp_aes.c ****   /* Crypto structures initialisation*/
 304:Libraries/STM32F4xx_StdPeriph_Driver/src/stm32f4xx_cryp_aes.c ****   CRYP_KeyStructInit(&AES_CRYP_KeyInitStructure);
 742              		.loc 1 304 3 view .LVU278
 743 001a 06A8     		add	r0, sp, #24
 744              	.LVL99:
 745              		.loc 1 304 3 is_stmt 0 view .LVU279
 746 001c FFF7FEFF 		bl	CRYP_KeyStructInit
 747              	.LVL100:
 305:Libraries/STM32F4xx_StdPeriph_Driver/src/stm32f4xx_cryp_aes.c **** 
 306:Libraries/STM32F4xx_StdPeriph_Driver/src/stm32f4xx_cryp_aes.c ****   switch(Keysize)
 748              		.loc 1 306 3 is_stmt 1 view .LVU280
 749 0020 BAF1C00F 		cmp	r10, #192
 750 0024 49D0     		beq	.L21
 751 0026 BAF5807F 		cmp	r10, #256
 752 002a 62D0     		beq	.L22
 753 002c BAF1800F 		cmp	r10, #128
 754 0030 30D0     		beq	.L37
 755              	.LVL101:
 756              	.L23:
 307:Libraries/STM32F4xx_StdPeriph_Driver/src/stm32f4xx_cryp_aes.c ****   {
 308:Libraries/STM32F4xx_StdPeriph_Driver/src/stm32f4xx_cryp_aes.c ****     case 128:
 309:Libraries/STM32F4xx_StdPeriph_Driver/src/stm32f4xx_cryp_aes.c ****     AES_CRYP_InitStructure.CRYP_KeySize = CRYP_KeySize_128b;
 310:Libraries/STM32F4xx_StdPeriph_Driver/src/stm32f4xx_cryp_aes.c ****     AES_CRYP_KeyInitStructure.CRYP_Key2Left = __REV(*(uint32_t*)(keyaddr));
 311:Libraries/STM32F4xx_StdPeriph_Driver/src/stm32f4xx_cryp_aes.c ****     keyaddr+=4;
 312:Libraries/STM32F4xx_StdPeriph_Driver/src/stm32f4xx_cryp_aes.c ****     AES_CRYP_KeyInitStructure.CRYP_Key2Right= __REV(*(uint32_t*)(keyaddr));
 313:Libraries/STM32F4xx_StdPeriph_Driver/src/stm32f4xx_cryp_aes.c ****     keyaddr+=4;
 314:Libraries/STM32F4xx_StdPeriph_Driver/src/stm32f4xx_cryp_aes.c ****     AES_CRYP_KeyInitStructure.CRYP_Key3Left = __REV(*(uint32_t*)(keyaddr));
 315:Libraries/STM32F4xx_StdPeriph_Driver/src/stm32f4xx_cryp_aes.c ****     keyaddr+=4;
 316:Libraries/STM32F4xx_StdPeriph_Driver/src/stm32f4xx_cryp_aes.c ****     AES_CRYP_KeyInitStructure.CRYP_Key3Right= __REV(*(uint32_t*)(keyaddr));
 317:Libraries/STM32F4xx_StdPeriph_Driver/src/stm32f4xx_cryp_aes.c ****     break;
 318:Libraries/STM32F4xx_StdPeriph_Driver/src/stm32f4xx_cryp_aes.c ****     case 192:
 319:Libraries/STM32F4xx_StdPeriph_Driver/src/stm32f4xx_cryp_aes.c ****     AES_CRYP_InitStructure.CRYP_KeySize  = CRYP_KeySize_192b;
 320:Libraries/STM32F4xx_StdPeriph_Driver/src/stm32f4xx_cryp_aes.c ****     AES_CRYP_KeyInitStructure.CRYP_Key1Left = __REV(*(uint32_t*)(keyaddr));
 321:Libraries/STM32F4xx_StdPeriph_Driver/src/stm32f4xx_cryp_aes.c ****     keyaddr+=4;
 322:Libraries/STM32F4xx_StdPeriph_Driver/src/stm32f4xx_cryp_aes.c ****     AES_CRYP_KeyInitStructure.CRYP_Key1Right= __REV(*(uint32_t*)(keyaddr));
 323:Libraries/STM32F4xx_StdPeriph_Driver/src/stm32f4xx_cryp_aes.c ****     keyaddr+=4;
 324:Libraries/STM32F4xx_StdPeriph_Driver/src/stm32f4xx_cryp_aes.c ****     AES_CRYP_KeyInitStructure.CRYP_Key2Left = __REV(*(uint32_t*)(keyaddr));
 325:Libraries/STM32F4xx_StdPeriph_Driver/src/stm32f4xx_cryp_aes.c ****     keyaddr+=4;
 326:Libraries/STM32F4xx_StdPeriph_Driver/src/stm32f4xx_cryp_aes.c ****     AES_CRYP_KeyInitStructure.CRYP_Key2Right= __REV(*(uint32_t*)(keyaddr));
 327:Libraries/STM32F4xx_StdPeriph_Driver/src/stm32f4xx_cryp_aes.c ****     keyaddr+=4;
 328:Libraries/STM32F4xx_StdPeriph_Driver/src/stm32f4xx_cryp_aes.c ****     AES_CRYP_KeyInitStructure.CRYP_Key3Left = __REV(*(uint32_t*)(keyaddr));
 329:Libraries/STM32F4xx_StdPeriph_Driver/src/stm32f4xx_cryp_aes.c ****     keyaddr+=4;
 330:Libraries/STM32F4xx_StdPeriph_Driver/src/stm32f4xx_cryp_aes.c ****     AES_CRYP_KeyInitStructure.CRYP_Key3Right= __REV(*(uint32_t*)(keyaddr));
 331:Libraries/STM32F4xx_StdPeriph_Driver/src/stm32f4xx_cryp_aes.c ****     break;
 332:Libraries/STM32F4xx_StdPeriph_Driver/src/stm32f4xx_cryp_aes.c ****     case 256:
 333:Libraries/STM32F4xx_StdPeriph_Driver/src/stm32f4xx_cryp_aes.c ****     AES_CRYP_InitStructure.CRYP_KeySize  = CRYP_KeySize_256b;
 334:Libraries/STM32F4xx_StdPeriph_Driver/src/stm32f4xx_cryp_aes.c ****     AES_CRYP_KeyInitStructure.CRYP_Key0Left = __REV(*(uint32_t*)(keyaddr));
 335:Libraries/STM32F4xx_StdPeriph_Driver/src/stm32f4xx_cryp_aes.c ****     keyaddr+=4;
 336:Libraries/STM32F4xx_StdPeriph_Driver/src/stm32f4xx_cryp_aes.c ****     AES_CRYP_KeyInitStructure.CRYP_Key0Right= __REV(*(uint32_t*)(keyaddr));
 337:Libraries/STM32F4xx_StdPeriph_Driver/src/stm32f4xx_cryp_aes.c ****     keyaddr+=4;
ARM GAS  /tmp/ccklj7FS.s 			page 31


 338:Libraries/STM32F4xx_StdPeriph_Driver/src/stm32f4xx_cryp_aes.c ****     AES_CRYP_KeyInitStructure.CRYP_Key1Left = __REV(*(uint32_t*)(keyaddr));
 339:Libraries/STM32F4xx_StdPeriph_Driver/src/stm32f4xx_cryp_aes.c ****     keyaddr+=4;
 340:Libraries/STM32F4xx_StdPeriph_Driver/src/stm32f4xx_cryp_aes.c ****     AES_CRYP_KeyInitStructure.CRYP_Key1Right= __REV(*(uint32_t*)(keyaddr));
 341:Libraries/STM32F4xx_StdPeriph_Driver/src/stm32f4xx_cryp_aes.c ****     keyaddr+=4;
 342:Libraries/STM32F4xx_StdPeriph_Driver/src/stm32f4xx_cryp_aes.c ****     AES_CRYP_KeyInitStructure.CRYP_Key2Left = __REV(*(uint32_t*)(keyaddr));
 343:Libraries/STM32F4xx_StdPeriph_Driver/src/stm32f4xx_cryp_aes.c ****     keyaddr+=4;
 344:Libraries/STM32F4xx_StdPeriph_Driver/src/stm32f4xx_cryp_aes.c ****     AES_CRYP_KeyInitStructure.CRYP_Key2Right= __REV(*(uint32_t*)(keyaddr));
 345:Libraries/STM32F4xx_StdPeriph_Driver/src/stm32f4xx_cryp_aes.c ****     keyaddr+=4;
 346:Libraries/STM32F4xx_StdPeriph_Driver/src/stm32f4xx_cryp_aes.c ****     AES_CRYP_KeyInitStructure.CRYP_Key3Left = __REV(*(uint32_t*)(keyaddr));
 347:Libraries/STM32F4xx_StdPeriph_Driver/src/stm32f4xx_cryp_aes.c ****     keyaddr+=4;
 348:Libraries/STM32F4xx_StdPeriph_Driver/src/stm32f4xx_cryp_aes.c ****     AES_CRYP_KeyInitStructure.CRYP_Key3Right= __REV(*(uint32_t*)(keyaddr));
 349:Libraries/STM32F4xx_StdPeriph_Driver/src/stm32f4xx_cryp_aes.c ****     break;
 350:Libraries/STM32F4xx_StdPeriph_Driver/src/stm32f4xx_cryp_aes.c ****     default:
 351:Libraries/STM32F4xx_StdPeriph_Driver/src/stm32f4xx_cryp_aes.c ****     break;
 352:Libraries/STM32F4xx_StdPeriph_Driver/src/stm32f4xx_cryp_aes.c ****   }
 353:Libraries/STM32F4xx_StdPeriph_Driver/src/stm32f4xx_cryp_aes.c **** 
 354:Libraries/STM32F4xx_StdPeriph_Driver/src/stm32f4xx_cryp_aes.c ****   /* CRYP Initialization Vectors */
 355:Libraries/STM32F4xx_StdPeriph_Driver/src/stm32f4xx_cryp_aes.c ****   AES_CRYP_IVInitStructure.CRYP_IV0Left = __REV(*(uint32_t*)(ivaddr));
 757              		.loc 1 355 3 view .LVU281
 758              		.loc 1 355 43 is_stmt 0 view .LVU282
 759 0032 2B68     		ldr	r3, [r5]
 760              	.LVL102:
 761              	.LBB266:
 762              	.LBI266:
 495:Libraries/CMSIS/Include/core_cmInstr.h **** {
 763              		.loc 2 495 57 is_stmt 1 view .LVU283
 764              	.LBB267:
 765              		.loc 2 498 3 view .LVU284
 766              		.loc 2 498 10 is_stmt 0 view .LVU285
 767 0034 1BBA     		rev	r3, r3
 768              	.LVL103:
 769              		.loc 2 498 10 view .LVU286
 770              	.LBE267:
 771              	.LBE266:
 772              		.loc 1 355 41 view .LVU287
 773 0036 0293     		str	r3, [sp, #8]
 356:Libraries/STM32F4xx_StdPeriph_Driver/src/stm32f4xx_cryp_aes.c ****   ivaddr+=4;
 774              		.loc 1 356 3 is_stmt 1 view .LVU288
 775              	.LVL104:
 357:Libraries/STM32F4xx_StdPeriph_Driver/src/stm32f4xx_cryp_aes.c ****   AES_CRYP_IVInitStructure.CRYP_IV0Right= __REV(*(uint32_t*)(ivaddr));
 776              		.loc 1 357 3 view .LVU289
 777              		.loc 1 357 43 is_stmt 0 view .LVU290
 778 0038 6B68     		ldr	r3, [r5, #4]
 779              	.LVL105:
 780              	.LBB268:
 781              	.LBI268:
 495:Libraries/CMSIS/Include/core_cmInstr.h **** {
 782              		.loc 2 495 57 is_stmt 1 view .LVU291
 783              	.LBB269:
 784              		.loc 2 498 3 view .LVU292
 785              		.loc 2 498 10 is_stmt 0 view .LVU293
 786 003a 1BBA     		rev	r3, r3
 787              	.LVL106:
 788              		.loc 2 498 10 view .LVU294
 789              	.LBE269:
 790              	.LBE268:
 791              		.loc 1 357 41 view .LVU295
ARM GAS  /tmp/ccklj7FS.s 			page 32


 792 003c 0393     		str	r3, [sp, #12]
 358:Libraries/STM32F4xx_StdPeriph_Driver/src/stm32f4xx_cryp_aes.c ****   ivaddr+=4;
 793              		.loc 1 358 3 is_stmt 1 view .LVU296
 794              	.LVL107:
 359:Libraries/STM32F4xx_StdPeriph_Driver/src/stm32f4xx_cryp_aes.c ****   AES_CRYP_IVInitStructure.CRYP_IV1Left = __REV(*(uint32_t*)(ivaddr));
 795              		.loc 1 359 3 view .LVU297
 796              		.loc 1 359 43 is_stmt 0 view .LVU298
 797 003e AB68     		ldr	r3, [r5, #8]
 798              	.LVL108:
 799              	.LBB270:
 800              	.LBI270:
 495:Libraries/CMSIS/Include/core_cmInstr.h **** {
 801              		.loc 2 495 57 is_stmt 1 view .LVU299
 802              	.LBB271:
 803              		.loc 2 498 3 view .LVU300
 804              		.loc 2 498 10 is_stmt 0 view .LVU301
 805 0040 1BBA     		rev	r3, r3
 806              	.LVL109:
 807              		.loc 2 498 10 view .LVU302
 808              	.LBE271:
 809              	.LBE270:
 810              		.loc 1 359 41 view .LVU303
 811 0042 0493     		str	r3, [sp, #16]
 360:Libraries/STM32F4xx_StdPeriph_Driver/src/stm32f4xx_cryp_aes.c ****   ivaddr+=4;
 812              		.loc 1 360 3 is_stmt 1 view .LVU304
 813              	.LVL110:
 361:Libraries/STM32F4xx_StdPeriph_Driver/src/stm32f4xx_cryp_aes.c ****   AES_CRYP_IVInitStructure.CRYP_IV1Right= __REV(*(uint32_t*)(ivaddr));
 814              		.loc 1 361 3 view .LVU305
 815              		.loc 1 361 43 is_stmt 0 view .LVU306
 816 0044 EB68     		ldr	r3, [r5, #12]
 817              	.LVL111:
 818              	.LBB272:
 819              	.LBI272:
 495:Libraries/CMSIS/Include/core_cmInstr.h **** {
 820              		.loc 2 495 57 is_stmt 1 view .LVU307
 821              	.LBB273:
 822              		.loc 2 498 3 view .LVU308
 823              		.loc 2 498 10 is_stmt 0 view .LVU309
 824 0046 1BBA     		rev	r3, r3
 825              	.LVL112:
 826              		.loc 2 498 10 view .LVU310
 827              	.LBE273:
 828              	.LBE272:
 829              		.loc 1 361 41 view .LVU311
 830 0048 0593     		str	r3, [sp, #20]
 362:Libraries/STM32F4xx_StdPeriph_Driver/src/stm32f4xx_cryp_aes.c **** 
 363:Libraries/STM32F4xx_StdPeriph_Driver/src/stm32f4xx_cryp_aes.c **** 
 364:Libraries/STM32F4xx_StdPeriph_Driver/src/stm32f4xx_cryp_aes.c ****   /*------------------ AES Decryption ------------------*/
 365:Libraries/STM32F4xx_StdPeriph_Driver/src/stm32f4xx_cryp_aes.c ****   if(Mode == MODE_DECRYPT) /* AES decryption */
 831              		.loc 1 365 3 is_stmt 1 view .LVU312
 832              		.loc 1 365 5 is_stmt 0 view .LVU313
 833 004a 002E     		cmp	r6, #0
 834 004c 75D1     		bne	.L24
 366:Libraries/STM32F4xx_StdPeriph_Driver/src/stm32f4xx_cryp_aes.c ****   {
 367:Libraries/STM32F4xx_StdPeriph_Driver/src/stm32f4xx_cryp_aes.c ****     /* Flush IN/OUT FIFOs */
 368:Libraries/STM32F4xx_StdPeriph_Driver/src/stm32f4xx_cryp_aes.c ****     CRYP_FIFOFlush();
 835              		.loc 1 368 5 is_stmt 1 view .LVU314
ARM GAS  /tmp/ccklj7FS.s 			page 33


 836 004e FFF7FEFF 		bl	CRYP_FIFOFlush
 837              	.LVL113:
 369:Libraries/STM32F4xx_StdPeriph_Driver/src/stm32f4xx_cryp_aes.c **** 
 370:Libraries/STM32F4xx_StdPeriph_Driver/src/stm32f4xx_cryp_aes.c ****     /* Crypto Init for Key preparation for decryption process */
 371:Libraries/STM32F4xx_StdPeriph_Driver/src/stm32f4xx_cryp_aes.c ****     AES_CRYP_InitStructure.CRYP_AlgoDir = CRYP_AlgoDir_Decrypt;
 838              		.loc 1 371 5 view .LVU315
 839              		.loc 1 371 41 is_stmt 0 view .LVU316
 840 0052 0423     		movs	r3, #4
 841 0054 0E93     		str	r3, [sp, #56]
 372:Libraries/STM32F4xx_StdPeriph_Driver/src/stm32f4xx_cryp_aes.c ****     AES_CRYP_InitStructure.CRYP_AlgoMode = CRYP_AlgoMode_AES_Key;
 842              		.loc 1 372 5 is_stmt 1 view .LVU317
 843              		.loc 1 372 42 is_stmt 0 view .LVU318
 844 0056 3823     		movs	r3, #56
 845 0058 0F93     		str	r3, [sp, #60]
 373:Libraries/STM32F4xx_StdPeriph_Driver/src/stm32f4xx_cryp_aes.c ****     AES_CRYP_InitStructure.CRYP_DataType = CRYP_DataType_32b;
 846              		.loc 1 373 5 is_stmt 1 view .LVU319
 847              		.loc 1 373 42 is_stmt 0 view .LVU320
 848 005a 0023     		movs	r3, #0
 849 005c 1093     		str	r3, [sp, #64]
 374:Libraries/STM32F4xx_StdPeriph_Driver/src/stm32f4xx_cryp_aes.c **** 
 375:Libraries/STM32F4xx_StdPeriph_Driver/src/stm32f4xx_cryp_aes.c ****     CRYP_Init(&AES_CRYP_InitStructure);
 850              		.loc 1 375 5 is_stmt 1 view .LVU321
 851 005e 0EA8     		add	r0, sp, #56
 852 0060 FFF7FEFF 		bl	CRYP_Init
 853              	.LVL114:
 376:Libraries/STM32F4xx_StdPeriph_Driver/src/stm32f4xx_cryp_aes.c **** 
 377:Libraries/STM32F4xx_StdPeriph_Driver/src/stm32f4xx_cryp_aes.c ****     /* Key Initialisation */
 378:Libraries/STM32F4xx_StdPeriph_Driver/src/stm32f4xx_cryp_aes.c ****     CRYP_KeyInit(&AES_CRYP_KeyInitStructure);
 854              		.loc 1 378 5 view .LVU322
 855 0064 06A8     		add	r0, sp, #24
 856 0066 FFF7FEFF 		bl	CRYP_KeyInit
 857              	.LVL115:
 379:Libraries/STM32F4xx_StdPeriph_Driver/src/stm32f4xx_cryp_aes.c **** 
 380:Libraries/STM32F4xx_StdPeriph_Driver/src/stm32f4xx_cryp_aes.c ****     /* Enable Crypto processor */
 381:Libraries/STM32F4xx_StdPeriph_Driver/src/stm32f4xx_cryp_aes.c ****     CRYP_Cmd(ENABLE);
 858              		.loc 1 381 5 view .LVU323
 859 006a 0120     		movs	r0, #1
 860 006c FFF7FEFF 		bl	CRYP_Cmd
 861              	.LVL116:
 862              	.L26:
 382:Libraries/STM32F4xx_StdPeriph_Driver/src/stm32f4xx_cryp_aes.c **** 
 383:Libraries/STM32F4xx_StdPeriph_Driver/src/stm32f4xx_cryp_aes.c ****     /* wait until the Busy flag is RESET */
 384:Libraries/STM32F4xx_StdPeriph_Driver/src/stm32f4xx_cryp_aes.c ****     do
 863              		.loc 1 384 5 discriminator 2 view .LVU324
 385:Libraries/STM32F4xx_StdPeriph_Driver/src/stm32f4xx_cryp_aes.c ****     {
 386:Libraries/STM32F4xx_StdPeriph_Driver/src/stm32f4xx_cryp_aes.c ****       busystatus = CRYP_GetFlagStatus(CRYP_FLAG_BUSY);
 864              		.loc 1 386 7 discriminator 2 view .LVU325
 865              		.loc 1 386 20 is_stmt 0 discriminator 2 view .LVU326
 866 0070 1020     		movs	r0, #16
 867 0072 FFF7FEFF 		bl	CRYP_GetFlagStatus
 868              	.LVL117:
 387:Libraries/STM32F4xx_StdPeriph_Driver/src/stm32f4xx_cryp_aes.c ****       counter++;
 869              		.loc 1 387 7 is_stmt 1 discriminator 2 view .LVU327
 870              		.loc 1 387 14 is_stmt 0 discriminator 2 view .LVU328
 871 0076 019B     		ldr	r3, [sp, #4]
 872 0078 0133     		adds	r3, r3, #1
 873 007a 0193     		str	r3, [sp, #4]
ARM GAS  /tmp/ccklj7FS.s 			page 34


 388:Libraries/STM32F4xx_StdPeriph_Driver/src/stm32f4xx_cryp_aes.c ****     }while ((counter != AESBUSY_TIMEOUT) && (busystatus != RESET));
 874              		.loc 1 388 12 is_stmt 1 discriminator 2 view .LVU329
 875              		.loc 1 388 22 is_stmt 0 discriminator 2 view .LVU330
 876 007c 019B     		ldr	r3, [sp, #4]
 877              		.loc 1 388 5 discriminator 2 view .LVU331
 878 007e B3F5803F 		cmp	r3, #65536
 879 0082 01D0     		beq	.L25
 880              		.loc 1 388 42 discriminator 1 view .LVU332
 881 0084 0028     		cmp	r0, #0
 882 0086 F3D1     		bne	.L26
 883              	.L25:
 389:Libraries/STM32F4xx_StdPeriph_Driver/src/stm32f4xx_cryp_aes.c **** 
 390:Libraries/STM32F4xx_StdPeriph_Driver/src/stm32f4xx_cryp_aes.c ****     if (busystatus != RESET)
 884              		.loc 1 390 5 is_stmt 1 view .LVU333
 885              		.loc 1 390 8 is_stmt 0 view .LVU334
 886 0088 0028     		cmp	r0, #0
 887 008a 5CD1     		bne	.L27
 391:Libraries/STM32F4xx_StdPeriph_Driver/src/stm32f4xx_cryp_aes.c ****    {
 392:Libraries/STM32F4xx_StdPeriph_Driver/src/stm32f4xx_cryp_aes.c ****        status = ERROR;
 393:Libraries/STM32F4xx_StdPeriph_Driver/src/stm32f4xx_cryp_aes.c ****     }
 394:Libraries/STM32F4xx_StdPeriph_Driver/src/stm32f4xx_cryp_aes.c ****     else
 395:Libraries/STM32F4xx_StdPeriph_Driver/src/stm32f4xx_cryp_aes.c ****     {
 396:Libraries/STM32F4xx_StdPeriph_Driver/src/stm32f4xx_cryp_aes.c ****       /* Crypto Init for decryption process */  
 397:Libraries/STM32F4xx_StdPeriph_Driver/src/stm32f4xx_cryp_aes.c ****       AES_CRYP_InitStructure.CRYP_AlgoDir = CRYP_AlgoDir_Decrypt;
 888              		.loc 1 397 7 is_stmt 1 view .LVU335
 889              		.loc 1 397 43 is_stmt 0 view .LVU336
 890 008c 0423     		movs	r3, #4
 891 008e 0E93     		str	r3, [sp, #56]
 296:Libraries/STM32F4xx_StdPeriph_Driver/src/stm32f4xx_cryp_aes.c ****   uint32_t keyaddr    = (uint32_t)Key;
 892              		.loc 1 296 15 view .LVU337
 893 0090 0126     		movs	r6, #1
 894 0092 58E0     		b	.L27
 895              	.LVL118:
 896              	.L37:
 309:Libraries/STM32F4xx_StdPeriph_Driver/src/stm32f4xx_cryp_aes.c ****     AES_CRYP_KeyInitStructure.CRYP_Key2Left = __REV(*(uint32_t*)(keyaddr));
 897              		.loc 1 309 5 is_stmt 1 view .LVU338
 309:Libraries/STM32F4xx_StdPeriph_Driver/src/stm32f4xx_cryp_aes.c ****     AES_CRYP_KeyInitStructure.CRYP_Key2Left = __REV(*(uint32_t*)(keyaddr));
 898              		.loc 1 309 41 is_stmt 0 view .LVU339
 899 0094 0023     		movs	r3, #0
 900 0096 1193     		str	r3, [sp, #68]
 310:Libraries/STM32F4xx_StdPeriph_Driver/src/stm32f4xx_cryp_aes.c ****     keyaddr+=4;
 901              		.loc 1 310 5 is_stmt 1 view .LVU340
 310:Libraries/STM32F4xx_StdPeriph_Driver/src/stm32f4xx_cryp_aes.c ****     keyaddr+=4;
 902              		.loc 1 310 47 is_stmt 0 view .LVU341
 903 0098 D9F80030 		ldr	r3, [r9]
 904              	.LVL119:
 905              	.LBB274:
 906              	.LBI274:
 495:Libraries/CMSIS/Include/core_cmInstr.h **** {
 907              		.loc 2 495 57 is_stmt 1 view .LVU342
 908              	.LBB275:
 909              		.loc 2 498 3 view .LVU343
 910              		.loc 2 498 10 is_stmt 0 view .LVU344
 911 009c 1BBA     		rev	r3, r3
 912              	.LVL120:
 913              		.loc 2 498 10 view .LVU345
 914              	.LBE275:
ARM GAS  /tmp/ccklj7FS.s 			page 35


 915              	.LBE274:
 310:Libraries/STM32F4xx_StdPeriph_Driver/src/stm32f4xx_cryp_aes.c ****     keyaddr+=4;
 916              		.loc 1 310 45 view .LVU346
 917 009e 0A93     		str	r3, [sp, #40]
 311:Libraries/STM32F4xx_StdPeriph_Driver/src/stm32f4xx_cryp_aes.c ****     AES_CRYP_KeyInitStructure.CRYP_Key2Right= __REV(*(uint32_t*)(keyaddr));
 918              		.loc 1 311 5 is_stmt 1 view .LVU347
 919              	.LVL121:
 312:Libraries/STM32F4xx_StdPeriph_Driver/src/stm32f4xx_cryp_aes.c ****     keyaddr+=4;
 920              		.loc 1 312 5 view .LVU348
 312:Libraries/STM32F4xx_StdPeriph_Driver/src/stm32f4xx_cryp_aes.c ****     keyaddr+=4;
 921              		.loc 1 312 47 is_stmt 0 view .LVU349
 922 00a0 D9F80430 		ldr	r3, [r9, #4]
 923              	.LVL122:
 924              	.LBB276:
 925              	.LBI276:
 495:Libraries/CMSIS/Include/core_cmInstr.h **** {
 926              		.loc 2 495 57 is_stmt 1 view .LVU350
 927              	.LBB277:
 928              		.loc 2 498 3 view .LVU351
 929              		.loc 2 498 10 is_stmt 0 view .LVU352
 930 00a4 1BBA     		rev	r3, r3
 931              	.LVL123:
 932              		.loc 2 498 10 view .LVU353
 933              	.LBE277:
 934              	.LBE276:
 312:Libraries/STM32F4xx_StdPeriph_Driver/src/stm32f4xx_cryp_aes.c ****     keyaddr+=4;
 935              		.loc 1 312 45 view .LVU354
 936 00a6 0B93     		str	r3, [sp, #44]
 313:Libraries/STM32F4xx_StdPeriph_Driver/src/stm32f4xx_cryp_aes.c ****     AES_CRYP_KeyInitStructure.CRYP_Key3Left = __REV(*(uint32_t*)(keyaddr));
 937              		.loc 1 313 5 is_stmt 1 view .LVU355
 938              	.LVL124:
 314:Libraries/STM32F4xx_StdPeriph_Driver/src/stm32f4xx_cryp_aes.c ****     keyaddr+=4;
 939              		.loc 1 314 5 view .LVU356
 314:Libraries/STM32F4xx_StdPeriph_Driver/src/stm32f4xx_cryp_aes.c ****     keyaddr+=4;
 940              		.loc 1 314 47 is_stmt 0 view .LVU357
 941 00a8 D9F80830 		ldr	r3, [r9, #8]
 942              	.LVL125:
 943              	.LBB278:
 944              	.LBI278:
 495:Libraries/CMSIS/Include/core_cmInstr.h **** {
 945              		.loc 2 495 57 is_stmt 1 view .LVU358
 946              	.LBB279:
 947              		.loc 2 498 3 view .LVU359
 948              		.loc 2 498 10 is_stmt 0 view .LVU360
 949 00ac 1BBA     		rev	r3, r3
 950              	.LVL126:
 951              		.loc 2 498 10 view .LVU361
 952              	.LBE279:
 953              	.LBE278:
 314:Libraries/STM32F4xx_StdPeriph_Driver/src/stm32f4xx_cryp_aes.c ****     keyaddr+=4;
 954              		.loc 1 314 45 view .LVU362
 955 00ae 0C93     		str	r3, [sp, #48]
 315:Libraries/STM32F4xx_StdPeriph_Driver/src/stm32f4xx_cryp_aes.c ****     AES_CRYP_KeyInitStructure.CRYP_Key3Right= __REV(*(uint32_t*)(keyaddr));
 956              		.loc 1 315 5 is_stmt 1 view .LVU363
 957              	.LVL127:
 316:Libraries/STM32F4xx_StdPeriph_Driver/src/stm32f4xx_cryp_aes.c ****     break;
 958              		.loc 1 316 5 view .LVU364
ARM GAS  /tmp/ccklj7FS.s 			page 36


 316:Libraries/STM32F4xx_StdPeriph_Driver/src/stm32f4xx_cryp_aes.c ****     break;
 959              		.loc 1 316 47 is_stmt 0 view .LVU365
 960 00b0 D9F80C30 		ldr	r3, [r9, #12]
 961              	.LVL128:
 962              	.LBB280:
 963              	.LBI280:
 495:Libraries/CMSIS/Include/core_cmInstr.h **** {
 964              		.loc 2 495 57 is_stmt 1 view .LVU366
 965              	.LBB281:
 966              		.loc 2 498 3 view .LVU367
 967              		.loc 2 498 10 is_stmt 0 view .LVU368
 968 00b4 1BBA     		rev	r3, r3
 969              	.LVL129:
 970              		.loc 2 498 10 view .LVU369
 971              	.LBE281:
 972              	.LBE280:
 316:Libraries/STM32F4xx_StdPeriph_Driver/src/stm32f4xx_cryp_aes.c ****     break;
 973              		.loc 1 316 45 view .LVU370
 974 00b6 0D93     		str	r3, [sp, #52]
 317:Libraries/STM32F4xx_StdPeriph_Driver/src/stm32f4xx_cryp_aes.c ****     case 192:
 975              		.loc 1 317 5 is_stmt 1 view .LVU371
 976 00b8 BBE7     		b	.L23
 977              	.LVL130:
 978              	.L21:
 319:Libraries/STM32F4xx_StdPeriph_Driver/src/stm32f4xx_cryp_aes.c ****     AES_CRYP_KeyInitStructure.CRYP_Key1Left = __REV(*(uint32_t*)(keyaddr));
 979              		.loc 1 319 5 view .LVU372
 319:Libraries/STM32F4xx_StdPeriph_Driver/src/stm32f4xx_cryp_aes.c ****     AES_CRYP_KeyInitStructure.CRYP_Key1Left = __REV(*(uint32_t*)(keyaddr));
 980              		.loc 1 319 42 is_stmt 0 view .LVU373
 981 00ba 4FF48073 		mov	r3, #256
 982 00be 1193     		str	r3, [sp, #68]
 320:Libraries/STM32F4xx_StdPeriph_Driver/src/stm32f4xx_cryp_aes.c ****     keyaddr+=4;
 983              		.loc 1 320 5 is_stmt 1 view .LVU374
 320:Libraries/STM32F4xx_StdPeriph_Driver/src/stm32f4xx_cryp_aes.c ****     keyaddr+=4;
 984              		.loc 1 320 47 is_stmt 0 view .LVU375
 985 00c0 D9F80030 		ldr	r3, [r9]
 986              	.LVL131:
 987              	.LBB282:
 988              	.LBI282:
 495:Libraries/CMSIS/Include/core_cmInstr.h **** {
 989              		.loc 2 495 57 is_stmt 1 view .LVU376
 990              	.LBB283:
 991              		.loc 2 498 3 view .LVU377
 992              		.loc 2 498 10 is_stmt 0 view .LVU378
 993 00c4 1BBA     		rev	r3, r3
 994              	.LVL132:
 995              		.loc 2 498 10 view .LVU379
 996              	.LBE283:
 997              	.LBE282:
 320:Libraries/STM32F4xx_StdPeriph_Driver/src/stm32f4xx_cryp_aes.c ****     keyaddr+=4;
 998              		.loc 1 320 45 view .LVU380
 999 00c6 0893     		str	r3, [sp, #32]
 321:Libraries/STM32F4xx_StdPeriph_Driver/src/stm32f4xx_cryp_aes.c ****     AES_CRYP_KeyInitStructure.CRYP_Key1Right= __REV(*(uint32_t*)(keyaddr));
 1000              		.loc 1 321 5 is_stmt 1 view .LVU381
 1001              	.LVL133:
 322:Libraries/STM32F4xx_StdPeriph_Driver/src/stm32f4xx_cryp_aes.c ****     keyaddr+=4;
 1002              		.loc 1 322 5 view .LVU382
 322:Libraries/STM32F4xx_StdPeriph_Driver/src/stm32f4xx_cryp_aes.c ****     keyaddr+=4;
ARM GAS  /tmp/ccklj7FS.s 			page 37


 1003              		.loc 1 322 47 is_stmt 0 view .LVU383
 1004 00c8 D9F80430 		ldr	r3, [r9, #4]
 1005              	.LVL134:
 1006              	.LBB284:
 1007              	.LBI284:
 495:Libraries/CMSIS/Include/core_cmInstr.h **** {
 1008              		.loc 2 495 57 is_stmt 1 view .LVU384
 1009              	.LBB285:
 1010              		.loc 2 498 3 view .LVU385
 1011              		.loc 2 498 10 is_stmt 0 view .LVU386
 1012 00cc 1BBA     		rev	r3, r3
 1013              	.LVL135:
 1014              		.loc 2 498 10 view .LVU387
 1015              	.LBE285:
 1016              	.LBE284:
 322:Libraries/STM32F4xx_StdPeriph_Driver/src/stm32f4xx_cryp_aes.c ****     keyaddr+=4;
 1017              		.loc 1 322 45 view .LVU388
 1018 00ce 0993     		str	r3, [sp, #36]
 323:Libraries/STM32F4xx_StdPeriph_Driver/src/stm32f4xx_cryp_aes.c ****     AES_CRYP_KeyInitStructure.CRYP_Key2Left = __REV(*(uint32_t*)(keyaddr));
 1019              		.loc 1 323 5 is_stmt 1 view .LVU389
 1020              	.LVL136:
 324:Libraries/STM32F4xx_StdPeriph_Driver/src/stm32f4xx_cryp_aes.c ****     keyaddr+=4;
 1021              		.loc 1 324 5 view .LVU390
 324:Libraries/STM32F4xx_StdPeriph_Driver/src/stm32f4xx_cryp_aes.c ****     keyaddr+=4;
 1022              		.loc 1 324 47 is_stmt 0 view .LVU391
 1023 00d0 D9F80830 		ldr	r3, [r9, #8]
 1024              	.LVL137:
 1025              	.LBB286:
 1026              	.LBI286:
 495:Libraries/CMSIS/Include/core_cmInstr.h **** {
 1027              		.loc 2 495 57 is_stmt 1 view .LVU392
 1028              	.LBB287:
 1029              		.loc 2 498 3 view .LVU393
 1030              		.loc 2 498 10 is_stmt 0 view .LVU394
 1031 00d4 1BBA     		rev	r3, r3
 1032              	.LVL138:
 1033              		.loc 2 498 10 view .LVU395
 1034              	.LBE287:
 1035              	.LBE286:
 324:Libraries/STM32F4xx_StdPeriph_Driver/src/stm32f4xx_cryp_aes.c ****     keyaddr+=4;
 1036              		.loc 1 324 45 view .LVU396
 1037 00d6 0A93     		str	r3, [sp, #40]
 325:Libraries/STM32F4xx_StdPeriph_Driver/src/stm32f4xx_cryp_aes.c ****     AES_CRYP_KeyInitStructure.CRYP_Key2Right= __REV(*(uint32_t*)(keyaddr));
 1038              		.loc 1 325 5 is_stmt 1 view .LVU397
 1039              	.LVL139:
 326:Libraries/STM32F4xx_StdPeriph_Driver/src/stm32f4xx_cryp_aes.c ****     keyaddr+=4;
 1040              		.loc 1 326 5 view .LVU398
 326:Libraries/STM32F4xx_StdPeriph_Driver/src/stm32f4xx_cryp_aes.c ****     keyaddr+=4;
 1041              		.loc 1 326 47 is_stmt 0 view .LVU399
 1042 00d8 D9F80C30 		ldr	r3, [r9, #12]
 1043              	.LVL140:
 1044              	.LBB288:
 1045              	.LBI288:
 495:Libraries/CMSIS/Include/core_cmInstr.h **** {
 1046              		.loc 2 495 57 is_stmt 1 view .LVU400
 1047              	.LBB289:
 1048              		.loc 2 498 3 view .LVU401
ARM GAS  /tmp/ccklj7FS.s 			page 38


 1049              		.loc 2 498 10 is_stmt 0 view .LVU402
 1050 00dc 1BBA     		rev	r3, r3
 1051              	.LVL141:
 1052              		.loc 2 498 10 view .LVU403
 1053              	.LBE289:
 1054              	.LBE288:
 326:Libraries/STM32F4xx_StdPeriph_Driver/src/stm32f4xx_cryp_aes.c ****     keyaddr+=4;
 1055              		.loc 1 326 45 view .LVU404
 1056 00de 0B93     		str	r3, [sp, #44]
 327:Libraries/STM32F4xx_StdPeriph_Driver/src/stm32f4xx_cryp_aes.c ****     AES_CRYP_KeyInitStructure.CRYP_Key3Left = __REV(*(uint32_t*)(keyaddr));
 1057              		.loc 1 327 5 is_stmt 1 view .LVU405
 1058              	.LVL142:
 328:Libraries/STM32F4xx_StdPeriph_Driver/src/stm32f4xx_cryp_aes.c ****     keyaddr+=4;
 1059              		.loc 1 328 5 view .LVU406
 328:Libraries/STM32F4xx_StdPeriph_Driver/src/stm32f4xx_cryp_aes.c ****     keyaddr+=4;
 1060              		.loc 1 328 47 is_stmt 0 view .LVU407
 1061 00e0 D9F81030 		ldr	r3, [r9, #16]
 1062              	.LVL143:
 1063              	.LBB290:
 1064              	.LBI290:
 495:Libraries/CMSIS/Include/core_cmInstr.h **** {
 1065              		.loc 2 495 57 is_stmt 1 view .LVU408
 1066              	.LBB291:
 1067              		.loc 2 498 3 view .LVU409
 1068              		.loc 2 498 10 is_stmt 0 view .LVU410
 1069 00e4 1BBA     		rev	r3, r3
 1070              	.LVL144:
 1071              		.loc 2 498 10 view .LVU411
 1072              	.LBE291:
 1073              	.LBE290:
 328:Libraries/STM32F4xx_StdPeriph_Driver/src/stm32f4xx_cryp_aes.c ****     keyaddr+=4;
 1074              		.loc 1 328 45 view .LVU412
 1075 00e6 0C93     		str	r3, [sp, #48]
 329:Libraries/STM32F4xx_StdPeriph_Driver/src/stm32f4xx_cryp_aes.c ****     AES_CRYP_KeyInitStructure.CRYP_Key3Right= __REV(*(uint32_t*)(keyaddr));
 1076              		.loc 1 329 5 is_stmt 1 view .LVU413
 1077              	.LVL145:
 330:Libraries/STM32F4xx_StdPeriph_Driver/src/stm32f4xx_cryp_aes.c ****     break;
 1078              		.loc 1 330 5 view .LVU414
 330:Libraries/STM32F4xx_StdPeriph_Driver/src/stm32f4xx_cryp_aes.c ****     break;
 1079              		.loc 1 330 47 is_stmt 0 view .LVU415
 1080 00e8 D9F81430 		ldr	r3, [r9, #20]
 1081              	.LVL146:
 1082              	.LBB292:
 1083              	.LBI292:
 495:Libraries/CMSIS/Include/core_cmInstr.h **** {
 1084              		.loc 2 495 57 is_stmt 1 view .LVU416
 1085              	.LBB293:
 1086              		.loc 2 498 3 view .LVU417
 1087              		.loc 2 498 10 is_stmt 0 view .LVU418
 1088 00ec 1BBA     		rev	r3, r3
 1089              	.LVL147:
 1090              		.loc 2 498 10 view .LVU419
 1091              	.LBE293:
 1092              	.LBE292:
 330:Libraries/STM32F4xx_StdPeriph_Driver/src/stm32f4xx_cryp_aes.c ****     break;
 1093              		.loc 1 330 45 view .LVU420
 1094 00ee 0D93     		str	r3, [sp, #52]
ARM GAS  /tmp/ccklj7FS.s 			page 39


 331:Libraries/STM32F4xx_StdPeriph_Driver/src/stm32f4xx_cryp_aes.c ****     case 256:
 1095              		.loc 1 331 5 is_stmt 1 view .LVU421
 1096 00f0 9FE7     		b	.L23
 1097              	.LVL148:
 1098              	.L22:
 333:Libraries/STM32F4xx_StdPeriph_Driver/src/stm32f4xx_cryp_aes.c ****     AES_CRYP_KeyInitStructure.CRYP_Key0Left = __REV(*(uint32_t*)(keyaddr));
 1099              		.loc 1 333 5 view .LVU422
 333:Libraries/STM32F4xx_StdPeriph_Driver/src/stm32f4xx_cryp_aes.c ****     AES_CRYP_KeyInitStructure.CRYP_Key0Left = __REV(*(uint32_t*)(keyaddr));
 1100              		.loc 1 333 42 is_stmt 0 view .LVU423
 1101 00f2 4FF40073 		mov	r3, #512
 1102 00f6 1193     		str	r3, [sp, #68]
 334:Libraries/STM32F4xx_StdPeriph_Driver/src/stm32f4xx_cryp_aes.c ****     keyaddr+=4;
 1103              		.loc 1 334 5 is_stmt 1 view .LVU424
 334:Libraries/STM32F4xx_StdPeriph_Driver/src/stm32f4xx_cryp_aes.c ****     keyaddr+=4;
 1104              		.loc 1 334 47 is_stmt 0 view .LVU425
 1105 00f8 D9F80030 		ldr	r3, [r9]
 1106              	.LVL149:
 1107              	.LBB294:
 1108              	.LBI294:
 495:Libraries/CMSIS/Include/core_cmInstr.h **** {
 1109              		.loc 2 495 57 is_stmt 1 view .LVU426
 1110              	.LBB295:
 1111              		.loc 2 498 3 view .LVU427
 1112              		.loc 2 498 10 is_stmt 0 view .LVU428
 1113 00fc 1BBA     		rev	r3, r3
 1114              	.LVL150:
 1115              		.loc 2 498 10 view .LVU429
 1116              	.LBE295:
 1117              	.LBE294:
 334:Libraries/STM32F4xx_StdPeriph_Driver/src/stm32f4xx_cryp_aes.c ****     keyaddr+=4;
 1118              		.loc 1 334 45 view .LVU430
 1119 00fe 0693     		str	r3, [sp, #24]
 335:Libraries/STM32F4xx_StdPeriph_Driver/src/stm32f4xx_cryp_aes.c ****     AES_CRYP_KeyInitStructure.CRYP_Key0Right= __REV(*(uint32_t*)(keyaddr));
 1120              		.loc 1 335 5 is_stmt 1 view .LVU431
 1121              	.LVL151:
 336:Libraries/STM32F4xx_StdPeriph_Driver/src/stm32f4xx_cryp_aes.c ****     keyaddr+=4;
 1122              		.loc 1 336 5 view .LVU432
 336:Libraries/STM32F4xx_StdPeriph_Driver/src/stm32f4xx_cryp_aes.c ****     keyaddr+=4;
 1123              		.loc 1 336 47 is_stmt 0 view .LVU433
 1124 0100 D9F80430 		ldr	r3, [r9, #4]
 1125              	.LVL152:
 1126              	.LBB296:
 1127              	.LBI296:
 495:Libraries/CMSIS/Include/core_cmInstr.h **** {
 1128              		.loc 2 495 57 is_stmt 1 view .LVU434
 1129              	.LBB297:
 1130              		.loc 2 498 3 view .LVU435
 1131              		.loc 2 498 10 is_stmt 0 view .LVU436
 1132 0104 1BBA     		rev	r3, r3
 1133              	.LVL153:
 1134              		.loc 2 498 10 view .LVU437
 1135              	.LBE297:
 1136              	.LBE296:
 336:Libraries/STM32F4xx_StdPeriph_Driver/src/stm32f4xx_cryp_aes.c ****     keyaddr+=4;
 1137              		.loc 1 336 45 view .LVU438
 1138 0106 0793     		str	r3, [sp, #28]
 337:Libraries/STM32F4xx_StdPeriph_Driver/src/stm32f4xx_cryp_aes.c ****     AES_CRYP_KeyInitStructure.CRYP_Key1Left = __REV(*(uint32_t*)(keyaddr));
ARM GAS  /tmp/ccklj7FS.s 			page 40


 1139              		.loc 1 337 5 is_stmt 1 view .LVU439
 1140              	.LVL154:
 338:Libraries/STM32F4xx_StdPeriph_Driver/src/stm32f4xx_cryp_aes.c ****     keyaddr+=4;
 1141              		.loc 1 338 5 view .LVU440
 338:Libraries/STM32F4xx_StdPeriph_Driver/src/stm32f4xx_cryp_aes.c ****     keyaddr+=4;
 1142              		.loc 1 338 47 is_stmt 0 view .LVU441
 1143 0108 D9F80830 		ldr	r3, [r9, #8]
 1144              	.LVL155:
 1145              	.LBB298:
 1146              	.LBI298:
 495:Libraries/CMSIS/Include/core_cmInstr.h **** {
 1147              		.loc 2 495 57 is_stmt 1 view .LVU442
 1148              	.LBB299:
 1149              		.loc 2 498 3 view .LVU443
 1150              		.loc 2 498 10 is_stmt 0 view .LVU444
 1151 010c 1BBA     		rev	r3, r3
 1152              	.LVL156:
 1153              		.loc 2 498 10 view .LVU445
 1154              	.LBE299:
 1155              	.LBE298:
 338:Libraries/STM32F4xx_StdPeriph_Driver/src/stm32f4xx_cryp_aes.c ****     keyaddr+=4;
 1156              		.loc 1 338 45 view .LVU446
 1157 010e 0893     		str	r3, [sp, #32]
 339:Libraries/STM32F4xx_StdPeriph_Driver/src/stm32f4xx_cryp_aes.c ****     AES_CRYP_KeyInitStructure.CRYP_Key1Right= __REV(*(uint32_t*)(keyaddr));
 1158              		.loc 1 339 5 is_stmt 1 view .LVU447
 1159              	.LVL157:
 340:Libraries/STM32F4xx_StdPeriph_Driver/src/stm32f4xx_cryp_aes.c ****     keyaddr+=4;
 1160              		.loc 1 340 5 view .LVU448
 340:Libraries/STM32F4xx_StdPeriph_Driver/src/stm32f4xx_cryp_aes.c ****     keyaddr+=4;
 1161              		.loc 1 340 47 is_stmt 0 view .LVU449
 1162 0110 D9F80C30 		ldr	r3, [r9, #12]
 1163              	.LVL158:
 1164              	.LBB300:
 1165              	.LBI300:
 495:Libraries/CMSIS/Include/core_cmInstr.h **** {
 1166              		.loc 2 495 57 is_stmt 1 view .LVU450
 1167              	.LBB301:
 1168              		.loc 2 498 3 view .LVU451
 1169              		.loc 2 498 10 is_stmt 0 view .LVU452
 1170 0114 1BBA     		rev	r3, r3
 1171              	.LVL159:
 1172              		.loc 2 498 10 view .LVU453
 1173              	.LBE301:
 1174              	.LBE300:
 340:Libraries/STM32F4xx_StdPeriph_Driver/src/stm32f4xx_cryp_aes.c ****     keyaddr+=4;
 1175              		.loc 1 340 45 view .LVU454
 1176 0116 0993     		str	r3, [sp, #36]
 341:Libraries/STM32F4xx_StdPeriph_Driver/src/stm32f4xx_cryp_aes.c ****     AES_CRYP_KeyInitStructure.CRYP_Key2Left = __REV(*(uint32_t*)(keyaddr));
 1177              		.loc 1 341 5 is_stmt 1 view .LVU455
 1178              	.LVL160:
 342:Libraries/STM32F4xx_StdPeriph_Driver/src/stm32f4xx_cryp_aes.c ****     keyaddr+=4;
 1179              		.loc 1 342 5 view .LVU456
 342:Libraries/STM32F4xx_StdPeriph_Driver/src/stm32f4xx_cryp_aes.c ****     keyaddr+=4;
 1180              		.loc 1 342 47 is_stmt 0 view .LVU457
 1181 0118 D9F81030 		ldr	r3, [r9, #16]
 1182              	.LVL161:
 1183              	.LBB302:
ARM GAS  /tmp/ccklj7FS.s 			page 41


 1184              	.LBI302:
 495:Libraries/CMSIS/Include/core_cmInstr.h **** {
 1185              		.loc 2 495 57 is_stmt 1 view .LVU458
 1186              	.LBB303:
 1187              		.loc 2 498 3 view .LVU459
 1188              		.loc 2 498 10 is_stmt 0 view .LVU460
 1189 011c 1BBA     		rev	r3, r3
 1190              	.LVL162:
 1191              		.loc 2 498 10 view .LVU461
 1192              	.LBE303:
 1193              	.LBE302:
 342:Libraries/STM32F4xx_StdPeriph_Driver/src/stm32f4xx_cryp_aes.c ****     keyaddr+=4;
 1194              		.loc 1 342 45 view .LVU462
 1195 011e 0A93     		str	r3, [sp, #40]
 343:Libraries/STM32F4xx_StdPeriph_Driver/src/stm32f4xx_cryp_aes.c ****     AES_CRYP_KeyInitStructure.CRYP_Key2Right= __REV(*(uint32_t*)(keyaddr));
 1196              		.loc 1 343 5 is_stmt 1 view .LVU463
 1197              	.LVL163:
 344:Libraries/STM32F4xx_StdPeriph_Driver/src/stm32f4xx_cryp_aes.c ****     keyaddr+=4;
 1198              		.loc 1 344 5 view .LVU464
 344:Libraries/STM32F4xx_StdPeriph_Driver/src/stm32f4xx_cryp_aes.c ****     keyaddr+=4;
 1199              		.loc 1 344 47 is_stmt 0 view .LVU465
 1200 0120 D9F81430 		ldr	r3, [r9, #20]
 1201              	.LVL164:
 1202              	.LBB304:
 1203              	.LBI304:
 495:Libraries/CMSIS/Include/core_cmInstr.h **** {
 1204              		.loc 2 495 57 is_stmt 1 view .LVU466
 1205              	.LBB305:
 1206              		.loc 2 498 3 view .LVU467
 1207              		.loc 2 498 10 is_stmt 0 view .LVU468
 1208 0124 1BBA     		rev	r3, r3
 1209              	.LVL165:
 1210              		.loc 2 498 10 view .LVU469
 1211              	.LBE305:
 1212              	.LBE304:
 344:Libraries/STM32F4xx_StdPeriph_Driver/src/stm32f4xx_cryp_aes.c ****     keyaddr+=4;
 1213              		.loc 1 344 45 view .LVU470
 1214 0126 0B93     		str	r3, [sp, #44]
 345:Libraries/STM32F4xx_StdPeriph_Driver/src/stm32f4xx_cryp_aes.c ****     AES_CRYP_KeyInitStructure.CRYP_Key3Left = __REV(*(uint32_t*)(keyaddr));
 1215              		.loc 1 345 5 is_stmt 1 view .LVU471
 1216              	.LVL166:
 346:Libraries/STM32F4xx_StdPeriph_Driver/src/stm32f4xx_cryp_aes.c ****     keyaddr+=4;
 1217              		.loc 1 346 5 view .LVU472
 346:Libraries/STM32F4xx_StdPeriph_Driver/src/stm32f4xx_cryp_aes.c ****     keyaddr+=4;
 1218              		.loc 1 346 47 is_stmt 0 view .LVU473
 1219 0128 D9F81830 		ldr	r3, [r9, #24]
 1220              	.LVL167:
 1221              	.LBB306:
 1222              	.LBI306:
 495:Libraries/CMSIS/Include/core_cmInstr.h **** {
 1223              		.loc 2 495 57 is_stmt 1 view .LVU474
 1224              	.LBB307:
 1225              		.loc 2 498 3 view .LVU475
 1226              		.loc 2 498 10 is_stmt 0 view .LVU476
 1227 012c 1BBA     		rev	r3, r3
 1228              	.LVL168:
 1229              		.loc 2 498 10 view .LVU477
ARM GAS  /tmp/ccklj7FS.s 			page 42


 1230              	.LBE307:
 1231              	.LBE306:
 346:Libraries/STM32F4xx_StdPeriph_Driver/src/stm32f4xx_cryp_aes.c ****     keyaddr+=4;
 1232              		.loc 1 346 45 view .LVU478
 1233 012e 0C93     		str	r3, [sp, #48]
 347:Libraries/STM32F4xx_StdPeriph_Driver/src/stm32f4xx_cryp_aes.c ****     AES_CRYP_KeyInitStructure.CRYP_Key3Right= __REV(*(uint32_t*)(keyaddr));
 1234              		.loc 1 347 5 is_stmt 1 view .LVU479
 1235              	.LVL169:
 348:Libraries/STM32F4xx_StdPeriph_Driver/src/stm32f4xx_cryp_aes.c ****     break;
 1236              		.loc 1 348 5 view .LVU480
 348:Libraries/STM32F4xx_StdPeriph_Driver/src/stm32f4xx_cryp_aes.c ****     break;
 1237              		.loc 1 348 47 is_stmt 0 view .LVU481
 1238 0130 D9F81C30 		ldr	r3, [r9, #28]
 1239              	.LVL170:
 1240              	.LBB308:
 1241              	.LBI308:
 495:Libraries/CMSIS/Include/core_cmInstr.h **** {
 1242              		.loc 2 495 57 is_stmt 1 view .LVU482
 1243              	.LBB309:
 1244              		.loc 2 498 3 view .LVU483
 1245              		.loc 2 498 10 is_stmt 0 view .LVU484
 1246 0134 1BBA     		rev	r3, r3
 1247              	.LVL171:
 1248              		.loc 2 498 10 view .LVU485
 1249              	.LBE309:
 1250              	.LBE308:
 348:Libraries/STM32F4xx_StdPeriph_Driver/src/stm32f4xx_cryp_aes.c ****     break;
 1251              		.loc 1 348 45 view .LVU486
 1252 0136 0D93     		str	r3, [sp, #52]
 349:Libraries/STM32F4xx_StdPeriph_Driver/src/stm32f4xx_cryp_aes.c ****     default:
 1253              		.loc 1 349 5 is_stmt 1 view .LVU487
 1254 0138 7BE7     		b	.L23
 1255              	.LVL172:
 1256              	.L24:
 398:Libraries/STM32F4xx_StdPeriph_Driver/src/stm32f4xx_cryp_aes.c ****     }
 399:Libraries/STM32F4xx_StdPeriph_Driver/src/stm32f4xx_cryp_aes.c ****   }
 400:Libraries/STM32F4xx_StdPeriph_Driver/src/stm32f4xx_cryp_aes.c ****   /*------------------ AES Encryption ------------------*/
 401:Libraries/STM32F4xx_StdPeriph_Driver/src/stm32f4xx_cryp_aes.c ****   else /* AES encryption */
 402:Libraries/STM32F4xx_StdPeriph_Driver/src/stm32f4xx_cryp_aes.c ****   {
 403:Libraries/STM32F4xx_StdPeriph_Driver/src/stm32f4xx_cryp_aes.c ****     CRYP_KeyInit(&AES_CRYP_KeyInitStructure);
 1257              		.loc 1 403 5 view .LVU488
 1258 013a 06A8     		add	r0, sp, #24
 1259 013c FFF7FEFF 		bl	CRYP_KeyInit
 1260              	.LVL173:
 404:Libraries/STM32F4xx_StdPeriph_Driver/src/stm32f4xx_cryp_aes.c **** 
 405:Libraries/STM32F4xx_StdPeriph_Driver/src/stm32f4xx_cryp_aes.c ****     /* Crypto Init for Encryption process */
 406:Libraries/STM32F4xx_StdPeriph_Driver/src/stm32f4xx_cryp_aes.c ****     AES_CRYP_InitStructure.CRYP_AlgoDir  = CRYP_AlgoDir_Encrypt;
 1261              		.loc 1 406 5 view .LVU489
 1262              		.loc 1 406 42 is_stmt 0 view .LVU490
 1263 0140 0023     		movs	r3, #0
 1264 0142 0E93     		str	r3, [sp, #56]
 296:Libraries/STM32F4xx_StdPeriph_Driver/src/stm32f4xx_cryp_aes.c ****   uint32_t keyaddr    = (uint32_t)Key;
 1265              		.loc 1 296 15 view .LVU491
 1266 0144 0126     		movs	r6, #1
 1267              	.LVL174:
 1268              	.L27:
 407:Libraries/STM32F4xx_StdPeriph_Driver/src/stm32f4xx_cryp_aes.c ****   }
ARM GAS  /tmp/ccklj7FS.s 			page 43


 408:Libraries/STM32F4xx_StdPeriph_Driver/src/stm32f4xx_cryp_aes.c ****   AES_CRYP_InitStructure.CRYP_AlgoMode = CRYP_AlgoMode_AES_CBC;
 1269              		.loc 1 408 3 is_stmt 1 view .LVU492
 1270              		.loc 1 408 40 is_stmt 0 view .LVU493
 1271 0146 2823     		movs	r3, #40
 1272 0148 0F93     		str	r3, [sp, #60]
 409:Libraries/STM32F4xx_StdPeriph_Driver/src/stm32f4xx_cryp_aes.c ****   AES_CRYP_InitStructure.CRYP_DataType = CRYP_DataType_8b;
 1273              		.loc 1 409 3 is_stmt 1 view .LVU494
 1274              		.loc 1 409 40 is_stmt 0 view .LVU495
 1275 014a 8023     		movs	r3, #128
 1276 014c 1093     		str	r3, [sp, #64]
 410:Libraries/STM32F4xx_StdPeriph_Driver/src/stm32f4xx_cryp_aes.c ****   CRYP_Init(&AES_CRYP_InitStructure);
 1277              		.loc 1 410 3 is_stmt 1 view .LVU496
 1278 014e 0EA8     		add	r0, sp, #56
 1279 0150 FFF7FEFF 		bl	CRYP_Init
 1280              	.LVL175:
 411:Libraries/STM32F4xx_StdPeriph_Driver/src/stm32f4xx_cryp_aes.c **** 
 412:Libraries/STM32F4xx_StdPeriph_Driver/src/stm32f4xx_cryp_aes.c ****   /* CRYP Initialization Vectors */
 413:Libraries/STM32F4xx_StdPeriph_Driver/src/stm32f4xx_cryp_aes.c ****   CRYP_IVInit(&AES_CRYP_IVInitStructure);
 1281              		.loc 1 413 3 view .LVU497
 1282 0154 02A8     		add	r0, sp, #8
 1283 0156 FFF7FEFF 		bl	CRYP_IVInit
 1284              	.LVL176:
 414:Libraries/STM32F4xx_StdPeriph_Driver/src/stm32f4xx_cryp_aes.c **** 
 415:Libraries/STM32F4xx_StdPeriph_Driver/src/stm32f4xx_cryp_aes.c ****   /* Flush IN/OUT FIFOs */
 416:Libraries/STM32F4xx_StdPeriph_Driver/src/stm32f4xx_cryp_aes.c ****   CRYP_FIFOFlush();
 1285              		.loc 1 416 3 view .LVU498
 1286 015a FFF7FEFF 		bl	CRYP_FIFOFlush
 1287              	.LVL177:
 417:Libraries/STM32F4xx_StdPeriph_Driver/src/stm32f4xx_cryp_aes.c **** 
 418:Libraries/STM32F4xx_StdPeriph_Driver/src/stm32f4xx_cryp_aes.c ****   /* Enable Crypto processor */
 419:Libraries/STM32F4xx_StdPeriph_Driver/src/stm32f4xx_cryp_aes.c ****   CRYP_Cmd(ENABLE);
 1288              		.loc 1 419 3 view .LVU499
 1289 015e 0120     		movs	r0, #1
 1290 0160 FFF7FEFF 		bl	CRYP_Cmd
 1291              	.LVL178:
 420:Libraries/STM32F4xx_StdPeriph_Driver/src/stm32f4xx_cryp_aes.c **** 
 421:Libraries/STM32F4xx_StdPeriph_Driver/src/stm32f4xx_cryp_aes.c ****   if(CRYP_GetCmdStatus() == DISABLE)
 1292              		.loc 1 421 3 view .LVU500
 1293              		.loc 1 421 6 is_stmt 0 view .LVU501
 1294 0164 FFF7FEFF 		bl	CRYP_GetCmdStatus
 1295              	.LVL179:
 1296              		.loc 1 421 5 view .LVU502
 1297 0168 0028     		cmp	r0, #0
 1298 016a 35D0     		beq	.L28
 422:Libraries/STM32F4xx_StdPeriph_Driver/src/stm32f4xx_cryp_aes.c ****   {
 423:Libraries/STM32F4xx_StdPeriph_Driver/src/stm32f4xx_cryp_aes.c ****     /* The CRYP peripheral clock is not enabled or the device doesn't embed 
 424:Libraries/STM32F4xx_StdPeriph_Driver/src/stm32f4xx_cryp_aes.c ****        the CRYP peripheral (please check the device sales type. */
 425:Libraries/STM32F4xx_StdPeriph_Driver/src/stm32f4xx_cryp_aes.c ****     return(ERROR);
 426:Libraries/STM32F4xx_StdPeriph_Driver/src/stm32f4xx_cryp_aes.c ****   }
 427:Libraries/STM32F4xx_StdPeriph_Driver/src/stm32f4xx_cryp_aes.c ****   
 428:Libraries/STM32F4xx_StdPeriph_Driver/src/stm32f4xx_cryp_aes.c ****   for(i=0; ((i<Ilength) && (status != ERROR)); i+=16)
 1299              		.loc 1 428 8 view .LVU503
 1300 016c 0025     		movs	r5, #0
 1301              	.LVL180:
 1302              		.loc 1 428 8 view .LVU504
 1303 016e 02E0     		b	.L29
 1304              	.LVL181:
ARM GAS  /tmp/ccklj7FS.s 			page 44


 1305              	.L30:
 429:Libraries/STM32F4xx_StdPeriph_Driver/src/stm32f4xx_cryp_aes.c ****   {
 430:Libraries/STM32F4xx_StdPeriph_Driver/src/stm32f4xx_cryp_aes.c **** 
 431:Libraries/STM32F4xx_StdPeriph_Driver/src/stm32f4xx_cryp_aes.c ****     /* Write the Input block in the IN FIFO */
 432:Libraries/STM32F4xx_StdPeriph_Driver/src/stm32f4xx_cryp_aes.c ****     CRYP_DataIn(*(uint32_t*)(inputaddr));
 433:Libraries/STM32F4xx_StdPeriph_Driver/src/stm32f4xx_cryp_aes.c ****     inputaddr+=4;
 434:Libraries/STM32F4xx_StdPeriph_Driver/src/stm32f4xx_cryp_aes.c ****     CRYP_DataIn(*(uint32_t*)(inputaddr));
 435:Libraries/STM32F4xx_StdPeriph_Driver/src/stm32f4xx_cryp_aes.c ****     inputaddr+=4;
 436:Libraries/STM32F4xx_StdPeriph_Driver/src/stm32f4xx_cryp_aes.c ****     CRYP_DataIn(*(uint32_t*)(inputaddr));
 437:Libraries/STM32F4xx_StdPeriph_Driver/src/stm32f4xx_cryp_aes.c ****     inputaddr+=4;
 438:Libraries/STM32F4xx_StdPeriph_Driver/src/stm32f4xx_cryp_aes.c ****     CRYP_DataIn(*(uint32_t*)(inputaddr));
 439:Libraries/STM32F4xx_StdPeriph_Driver/src/stm32f4xx_cryp_aes.c ****     inputaddr+=4;
 440:Libraries/STM32F4xx_StdPeriph_Driver/src/stm32f4xx_cryp_aes.c ****     /* Wait until the complete message has been processed */
 441:Libraries/STM32F4xx_StdPeriph_Driver/src/stm32f4xx_cryp_aes.c ****     counter = 0;
 442:Libraries/STM32F4xx_StdPeriph_Driver/src/stm32f4xx_cryp_aes.c ****     do
 443:Libraries/STM32F4xx_StdPeriph_Driver/src/stm32f4xx_cryp_aes.c ****     {
 444:Libraries/STM32F4xx_StdPeriph_Driver/src/stm32f4xx_cryp_aes.c ****       busystatus = CRYP_GetFlagStatus(CRYP_FLAG_BUSY);
 445:Libraries/STM32F4xx_StdPeriph_Driver/src/stm32f4xx_cryp_aes.c ****       counter++;
 446:Libraries/STM32F4xx_StdPeriph_Driver/src/stm32f4xx_cryp_aes.c ****     }while ((counter != AESBUSY_TIMEOUT) && (busystatus != RESET));
 447:Libraries/STM32F4xx_StdPeriph_Driver/src/stm32f4xx_cryp_aes.c **** 
 448:Libraries/STM32F4xx_StdPeriph_Driver/src/stm32f4xx_cryp_aes.c ****     if (busystatus != RESET)
 1306              		.loc 1 448 5 is_stmt 1 view .LVU505
 1307              		.loc 1 448 8 is_stmt 0 view .LVU506
 1308 0170 00B3     		cbz	r0, .L38
 449:Libraries/STM32F4xx_StdPeriph_Driver/src/stm32f4xx_cryp_aes.c ****    {
 450:Libraries/STM32F4xx_StdPeriph_Driver/src/stm32f4xx_cryp_aes.c ****        status = ERROR;
 1309              		.loc 1 450 15 view .LVU507
 1310 0172 0026     		movs	r6, #0
 1311              	.LVL182:
 1312              	.L32:
 428:Libraries/STM32F4xx_StdPeriph_Driver/src/stm32f4xx_cryp_aes.c ****   {
 1313              		.loc 1 428 48 is_stmt 1 discriminator 2 view .LVU508
 428:Libraries/STM32F4xx_StdPeriph_Driver/src/stm32f4xx_cryp_aes.c ****   {
 1314              		.loc 1 428 49 is_stmt 0 discriminator 2 view .LVU509
 1315 0174 1035     		adds	r5, r5, #16
 1316              	.LVL183:
 1317              	.L29:
 428:Libraries/STM32F4xx_StdPeriph_Driver/src/stm32f4xx_cryp_aes.c ****   {
 1318              		.loc 1 428 12 is_stmt 1 discriminator 1 view .LVU510
 428:Libraries/STM32F4xx_StdPeriph_Driver/src/stm32f4xx_cryp_aes.c ****   {
 1319              		.loc 1 428 3 is_stmt 0 discriminator 1 view .LVU511
 1320 0176 4545     		cmp	r5, r8
 1321 0178 2AD2     		bcs	.L33
 428:Libraries/STM32F4xx_StdPeriph_Driver/src/stm32f4xx_cryp_aes.c ****   {
 1322              		.loc 1 428 25 discriminator 3 view .LVU512
 1323 017a 4EB3     		cbz	r6, .L33
 432:Libraries/STM32F4xx_StdPeriph_Driver/src/stm32f4xx_cryp_aes.c ****     inputaddr+=4;
 1324              		.loc 1 432 5 is_stmt 1 view .LVU513
 1325 017c 2068     		ldr	r0, [r4]
 1326 017e FFF7FEFF 		bl	CRYP_DataIn
 1327              	.LVL184:
 433:Libraries/STM32F4xx_StdPeriph_Driver/src/stm32f4xx_cryp_aes.c ****     CRYP_DataIn(*(uint32_t*)(inputaddr));
 1328              		.loc 1 433 5 view .LVU514
 434:Libraries/STM32F4xx_StdPeriph_Driver/src/stm32f4xx_cryp_aes.c ****     inputaddr+=4;
 1329              		.loc 1 434 5 view .LVU515
 1330 0182 6068     		ldr	r0, [r4, #4]
 1331 0184 FFF7FEFF 		bl	CRYP_DataIn
ARM GAS  /tmp/ccklj7FS.s 			page 45


 1332              	.LVL185:
 435:Libraries/STM32F4xx_StdPeriph_Driver/src/stm32f4xx_cryp_aes.c ****     CRYP_DataIn(*(uint32_t*)(inputaddr));
 1333              		.loc 1 435 5 view .LVU516
 436:Libraries/STM32F4xx_StdPeriph_Driver/src/stm32f4xx_cryp_aes.c ****     inputaddr+=4;
 1334              		.loc 1 436 5 view .LVU517
 1335 0188 A068     		ldr	r0, [r4, #8]
 1336 018a FFF7FEFF 		bl	CRYP_DataIn
 1337              	.LVL186:
 437:Libraries/STM32F4xx_StdPeriph_Driver/src/stm32f4xx_cryp_aes.c ****     CRYP_DataIn(*(uint32_t*)(inputaddr));
 1338              		.loc 1 437 5 view .LVU518
 438:Libraries/STM32F4xx_StdPeriph_Driver/src/stm32f4xx_cryp_aes.c ****     inputaddr+=4;
 1339              		.loc 1 438 5 view .LVU519
 1340 018e E068     		ldr	r0, [r4, #12]
 1341 0190 FFF7FEFF 		bl	CRYP_DataIn
 1342              	.LVL187:
 439:Libraries/STM32F4xx_StdPeriph_Driver/src/stm32f4xx_cryp_aes.c ****     /* Wait until the complete message has been processed */
 1343              		.loc 1 439 5 view .LVU520
 439:Libraries/STM32F4xx_StdPeriph_Driver/src/stm32f4xx_cryp_aes.c ****     /* Wait until the complete message has been processed */
 1344              		.loc 1 439 14 is_stmt 0 view .LVU521
 1345 0194 1034     		adds	r4, r4, #16
 1346              	.LVL188:
 441:Libraries/STM32F4xx_StdPeriph_Driver/src/stm32f4xx_cryp_aes.c ****     do
 1347              		.loc 1 441 5 is_stmt 1 view .LVU522
 441:Libraries/STM32F4xx_StdPeriph_Driver/src/stm32f4xx_cryp_aes.c ****     do
 1348              		.loc 1 441 13 is_stmt 0 view .LVU523
 1349 0196 0023     		movs	r3, #0
 1350 0198 0193     		str	r3, [sp, #4]
 1351              	.L31:
 442:Libraries/STM32F4xx_StdPeriph_Driver/src/stm32f4xx_cryp_aes.c ****     {
 1352              		.loc 1 442 5 is_stmt 1 discriminator 2 view .LVU524
 444:Libraries/STM32F4xx_StdPeriph_Driver/src/stm32f4xx_cryp_aes.c ****       counter++;
 1353              		.loc 1 444 7 discriminator 2 view .LVU525
 444:Libraries/STM32F4xx_StdPeriph_Driver/src/stm32f4xx_cryp_aes.c ****       counter++;
 1354              		.loc 1 444 20 is_stmt 0 discriminator 2 view .LVU526
 1355 019a 1020     		movs	r0, #16
 1356 019c FFF7FEFF 		bl	CRYP_GetFlagStatus
 1357              	.LVL189:
 445:Libraries/STM32F4xx_StdPeriph_Driver/src/stm32f4xx_cryp_aes.c ****     }while ((counter != AESBUSY_TIMEOUT) && (busystatus != RESET));
 1358              		.loc 1 445 7 is_stmt 1 discriminator 2 view .LVU527
 445:Libraries/STM32F4xx_StdPeriph_Driver/src/stm32f4xx_cryp_aes.c ****     }while ((counter != AESBUSY_TIMEOUT) && (busystatus != RESET));
 1359              		.loc 1 445 14 is_stmt 0 discriminator 2 view .LVU528
 1360 01a0 019B     		ldr	r3, [sp, #4]
 1361 01a2 0133     		adds	r3, r3, #1
 1362 01a4 0193     		str	r3, [sp, #4]
 446:Libraries/STM32F4xx_StdPeriph_Driver/src/stm32f4xx_cryp_aes.c **** 
 1363              		.loc 1 446 12 is_stmt 1 discriminator 2 view .LVU529
 446:Libraries/STM32F4xx_StdPeriph_Driver/src/stm32f4xx_cryp_aes.c **** 
 1364              		.loc 1 446 22 is_stmt 0 discriminator 2 view .LVU530
 1365 01a6 019B     		ldr	r3, [sp, #4]
 446:Libraries/STM32F4xx_StdPeriph_Driver/src/stm32f4xx_cryp_aes.c **** 
 1366              		.loc 1 446 5 discriminator 2 view .LVU531
 1367 01a8 B3F5803F 		cmp	r3, #65536
 1368 01ac E0D0     		beq	.L30
 446:Libraries/STM32F4xx_StdPeriph_Driver/src/stm32f4xx_cryp_aes.c **** 
 1369              		.loc 1 446 42 discriminator 1 view .LVU532
 1370 01ae 0028     		cmp	r0, #0
 1371 01b0 F3D1     		bne	.L31
ARM GAS  /tmp/ccklj7FS.s 			page 46


 1372 01b2 DDE7     		b	.L30
 1373              	.L38:
 451:Libraries/STM32F4xx_StdPeriph_Driver/src/stm32f4xx_cryp_aes.c ****     }
 452:Libraries/STM32F4xx_StdPeriph_Driver/src/stm32f4xx_cryp_aes.c ****     else
 453:Libraries/STM32F4xx_StdPeriph_Driver/src/stm32f4xx_cryp_aes.c ****     {
 454:Libraries/STM32F4xx_StdPeriph_Driver/src/stm32f4xx_cryp_aes.c **** 
 455:Libraries/STM32F4xx_StdPeriph_Driver/src/stm32f4xx_cryp_aes.c ****       /* Read the Output block from the Output FIFO */
 456:Libraries/STM32F4xx_StdPeriph_Driver/src/stm32f4xx_cryp_aes.c ****       *(uint32_t*)(outputaddr) = CRYP_DataOut();
 1374              		.loc 1 456 7 is_stmt 1 view .LVU533
 1375              		.loc 1 456 34 is_stmt 0 view .LVU534
 1376 01b4 FFF7FEFF 		bl	CRYP_DataOut
 1377              	.LVL190:
 1378              		.loc 1 456 32 view .LVU535
 1379 01b8 3860     		str	r0, [r7]
 457:Libraries/STM32F4xx_StdPeriph_Driver/src/stm32f4xx_cryp_aes.c ****       outputaddr+=4;
 1380              		.loc 1 457 7 is_stmt 1 view .LVU536
 1381              	.LVL191:
 458:Libraries/STM32F4xx_StdPeriph_Driver/src/stm32f4xx_cryp_aes.c ****       *(uint32_t*)(outputaddr) = CRYP_DataOut();
 1382              		.loc 1 458 7 view .LVU537
 1383              		.loc 1 458 34 is_stmt 0 view .LVU538
 1384 01ba FFF7FEFF 		bl	CRYP_DataOut
 1385              	.LVL192:
 1386              		.loc 1 458 32 view .LVU539
 1387 01be 7860     		str	r0, [r7, #4]
 459:Libraries/STM32F4xx_StdPeriph_Driver/src/stm32f4xx_cryp_aes.c ****       outputaddr+=4;
 1388              		.loc 1 459 7 is_stmt 1 view .LVU540
 1389              	.LVL193:
 460:Libraries/STM32F4xx_StdPeriph_Driver/src/stm32f4xx_cryp_aes.c ****       *(uint32_t*)(outputaddr) = CRYP_DataOut();
 1390              		.loc 1 460 7 view .LVU541
 1391              		.loc 1 460 34 is_stmt 0 view .LVU542
 1392 01c0 FFF7FEFF 		bl	CRYP_DataOut
 1393              	.LVL194:
 1394              		.loc 1 460 32 view .LVU543
 1395 01c4 B860     		str	r0, [r7, #8]
 461:Libraries/STM32F4xx_StdPeriph_Driver/src/stm32f4xx_cryp_aes.c ****       outputaddr+=4;
 1396              		.loc 1 461 7 is_stmt 1 view .LVU544
 1397              	.LVL195:
 462:Libraries/STM32F4xx_StdPeriph_Driver/src/stm32f4xx_cryp_aes.c ****       *(uint32_t*)(outputaddr) = CRYP_DataOut();
 1398              		.loc 1 462 7 view .LVU545
 1399              		.loc 1 462 34 is_stmt 0 view .LVU546
 1400 01c6 FFF7FEFF 		bl	CRYP_DataOut
 1401              	.LVL196:
 1402              		.loc 1 462 32 view .LVU547
 1403 01ca F860     		str	r0, [r7, #12]
 463:Libraries/STM32F4xx_StdPeriph_Driver/src/stm32f4xx_cryp_aes.c ****       outputaddr+=4;
 1404              		.loc 1 463 7 is_stmt 1 view .LVU548
 1405              		.loc 1 463 17 is_stmt 0 view .LVU549
 1406 01cc 1037     		adds	r7, r7, #16
 1407              	.LVL197:
 1408              		.loc 1 463 17 view .LVU550
 1409 01ce D1E7     		b	.L32
 1410              	.L33:
 464:Libraries/STM32F4xx_StdPeriph_Driver/src/stm32f4xx_cryp_aes.c ****     }
 465:Libraries/STM32F4xx_StdPeriph_Driver/src/stm32f4xx_cryp_aes.c ****   }
 466:Libraries/STM32F4xx_StdPeriph_Driver/src/stm32f4xx_cryp_aes.c **** 
 467:Libraries/STM32F4xx_StdPeriph_Driver/src/stm32f4xx_cryp_aes.c ****   /* Disable Crypto */
 468:Libraries/STM32F4xx_StdPeriph_Driver/src/stm32f4xx_cryp_aes.c ****   CRYP_Cmd(DISABLE);
ARM GAS  /tmp/ccklj7FS.s 			page 47


 1411              		.loc 1 468 3 is_stmt 1 view .LVU551
 1412 01d0 0020     		movs	r0, #0
 1413 01d2 FFF7FEFF 		bl	CRYP_Cmd
 1414              	.LVL198:
 469:Libraries/STM32F4xx_StdPeriph_Driver/src/stm32f4xx_cryp_aes.c **** 
 470:Libraries/STM32F4xx_StdPeriph_Driver/src/stm32f4xx_cryp_aes.c ****   return status;
 1415              		.loc 1 470 3 view .LVU552
 1416              		.loc 1 470 10 is_stmt 0 view .LVU553
 1417 01d6 3046     		mov	r0, r6
 1418              	.LVL199:
 1419              	.L28:
 471:Libraries/STM32F4xx_StdPeriph_Driver/src/stm32f4xx_cryp_aes.c **** }
 1420              		.loc 1 471 1 view .LVU554
 1421 01d8 12B0     		add	sp, sp, #72
 1422              	.LCFI5:
 1423              		.cfi_def_cfa_offset 32
 1424              		@ sp needed
 1425 01da BDE8F087 		pop	{r4, r5, r6, r7, r8, r9, r10, pc}
 1426              		.loc 1 471 1 view .LVU555
 1427              		.cfi_endproc
 1428              	.LFE124:
 1430              		.section	.text.CRYP_AES_CTR,"ax",%progbits
 1431              		.align	1
 1432              		.global	CRYP_AES_CTR
 1433              		.syntax unified
 1434              		.thumb
 1435              		.thumb_func
 1436              		.fpu fpv4-sp-d16
 1438              	CRYP_AES_CTR:
 1439              	.LVL200:
 1440              	.LFB125:
 472:Libraries/STM32F4xx_StdPeriph_Driver/src/stm32f4xx_cryp_aes.c **** 
 473:Libraries/STM32F4xx_StdPeriph_Driver/src/stm32f4xx_cryp_aes.c **** /**
 474:Libraries/STM32F4xx_StdPeriph_Driver/src/stm32f4xx_cryp_aes.c ****   * @brief  Encrypt and decrypt using AES in CTR Mode
 475:Libraries/STM32F4xx_StdPeriph_Driver/src/stm32f4xx_cryp_aes.c ****   * @param  Mode: encryption or decryption Mode.
 476:Libraries/STM32F4xx_StdPeriph_Driver/src/stm32f4xx_cryp_aes.c ****   *           This parameter can be one of the following values:
 477:Libraries/STM32F4xx_StdPeriph_Driver/src/stm32f4xx_cryp_aes.c ****   *            @arg MODE_ENCRYPT: Encryption
 478:Libraries/STM32F4xx_StdPeriph_Driver/src/stm32f4xx_cryp_aes.c ****   *            @arg MODE_DECRYPT: Decryption
 479:Libraries/STM32F4xx_StdPeriph_Driver/src/stm32f4xx_cryp_aes.c ****   * @param  InitVectors: Initialisation Vectors used for AES algorithm.
 480:Libraries/STM32F4xx_StdPeriph_Driver/src/stm32f4xx_cryp_aes.c ****   * @param  Key: Key used for AES algorithm.
 481:Libraries/STM32F4xx_StdPeriph_Driver/src/stm32f4xx_cryp_aes.c ****   * @param  Keysize: length of the Key, must be a 128, 192 or 256.
 482:Libraries/STM32F4xx_StdPeriph_Driver/src/stm32f4xx_cryp_aes.c ****   * @param  Input: pointer to the Input buffer.
 483:Libraries/STM32F4xx_StdPeriph_Driver/src/stm32f4xx_cryp_aes.c ****   * @param  Ilength: length of the Input buffer, must be a multiple of 16.
 484:Libraries/STM32F4xx_StdPeriph_Driver/src/stm32f4xx_cryp_aes.c ****   * @param  Output: pointer to the returned buffer.
 485:Libraries/STM32F4xx_StdPeriph_Driver/src/stm32f4xx_cryp_aes.c ****   * @retval An ErrorStatus enumeration value:
 486:Libraries/STM32F4xx_StdPeriph_Driver/src/stm32f4xx_cryp_aes.c ****   *          - SUCCESS: Operation done
 487:Libraries/STM32F4xx_StdPeriph_Driver/src/stm32f4xx_cryp_aes.c ****   *          - ERROR: Operation failed
 488:Libraries/STM32F4xx_StdPeriph_Driver/src/stm32f4xx_cryp_aes.c ****   */
 489:Libraries/STM32F4xx_StdPeriph_Driver/src/stm32f4xx_cryp_aes.c **** ErrorStatus CRYP_AES_CTR(uint8_t Mode, uint8_t InitVectors[16], uint8_t *Key, 
 490:Libraries/STM32F4xx_StdPeriph_Driver/src/stm32f4xx_cryp_aes.c ****                          uint16_t Keysize, uint8_t *Input, uint32_t Ilength,
 491:Libraries/STM32F4xx_StdPeriph_Driver/src/stm32f4xx_cryp_aes.c ****                          uint8_t *Output)
 492:Libraries/STM32F4xx_StdPeriph_Driver/src/stm32f4xx_cryp_aes.c **** {
 1441              		.loc 1 492 1 is_stmt 1 view -0
 1442              		.cfi_startproc
 1443              		@ args = 12, pretend = 0, frame = 72
 1444              		@ frame_needed = 0, uses_anonymous_args = 0
 1445              		.loc 1 492 1 is_stmt 0 view .LVU557
ARM GAS  /tmp/ccklj7FS.s 			page 48


 1446 0000 2DE9F047 		push	{r4, r5, r6, r7, r8, r9, r10, lr}
 1447              	.LCFI6:
 1448              		.cfi_def_cfa_offset 32
 1449              		.cfi_offset 4, -32
 1450              		.cfi_offset 5, -28
 1451              		.cfi_offset 6, -24
 1452              		.cfi_offset 7, -20
 1453              		.cfi_offset 8, -16
 1454              		.cfi_offset 9, -12
 1455              		.cfi_offset 10, -8
 1456              		.cfi_offset 14, -4
 1457 0004 92B0     		sub	sp, sp, #72
 1458              	.LCFI7:
 1459              		.cfi_def_cfa_offset 104
 1460 0006 8246     		mov	r10, r0
 1461 0008 0D46     		mov	r5, r1
 1462 000a 1646     		mov	r6, r2
 1463 000c 9946     		mov	r9, r3
 1464 000e DDF86C80 		ldr	r8, [sp, #108]
 493:Libraries/STM32F4xx_StdPeriph_Driver/src/stm32f4xx_cryp_aes.c ****   CRYP_InitTypeDef AES_CRYP_InitStructure;
 1465              		.loc 1 493 3 is_stmt 1 view .LVU558
 494:Libraries/STM32F4xx_StdPeriph_Driver/src/stm32f4xx_cryp_aes.c ****   CRYP_KeyInitTypeDef AES_CRYP_KeyInitStructure;
 1466              		.loc 1 494 3 view .LVU559
 495:Libraries/STM32F4xx_StdPeriph_Driver/src/stm32f4xx_cryp_aes.c ****   CRYP_IVInitTypeDef AES_CRYP_IVInitStructure;
 1467              		.loc 1 495 3 view .LVU560
 496:Libraries/STM32F4xx_StdPeriph_Driver/src/stm32f4xx_cryp_aes.c ****   __IO uint32_t counter = 0;
 1468              		.loc 1 496 3 view .LVU561
 1469              		.loc 1 496 17 is_stmt 0 view .LVU562
 1470 0012 0023     		movs	r3, #0
 1471              	.LVL201:
 1472              		.loc 1 496 17 view .LVU563
 1473 0014 0193     		str	r3, [sp, #4]
 497:Libraries/STM32F4xx_StdPeriph_Driver/src/stm32f4xx_cryp_aes.c ****   uint32_t busystatus = 0;
 1474              		.loc 1 497 3 is_stmt 1 view .LVU564
 1475              	.LVL202:
 498:Libraries/STM32F4xx_StdPeriph_Driver/src/stm32f4xx_cryp_aes.c ****   ErrorStatus status = SUCCESS;
 1476              		.loc 1 498 3 view .LVU565
 499:Libraries/STM32F4xx_StdPeriph_Driver/src/stm32f4xx_cryp_aes.c ****   uint32_t keyaddr    = (uint32_t)Key;
 1477              		.loc 1 499 3 view .LVU566
 500:Libraries/STM32F4xx_StdPeriph_Driver/src/stm32f4xx_cryp_aes.c ****   uint32_t inputaddr  = (uint32_t)Input;
 1478              		.loc 1 500 3 view .LVU567
 1479              		.loc 1 500 12 is_stmt 0 view .LVU568
 1480 0016 1A9C     		ldr	r4, [sp, #104]
 1481              	.LVL203:
 501:Libraries/STM32F4xx_StdPeriph_Driver/src/stm32f4xx_cryp_aes.c ****   uint32_t outputaddr = (uint32_t)Output;
 1482              		.loc 1 501 3 is_stmt 1 view .LVU569
 1483              		.loc 1 501 12 is_stmt 0 view .LVU570
 1484 0018 1C9F     		ldr	r7, [sp, #112]
 1485              	.LVL204:
 502:Libraries/STM32F4xx_StdPeriph_Driver/src/stm32f4xx_cryp_aes.c ****   uint32_t ivaddr     = (uint32_t)InitVectors;
 1486              		.loc 1 502 3 is_stmt 1 view .LVU571
 503:Libraries/STM32F4xx_StdPeriph_Driver/src/stm32f4xx_cryp_aes.c ****   uint32_t i = 0;
 1487              		.loc 1 503 3 view .LVU572
 504:Libraries/STM32F4xx_StdPeriph_Driver/src/stm32f4xx_cryp_aes.c **** 
 505:Libraries/STM32F4xx_StdPeriph_Driver/src/stm32f4xx_cryp_aes.c ****   /* Crypto structures initialisation*/
 506:Libraries/STM32F4xx_StdPeriph_Driver/src/stm32f4xx_cryp_aes.c ****   CRYP_KeyStructInit(&AES_CRYP_KeyInitStructure);
 1488              		.loc 1 506 3 view .LVU573
ARM GAS  /tmp/ccklj7FS.s 			page 49


 1489 001a 06A8     		add	r0, sp, #24
 1490              	.LVL205:
 1491              		.loc 1 506 3 is_stmt 0 view .LVU574
 1492 001c FFF7FEFF 		bl	CRYP_KeyStructInit
 1493              	.LVL206:
 507:Libraries/STM32F4xx_StdPeriph_Driver/src/stm32f4xx_cryp_aes.c **** 
 508:Libraries/STM32F4xx_StdPeriph_Driver/src/stm32f4xx_cryp_aes.c ****   switch(Keysize)
 1494              		.loc 1 508 3 is_stmt 1 view .LVU575
 1495 0020 B9F1C00F 		cmp	r9, #192
 1496 0024 3FD0     		beq	.L40
 1497 0026 B9F5807F 		cmp	r9, #256
 1498 002a 52D0     		beq	.L41
 1499 002c B9F1800F 		cmp	r9, #128
 1500 0030 2AD0     		beq	.L54
 1501              	.LVL207:
 1502              	.L42:
 509:Libraries/STM32F4xx_StdPeriph_Driver/src/stm32f4xx_cryp_aes.c ****   {
 510:Libraries/STM32F4xx_StdPeriph_Driver/src/stm32f4xx_cryp_aes.c ****     case 128:
 511:Libraries/STM32F4xx_StdPeriph_Driver/src/stm32f4xx_cryp_aes.c ****     AES_CRYP_InitStructure.CRYP_KeySize = CRYP_KeySize_128b;
 512:Libraries/STM32F4xx_StdPeriph_Driver/src/stm32f4xx_cryp_aes.c ****     AES_CRYP_KeyInitStructure.CRYP_Key2Left = __REV(*(uint32_t*)(keyaddr));
 513:Libraries/STM32F4xx_StdPeriph_Driver/src/stm32f4xx_cryp_aes.c ****     keyaddr+=4;
 514:Libraries/STM32F4xx_StdPeriph_Driver/src/stm32f4xx_cryp_aes.c ****     AES_CRYP_KeyInitStructure.CRYP_Key2Right= __REV(*(uint32_t*)(keyaddr));
 515:Libraries/STM32F4xx_StdPeriph_Driver/src/stm32f4xx_cryp_aes.c ****     keyaddr+=4;
 516:Libraries/STM32F4xx_StdPeriph_Driver/src/stm32f4xx_cryp_aes.c ****     AES_CRYP_KeyInitStructure.CRYP_Key3Left = __REV(*(uint32_t*)(keyaddr));
 517:Libraries/STM32F4xx_StdPeriph_Driver/src/stm32f4xx_cryp_aes.c ****     keyaddr+=4;
 518:Libraries/STM32F4xx_StdPeriph_Driver/src/stm32f4xx_cryp_aes.c ****     AES_CRYP_KeyInitStructure.CRYP_Key3Right= __REV(*(uint32_t*)(keyaddr));
 519:Libraries/STM32F4xx_StdPeriph_Driver/src/stm32f4xx_cryp_aes.c ****     break;
 520:Libraries/STM32F4xx_StdPeriph_Driver/src/stm32f4xx_cryp_aes.c ****     case 192:
 521:Libraries/STM32F4xx_StdPeriph_Driver/src/stm32f4xx_cryp_aes.c ****     AES_CRYP_InitStructure.CRYP_KeySize  = CRYP_KeySize_192b;
 522:Libraries/STM32F4xx_StdPeriph_Driver/src/stm32f4xx_cryp_aes.c ****     AES_CRYP_KeyInitStructure.CRYP_Key1Left = __REV(*(uint32_t*)(keyaddr));
 523:Libraries/STM32F4xx_StdPeriph_Driver/src/stm32f4xx_cryp_aes.c ****     keyaddr+=4;
 524:Libraries/STM32F4xx_StdPeriph_Driver/src/stm32f4xx_cryp_aes.c ****     AES_CRYP_KeyInitStructure.CRYP_Key1Right= __REV(*(uint32_t*)(keyaddr));
 525:Libraries/STM32F4xx_StdPeriph_Driver/src/stm32f4xx_cryp_aes.c ****     keyaddr+=4;
 526:Libraries/STM32F4xx_StdPeriph_Driver/src/stm32f4xx_cryp_aes.c ****     AES_CRYP_KeyInitStructure.CRYP_Key2Left = __REV(*(uint32_t*)(keyaddr));
 527:Libraries/STM32F4xx_StdPeriph_Driver/src/stm32f4xx_cryp_aes.c ****     keyaddr+=4;
 528:Libraries/STM32F4xx_StdPeriph_Driver/src/stm32f4xx_cryp_aes.c ****     AES_CRYP_KeyInitStructure.CRYP_Key2Right= __REV(*(uint32_t*)(keyaddr));
 529:Libraries/STM32F4xx_StdPeriph_Driver/src/stm32f4xx_cryp_aes.c ****     keyaddr+=4;
 530:Libraries/STM32F4xx_StdPeriph_Driver/src/stm32f4xx_cryp_aes.c ****     AES_CRYP_KeyInitStructure.CRYP_Key3Left = __REV(*(uint32_t*)(keyaddr));
 531:Libraries/STM32F4xx_StdPeriph_Driver/src/stm32f4xx_cryp_aes.c ****     keyaddr+=4;
 532:Libraries/STM32F4xx_StdPeriph_Driver/src/stm32f4xx_cryp_aes.c ****     AES_CRYP_KeyInitStructure.CRYP_Key3Right= __REV(*(uint32_t*)(keyaddr));
 533:Libraries/STM32F4xx_StdPeriph_Driver/src/stm32f4xx_cryp_aes.c ****     break;
 534:Libraries/STM32F4xx_StdPeriph_Driver/src/stm32f4xx_cryp_aes.c ****     case 256:
 535:Libraries/STM32F4xx_StdPeriph_Driver/src/stm32f4xx_cryp_aes.c ****     AES_CRYP_InitStructure.CRYP_KeySize  = CRYP_KeySize_256b;
 536:Libraries/STM32F4xx_StdPeriph_Driver/src/stm32f4xx_cryp_aes.c ****     AES_CRYP_KeyInitStructure.CRYP_Key0Left = __REV(*(uint32_t*)(keyaddr));
 537:Libraries/STM32F4xx_StdPeriph_Driver/src/stm32f4xx_cryp_aes.c ****     keyaddr+=4;
 538:Libraries/STM32F4xx_StdPeriph_Driver/src/stm32f4xx_cryp_aes.c ****     AES_CRYP_KeyInitStructure.CRYP_Key0Right= __REV(*(uint32_t*)(keyaddr));
 539:Libraries/STM32F4xx_StdPeriph_Driver/src/stm32f4xx_cryp_aes.c ****     keyaddr+=4;
 540:Libraries/STM32F4xx_StdPeriph_Driver/src/stm32f4xx_cryp_aes.c ****     AES_CRYP_KeyInitStructure.CRYP_Key1Left = __REV(*(uint32_t*)(keyaddr));
 541:Libraries/STM32F4xx_StdPeriph_Driver/src/stm32f4xx_cryp_aes.c ****     keyaddr+=4;
 542:Libraries/STM32F4xx_StdPeriph_Driver/src/stm32f4xx_cryp_aes.c ****     AES_CRYP_KeyInitStructure.CRYP_Key1Right= __REV(*(uint32_t*)(keyaddr));
 543:Libraries/STM32F4xx_StdPeriph_Driver/src/stm32f4xx_cryp_aes.c ****     keyaddr+=4;
 544:Libraries/STM32F4xx_StdPeriph_Driver/src/stm32f4xx_cryp_aes.c ****     AES_CRYP_KeyInitStructure.CRYP_Key2Left = __REV(*(uint32_t*)(keyaddr));
 545:Libraries/STM32F4xx_StdPeriph_Driver/src/stm32f4xx_cryp_aes.c ****     keyaddr+=4;
 546:Libraries/STM32F4xx_StdPeriph_Driver/src/stm32f4xx_cryp_aes.c ****     AES_CRYP_KeyInitStructure.CRYP_Key2Right= __REV(*(uint32_t*)(keyaddr));
 547:Libraries/STM32F4xx_StdPeriph_Driver/src/stm32f4xx_cryp_aes.c ****     keyaddr+=4;
 548:Libraries/STM32F4xx_StdPeriph_Driver/src/stm32f4xx_cryp_aes.c ****     AES_CRYP_KeyInitStructure.CRYP_Key3Left = __REV(*(uint32_t*)(keyaddr));
 549:Libraries/STM32F4xx_StdPeriph_Driver/src/stm32f4xx_cryp_aes.c ****     keyaddr+=4;
ARM GAS  /tmp/ccklj7FS.s 			page 50


 550:Libraries/STM32F4xx_StdPeriph_Driver/src/stm32f4xx_cryp_aes.c ****     AES_CRYP_KeyInitStructure.CRYP_Key3Right= __REV(*(uint32_t*)(keyaddr));
 551:Libraries/STM32F4xx_StdPeriph_Driver/src/stm32f4xx_cryp_aes.c ****     break;
 552:Libraries/STM32F4xx_StdPeriph_Driver/src/stm32f4xx_cryp_aes.c ****     default:
 553:Libraries/STM32F4xx_StdPeriph_Driver/src/stm32f4xx_cryp_aes.c ****     break;
 554:Libraries/STM32F4xx_StdPeriph_Driver/src/stm32f4xx_cryp_aes.c ****   }
 555:Libraries/STM32F4xx_StdPeriph_Driver/src/stm32f4xx_cryp_aes.c ****   /* CRYP Initialization Vectors */
 556:Libraries/STM32F4xx_StdPeriph_Driver/src/stm32f4xx_cryp_aes.c ****   AES_CRYP_IVInitStructure.CRYP_IV0Left = __REV(*(uint32_t*)(ivaddr));
 1503              		.loc 1 556 3 view .LVU576
 1504              		.loc 1 556 43 is_stmt 0 view .LVU577
 1505 0032 2B68     		ldr	r3, [r5]
 1506              	.LVL208:
 1507              	.LBB310:
 1508              	.LBI310:
 495:Libraries/CMSIS/Include/core_cmInstr.h **** {
 1509              		.loc 2 495 57 is_stmt 1 view .LVU578
 1510              	.LBB311:
 1511              		.loc 2 498 3 view .LVU579
 1512              		.loc 2 498 10 is_stmt 0 view .LVU580
 1513 0034 1BBA     		rev	r3, r3
 1514              	.LVL209:
 1515              		.loc 2 498 10 view .LVU581
 1516              	.LBE311:
 1517              	.LBE310:
 1518              		.loc 1 556 41 view .LVU582
 1519 0036 0293     		str	r3, [sp, #8]
 557:Libraries/STM32F4xx_StdPeriph_Driver/src/stm32f4xx_cryp_aes.c ****   ivaddr+=4;
 1520              		.loc 1 557 3 is_stmt 1 view .LVU583
 1521              	.LVL210:
 558:Libraries/STM32F4xx_StdPeriph_Driver/src/stm32f4xx_cryp_aes.c ****   AES_CRYP_IVInitStructure.CRYP_IV0Right= __REV(*(uint32_t*)(ivaddr));
 1522              		.loc 1 558 3 view .LVU584
 1523              		.loc 1 558 43 is_stmt 0 view .LVU585
 1524 0038 6B68     		ldr	r3, [r5, #4]
 1525              	.LVL211:
 1526              	.LBB312:
 1527              	.LBI312:
 495:Libraries/CMSIS/Include/core_cmInstr.h **** {
 1528              		.loc 2 495 57 is_stmt 1 view .LVU586
 1529              	.LBB313:
 1530              		.loc 2 498 3 view .LVU587
 1531              		.loc 2 498 10 is_stmt 0 view .LVU588
 1532 003a 1BBA     		rev	r3, r3
 1533              	.LVL212:
 1534              		.loc 2 498 10 view .LVU589
 1535              	.LBE313:
 1536              	.LBE312:
 1537              		.loc 1 558 41 view .LVU590
 1538 003c 0393     		str	r3, [sp, #12]
 559:Libraries/STM32F4xx_StdPeriph_Driver/src/stm32f4xx_cryp_aes.c ****   ivaddr+=4;
 1539              		.loc 1 559 3 is_stmt 1 view .LVU591
 1540              	.LVL213:
 560:Libraries/STM32F4xx_StdPeriph_Driver/src/stm32f4xx_cryp_aes.c ****   AES_CRYP_IVInitStructure.CRYP_IV1Left = __REV(*(uint32_t*)(ivaddr));
 1541              		.loc 1 560 3 view .LVU592
 1542              		.loc 1 560 43 is_stmt 0 view .LVU593
 1543 003e AB68     		ldr	r3, [r5, #8]
 1544              	.LVL214:
 1545              	.LBB314:
 1546              	.LBI314:
ARM GAS  /tmp/ccklj7FS.s 			page 51


 495:Libraries/CMSIS/Include/core_cmInstr.h **** {
 1547              		.loc 2 495 57 is_stmt 1 view .LVU594
 1548              	.LBB315:
 1549              		.loc 2 498 3 view .LVU595
 1550              		.loc 2 498 10 is_stmt 0 view .LVU596
 1551 0040 1BBA     		rev	r3, r3
 1552              	.LVL215:
 1553              		.loc 2 498 10 view .LVU597
 1554              	.LBE315:
 1555              	.LBE314:
 1556              		.loc 1 560 41 view .LVU598
 1557 0042 0493     		str	r3, [sp, #16]
 561:Libraries/STM32F4xx_StdPeriph_Driver/src/stm32f4xx_cryp_aes.c ****   ivaddr+=4;
 1558              		.loc 1 561 3 is_stmt 1 view .LVU599
 1559              	.LVL216:
 562:Libraries/STM32F4xx_StdPeriph_Driver/src/stm32f4xx_cryp_aes.c ****   AES_CRYP_IVInitStructure.CRYP_IV1Right= __REV(*(uint32_t*)(ivaddr));
 1560              		.loc 1 562 3 view .LVU600
 1561              		.loc 1 562 43 is_stmt 0 view .LVU601
 1562 0044 EB68     		ldr	r3, [r5, #12]
 1563              	.LVL217:
 1564              	.LBB316:
 1565              	.LBI316:
 495:Libraries/CMSIS/Include/core_cmInstr.h **** {
 1566              		.loc 2 495 57 is_stmt 1 view .LVU602
 1567              	.LBB317:
 1568              		.loc 2 498 3 view .LVU603
 1569              		.loc 2 498 10 is_stmt 0 view .LVU604
 1570 0046 1BBA     		rev	r3, r3
 1571              	.LVL218:
 1572              		.loc 2 498 10 view .LVU605
 1573              	.LBE317:
 1574              	.LBE316:
 1575              		.loc 1 562 41 view .LVU606
 1576 0048 0593     		str	r3, [sp, #20]
 563:Libraries/STM32F4xx_StdPeriph_Driver/src/stm32f4xx_cryp_aes.c **** 
 564:Libraries/STM32F4xx_StdPeriph_Driver/src/stm32f4xx_cryp_aes.c ****   /* Key Initialisation */
 565:Libraries/STM32F4xx_StdPeriph_Driver/src/stm32f4xx_cryp_aes.c ****   CRYP_KeyInit(&AES_CRYP_KeyInitStructure);
 1577              		.loc 1 565 3 is_stmt 1 view .LVU607
 1578 004a 06A8     		add	r0, sp, #24
 1579 004c FFF7FEFF 		bl	CRYP_KeyInit
 1580              	.LVL219:
 566:Libraries/STM32F4xx_StdPeriph_Driver/src/stm32f4xx_cryp_aes.c **** 
 567:Libraries/STM32F4xx_StdPeriph_Driver/src/stm32f4xx_cryp_aes.c ****   /*------------------ AES Decryption ------------------*/
 568:Libraries/STM32F4xx_StdPeriph_Driver/src/stm32f4xx_cryp_aes.c ****   if(Mode == MODE_DECRYPT) /* AES decryption */
 1581              		.loc 1 568 3 view .LVU608
 1582              		.loc 1 568 5 is_stmt 0 view .LVU609
 1583 0050 BAF1000F 		cmp	r10, #0
 1584 0054 59D1     		bne	.L43
 569:Libraries/STM32F4xx_StdPeriph_Driver/src/stm32f4xx_cryp_aes.c ****   {
 570:Libraries/STM32F4xx_StdPeriph_Driver/src/stm32f4xx_cryp_aes.c ****     /* Crypto Init for decryption process */
 571:Libraries/STM32F4xx_StdPeriph_Driver/src/stm32f4xx_cryp_aes.c ****     AES_CRYP_InitStructure.CRYP_AlgoDir = CRYP_AlgoDir_Decrypt;
 1585              		.loc 1 571 5 is_stmt 1 view .LVU610
 1586              		.loc 1 571 41 is_stmt 0 view .LVU611
 1587 0056 0423     		movs	r3, #4
 1588 0058 0E93     		str	r3, [sp, #56]
 1589              	.L44:
 572:Libraries/STM32F4xx_StdPeriph_Driver/src/stm32f4xx_cryp_aes.c ****   }
ARM GAS  /tmp/ccklj7FS.s 			page 52


 573:Libraries/STM32F4xx_StdPeriph_Driver/src/stm32f4xx_cryp_aes.c ****   /*------------------ AES Encryption ------------------*/
 574:Libraries/STM32F4xx_StdPeriph_Driver/src/stm32f4xx_cryp_aes.c ****   else /* AES encryption */
 575:Libraries/STM32F4xx_StdPeriph_Driver/src/stm32f4xx_cryp_aes.c ****   {
 576:Libraries/STM32F4xx_StdPeriph_Driver/src/stm32f4xx_cryp_aes.c ****     /* Crypto Init for Encryption process */
 577:Libraries/STM32F4xx_StdPeriph_Driver/src/stm32f4xx_cryp_aes.c ****     AES_CRYP_InitStructure.CRYP_AlgoDir = CRYP_AlgoDir_Encrypt;
 578:Libraries/STM32F4xx_StdPeriph_Driver/src/stm32f4xx_cryp_aes.c ****   }
 579:Libraries/STM32F4xx_StdPeriph_Driver/src/stm32f4xx_cryp_aes.c ****   AES_CRYP_InitStructure.CRYP_AlgoMode = CRYP_AlgoMode_AES_CTR;
 1590              		.loc 1 579 3 is_stmt 1 view .LVU612
 1591              		.loc 1 579 40 is_stmt 0 view .LVU613
 1592 005a 3023     		movs	r3, #48
 1593 005c 0F93     		str	r3, [sp, #60]
 580:Libraries/STM32F4xx_StdPeriph_Driver/src/stm32f4xx_cryp_aes.c ****   AES_CRYP_InitStructure.CRYP_DataType = CRYP_DataType_8b;
 1594              		.loc 1 580 3 is_stmt 1 view .LVU614
 1595              		.loc 1 580 40 is_stmt 0 view .LVU615
 1596 005e 8023     		movs	r3, #128
 1597 0060 1093     		str	r3, [sp, #64]
 581:Libraries/STM32F4xx_StdPeriph_Driver/src/stm32f4xx_cryp_aes.c ****   CRYP_Init(&AES_CRYP_InitStructure);
 1598              		.loc 1 581 3 is_stmt 1 view .LVU616
 1599 0062 0EA8     		add	r0, sp, #56
 1600 0064 FFF7FEFF 		bl	CRYP_Init
 1601              	.LVL220:
 582:Libraries/STM32F4xx_StdPeriph_Driver/src/stm32f4xx_cryp_aes.c **** 
 583:Libraries/STM32F4xx_StdPeriph_Driver/src/stm32f4xx_cryp_aes.c ****   /* CRYP Initialization Vectors */
 584:Libraries/STM32F4xx_StdPeriph_Driver/src/stm32f4xx_cryp_aes.c ****   CRYP_IVInit(&AES_CRYP_IVInitStructure);
 1602              		.loc 1 584 3 view .LVU617
 1603 0068 02A8     		add	r0, sp, #8
 1604 006a FFF7FEFF 		bl	CRYP_IVInit
 1605              	.LVL221:
 585:Libraries/STM32F4xx_StdPeriph_Driver/src/stm32f4xx_cryp_aes.c **** 
 586:Libraries/STM32F4xx_StdPeriph_Driver/src/stm32f4xx_cryp_aes.c ****   /* Flush IN/OUT FIFOs */
 587:Libraries/STM32F4xx_StdPeriph_Driver/src/stm32f4xx_cryp_aes.c ****   CRYP_FIFOFlush();
 1606              		.loc 1 587 3 view .LVU618
 1607 006e FFF7FEFF 		bl	CRYP_FIFOFlush
 1608              	.LVL222:
 588:Libraries/STM32F4xx_StdPeriph_Driver/src/stm32f4xx_cryp_aes.c **** 
 589:Libraries/STM32F4xx_StdPeriph_Driver/src/stm32f4xx_cryp_aes.c ****   /* Enable Crypto processor */
 590:Libraries/STM32F4xx_StdPeriph_Driver/src/stm32f4xx_cryp_aes.c ****   CRYP_Cmd(ENABLE);
 1609              		.loc 1 590 3 view .LVU619
 1610 0072 0120     		movs	r0, #1
 1611 0074 FFF7FEFF 		bl	CRYP_Cmd
 1612              	.LVL223:
 591:Libraries/STM32F4xx_StdPeriph_Driver/src/stm32f4xx_cryp_aes.c **** 
 592:Libraries/STM32F4xx_StdPeriph_Driver/src/stm32f4xx_cryp_aes.c ****   if(CRYP_GetCmdStatus() == DISABLE)
 1613              		.loc 1 592 3 view .LVU620
 1614              		.loc 1 592 6 is_stmt 0 view .LVU621
 1615 0078 FFF7FEFF 		bl	CRYP_GetCmdStatus
 1616              	.LVL224:
 1617              		.loc 1 592 5 view .LVU622
 1618 007c 0646     		mov	r6, r0
 1619              	.LVL225:
 1620              		.loc 1 592 5 view .LVU623
 1621 007e 0028     		cmp	r0, #0
 1622 0080 79D0     		beq	.L45
 593:Libraries/STM32F4xx_StdPeriph_Driver/src/stm32f4xx_cryp_aes.c ****   {
 594:Libraries/STM32F4xx_StdPeriph_Driver/src/stm32f4xx_cryp_aes.c ****     /* The CRYP peripheral clock is not enabled or the device doesn't embed 
 595:Libraries/STM32F4xx_StdPeriph_Driver/src/stm32f4xx_cryp_aes.c ****        the CRYP peripheral (please check the device sales type. */
 596:Libraries/STM32F4xx_StdPeriph_Driver/src/stm32f4xx_cryp_aes.c ****     return(ERROR);
ARM GAS  /tmp/ccklj7FS.s 			page 53


 597:Libraries/STM32F4xx_StdPeriph_Driver/src/stm32f4xx_cryp_aes.c ****   }
 598:Libraries/STM32F4xx_StdPeriph_Driver/src/stm32f4xx_cryp_aes.c ****   
 599:Libraries/STM32F4xx_StdPeriph_Driver/src/stm32f4xx_cryp_aes.c ****   for(i=0; ((i<Ilength) && (status != ERROR)); i+=16)
 1623              		.loc 1 599 8 view .LVU624
 1624 0082 0025     		movs	r5, #0
 1625              	.LVL226:
 498:Libraries/STM32F4xx_StdPeriph_Driver/src/stm32f4xx_cryp_aes.c ****   uint32_t keyaddr    = (uint32_t)Key;
 1626              		.loc 1 498 15 view .LVU625
 1627 0084 0126     		movs	r6, #1
 1628 0086 46E0     		b	.L46
 1629              	.LVL227:
 1630              	.L54:
 511:Libraries/STM32F4xx_StdPeriph_Driver/src/stm32f4xx_cryp_aes.c ****     AES_CRYP_KeyInitStructure.CRYP_Key2Left = __REV(*(uint32_t*)(keyaddr));
 1631              		.loc 1 511 5 is_stmt 1 view .LVU626
 511:Libraries/STM32F4xx_StdPeriph_Driver/src/stm32f4xx_cryp_aes.c ****     AES_CRYP_KeyInitStructure.CRYP_Key2Left = __REV(*(uint32_t*)(keyaddr));
 1632              		.loc 1 511 41 is_stmt 0 view .LVU627
 1633 0088 0023     		movs	r3, #0
 1634 008a 1193     		str	r3, [sp, #68]
 512:Libraries/STM32F4xx_StdPeriph_Driver/src/stm32f4xx_cryp_aes.c ****     keyaddr+=4;
 1635              		.loc 1 512 5 is_stmt 1 view .LVU628
 512:Libraries/STM32F4xx_StdPeriph_Driver/src/stm32f4xx_cryp_aes.c ****     keyaddr+=4;
 1636              		.loc 1 512 47 is_stmt 0 view .LVU629
 1637 008c 3368     		ldr	r3, [r6]
 1638              	.LVL228:
 1639              	.LBB318:
 1640              	.LBI318:
 495:Libraries/CMSIS/Include/core_cmInstr.h **** {
 1641              		.loc 2 495 57 is_stmt 1 view .LVU630
 1642              	.LBB319:
 1643              		.loc 2 498 3 view .LVU631
 1644              		.loc 2 498 10 is_stmt 0 view .LVU632
 1645 008e 1BBA     		rev	r3, r3
 1646              	.LVL229:
 1647              		.loc 2 498 10 view .LVU633
 1648              	.LBE319:
 1649              	.LBE318:
 512:Libraries/STM32F4xx_StdPeriph_Driver/src/stm32f4xx_cryp_aes.c ****     keyaddr+=4;
 1650              		.loc 1 512 45 view .LVU634
 1651 0090 0A93     		str	r3, [sp, #40]
 513:Libraries/STM32F4xx_StdPeriph_Driver/src/stm32f4xx_cryp_aes.c ****     AES_CRYP_KeyInitStructure.CRYP_Key2Right= __REV(*(uint32_t*)(keyaddr));
 1652              		.loc 1 513 5 is_stmt 1 view .LVU635
 1653              	.LVL230:
 514:Libraries/STM32F4xx_StdPeriph_Driver/src/stm32f4xx_cryp_aes.c ****     keyaddr+=4;
 1654              		.loc 1 514 5 view .LVU636
 514:Libraries/STM32F4xx_StdPeriph_Driver/src/stm32f4xx_cryp_aes.c ****     keyaddr+=4;
 1655              		.loc 1 514 47 is_stmt 0 view .LVU637
 1656 0092 7368     		ldr	r3, [r6, #4]
 1657              	.LVL231:
 1658              	.LBB320:
 1659              	.LBI320:
 495:Libraries/CMSIS/Include/core_cmInstr.h **** {
 1660              		.loc 2 495 57 is_stmt 1 view .LVU638
 1661              	.LBB321:
 1662              		.loc 2 498 3 view .LVU639
 1663              		.loc 2 498 10 is_stmt 0 view .LVU640
 1664 0094 1BBA     		rev	r3, r3
 1665              	.LVL232:
ARM GAS  /tmp/ccklj7FS.s 			page 54


 1666              		.loc 2 498 10 view .LVU641
 1667              	.LBE321:
 1668              	.LBE320:
 514:Libraries/STM32F4xx_StdPeriph_Driver/src/stm32f4xx_cryp_aes.c ****     keyaddr+=4;
 1669              		.loc 1 514 45 view .LVU642
 1670 0096 0B93     		str	r3, [sp, #44]
 515:Libraries/STM32F4xx_StdPeriph_Driver/src/stm32f4xx_cryp_aes.c ****     AES_CRYP_KeyInitStructure.CRYP_Key3Left = __REV(*(uint32_t*)(keyaddr));
 1671              		.loc 1 515 5 is_stmt 1 view .LVU643
 1672              	.LVL233:
 516:Libraries/STM32F4xx_StdPeriph_Driver/src/stm32f4xx_cryp_aes.c ****     keyaddr+=4;
 1673              		.loc 1 516 5 view .LVU644
 516:Libraries/STM32F4xx_StdPeriph_Driver/src/stm32f4xx_cryp_aes.c ****     keyaddr+=4;
 1674              		.loc 1 516 47 is_stmt 0 view .LVU645
 1675 0098 B368     		ldr	r3, [r6, #8]
 1676              	.LVL234:
 1677              	.LBB322:
 1678              	.LBI322:
 495:Libraries/CMSIS/Include/core_cmInstr.h **** {
 1679              		.loc 2 495 57 is_stmt 1 view .LVU646
 1680              	.LBB323:
 1681              		.loc 2 498 3 view .LVU647
 1682              		.loc 2 498 10 is_stmt 0 view .LVU648
 1683 009a 1BBA     		rev	r3, r3
 1684              	.LVL235:
 1685              		.loc 2 498 10 view .LVU649
 1686              	.LBE323:
 1687              	.LBE322:
 516:Libraries/STM32F4xx_StdPeriph_Driver/src/stm32f4xx_cryp_aes.c ****     keyaddr+=4;
 1688              		.loc 1 516 45 view .LVU650
 1689 009c 0C93     		str	r3, [sp, #48]
 517:Libraries/STM32F4xx_StdPeriph_Driver/src/stm32f4xx_cryp_aes.c ****     AES_CRYP_KeyInitStructure.CRYP_Key3Right= __REV(*(uint32_t*)(keyaddr));
 1690              		.loc 1 517 5 is_stmt 1 view .LVU651
 1691              	.LVL236:
 518:Libraries/STM32F4xx_StdPeriph_Driver/src/stm32f4xx_cryp_aes.c ****     break;
 1692              		.loc 1 518 5 view .LVU652
 518:Libraries/STM32F4xx_StdPeriph_Driver/src/stm32f4xx_cryp_aes.c ****     break;
 1693              		.loc 1 518 47 is_stmt 0 view .LVU653
 1694 009e F368     		ldr	r3, [r6, #12]
 1695              	.LVL237:
 1696              	.LBB324:
 1697              	.LBI324:
 495:Libraries/CMSIS/Include/core_cmInstr.h **** {
 1698              		.loc 2 495 57 is_stmt 1 view .LVU654
 1699              	.LBB325:
 1700              		.loc 2 498 3 view .LVU655
 1701              		.loc 2 498 10 is_stmt 0 view .LVU656
 1702 00a0 1BBA     		rev	r3, r3
 1703              	.LVL238:
 1704              		.loc 2 498 10 view .LVU657
 1705              	.LBE325:
 1706              	.LBE324:
 518:Libraries/STM32F4xx_StdPeriph_Driver/src/stm32f4xx_cryp_aes.c ****     break;
 1707              		.loc 1 518 45 view .LVU658
 1708 00a2 0D93     		str	r3, [sp, #52]
 519:Libraries/STM32F4xx_StdPeriph_Driver/src/stm32f4xx_cryp_aes.c ****     case 192:
 1709              		.loc 1 519 5 is_stmt 1 view .LVU659
 1710 00a4 C5E7     		b	.L42
ARM GAS  /tmp/ccklj7FS.s 			page 55


 1711              	.LVL239:
 1712              	.L40:
 521:Libraries/STM32F4xx_StdPeriph_Driver/src/stm32f4xx_cryp_aes.c ****     AES_CRYP_KeyInitStructure.CRYP_Key1Left = __REV(*(uint32_t*)(keyaddr));
 1713              		.loc 1 521 5 view .LVU660
 521:Libraries/STM32F4xx_StdPeriph_Driver/src/stm32f4xx_cryp_aes.c ****     AES_CRYP_KeyInitStructure.CRYP_Key1Left = __REV(*(uint32_t*)(keyaddr));
 1714              		.loc 1 521 42 is_stmt 0 view .LVU661
 1715 00a6 4FF48073 		mov	r3, #256
 1716 00aa 1193     		str	r3, [sp, #68]
 522:Libraries/STM32F4xx_StdPeriph_Driver/src/stm32f4xx_cryp_aes.c ****     keyaddr+=4;
 1717              		.loc 1 522 5 is_stmt 1 view .LVU662
 522:Libraries/STM32F4xx_StdPeriph_Driver/src/stm32f4xx_cryp_aes.c ****     keyaddr+=4;
 1718              		.loc 1 522 47 is_stmt 0 view .LVU663
 1719 00ac 3368     		ldr	r3, [r6]
 1720              	.LVL240:
 1721              	.LBB326:
 1722              	.LBI326:
 495:Libraries/CMSIS/Include/core_cmInstr.h **** {
 1723              		.loc 2 495 57 is_stmt 1 view .LVU664
 1724              	.LBB327:
 1725              		.loc 2 498 3 view .LVU665
 1726              		.loc 2 498 10 is_stmt 0 view .LVU666
 1727 00ae 1BBA     		rev	r3, r3
 1728              	.LVL241:
 1729              		.loc 2 498 10 view .LVU667
 1730              	.LBE327:
 1731              	.LBE326:
 522:Libraries/STM32F4xx_StdPeriph_Driver/src/stm32f4xx_cryp_aes.c ****     keyaddr+=4;
 1732              		.loc 1 522 45 view .LVU668
 1733 00b0 0893     		str	r3, [sp, #32]
 523:Libraries/STM32F4xx_StdPeriph_Driver/src/stm32f4xx_cryp_aes.c ****     AES_CRYP_KeyInitStructure.CRYP_Key1Right= __REV(*(uint32_t*)(keyaddr));
 1734              		.loc 1 523 5 is_stmt 1 view .LVU669
 1735              	.LVL242:
 524:Libraries/STM32F4xx_StdPeriph_Driver/src/stm32f4xx_cryp_aes.c ****     keyaddr+=4;
 1736              		.loc 1 524 5 view .LVU670
 524:Libraries/STM32F4xx_StdPeriph_Driver/src/stm32f4xx_cryp_aes.c ****     keyaddr+=4;
 1737              		.loc 1 524 47 is_stmt 0 view .LVU671
 1738 00b2 7368     		ldr	r3, [r6, #4]
 1739              	.LVL243:
 1740              	.LBB328:
 1741              	.LBI328:
 495:Libraries/CMSIS/Include/core_cmInstr.h **** {
 1742              		.loc 2 495 57 is_stmt 1 view .LVU672
 1743              	.LBB329:
 1744              		.loc 2 498 3 view .LVU673
 1745              		.loc 2 498 10 is_stmt 0 view .LVU674
 1746 00b4 1BBA     		rev	r3, r3
 1747              	.LVL244:
 1748              		.loc 2 498 10 view .LVU675
 1749              	.LBE329:
 1750              	.LBE328:
 524:Libraries/STM32F4xx_StdPeriph_Driver/src/stm32f4xx_cryp_aes.c ****     keyaddr+=4;
 1751              		.loc 1 524 45 view .LVU676
 1752 00b6 0993     		str	r3, [sp, #36]
 525:Libraries/STM32F4xx_StdPeriph_Driver/src/stm32f4xx_cryp_aes.c ****     AES_CRYP_KeyInitStructure.CRYP_Key2Left = __REV(*(uint32_t*)(keyaddr));
 1753              		.loc 1 525 5 is_stmt 1 view .LVU677
 1754              	.LVL245:
 526:Libraries/STM32F4xx_StdPeriph_Driver/src/stm32f4xx_cryp_aes.c ****     keyaddr+=4;
ARM GAS  /tmp/ccklj7FS.s 			page 56


 1755              		.loc 1 526 5 view .LVU678
 526:Libraries/STM32F4xx_StdPeriph_Driver/src/stm32f4xx_cryp_aes.c ****     keyaddr+=4;
 1756              		.loc 1 526 47 is_stmt 0 view .LVU679
 1757 00b8 B368     		ldr	r3, [r6, #8]
 1758              	.LVL246:
 1759              	.LBB330:
 1760              	.LBI330:
 495:Libraries/CMSIS/Include/core_cmInstr.h **** {
 1761              		.loc 2 495 57 is_stmt 1 view .LVU680
 1762              	.LBB331:
 1763              		.loc 2 498 3 view .LVU681
 1764              		.loc 2 498 10 is_stmt 0 view .LVU682
 1765 00ba 1BBA     		rev	r3, r3
 1766              	.LVL247:
 1767              		.loc 2 498 10 view .LVU683
 1768              	.LBE331:
 1769              	.LBE330:
 526:Libraries/STM32F4xx_StdPeriph_Driver/src/stm32f4xx_cryp_aes.c ****     keyaddr+=4;
 1770              		.loc 1 526 45 view .LVU684
 1771 00bc 0A93     		str	r3, [sp, #40]
 527:Libraries/STM32F4xx_StdPeriph_Driver/src/stm32f4xx_cryp_aes.c ****     AES_CRYP_KeyInitStructure.CRYP_Key2Right= __REV(*(uint32_t*)(keyaddr));
 1772              		.loc 1 527 5 is_stmt 1 view .LVU685
 1773              	.LVL248:
 528:Libraries/STM32F4xx_StdPeriph_Driver/src/stm32f4xx_cryp_aes.c ****     keyaddr+=4;
 1774              		.loc 1 528 5 view .LVU686
 528:Libraries/STM32F4xx_StdPeriph_Driver/src/stm32f4xx_cryp_aes.c ****     keyaddr+=4;
 1775              		.loc 1 528 47 is_stmt 0 view .LVU687
 1776 00be F368     		ldr	r3, [r6, #12]
 1777              	.LVL249:
 1778              	.LBB332:
 1779              	.LBI332:
 495:Libraries/CMSIS/Include/core_cmInstr.h **** {
 1780              		.loc 2 495 57 is_stmt 1 view .LVU688
 1781              	.LBB333:
 1782              		.loc 2 498 3 view .LVU689
 1783              		.loc 2 498 10 is_stmt 0 view .LVU690
 1784 00c0 1BBA     		rev	r3, r3
 1785              	.LVL250:
 1786              		.loc 2 498 10 view .LVU691
 1787              	.LBE333:
 1788              	.LBE332:
 528:Libraries/STM32F4xx_StdPeriph_Driver/src/stm32f4xx_cryp_aes.c ****     keyaddr+=4;
 1789              		.loc 1 528 45 view .LVU692
 1790 00c2 0B93     		str	r3, [sp, #44]
 529:Libraries/STM32F4xx_StdPeriph_Driver/src/stm32f4xx_cryp_aes.c ****     AES_CRYP_KeyInitStructure.CRYP_Key3Left = __REV(*(uint32_t*)(keyaddr));
 1791              		.loc 1 529 5 is_stmt 1 view .LVU693
 1792              	.LVL251:
 530:Libraries/STM32F4xx_StdPeriph_Driver/src/stm32f4xx_cryp_aes.c ****     keyaddr+=4;
 1793              		.loc 1 530 5 view .LVU694
 530:Libraries/STM32F4xx_StdPeriph_Driver/src/stm32f4xx_cryp_aes.c ****     keyaddr+=4;
 1794              		.loc 1 530 47 is_stmt 0 view .LVU695
 1795 00c4 3369     		ldr	r3, [r6, #16]
 1796              	.LVL252:
 1797              	.LBB334:
 1798              	.LBI334:
 495:Libraries/CMSIS/Include/core_cmInstr.h **** {
 1799              		.loc 2 495 57 is_stmt 1 view .LVU696
ARM GAS  /tmp/ccklj7FS.s 			page 57


 1800              	.LBB335:
 1801              		.loc 2 498 3 view .LVU697
 1802              		.loc 2 498 10 is_stmt 0 view .LVU698
 1803 00c6 1BBA     		rev	r3, r3
 1804              	.LVL253:
 1805              		.loc 2 498 10 view .LVU699
 1806              	.LBE335:
 1807              	.LBE334:
 530:Libraries/STM32F4xx_StdPeriph_Driver/src/stm32f4xx_cryp_aes.c ****     keyaddr+=4;
 1808              		.loc 1 530 45 view .LVU700
 1809 00c8 0C93     		str	r3, [sp, #48]
 531:Libraries/STM32F4xx_StdPeriph_Driver/src/stm32f4xx_cryp_aes.c ****     AES_CRYP_KeyInitStructure.CRYP_Key3Right= __REV(*(uint32_t*)(keyaddr));
 1810              		.loc 1 531 5 is_stmt 1 view .LVU701
 1811              	.LVL254:
 532:Libraries/STM32F4xx_StdPeriph_Driver/src/stm32f4xx_cryp_aes.c ****     break;
 1812              		.loc 1 532 5 view .LVU702
 532:Libraries/STM32F4xx_StdPeriph_Driver/src/stm32f4xx_cryp_aes.c ****     break;
 1813              		.loc 1 532 47 is_stmt 0 view .LVU703
 1814 00ca 7369     		ldr	r3, [r6, #20]
 1815              	.LVL255:
 1816              	.LBB336:
 1817              	.LBI336:
 495:Libraries/CMSIS/Include/core_cmInstr.h **** {
 1818              		.loc 2 495 57 is_stmt 1 view .LVU704
 1819              	.LBB337:
 1820              		.loc 2 498 3 view .LVU705
 1821              		.loc 2 498 10 is_stmt 0 view .LVU706
 1822 00cc 1BBA     		rev	r3, r3
 1823              	.LVL256:
 1824              		.loc 2 498 10 view .LVU707
 1825              	.LBE337:
 1826              	.LBE336:
 532:Libraries/STM32F4xx_StdPeriph_Driver/src/stm32f4xx_cryp_aes.c ****     break;
 1827              		.loc 1 532 45 view .LVU708
 1828 00ce 0D93     		str	r3, [sp, #52]
 533:Libraries/STM32F4xx_StdPeriph_Driver/src/stm32f4xx_cryp_aes.c ****     case 256:
 1829              		.loc 1 533 5 is_stmt 1 view .LVU709
 1830 00d0 AFE7     		b	.L42
 1831              	.LVL257:
 1832              	.L41:
 535:Libraries/STM32F4xx_StdPeriph_Driver/src/stm32f4xx_cryp_aes.c ****     AES_CRYP_KeyInitStructure.CRYP_Key0Left = __REV(*(uint32_t*)(keyaddr));
 1833              		.loc 1 535 5 view .LVU710
 535:Libraries/STM32F4xx_StdPeriph_Driver/src/stm32f4xx_cryp_aes.c ****     AES_CRYP_KeyInitStructure.CRYP_Key0Left = __REV(*(uint32_t*)(keyaddr));
 1834              		.loc 1 535 42 is_stmt 0 view .LVU711
 1835 00d2 4FF40073 		mov	r3, #512
 1836 00d6 1193     		str	r3, [sp, #68]
 536:Libraries/STM32F4xx_StdPeriph_Driver/src/stm32f4xx_cryp_aes.c ****     keyaddr+=4;
 1837              		.loc 1 536 5 is_stmt 1 view .LVU712
 536:Libraries/STM32F4xx_StdPeriph_Driver/src/stm32f4xx_cryp_aes.c ****     keyaddr+=4;
 1838              		.loc 1 536 47 is_stmt 0 view .LVU713
 1839 00d8 3368     		ldr	r3, [r6]
 1840              	.LVL258:
 1841              	.LBB338:
 1842              	.LBI338:
 495:Libraries/CMSIS/Include/core_cmInstr.h **** {
 1843              		.loc 2 495 57 is_stmt 1 view .LVU714
 1844              	.LBB339:
ARM GAS  /tmp/ccklj7FS.s 			page 58


 1845              		.loc 2 498 3 view .LVU715
 1846              		.loc 2 498 10 is_stmt 0 view .LVU716
 1847 00da 1BBA     		rev	r3, r3
 1848              	.LVL259:
 1849              		.loc 2 498 10 view .LVU717
 1850              	.LBE339:
 1851              	.LBE338:
 536:Libraries/STM32F4xx_StdPeriph_Driver/src/stm32f4xx_cryp_aes.c ****     keyaddr+=4;
 1852              		.loc 1 536 45 view .LVU718
 1853 00dc 0693     		str	r3, [sp, #24]
 537:Libraries/STM32F4xx_StdPeriph_Driver/src/stm32f4xx_cryp_aes.c ****     AES_CRYP_KeyInitStructure.CRYP_Key0Right= __REV(*(uint32_t*)(keyaddr));
 1854              		.loc 1 537 5 is_stmt 1 view .LVU719
 1855              	.LVL260:
 538:Libraries/STM32F4xx_StdPeriph_Driver/src/stm32f4xx_cryp_aes.c ****     keyaddr+=4;
 1856              		.loc 1 538 5 view .LVU720
 538:Libraries/STM32F4xx_StdPeriph_Driver/src/stm32f4xx_cryp_aes.c ****     keyaddr+=4;
 1857              		.loc 1 538 47 is_stmt 0 view .LVU721
 1858 00de 7368     		ldr	r3, [r6, #4]
 1859              	.LVL261:
 1860              	.LBB340:
 1861              	.LBI340:
 495:Libraries/CMSIS/Include/core_cmInstr.h **** {
 1862              		.loc 2 495 57 is_stmt 1 view .LVU722
 1863              	.LBB341:
 1864              		.loc 2 498 3 view .LVU723
 1865              		.loc 2 498 10 is_stmt 0 view .LVU724
 1866 00e0 1BBA     		rev	r3, r3
 1867              	.LVL262:
 1868              		.loc 2 498 10 view .LVU725
 1869              	.LBE341:
 1870              	.LBE340:
 538:Libraries/STM32F4xx_StdPeriph_Driver/src/stm32f4xx_cryp_aes.c ****     keyaddr+=4;
 1871              		.loc 1 538 45 view .LVU726
 1872 00e2 0793     		str	r3, [sp, #28]
 539:Libraries/STM32F4xx_StdPeriph_Driver/src/stm32f4xx_cryp_aes.c ****     AES_CRYP_KeyInitStructure.CRYP_Key1Left = __REV(*(uint32_t*)(keyaddr));
 1873              		.loc 1 539 5 is_stmt 1 view .LVU727
 1874              	.LVL263:
 540:Libraries/STM32F4xx_StdPeriph_Driver/src/stm32f4xx_cryp_aes.c ****     keyaddr+=4;
 1875              		.loc 1 540 5 view .LVU728
 540:Libraries/STM32F4xx_StdPeriph_Driver/src/stm32f4xx_cryp_aes.c ****     keyaddr+=4;
 1876              		.loc 1 540 47 is_stmt 0 view .LVU729
 1877 00e4 B368     		ldr	r3, [r6, #8]
 1878              	.LVL264:
 1879              	.LBB342:
 1880              	.LBI342:
 495:Libraries/CMSIS/Include/core_cmInstr.h **** {
 1881              		.loc 2 495 57 is_stmt 1 view .LVU730
 1882              	.LBB343:
 1883              		.loc 2 498 3 view .LVU731
 1884              		.loc 2 498 10 is_stmt 0 view .LVU732
 1885 00e6 1BBA     		rev	r3, r3
 1886              	.LVL265:
 1887              		.loc 2 498 10 view .LVU733
 1888              	.LBE343:
 1889              	.LBE342:
 540:Libraries/STM32F4xx_StdPeriph_Driver/src/stm32f4xx_cryp_aes.c ****     keyaddr+=4;
 1890              		.loc 1 540 45 view .LVU734
ARM GAS  /tmp/ccklj7FS.s 			page 59


 1891 00e8 0893     		str	r3, [sp, #32]
 541:Libraries/STM32F4xx_StdPeriph_Driver/src/stm32f4xx_cryp_aes.c ****     AES_CRYP_KeyInitStructure.CRYP_Key1Right= __REV(*(uint32_t*)(keyaddr));
 1892              		.loc 1 541 5 is_stmt 1 view .LVU735
 1893              	.LVL266:
 542:Libraries/STM32F4xx_StdPeriph_Driver/src/stm32f4xx_cryp_aes.c ****     keyaddr+=4;
 1894              		.loc 1 542 5 view .LVU736
 542:Libraries/STM32F4xx_StdPeriph_Driver/src/stm32f4xx_cryp_aes.c ****     keyaddr+=4;
 1895              		.loc 1 542 47 is_stmt 0 view .LVU737
 1896 00ea F368     		ldr	r3, [r6, #12]
 1897              	.LVL267:
 1898              	.LBB344:
 1899              	.LBI344:
 495:Libraries/CMSIS/Include/core_cmInstr.h **** {
 1900              		.loc 2 495 57 is_stmt 1 view .LVU738
 1901              	.LBB345:
 1902              		.loc 2 498 3 view .LVU739
 1903              		.loc 2 498 10 is_stmt 0 view .LVU740
 1904 00ec 1BBA     		rev	r3, r3
 1905              	.LVL268:
 1906              		.loc 2 498 10 view .LVU741
 1907              	.LBE345:
 1908              	.LBE344:
 542:Libraries/STM32F4xx_StdPeriph_Driver/src/stm32f4xx_cryp_aes.c ****     keyaddr+=4;
 1909              		.loc 1 542 45 view .LVU742
 1910 00ee 0993     		str	r3, [sp, #36]
 543:Libraries/STM32F4xx_StdPeriph_Driver/src/stm32f4xx_cryp_aes.c ****     AES_CRYP_KeyInitStructure.CRYP_Key2Left = __REV(*(uint32_t*)(keyaddr));
 1911              		.loc 1 543 5 is_stmt 1 view .LVU743
 1912              	.LVL269:
 544:Libraries/STM32F4xx_StdPeriph_Driver/src/stm32f4xx_cryp_aes.c ****     keyaddr+=4;
 1913              		.loc 1 544 5 view .LVU744
 544:Libraries/STM32F4xx_StdPeriph_Driver/src/stm32f4xx_cryp_aes.c ****     keyaddr+=4;
 1914              		.loc 1 544 47 is_stmt 0 view .LVU745
 1915 00f0 3369     		ldr	r3, [r6, #16]
 1916              	.LVL270:
 1917              	.LBB346:
 1918              	.LBI346:
 495:Libraries/CMSIS/Include/core_cmInstr.h **** {
 1919              		.loc 2 495 57 is_stmt 1 view .LVU746
 1920              	.LBB347:
 1921              		.loc 2 498 3 view .LVU747
 1922              		.loc 2 498 10 is_stmt 0 view .LVU748
 1923 00f2 1BBA     		rev	r3, r3
 1924              	.LVL271:
 1925              		.loc 2 498 10 view .LVU749
 1926              	.LBE347:
 1927              	.LBE346:
 544:Libraries/STM32F4xx_StdPeriph_Driver/src/stm32f4xx_cryp_aes.c ****     keyaddr+=4;
 1928              		.loc 1 544 45 view .LVU750
 1929 00f4 0A93     		str	r3, [sp, #40]
 545:Libraries/STM32F4xx_StdPeriph_Driver/src/stm32f4xx_cryp_aes.c ****     AES_CRYP_KeyInitStructure.CRYP_Key2Right= __REV(*(uint32_t*)(keyaddr));
 1930              		.loc 1 545 5 is_stmt 1 view .LVU751
 1931              	.LVL272:
 546:Libraries/STM32F4xx_StdPeriph_Driver/src/stm32f4xx_cryp_aes.c ****     keyaddr+=4;
 1932              		.loc 1 546 5 view .LVU752
 546:Libraries/STM32F4xx_StdPeriph_Driver/src/stm32f4xx_cryp_aes.c ****     keyaddr+=4;
 1933              		.loc 1 546 47 is_stmt 0 view .LVU753
 1934 00f6 7369     		ldr	r3, [r6, #20]
ARM GAS  /tmp/ccklj7FS.s 			page 60


 1935              	.LVL273:
 1936              	.LBB348:
 1937              	.LBI348:
 495:Libraries/CMSIS/Include/core_cmInstr.h **** {
 1938              		.loc 2 495 57 is_stmt 1 view .LVU754
 1939              	.LBB349:
 1940              		.loc 2 498 3 view .LVU755
 1941              		.loc 2 498 10 is_stmt 0 view .LVU756
 1942 00f8 1BBA     		rev	r3, r3
 1943              	.LVL274:
 1944              		.loc 2 498 10 view .LVU757
 1945              	.LBE349:
 1946              	.LBE348:
 546:Libraries/STM32F4xx_StdPeriph_Driver/src/stm32f4xx_cryp_aes.c ****     keyaddr+=4;
 1947              		.loc 1 546 45 view .LVU758
 1948 00fa 0B93     		str	r3, [sp, #44]
 547:Libraries/STM32F4xx_StdPeriph_Driver/src/stm32f4xx_cryp_aes.c ****     AES_CRYP_KeyInitStructure.CRYP_Key3Left = __REV(*(uint32_t*)(keyaddr));
 1949              		.loc 1 547 5 is_stmt 1 view .LVU759
 1950              	.LVL275:
 548:Libraries/STM32F4xx_StdPeriph_Driver/src/stm32f4xx_cryp_aes.c ****     keyaddr+=4;
 1951              		.loc 1 548 5 view .LVU760
 548:Libraries/STM32F4xx_StdPeriph_Driver/src/stm32f4xx_cryp_aes.c ****     keyaddr+=4;
 1952              		.loc 1 548 47 is_stmt 0 view .LVU761
 1953 00fc B369     		ldr	r3, [r6, #24]
 1954              	.LVL276:
 1955              	.LBB350:
 1956              	.LBI350:
 495:Libraries/CMSIS/Include/core_cmInstr.h **** {
 1957              		.loc 2 495 57 is_stmt 1 view .LVU762
 1958              	.LBB351:
 1959              		.loc 2 498 3 view .LVU763
 1960              		.loc 2 498 10 is_stmt 0 view .LVU764
 1961 00fe 1BBA     		rev	r3, r3
 1962              	.LVL277:
 1963              		.loc 2 498 10 view .LVU765
 1964              	.LBE351:
 1965              	.LBE350:
 548:Libraries/STM32F4xx_StdPeriph_Driver/src/stm32f4xx_cryp_aes.c ****     keyaddr+=4;
 1966              		.loc 1 548 45 view .LVU766
 1967 0100 0C93     		str	r3, [sp, #48]
 549:Libraries/STM32F4xx_StdPeriph_Driver/src/stm32f4xx_cryp_aes.c ****     AES_CRYP_KeyInitStructure.CRYP_Key3Right= __REV(*(uint32_t*)(keyaddr));
 1968              		.loc 1 549 5 is_stmt 1 view .LVU767
 1969              	.LVL278:
 550:Libraries/STM32F4xx_StdPeriph_Driver/src/stm32f4xx_cryp_aes.c ****     break;
 1970              		.loc 1 550 5 view .LVU768
 550:Libraries/STM32F4xx_StdPeriph_Driver/src/stm32f4xx_cryp_aes.c ****     break;
 1971              		.loc 1 550 47 is_stmt 0 view .LVU769
 1972 0102 F369     		ldr	r3, [r6, #28]
 1973              	.LVL279:
 1974              	.LBB352:
 1975              	.LBI352:
 495:Libraries/CMSIS/Include/core_cmInstr.h **** {
 1976              		.loc 2 495 57 is_stmt 1 view .LVU770
 1977              	.LBB353:
 1978              		.loc 2 498 3 view .LVU771
 1979              		.loc 2 498 10 is_stmt 0 view .LVU772
 1980 0104 1BBA     		rev	r3, r3
ARM GAS  /tmp/ccklj7FS.s 			page 61


 1981              	.LVL280:
 1982              		.loc 2 498 10 view .LVU773
 1983              	.LBE353:
 1984              	.LBE352:
 550:Libraries/STM32F4xx_StdPeriph_Driver/src/stm32f4xx_cryp_aes.c ****     break;
 1985              		.loc 1 550 45 view .LVU774
 1986 0106 0D93     		str	r3, [sp, #52]
 551:Libraries/STM32F4xx_StdPeriph_Driver/src/stm32f4xx_cryp_aes.c ****     default:
 1987              		.loc 1 551 5 is_stmt 1 view .LVU775
 1988 0108 93E7     		b	.L42
 1989              	.LVL281:
 1990              	.L43:
 577:Libraries/STM32F4xx_StdPeriph_Driver/src/stm32f4xx_cryp_aes.c ****   }
 1991              		.loc 1 577 5 view .LVU776
 577:Libraries/STM32F4xx_StdPeriph_Driver/src/stm32f4xx_cryp_aes.c ****   }
 1992              		.loc 1 577 41 is_stmt 0 view .LVU777
 1993 010a 0023     		movs	r3, #0
 1994 010c 0E93     		str	r3, [sp, #56]
 1995 010e A4E7     		b	.L44
 1996              	.LVL282:
 1997              	.L47:
 600:Libraries/STM32F4xx_StdPeriph_Driver/src/stm32f4xx_cryp_aes.c ****   {
 601:Libraries/STM32F4xx_StdPeriph_Driver/src/stm32f4xx_cryp_aes.c **** 
 602:Libraries/STM32F4xx_StdPeriph_Driver/src/stm32f4xx_cryp_aes.c ****     /* Write the Input block in the IN FIFO */
 603:Libraries/STM32F4xx_StdPeriph_Driver/src/stm32f4xx_cryp_aes.c ****     CRYP_DataIn(*(uint32_t*)(inputaddr));
 604:Libraries/STM32F4xx_StdPeriph_Driver/src/stm32f4xx_cryp_aes.c ****     inputaddr+=4;
 605:Libraries/STM32F4xx_StdPeriph_Driver/src/stm32f4xx_cryp_aes.c ****     CRYP_DataIn(*(uint32_t*)(inputaddr));
 606:Libraries/STM32F4xx_StdPeriph_Driver/src/stm32f4xx_cryp_aes.c ****     inputaddr+=4;
 607:Libraries/STM32F4xx_StdPeriph_Driver/src/stm32f4xx_cryp_aes.c ****     CRYP_DataIn(*(uint32_t*)(inputaddr));
 608:Libraries/STM32F4xx_StdPeriph_Driver/src/stm32f4xx_cryp_aes.c ****     inputaddr+=4;
 609:Libraries/STM32F4xx_StdPeriph_Driver/src/stm32f4xx_cryp_aes.c ****     CRYP_DataIn(*(uint32_t*)(inputaddr));
 610:Libraries/STM32F4xx_StdPeriph_Driver/src/stm32f4xx_cryp_aes.c ****     inputaddr+=4;
 611:Libraries/STM32F4xx_StdPeriph_Driver/src/stm32f4xx_cryp_aes.c ****     /* Wait until the complete message has been processed */
 612:Libraries/STM32F4xx_StdPeriph_Driver/src/stm32f4xx_cryp_aes.c ****     counter = 0;
 613:Libraries/STM32F4xx_StdPeriph_Driver/src/stm32f4xx_cryp_aes.c ****     do
 614:Libraries/STM32F4xx_StdPeriph_Driver/src/stm32f4xx_cryp_aes.c ****     {
 615:Libraries/STM32F4xx_StdPeriph_Driver/src/stm32f4xx_cryp_aes.c ****       busystatus = CRYP_GetFlagStatus(CRYP_FLAG_BUSY);
 616:Libraries/STM32F4xx_StdPeriph_Driver/src/stm32f4xx_cryp_aes.c ****       counter++;
 617:Libraries/STM32F4xx_StdPeriph_Driver/src/stm32f4xx_cryp_aes.c ****     }while ((counter != AESBUSY_TIMEOUT) && (busystatus != RESET));
 618:Libraries/STM32F4xx_StdPeriph_Driver/src/stm32f4xx_cryp_aes.c **** 
 619:Libraries/STM32F4xx_StdPeriph_Driver/src/stm32f4xx_cryp_aes.c ****     if (busystatus != RESET)
 1998              		.loc 1 619 5 is_stmt 1 view .LVU778
 1999              		.loc 1 619 8 is_stmt 0 view .LVU779
 2000 0110 00B3     		cbz	r0, .L55
 620:Libraries/STM32F4xx_StdPeriph_Driver/src/stm32f4xx_cryp_aes.c ****    {
 621:Libraries/STM32F4xx_StdPeriph_Driver/src/stm32f4xx_cryp_aes.c ****        status = ERROR;
 2001              		.loc 1 621 15 view .LVU780
 2002 0112 0026     		movs	r6, #0
 2003              	.LVL283:
 2004              	.L49:
 599:Libraries/STM32F4xx_StdPeriph_Driver/src/stm32f4xx_cryp_aes.c ****   {
 2005              		.loc 1 599 48 is_stmt 1 discriminator 2 view .LVU781
 599:Libraries/STM32F4xx_StdPeriph_Driver/src/stm32f4xx_cryp_aes.c ****   {
 2006              		.loc 1 599 49 is_stmt 0 discriminator 2 view .LVU782
 2007 0114 1035     		adds	r5, r5, #16
 2008              	.LVL284:
 2009              	.L46:
ARM GAS  /tmp/ccklj7FS.s 			page 62


 599:Libraries/STM32F4xx_StdPeriph_Driver/src/stm32f4xx_cryp_aes.c ****   {
 2010              		.loc 1 599 12 is_stmt 1 discriminator 1 view .LVU783
 599:Libraries/STM32F4xx_StdPeriph_Driver/src/stm32f4xx_cryp_aes.c ****   {
 2011              		.loc 1 599 3 is_stmt 0 discriminator 1 view .LVU784
 2012 0116 4545     		cmp	r5, r8
 2013 0118 2AD2     		bcs	.L50
 599:Libraries/STM32F4xx_StdPeriph_Driver/src/stm32f4xx_cryp_aes.c ****   {
 2014              		.loc 1 599 25 discriminator 3 view .LVU785
 2015 011a 4EB3     		cbz	r6, .L50
 603:Libraries/STM32F4xx_StdPeriph_Driver/src/stm32f4xx_cryp_aes.c ****     inputaddr+=4;
 2016              		.loc 1 603 5 is_stmt 1 view .LVU786
 2017 011c 2068     		ldr	r0, [r4]
 2018 011e FFF7FEFF 		bl	CRYP_DataIn
 2019              	.LVL285:
 604:Libraries/STM32F4xx_StdPeriph_Driver/src/stm32f4xx_cryp_aes.c ****     CRYP_DataIn(*(uint32_t*)(inputaddr));
 2020              		.loc 1 604 5 view .LVU787
 605:Libraries/STM32F4xx_StdPeriph_Driver/src/stm32f4xx_cryp_aes.c ****     inputaddr+=4;
 2021              		.loc 1 605 5 view .LVU788
 2022 0122 6068     		ldr	r0, [r4, #4]
 2023 0124 FFF7FEFF 		bl	CRYP_DataIn
 2024              	.LVL286:
 606:Libraries/STM32F4xx_StdPeriph_Driver/src/stm32f4xx_cryp_aes.c ****     CRYP_DataIn(*(uint32_t*)(inputaddr));
 2025              		.loc 1 606 5 view .LVU789
 607:Libraries/STM32F4xx_StdPeriph_Driver/src/stm32f4xx_cryp_aes.c ****     inputaddr+=4;
 2026              		.loc 1 607 5 view .LVU790
 2027 0128 A068     		ldr	r0, [r4, #8]
 2028 012a FFF7FEFF 		bl	CRYP_DataIn
 2029              	.LVL287:
 608:Libraries/STM32F4xx_StdPeriph_Driver/src/stm32f4xx_cryp_aes.c ****     CRYP_DataIn(*(uint32_t*)(inputaddr));
 2030              		.loc 1 608 5 view .LVU791
 609:Libraries/STM32F4xx_StdPeriph_Driver/src/stm32f4xx_cryp_aes.c ****     inputaddr+=4;
 2031              		.loc 1 609 5 view .LVU792
 2032 012e E068     		ldr	r0, [r4, #12]
 2033 0130 FFF7FEFF 		bl	CRYP_DataIn
 2034              	.LVL288:
 610:Libraries/STM32F4xx_StdPeriph_Driver/src/stm32f4xx_cryp_aes.c ****     /* Wait until the complete message has been processed */
 2035              		.loc 1 610 5 view .LVU793
 610:Libraries/STM32F4xx_StdPeriph_Driver/src/stm32f4xx_cryp_aes.c ****     /* Wait until the complete message has been processed */
 2036              		.loc 1 610 14 is_stmt 0 view .LVU794
 2037 0134 1034     		adds	r4, r4, #16
 2038              	.LVL289:
 612:Libraries/STM32F4xx_StdPeriph_Driver/src/stm32f4xx_cryp_aes.c ****     do
 2039              		.loc 1 612 5 is_stmt 1 view .LVU795
 612:Libraries/STM32F4xx_StdPeriph_Driver/src/stm32f4xx_cryp_aes.c ****     do
 2040              		.loc 1 612 13 is_stmt 0 view .LVU796
 2041 0136 0023     		movs	r3, #0
 2042 0138 0193     		str	r3, [sp, #4]
 2043              	.L48:
 613:Libraries/STM32F4xx_StdPeriph_Driver/src/stm32f4xx_cryp_aes.c ****     {
 2044              		.loc 1 613 5 is_stmt 1 discriminator 2 view .LVU797
 615:Libraries/STM32F4xx_StdPeriph_Driver/src/stm32f4xx_cryp_aes.c ****       counter++;
 2045              		.loc 1 615 7 discriminator 2 view .LVU798
 615:Libraries/STM32F4xx_StdPeriph_Driver/src/stm32f4xx_cryp_aes.c ****       counter++;
 2046              		.loc 1 615 20 is_stmt 0 discriminator 2 view .LVU799
 2047 013a 1020     		movs	r0, #16
 2048 013c FFF7FEFF 		bl	CRYP_GetFlagStatus
 2049              	.LVL290:
ARM GAS  /tmp/ccklj7FS.s 			page 63


 616:Libraries/STM32F4xx_StdPeriph_Driver/src/stm32f4xx_cryp_aes.c ****     }while ((counter != AESBUSY_TIMEOUT) && (busystatus != RESET));
 2050              		.loc 1 616 7 is_stmt 1 discriminator 2 view .LVU800
 616:Libraries/STM32F4xx_StdPeriph_Driver/src/stm32f4xx_cryp_aes.c ****     }while ((counter != AESBUSY_TIMEOUT) && (busystatus != RESET));
 2051              		.loc 1 616 14 is_stmt 0 discriminator 2 view .LVU801
 2052 0140 019B     		ldr	r3, [sp, #4]
 2053 0142 0133     		adds	r3, r3, #1
 2054 0144 0193     		str	r3, [sp, #4]
 617:Libraries/STM32F4xx_StdPeriph_Driver/src/stm32f4xx_cryp_aes.c **** 
 2055              		.loc 1 617 12 is_stmt 1 discriminator 2 view .LVU802
 617:Libraries/STM32F4xx_StdPeriph_Driver/src/stm32f4xx_cryp_aes.c **** 
 2056              		.loc 1 617 22 is_stmt 0 discriminator 2 view .LVU803
 2057 0146 019B     		ldr	r3, [sp, #4]
 617:Libraries/STM32F4xx_StdPeriph_Driver/src/stm32f4xx_cryp_aes.c **** 
 2058              		.loc 1 617 5 discriminator 2 view .LVU804
 2059 0148 B3F5803F 		cmp	r3, #65536
 2060 014c E0D0     		beq	.L47
 617:Libraries/STM32F4xx_StdPeriph_Driver/src/stm32f4xx_cryp_aes.c **** 
 2061              		.loc 1 617 42 discriminator 1 view .LVU805
 2062 014e 0028     		cmp	r0, #0
 2063 0150 F3D1     		bne	.L48
 2064 0152 DDE7     		b	.L47
 2065              	.L55:
 622:Libraries/STM32F4xx_StdPeriph_Driver/src/stm32f4xx_cryp_aes.c ****     }
 623:Libraries/STM32F4xx_StdPeriph_Driver/src/stm32f4xx_cryp_aes.c ****     else
 624:Libraries/STM32F4xx_StdPeriph_Driver/src/stm32f4xx_cryp_aes.c ****     {
 625:Libraries/STM32F4xx_StdPeriph_Driver/src/stm32f4xx_cryp_aes.c **** 
 626:Libraries/STM32F4xx_StdPeriph_Driver/src/stm32f4xx_cryp_aes.c ****       /* Read the Output block from the Output FIFO */
 627:Libraries/STM32F4xx_StdPeriph_Driver/src/stm32f4xx_cryp_aes.c ****       *(uint32_t*)(outputaddr) = CRYP_DataOut();
 2066              		.loc 1 627 7 is_stmt 1 view .LVU806
 2067              		.loc 1 627 34 is_stmt 0 view .LVU807
 2068 0154 FFF7FEFF 		bl	CRYP_DataOut
 2069              	.LVL291:
 2070              		.loc 1 627 32 view .LVU808
 2071 0158 3860     		str	r0, [r7]
 628:Libraries/STM32F4xx_StdPeriph_Driver/src/stm32f4xx_cryp_aes.c ****       outputaddr+=4;
 2072              		.loc 1 628 7 is_stmt 1 view .LVU809
 2073              	.LVL292:
 629:Libraries/STM32F4xx_StdPeriph_Driver/src/stm32f4xx_cryp_aes.c ****       *(uint32_t*)(outputaddr) = CRYP_DataOut();
 2074              		.loc 1 629 7 view .LVU810
 2075              		.loc 1 629 34 is_stmt 0 view .LVU811
 2076 015a FFF7FEFF 		bl	CRYP_DataOut
 2077              	.LVL293:
 2078              		.loc 1 629 32 view .LVU812
 2079 015e 7860     		str	r0, [r7, #4]
 630:Libraries/STM32F4xx_StdPeriph_Driver/src/stm32f4xx_cryp_aes.c ****       outputaddr+=4;
 2080              		.loc 1 630 7 is_stmt 1 view .LVU813
 2081              	.LVL294:
 631:Libraries/STM32F4xx_StdPeriph_Driver/src/stm32f4xx_cryp_aes.c ****       *(uint32_t*)(outputaddr) = CRYP_DataOut();
 2082              		.loc 1 631 7 view .LVU814
 2083              		.loc 1 631 34 is_stmt 0 view .LVU815
 2084 0160 FFF7FEFF 		bl	CRYP_DataOut
 2085              	.LVL295:
 2086              		.loc 1 631 32 view .LVU816
 2087 0164 B860     		str	r0, [r7, #8]
 632:Libraries/STM32F4xx_StdPeriph_Driver/src/stm32f4xx_cryp_aes.c ****       outputaddr+=4;
 2088              		.loc 1 632 7 is_stmt 1 view .LVU817
 2089              	.LVL296:
ARM GAS  /tmp/ccklj7FS.s 			page 64


 633:Libraries/STM32F4xx_StdPeriph_Driver/src/stm32f4xx_cryp_aes.c ****       *(uint32_t*)(outputaddr) = CRYP_DataOut();
 2090              		.loc 1 633 7 view .LVU818
 2091              		.loc 1 633 34 is_stmt 0 view .LVU819
 2092 0166 FFF7FEFF 		bl	CRYP_DataOut
 2093              	.LVL297:
 2094              		.loc 1 633 32 view .LVU820
 2095 016a F860     		str	r0, [r7, #12]
 634:Libraries/STM32F4xx_StdPeriph_Driver/src/stm32f4xx_cryp_aes.c ****       outputaddr+=4;
 2096              		.loc 1 634 7 is_stmt 1 view .LVU821
 2097              		.loc 1 634 17 is_stmt 0 view .LVU822
 2098 016c 1037     		adds	r7, r7, #16
 2099              	.LVL298:
 2100              		.loc 1 634 17 view .LVU823
 2101 016e D1E7     		b	.L49
 2102              	.L50:
 635:Libraries/STM32F4xx_StdPeriph_Driver/src/stm32f4xx_cryp_aes.c ****     }
 636:Libraries/STM32F4xx_StdPeriph_Driver/src/stm32f4xx_cryp_aes.c ****   }
 637:Libraries/STM32F4xx_StdPeriph_Driver/src/stm32f4xx_cryp_aes.c ****   /* Disable Crypto */
 638:Libraries/STM32F4xx_StdPeriph_Driver/src/stm32f4xx_cryp_aes.c ****   CRYP_Cmd(DISABLE);
 2103              		.loc 1 638 3 is_stmt 1 view .LVU824
 2104 0170 0020     		movs	r0, #0
 2105 0172 FFF7FEFF 		bl	CRYP_Cmd
 2106              	.LVL299:
 639:Libraries/STM32F4xx_StdPeriph_Driver/src/stm32f4xx_cryp_aes.c **** 
 640:Libraries/STM32F4xx_StdPeriph_Driver/src/stm32f4xx_cryp_aes.c ****   return status;
 2107              		.loc 1 640 3 view .LVU825
 2108              	.L45:
 641:Libraries/STM32F4xx_StdPeriph_Driver/src/stm32f4xx_cryp_aes.c **** }
 2109              		.loc 1 641 1 is_stmt 0 view .LVU826
 2110 0176 3046     		mov	r0, r6
 2111 0178 12B0     		add	sp, sp, #72
 2112              	.LCFI8:
 2113              		.cfi_def_cfa_offset 32
 2114              		@ sp needed
 2115 017a BDE8F087 		pop	{r4, r5, r6, r7, r8, r9, r10, pc}
 2116              		.loc 1 641 1 view .LVU827
 2117              		.cfi_endproc
 2118              	.LFE125:
 2120              		.section	.text.CRYP_AES_GCM,"ax",%progbits
 2121              		.align	1
 2122              		.global	CRYP_AES_GCM
 2123              		.syntax unified
 2124              		.thumb
 2125              		.thumb_func
 2126              		.fpu fpv4-sp-d16
 2128              	CRYP_AES_GCM:
 2129              	.LVL300:
 2130              	.LFB126:
 642:Libraries/STM32F4xx_StdPeriph_Driver/src/stm32f4xx_cryp_aes.c **** 
 643:Libraries/STM32F4xx_StdPeriph_Driver/src/stm32f4xx_cryp_aes.c **** /**
 644:Libraries/STM32F4xx_StdPeriph_Driver/src/stm32f4xx_cryp_aes.c ****   * @brief  Encrypt and decrypt using AES in GCM Mode. The GCM and CCM modes
 645:Libraries/STM32F4xx_StdPeriph_Driver/src/stm32f4xx_cryp_aes.c ****   *         are available only on STM32F437x Devices.
 646:Libraries/STM32F4xx_StdPeriph_Driver/src/stm32f4xx_cryp_aes.c ****   * @param  Mode: encryption or decryption Mode.
 647:Libraries/STM32F4xx_StdPeriph_Driver/src/stm32f4xx_cryp_aes.c ****   *          This parameter can be one of the following values:
 648:Libraries/STM32F4xx_StdPeriph_Driver/src/stm32f4xx_cryp_aes.c ****   *            @arg MODE_ENCRYPT: Encryption
 649:Libraries/STM32F4xx_StdPeriph_Driver/src/stm32f4xx_cryp_aes.c ****   *            @arg MODE_DECRYPT: Decryption
 650:Libraries/STM32F4xx_StdPeriph_Driver/src/stm32f4xx_cryp_aes.c ****   * @param  InitVectors: Initialisation Vectors used for AES algorithm.
ARM GAS  /tmp/ccklj7FS.s 			page 65


 651:Libraries/STM32F4xx_StdPeriph_Driver/src/stm32f4xx_cryp_aes.c ****   * @param  Key: Key used for AES algorithm.
 652:Libraries/STM32F4xx_StdPeriph_Driver/src/stm32f4xx_cryp_aes.c ****   * @param  Keysize: length of the Key, must be a 128, 192 or 256.
 653:Libraries/STM32F4xx_StdPeriph_Driver/src/stm32f4xx_cryp_aes.c ****   * @param  Input: pointer to the Input buffer.
 654:Libraries/STM32F4xx_StdPeriph_Driver/src/stm32f4xx_cryp_aes.c ****   * @param  Ilength: length of the Input buffer in bytes, must be a multiple of 16.
 655:Libraries/STM32F4xx_StdPeriph_Driver/src/stm32f4xx_cryp_aes.c ****   * @param  Header: pointer to the header buffer.
 656:Libraries/STM32F4xx_StdPeriph_Driver/src/stm32f4xx_cryp_aes.c ****   * @param  Hlength: length of the header buffer in bytes, must be a multiple of 16.  
 657:Libraries/STM32F4xx_StdPeriph_Driver/src/stm32f4xx_cryp_aes.c ****   * @param  Output: pointer to the returned buffer.
 658:Libraries/STM32F4xx_StdPeriph_Driver/src/stm32f4xx_cryp_aes.c ****   * @param  AuthTAG: pointer to the authentication TAG buffer.
 659:Libraries/STM32F4xx_StdPeriph_Driver/src/stm32f4xx_cryp_aes.c ****   * @retval An ErrorStatus enumeration value:
 660:Libraries/STM32F4xx_StdPeriph_Driver/src/stm32f4xx_cryp_aes.c ****   *          - SUCCESS: Operation done
 661:Libraries/STM32F4xx_StdPeriph_Driver/src/stm32f4xx_cryp_aes.c ****   *          - ERROR: Operation failed
 662:Libraries/STM32F4xx_StdPeriph_Driver/src/stm32f4xx_cryp_aes.c ****   */
 663:Libraries/STM32F4xx_StdPeriph_Driver/src/stm32f4xx_cryp_aes.c **** ErrorStatus CRYP_AES_GCM(uint8_t Mode, uint8_t InitVectors[16],
 664:Libraries/STM32F4xx_StdPeriph_Driver/src/stm32f4xx_cryp_aes.c ****                          uint8_t *Key, uint16_t Keysize,
 665:Libraries/STM32F4xx_StdPeriph_Driver/src/stm32f4xx_cryp_aes.c ****                          uint8_t *Input, uint32_t ILength,
 666:Libraries/STM32F4xx_StdPeriph_Driver/src/stm32f4xx_cryp_aes.c ****                          uint8_t *Header, uint32_t HLength,
 667:Libraries/STM32F4xx_StdPeriph_Driver/src/stm32f4xx_cryp_aes.c ****                          uint8_t *Output, uint8_t *AuthTAG)
 668:Libraries/STM32F4xx_StdPeriph_Driver/src/stm32f4xx_cryp_aes.c **** {
 2131              		.loc 1 668 1 is_stmt 1 view -0
 2132              		.cfi_startproc
 2133              		@ args = 24, pretend = 0, frame = 88
 2134              		@ frame_needed = 0, uses_anonymous_args = 0
 2135              		.loc 1 668 1 is_stmt 0 view .LVU829
 2136 0000 2DE9F04F 		push	{r4, r5, r6, r7, r8, r9, r10, fp, lr}
 2137              	.LCFI9:
 2138              		.cfi_def_cfa_offset 36
 2139              		.cfi_offset 4, -36
 2140              		.cfi_offset 5, -32
 2141              		.cfi_offset 6, -28
 2142              		.cfi_offset 7, -24
 2143              		.cfi_offset 8, -20
 2144              		.cfi_offset 9, -16
 2145              		.cfi_offset 10, -12
 2146              		.cfi_offset 11, -8
 2147              		.cfi_offset 14, -4
 2148 0004 97B0     		sub	sp, sp, #92
 2149              	.LCFI10:
 2150              		.cfi_def_cfa_offset 128
 2151 0006 0190     		str	r0, [sp, #4]
 2152 0008 0F46     		mov	r7, r1
 2153 000a 1646     		mov	r6, r2
 2154 000c 9846     		mov	r8, r3
 2155 000e DDF88490 		ldr	r9, [sp, #132]
 2156 0012 DDF88CA0 		ldr	r10, [sp, #140]
 669:Libraries/STM32F4xx_StdPeriph_Driver/src/stm32f4xx_cryp_aes.c ****   CRYP_InitTypeDef AES_CRYP_InitStructure;
 2157              		.loc 1 669 3 is_stmt 1 view .LVU830
 670:Libraries/STM32F4xx_StdPeriph_Driver/src/stm32f4xx_cryp_aes.c ****   CRYP_KeyInitTypeDef AES_CRYP_KeyInitStructure;
 2158              		.loc 1 670 3 view .LVU831
 671:Libraries/STM32F4xx_StdPeriph_Driver/src/stm32f4xx_cryp_aes.c ****   CRYP_IVInitTypeDef AES_CRYP_IVInitStructure;
 2159              		.loc 1 671 3 view .LVU832
 672:Libraries/STM32F4xx_StdPeriph_Driver/src/stm32f4xx_cryp_aes.c ****   __IO uint32_t counter = 0;
 2160              		.loc 1 672 3 view .LVU833
 2161              		.loc 1 672 17 is_stmt 0 view .LVU834
 2162 0016 0023     		movs	r3, #0
 2163              	.LVL301:
 2164              		.loc 1 672 17 view .LVU835
 2165 0018 0593     		str	r3, [sp, #20]
ARM GAS  /tmp/ccklj7FS.s 			page 66


 673:Libraries/STM32F4xx_StdPeriph_Driver/src/stm32f4xx_cryp_aes.c ****   uint32_t busystatus = 0;
 2166              		.loc 1 673 3 is_stmt 1 view .LVU836
 2167              	.LVL302:
 674:Libraries/STM32F4xx_StdPeriph_Driver/src/stm32f4xx_cryp_aes.c ****   ErrorStatus status = SUCCESS;
 2168              		.loc 1 674 3 view .LVU837
 675:Libraries/STM32F4xx_StdPeriph_Driver/src/stm32f4xx_cryp_aes.c ****   uint32_t keyaddr    = (uint32_t)Key;
 2169              		.loc 1 675 3 view .LVU838
 676:Libraries/STM32F4xx_StdPeriph_Driver/src/stm32f4xx_cryp_aes.c ****   uint32_t inputaddr  = (uint32_t)Input;
 2170              		.loc 1 676 3 view .LVU839
 2171              		.loc 1 676 12 is_stmt 0 view .LVU840
 2172 001a 209C     		ldr	r4, [sp, #128]
 2173              	.LVL303:
 677:Libraries/STM32F4xx_StdPeriph_Driver/src/stm32f4xx_cryp_aes.c ****   uint32_t outputaddr = (uint32_t)Output;
 2174              		.loc 1 677 3 is_stmt 1 view .LVU841
 2175              		.loc 1 677 12 is_stmt 0 view .LVU842
 2176 001c DDF890B0 		ldr	fp, [sp, #144]
 2177              	.LVL304:
 678:Libraries/STM32F4xx_StdPeriph_Driver/src/stm32f4xx_cryp_aes.c ****   uint32_t ivaddr     = (uint32_t)InitVectors;
 2178              		.loc 1 678 3 is_stmt 1 view .LVU843
 679:Libraries/STM32F4xx_StdPeriph_Driver/src/stm32f4xx_cryp_aes.c ****   uint32_t headeraddr = (uint32_t)Header;
 2179              		.loc 1 679 3 view .LVU844
 2180              		.loc 1 679 12 is_stmt 0 view .LVU845
 2181 0020 229D     		ldr	r5, [sp, #136]
 2182              	.LVL305:
 680:Libraries/STM32F4xx_StdPeriph_Driver/src/stm32f4xx_cryp_aes.c ****   uint32_t tagaddr = (uint32_t)AuthTAG;
 2183              		.loc 1 680 3 is_stmt 1 view .LVU846
 681:Libraries/STM32F4xx_StdPeriph_Driver/src/stm32f4xx_cryp_aes.c ****   uint64_t headerlength = HLength * 8;/* header length in bits */
 2184              		.loc 1 681 3 view .LVU847
 2185              		.loc 1 681 35 is_stmt 0 view .LVU848
 2186 0022 4FEACA03 		lsl	r3, r10, #3
 2187 0026 0293     		str	r3, [sp, #8]
 2188              	.LVL306:
 682:Libraries/STM32F4xx_StdPeriph_Driver/src/stm32f4xx_cryp_aes.c ****   uint64_t inputlength = ILength * 8;/* input length in bits */
 2189              		.loc 1 682 3 is_stmt 1 view .LVU849
 2190              		.loc 1 682 34 is_stmt 0 view .LVU850
 2191 0028 4FEAC903 		lsl	r3, r9, #3
 2192              	.LVL307:
 2193              		.loc 1 682 34 view .LVU851
 2194 002c 0393     		str	r3, [sp, #12]
 2195              	.LVL308:
 683:Libraries/STM32F4xx_StdPeriph_Driver/src/stm32f4xx_cryp_aes.c ****   uint32_t loopcounter = 0;
 2196              		.loc 1 683 3 is_stmt 1 view .LVU852
 684:Libraries/STM32F4xx_StdPeriph_Driver/src/stm32f4xx_cryp_aes.c **** 
 685:Libraries/STM32F4xx_StdPeriph_Driver/src/stm32f4xx_cryp_aes.c ****   /* Crypto structures initialisation*/
 686:Libraries/STM32F4xx_StdPeriph_Driver/src/stm32f4xx_cryp_aes.c ****   CRYP_KeyStructInit(&AES_CRYP_KeyInitStructure);
 2197              		.loc 1 686 3 view .LVU853
 2198 002e 0AA8     		add	r0, sp, #40
 2199              	.LVL309:
 2200              		.loc 1 686 3 is_stmt 0 view .LVU854
 2201 0030 FFF7FEFF 		bl	CRYP_KeyStructInit
 2202              	.LVL310:
 687:Libraries/STM32F4xx_StdPeriph_Driver/src/stm32f4xx_cryp_aes.c **** 
 688:Libraries/STM32F4xx_StdPeriph_Driver/src/stm32f4xx_cryp_aes.c ****   switch(Keysize)
 2203              		.loc 1 688 3 is_stmt 1 view .LVU855
 2204 0034 B8F1C00F 		cmp	r8, #192
 2205 0038 57D0     		beq	.L57
 2206 003a B8F5807F 		cmp	r8, #256
ARM GAS  /tmp/ccklj7FS.s 			page 67


 2207 003e 6AD0     		beq	.L58
 2208 0040 B8F1800F 		cmp	r8, #128
 2209 0044 42D0     		beq	.L99
 2210              	.LVL311:
 2211              	.L59:
 689:Libraries/STM32F4xx_StdPeriph_Driver/src/stm32f4xx_cryp_aes.c ****   {
 690:Libraries/STM32F4xx_StdPeriph_Driver/src/stm32f4xx_cryp_aes.c ****     case 128:
 691:Libraries/STM32F4xx_StdPeriph_Driver/src/stm32f4xx_cryp_aes.c ****     AES_CRYP_InitStructure.CRYP_KeySize = CRYP_KeySize_128b;
 692:Libraries/STM32F4xx_StdPeriph_Driver/src/stm32f4xx_cryp_aes.c ****     AES_CRYP_KeyInitStructure.CRYP_Key2Left = __REV(*(uint32_t*)(keyaddr));
 693:Libraries/STM32F4xx_StdPeriph_Driver/src/stm32f4xx_cryp_aes.c ****     keyaddr+=4;
 694:Libraries/STM32F4xx_StdPeriph_Driver/src/stm32f4xx_cryp_aes.c ****     AES_CRYP_KeyInitStructure.CRYP_Key2Right= __REV(*(uint32_t*)(keyaddr));
 695:Libraries/STM32F4xx_StdPeriph_Driver/src/stm32f4xx_cryp_aes.c ****     keyaddr+=4;
 696:Libraries/STM32F4xx_StdPeriph_Driver/src/stm32f4xx_cryp_aes.c ****     AES_CRYP_KeyInitStructure.CRYP_Key3Left = __REV(*(uint32_t*)(keyaddr));
 697:Libraries/STM32F4xx_StdPeriph_Driver/src/stm32f4xx_cryp_aes.c ****     keyaddr+=4;
 698:Libraries/STM32F4xx_StdPeriph_Driver/src/stm32f4xx_cryp_aes.c ****     AES_CRYP_KeyInitStructure.CRYP_Key3Right= __REV(*(uint32_t*)(keyaddr));
 699:Libraries/STM32F4xx_StdPeriph_Driver/src/stm32f4xx_cryp_aes.c ****     break;
 700:Libraries/STM32F4xx_StdPeriph_Driver/src/stm32f4xx_cryp_aes.c ****     case 192:
 701:Libraries/STM32F4xx_StdPeriph_Driver/src/stm32f4xx_cryp_aes.c ****     AES_CRYP_InitStructure.CRYP_KeySize  = CRYP_KeySize_192b;
 702:Libraries/STM32F4xx_StdPeriph_Driver/src/stm32f4xx_cryp_aes.c ****     AES_CRYP_KeyInitStructure.CRYP_Key1Left = __REV(*(uint32_t*)(keyaddr));
 703:Libraries/STM32F4xx_StdPeriph_Driver/src/stm32f4xx_cryp_aes.c ****     keyaddr+=4;
 704:Libraries/STM32F4xx_StdPeriph_Driver/src/stm32f4xx_cryp_aes.c ****     AES_CRYP_KeyInitStructure.CRYP_Key1Right= __REV(*(uint32_t*)(keyaddr));
 705:Libraries/STM32F4xx_StdPeriph_Driver/src/stm32f4xx_cryp_aes.c ****     keyaddr+=4;
 706:Libraries/STM32F4xx_StdPeriph_Driver/src/stm32f4xx_cryp_aes.c ****     AES_CRYP_KeyInitStructure.CRYP_Key2Left = __REV(*(uint32_t*)(keyaddr));
 707:Libraries/STM32F4xx_StdPeriph_Driver/src/stm32f4xx_cryp_aes.c ****     keyaddr+=4;
 708:Libraries/STM32F4xx_StdPeriph_Driver/src/stm32f4xx_cryp_aes.c ****     AES_CRYP_KeyInitStructure.CRYP_Key2Right= __REV(*(uint32_t*)(keyaddr));
 709:Libraries/STM32F4xx_StdPeriph_Driver/src/stm32f4xx_cryp_aes.c ****     keyaddr+=4;
 710:Libraries/STM32F4xx_StdPeriph_Driver/src/stm32f4xx_cryp_aes.c ****     AES_CRYP_KeyInitStructure.CRYP_Key3Left = __REV(*(uint32_t*)(keyaddr));
 711:Libraries/STM32F4xx_StdPeriph_Driver/src/stm32f4xx_cryp_aes.c ****     keyaddr+=4;
 712:Libraries/STM32F4xx_StdPeriph_Driver/src/stm32f4xx_cryp_aes.c ****     AES_CRYP_KeyInitStructure.CRYP_Key3Right= __REV(*(uint32_t*)(keyaddr));
 713:Libraries/STM32F4xx_StdPeriph_Driver/src/stm32f4xx_cryp_aes.c ****     break;
 714:Libraries/STM32F4xx_StdPeriph_Driver/src/stm32f4xx_cryp_aes.c ****     case 256:
 715:Libraries/STM32F4xx_StdPeriph_Driver/src/stm32f4xx_cryp_aes.c ****     AES_CRYP_InitStructure.CRYP_KeySize  = CRYP_KeySize_256b;
 716:Libraries/STM32F4xx_StdPeriph_Driver/src/stm32f4xx_cryp_aes.c ****     AES_CRYP_KeyInitStructure.CRYP_Key0Left = __REV(*(uint32_t*)(keyaddr));
 717:Libraries/STM32F4xx_StdPeriph_Driver/src/stm32f4xx_cryp_aes.c ****     keyaddr+=4;
 718:Libraries/STM32F4xx_StdPeriph_Driver/src/stm32f4xx_cryp_aes.c ****     AES_CRYP_KeyInitStructure.CRYP_Key0Right= __REV(*(uint32_t*)(keyaddr));
 719:Libraries/STM32F4xx_StdPeriph_Driver/src/stm32f4xx_cryp_aes.c ****     keyaddr+=4;
 720:Libraries/STM32F4xx_StdPeriph_Driver/src/stm32f4xx_cryp_aes.c ****     AES_CRYP_KeyInitStructure.CRYP_Key1Left = __REV(*(uint32_t*)(keyaddr));
 721:Libraries/STM32F4xx_StdPeriph_Driver/src/stm32f4xx_cryp_aes.c ****     keyaddr+=4;
 722:Libraries/STM32F4xx_StdPeriph_Driver/src/stm32f4xx_cryp_aes.c ****     AES_CRYP_KeyInitStructure.CRYP_Key1Right= __REV(*(uint32_t*)(keyaddr));
 723:Libraries/STM32F4xx_StdPeriph_Driver/src/stm32f4xx_cryp_aes.c ****     keyaddr+=4;
 724:Libraries/STM32F4xx_StdPeriph_Driver/src/stm32f4xx_cryp_aes.c ****     AES_CRYP_KeyInitStructure.CRYP_Key2Left = __REV(*(uint32_t*)(keyaddr));
 725:Libraries/STM32F4xx_StdPeriph_Driver/src/stm32f4xx_cryp_aes.c ****     keyaddr+=4;
 726:Libraries/STM32F4xx_StdPeriph_Driver/src/stm32f4xx_cryp_aes.c ****     AES_CRYP_KeyInitStructure.CRYP_Key2Right= __REV(*(uint32_t*)(keyaddr));
 727:Libraries/STM32F4xx_StdPeriph_Driver/src/stm32f4xx_cryp_aes.c ****     keyaddr+=4;
 728:Libraries/STM32F4xx_StdPeriph_Driver/src/stm32f4xx_cryp_aes.c ****     AES_CRYP_KeyInitStructure.CRYP_Key3Left = __REV(*(uint32_t*)(keyaddr));
 729:Libraries/STM32F4xx_StdPeriph_Driver/src/stm32f4xx_cryp_aes.c ****     keyaddr+=4;
 730:Libraries/STM32F4xx_StdPeriph_Driver/src/stm32f4xx_cryp_aes.c ****     AES_CRYP_KeyInitStructure.CRYP_Key3Right= __REV(*(uint32_t*)(keyaddr));
 731:Libraries/STM32F4xx_StdPeriph_Driver/src/stm32f4xx_cryp_aes.c ****     break;
 732:Libraries/STM32F4xx_StdPeriph_Driver/src/stm32f4xx_cryp_aes.c ****     default:
 733:Libraries/STM32F4xx_StdPeriph_Driver/src/stm32f4xx_cryp_aes.c ****     break;
 734:Libraries/STM32F4xx_StdPeriph_Driver/src/stm32f4xx_cryp_aes.c ****   }
 735:Libraries/STM32F4xx_StdPeriph_Driver/src/stm32f4xx_cryp_aes.c ****   
 736:Libraries/STM32F4xx_StdPeriph_Driver/src/stm32f4xx_cryp_aes.c ****   /* CRYP Initialization Vectors */
 737:Libraries/STM32F4xx_StdPeriph_Driver/src/stm32f4xx_cryp_aes.c ****   AES_CRYP_IVInitStructure.CRYP_IV0Left = __REV(*(uint32_t*)(ivaddr));
 2212              		.loc 1 737 3 view .LVU856
 2213              		.loc 1 737 43 is_stmt 0 view .LVU857
 2214 0046 3B68     		ldr	r3, [r7]
ARM GAS  /tmp/ccklj7FS.s 			page 68


 2215              	.LVL312:
 2216              	.LBB354:
 2217              	.LBI354:
 495:Libraries/CMSIS/Include/core_cmInstr.h **** {
 2218              		.loc 2 495 57 is_stmt 1 view .LVU858
 2219              	.LBB355:
 2220              		.loc 2 498 3 view .LVU859
 2221              		.loc 2 498 10 is_stmt 0 view .LVU860
 2222 0048 1BBA     		rev	r3, r3
 2223              	.LVL313:
 2224              		.loc 2 498 10 view .LVU861
 2225              	.LBE355:
 2226              	.LBE354:
 2227              		.loc 1 737 41 view .LVU862
 2228 004a 0693     		str	r3, [sp, #24]
 738:Libraries/STM32F4xx_StdPeriph_Driver/src/stm32f4xx_cryp_aes.c ****   ivaddr+=4;
 2229              		.loc 1 738 3 is_stmt 1 view .LVU863
 2230              	.LVL314:
 739:Libraries/STM32F4xx_StdPeriph_Driver/src/stm32f4xx_cryp_aes.c ****   AES_CRYP_IVInitStructure.CRYP_IV0Right= __REV(*(uint32_t*)(ivaddr));
 2231              		.loc 1 739 3 view .LVU864
 2232              		.loc 1 739 43 is_stmt 0 view .LVU865
 2233 004c 7B68     		ldr	r3, [r7, #4]
 2234              	.LVL315:
 2235              	.LBB356:
 2236              	.LBI356:
 495:Libraries/CMSIS/Include/core_cmInstr.h **** {
 2237              		.loc 2 495 57 is_stmt 1 view .LVU866
 2238              	.LBB357:
 2239              		.loc 2 498 3 view .LVU867
 2240              		.loc 2 498 10 is_stmt 0 view .LVU868
 2241 004e 1BBA     		rev	r3, r3
 2242              	.LVL316:
 2243              		.loc 2 498 10 view .LVU869
 2244              	.LBE357:
 2245              	.LBE356:
 2246              		.loc 1 739 41 view .LVU870
 2247 0050 0793     		str	r3, [sp, #28]
 740:Libraries/STM32F4xx_StdPeriph_Driver/src/stm32f4xx_cryp_aes.c ****   ivaddr+=4;
 2248              		.loc 1 740 3 is_stmt 1 view .LVU871
 2249              	.LVL317:
 741:Libraries/STM32F4xx_StdPeriph_Driver/src/stm32f4xx_cryp_aes.c ****   AES_CRYP_IVInitStructure.CRYP_IV1Left = __REV(*(uint32_t*)(ivaddr));
 2250              		.loc 1 741 3 view .LVU872
 2251              		.loc 1 741 43 is_stmt 0 view .LVU873
 2252 0052 BB68     		ldr	r3, [r7, #8]
 2253              	.LVL318:
 2254              	.LBB358:
 2255              	.LBI358:
 495:Libraries/CMSIS/Include/core_cmInstr.h **** {
 2256              		.loc 2 495 57 is_stmt 1 view .LVU874
 2257              	.LBB359:
 2258              		.loc 2 498 3 view .LVU875
 2259              		.loc 2 498 10 is_stmt 0 view .LVU876
 2260 0054 1BBA     		rev	r3, r3
 2261              	.LVL319:
 2262              		.loc 2 498 10 view .LVU877
 2263              	.LBE359:
 2264              	.LBE358:
ARM GAS  /tmp/ccklj7FS.s 			page 69


 2265              		.loc 1 741 41 view .LVU878
 2266 0056 0893     		str	r3, [sp, #32]
 742:Libraries/STM32F4xx_StdPeriph_Driver/src/stm32f4xx_cryp_aes.c ****   ivaddr+=4;
 2267              		.loc 1 742 3 is_stmt 1 view .LVU879
 2268              	.LVL320:
 743:Libraries/STM32F4xx_StdPeriph_Driver/src/stm32f4xx_cryp_aes.c ****   AES_CRYP_IVInitStructure.CRYP_IV1Right= __REV(*(uint32_t*)(ivaddr));
 2269              		.loc 1 743 3 view .LVU880
 2270              		.loc 1 743 43 is_stmt 0 view .LVU881
 2271 0058 FB68     		ldr	r3, [r7, #12]
 2272              	.LVL321:
 2273              	.LBB360:
 2274              	.LBI360:
 495:Libraries/CMSIS/Include/core_cmInstr.h **** {
 2275              		.loc 2 495 57 is_stmt 1 view .LVU882
 2276              	.LBB361:
 2277              		.loc 2 498 3 view .LVU883
 2278              		.loc 2 498 10 is_stmt 0 view .LVU884
 2279 005a 1BBA     		rev	r3, r3
 2280              	.LVL322:
 2281              		.loc 2 498 10 view .LVU885
 2282              	.LBE361:
 2283              	.LBE360:
 2284              		.loc 1 743 41 view .LVU886
 2285 005c 0993     		str	r3, [sp, #36]
 744:Libraries/STM32F4xx_StdPeriph_Driver/src/stm32f4xx_cryp_aes.c ****   
 745:Libraries/STM32F4xx_StdPeriph_Driver/src/stm32f4xx_cryp_aes.c ****   /*------------------ AES Encryption ------------------*/
 746:Libraries/STM32F4xx_StdPeriph_Driver/src/stm32f4xx_cryp_aes.c ****   if(Mode == MODE_ENCRYPT) /* AES encryption */
 2286              		.loc 1 746 3 is_stmt 1 view .LVU887
 2287              		.loc 1 746 5 is_stmt 0 view .LVU888
 2288 005e 019B     		ldr	r3, [sp, #4]
 2289 0060 012B     		cmp	r3, #1
 2290 0062 74D0     		beq	.L100
 747:Libraries/STM32F4xx_StdPeriph_Driver/src/stm32f4xx_cryp_aes.c ****   {
 748:Libraries/STM32F4xx_StdPeriph_Driver/src/stm32f4xx_cryp_aes.c ****     /* Flush IN/OUT FIFOs */
 749:Libraries/STM32F4xx_StdPeriph_Driver/src/stm32f4xx_cryp_aes.c ****     CRYP_FIFOFlush();
 750:Libraries/STM32F4xx_StdPeriph_Driver/src/stm32f4xx_cryp_aes.c ****     
 751:Libraries/STM32F4xx_StdPeriph_Driver/src/stm32f4xx_cryp_aes.c ****     /* Key Initialisation */
 752:Libraries/STM32F4xx_StdPeriph_Driver/src/stm32f4xx_cryp_aes.c ****     CRYP_KeyInit(&AES_CRYP_KeyInitStructure);
 753:Libraries/STM32F4xx_StdPeriph_Driver/src/stm32f4xx_cryp_aes.c ****     
 754:Libraries/STM32F4xx_StdPeriph_Driver/src/stm32f4xx_cryp_aes.c ****     /* CRYP Initialization Vectors */
 755:Libraries/STM32F4xx_StdPeriph_Driver/src/stm32f4xx_cryp_aes.c ****     CRYP_IVInit(&AES_CRYP_IVInitStructure);
 756:Libraries/STM32F4xx_StdPeriph_Driver/src/stm32f4xx_cryp_aes.c ****     
 757:Libraries/STM32F4xx_StdPeriph_Driver/src/stm32f4xx_cryp_aes.c ****     /* Crypto Init for Key preparation for decryption process */
 758:Libraries/STM32F4xx_StdPeriph_Driver/src/stm32f4xx_cryp_aes.c ****     AES_CRYP_InitStructure.CRYP_AlgoDir = CRYP_AlgoDir_Encrypt;
 759:Libraries/STM32F4xx_StdPeriph_Driver/src/stm32f4xx_cryp_aes.c ****     AES_CRYP_InitStructure.CRYP_AlgoMode = CRYP_AlgoMode_AES_GCM;
 760:Libraries/STM32F4xx_StdPeriph_Driver/src/stm32f4xx_cryp_aes.c ****     AES_CRYP_InitStructure.CRYP_DataType = CRYP_DataType_8b;
 761:Libraries/STM32F4xx_StdPeriph_Driver/src/stm32f4xx_cryp_aes.c ****     CRYP_Init(&AES_CRYP_InitStructure);
 762:Libraries/STM32F4xx_StdPeriph_Driver/src/stm32f4xx_cryp_aes.c ****     
 763:Libraries/STM32F4xx_StdPeriph_Driver/src/stm32f4xx_cryp_aes.c ****     /***************************** Init phase *********************************/
 764:Libraries/STM32F4xx_StdPeriph_Driver/src/stm32f4xx_cryp_aes.c ****     /* Select init phase */
 765:Libraries/STM32F4xx_StdPeriph_Driver/src/stm32f4xx_cryp_aes.c ****     CRYP_PhaseConfig(CRYP_Phase_Init);
 766:Libraries/STM32F4xx_StdPeriph_Driver/src/stm32f4xx_cryp_aes.c ****     
 767:Libraries/STM32F4xx_StdPeriph_Driver/src/stm32f4xx_cryp_aes.c ****     /* Enable Crypto processor */
 768:Libraries/STM32F4xx_StdPeriph_Driver/src/stm32f4xx_cryp_aes.c ****     CRYP_Cmd(ENABLE);
 769:Libraries/STM32F4xx_StdPeriph_Driver/src/stm32f4xx_cryp_aes.c ****     
 770:Libraries/STM32F4xx_StdPeriph_Driver/src/stm32f4xx_cryp_aes.c ****     /* Wait for CRYPEN bit to be 0 */
 771:Libraries/STM32F4xx_StdPeriph_Driver/src/stm32f4xx_cryp_aes.c ****     while(CRYP_GetCmdStatus() == ENABLE)
ARM GAS  /tmp/ccklj7FS.s 			page 70


 772:Libraries/STM32F4xx_StdPeriph_Driver/src/stm32f4xx_cryp_aes.c ****     {
 773:Libraries/STM32F4xx_StdPeriph_Driver/src/stm32f4xx_cryp_aes.c ****     }
 774:Libraries/STM32F4xx_StdPeriph_Driver/src/stm32f4xx_cryp_aes.c ****     
 775:Libraries/STM32F4xx_StdPeriph_Driver/src/stm32f4xx_cryp_aes.c ****     /***************************** header phase *******************************/
 776:Libraries/STM32F4xx_StdPeriph_Driver/src/stm32f4xx_cryp_aes.c ****     if(HLength != 0)
 777:Libraries/STM32F4xx_StdPeriph_Driver/src/stm32f4xx_cryp_aes.c ****     {
 778:Libraries/STM32F4xx_StdPeriph_Driver/src/stm32f4xx_cryp_aes.c ****       /* Select header phase */
 779:Libraries/STM32F4xx_StdPeriph_Driver/src/stm32f4xx_cryp_aes.c ****       CRYP_PhaseConfig(CRYP_Phase_Header);
 780:Libraries/STM32F4xx_StdPeriph_Driver/src/stm32f4xx_cryp_aes.c ****       
 781:Libraries/STM32F4xx_StdPeriph_Driver/src/stm32f4xx_cryp_aes.c ****       /* Enable Crypto processor */
 782:Libraries/STM32F4xx_StdPeriph_Driver/src/stm32f4xx_cryp_aes.c ****       CRYP_Cmd(ENABLE);
 783:Libraries/STM32F4xx_StdPeriph_Driver/src/stm32f4xx_cryp_aes.c ****       
 784:Libraries/STM32F4xx_StdPeriph_Driver/src/stm32f4xx_cryp_aes.c ****       if(CRYP_GetCmdStatus() == DISABLE)
 785:Libraries/STM32F4xx_StdPeriph_Driver/src/stm32f4xx_cryp_aes.c ****       {
 786:Libraries/STM32F4xx_StdPeriph_Driver/src/stm32f4xx_cryp_aes.c ****          /* The CRYP peripheral clock is not enabled or the device doesn't embed 
 787:Libraries/STM32F4xx_StdPeriph_Driver/src/stm32f4xx_cryp_aes.c ****             the CRYP peripheral (please check the device sales type. */
 788:Libraries/STM32F4xx_StdPeriph_Driver/src/stm32f4xx_cryp_aes.c ****          return(ERROR);
 789:Libraries/STM32F4xx_StdPeriph_Driver/src/stm32f4xx_cryp_aes.c ****       }
 790:Libraries/STM32F4xx_StdPeriph_Driver/src/stm32f4xx_cryp_aes.c ****       
 791:Libraries/STM32F4xx_StdPeriph_Driver/src/stm32f4xx_cryp_aes.c ****       for(loopcounter = 0; (loopcounter < HLength); loopcounter+=16)
 792:Libraries/STM32F4xx_StdPeriph_Driver/src/stm32f4xx_cryp_aes.c ****       {
 793:Libraries/STM32F4xx_StdPeriph_Driver/src/stm32f4xx_cryp_aes.c ****         /* Wait until the IFEM flag is reset */
 794:Libraries/STM32F4xx_StdPeriph_Driver/src/stm32f4xx_cryp_aes.c ****         while(CRYP_GetFlagStatus(CRYP_FLAG_IFEM) == RESET)
 795:Libraries/STM32F4xx_StdPeriph_Driver/src/stm32f4xx_cryp_aes.c ****         {
 796:Libraries/STM32F4xx_StdPeriph_Driver/src/stm32f4xx_cryp_aes.c ****         }
 797:Libraries/STM32F4xx_StdPeriph_Driver/src/stm32f4xx_cryp_aes.c ****         
 798:Libraries/STM32F4xx_StdPeriph_Driver/src/stm32f4xx_cryp_aes.c ****         /* Write the Input block in the IN FIFO */
 799:Libraries/STM32F4xx_StdPeriph_Driver/src/stm32f4xx_cryp_aes.c ****         CRYP_DataIn(*(uint32_t*)(headeraddr));
 800:Libraries/STM32F4xx_StdPeriph_Driver/src/stm32f4xx_cryp_aes.c ****         headeraddr+=4;
 801:Libraries/STM32F4xx_StdPeriph_Driver/src/stm32f4xx_cryp_aes.c ****         CRYP_DataIn(*(uint32_t*)(headeraddr));
 802:Libraries/STM32F4xx_StdPeriph_Driver/src/stm32f4xx_cryp_aes.c ****         headeraddr+=4;
 803:Libraries/STM32F4xx_StdPeriph_Driver/src/stm32f4xx_cryp_aes.c ****         CRYP_DataIn(*(uint32_t*)(headeraddr));
 804:Libraries/STM32F4xx_StdPeriph_Driver/src/stm32f4xx_cryp_aes.c ****         headeraddr+=4;
 805:Libraries/STM32F4xx_StdPeriph_Driver/src/stm32f4xx_cryp_aes.c ****         CRYP_DataIn(*(uint32_t*)(headeraddr));
 806:Libraries/STM32F4xx_StdPeriph_Driver/src/stm32f4xx_cryp_aes.c ****         headeraddr+=4;
 807:Libraries/STM32F4xx_StdPeriph_Driver/src/stm32f4xx_cryp_aes.c ****       }
 808:Libraries/STM32F4xx_StdPeriph_Driver/src/stm32f4xx_cryp_aes.c ****       
 809:Libraries/STM32F4xx_StdPeriph_Driver/src/stm32f4xx_cryp_aes.c ****       /* Wait until the complete message has been processed */
 810:Libraries/STM32F4xx_StdPeriph_Driver/src/stm32f4xx_cryp_aes.c ****       counter = 0;
 811:Libraries/STM32F4xx_StdPeriph_Driver/src/stm32f4xx_cryp_aes.c ****       do
 812:Libraries/STM32F4xx_StdPeriph_Driver/src/stm32f4xx_cryp_aes.c ****       {
 813:Libraries/STM32F4xx_StdPeriph_Driver/src/stm32f4xx_cryp_aes.c ****         busystatus = CRYP_GetFlagStatus(CRYP_FLAG_BUSY);
 814:Libraries/STM32F4xx_StdPeriph_Driver/src/stm32f4xx_cryp_aes.c ****         counter++;
 815:Libraries/STM32F4xx_StdPeriph_Driver/src/stm32f4xx_cryp_aes.c ****       }while ((counter != AESBUSY_TIMEOUT) && (busystatus != RESET));
 816:Libraries/STM32F4xx_StdPeriph_Driver/src/stm32f4xx_cryp_aes.c **** 
 817:Libraries/STM32F4xx_StdPeriph_Driver/src/stm32f4xx_cryp_aes.c ****       if (busystatus != RESET)
 818:Libraries/STM32F4xx_StdPeriph_Driver/src/stm32f4xx_cryp_aes.c ****       {
 819:Libraries/STM32F4xx_StdPeriph_Driver/src/stm32f4xx_cryp_aes.c ****         status = ERROR;
 820:Libraries/STM32F4xx_StdPeriph_Driver/src/stm32f4xx_cryp_aes.c ****       }
 821:Libraries/STM32F4xx_StdPeriph_Driver/src/stm32f4xx_cryp_aes.c ****     }
 822:Libraries/STM32F4xx_StdPeriph_Driver/src/stm32f4xx_cryp_aes.c ****     
 823:Libraries/STM32F4xx_StdPeriph_Driver/src/stm32f4xx_cryp_aes.c ****     /**************************** payload phase *******************************/
 824:Libraries/STM32F4xx_StdPeriph_Driver/src/stm32f4xx_cryp_aes.c ****     if(ILength != 0)
 825:Libraries/STM32F4xx_StdPeriph_Driver/src/stm32f4xx_cryp_aes.c ****     {
 826:Libraries/STM32F4xx_StdPeriph_Driver/src/stm32f4xx_cryp_aes.c ****       /* Select payload phase */
 827:Libraries/STM32F4xx_StdPeriph_Driver/src/stm32f4xx_cryp_aes.c ****       CRYP_PhaseConfig(CRYP_Phase_Payload);
 828:Libraries/STM32F4xx_StdPeriph_Driver/src/stm32f4xx_cryp_aes.c ****       
ARM GAS  /tmp/ccklj7FS.s 			page 71


 829:Libraries/STM32F4xx_StdPeriph_Driver/src/stm32f4xx_cryp_aes.c ****       /* Enable Crypto processor */
 830:Libraries/STM32F4xx_StdPeriph_Driver/src/stm32f4xx_cryp_aes.c ****       CRYP_Cmd(ENABLE);
 831:Libraries/STM32F4xx_StdPeriph_Driver/src/stm32f4xx_cryp_aes.c ****       
 832:Libraries/STM32F4xx_StdPeriph_Driver/src/stm32f4xx_cryp_aes.c ****       if(CRYP_GetCmdStatus() == DISABLE)
 833:Libraries/STM32F4xx_StdPeriph_Driver/src/stm32f4xx_cryp_aes.c ****       {
 834:Libraries/STM32F4xx_StdPeriph_Driver/src/stm32f4xx_cryp_aes.c ****         /* The CRYP peripheral clock is not enabled or the device doesn't embed 
 835:Libraries/STM32F4xx_StdPeriph_Driver/src/stm32f4xx_cryp_aes.c ****            the CRYP peripheral (please check the device sales type. */
 836:Libraries/STM32F4xx_StdPeriph_Driver/src/stm32f4xx_cryp_aes.c ****         return(ERROR);
 837:Libraries/STM32F4xx_StdPeriph_Driver/src/stm32f4xx_cryp_aes.c ****       }
 838:Libraries/STM32F4xx_StdPeriph_Driver/src/stm32f4xx_cryp_aes.c ****       
 839:Libraries/STM32F4xx_StdPeriph_Driver/src/stm32f4xx_cryp_aes.c ****       for(loopcounter = 0; ((loopcounter < ILength) && (status != ERROR)); loopcounter+=16)
 840:Libraries/STM32F4xx_StdPeriph_Driver/src/stm32f4xx_cryp_aes.c ****       {
 841:Libraries/STM32F4xx_StdPeriph_Driver/src/stm32f4xx_cryp_aes.c ****         /* Wait until the IFEM flag is reset */
 842:Libraries/STM32F4xx_StdPeriph_Driver/src/stm32f4xx_cryp_aes.c ****         while(CRYP_GetFlagStatus(CRYP_FLAG_IFEM) == RESET)
 843:Libraries/STM32F4xx_StdPeriph_Driver/src/stm32f4xx_cryp_aes.c ****         {
 844:Libraries/STM32F4xx_StdPeriph_Driver/src/stm32f4xx_cryp_aes.c ****         }
 845:Libraries/STM32F4xx_StdPeriph_Driver/src/stm32f4xx_cryp_aes.c ****         /* Write the Input block in the IN FIFO */
 846:Libraries/STM32F4xx_StdPeriph_Driver/src/stm32f4xx_cryp_aes.c ****         CRYP_DataIn(*(uint32_t*)(inputaddr));
 847:Libraries/STM32F4xx_StdPeriph_Driver/src/stm32f4xx_cryp_aes.c ****         inputaddr+=4;
 848:Libraries/STM32F4xx_StdPeriph_Driver/src/stm32f4xx_cryp_aes.c ****         CRYP_DataIn(*(uint32_t*)(inputaddr));
 849:Libraries/STM32F4xx_StdPeriph_Driver/src/stm32f4xx_cryp_aes.c ****         inputaddr+=4;
 850:Libraries/STM32F4xx_StdPeriph_Driver/src/stm32f4xx_cryp_aes.c ****         CRYP_DataIn(*(uint32_t*)(inputaddr));
 851:Libraries/STM32F4xx_StdPeriph_Driver/src/stm32f4xx_cryp_aes.c ****         inputaddr+=4;
 852:Libraries/STM32F4xx_StdPeriph_Driver/src/stm32f4xx_cryp_aes.c ****         CRYP_DataIn(*(uint32_t*)(inputaddr));
 853:Libraries/STM32F4xx_StdPeriph_Driver/src/stm32f4xx_cryp_aes.c ****         inputaddr+=4;
 854:Libraries/STM32F4xx_StdPeriph_Driver/src/stm32f4xx_cryp_aes.c ****         
 855:Libraries/STM32F4xx_StdPeriph_Driver/src/stm32f4xx_cryp_aes.c ****         /* Wait until the complete message has been processed */
 856:Libraries/STM32F4xx_StdPeriph_Driver/src/stm32f4xx_cryp_aes.c ****         counter = 0;
 857:Libraries/STM32F4xx_StdPeriph_Driver/src/stm32f4xx_cryp_aes.c ****         do
 858:Libraries/STM32F4xx_StdPeriph_Driver/src/stm32f4xx_cryp_aes.c ****         {
 859:Libraries/STM32F4xx_StdPeriph_Driver/src/stm32f4xx_cryp_aes.c ****           busystatus = CRYP_GetFlagStatus(CRYP_FLAG_BUSY);
 860:Libraries/STM32F4xx_StdPeriph_Driver/src/stm32f4xx_cryp_aes.c ****           counter++;
 861:Libraries/STM32F4xx_StdPeriph_Driver/src/stm32f4xx_cryp_aes.c ****         }while ((counter != AESBUSY_TIMEOUT) && (busystatus != RESET));
 862:Libraries/STM32F4xx_StdPeriph_Driver/src/stm32f4xx_cryp_aes.c **** 
 863:Libraries/STM32F4xx_StdPeriph_Driver/src/stm32f4xx_cryp_aes.c ****         if (busystatus != RESET)
 864:Libraries/STM32F4xx_StdPeriph_Driver/src/stm32f4xx_cryp_aes.c ****         {
 865:Libraries/STM32F4xx_StdPeriph_Driver/src/stm32f4xx_cryp_aes.c ****           status = ERROR;
 866:Libraries/STM32F4xx_StdPeriph_Driver/src/stm32f4xx_cryp_aes.c ****         }
 867:Libraries/STM32F4xx_StdPeriph_Driver/src/stm32f4xx_cryp_aes.c ****         else
 868:Libraries/STM32F4xx_StdPeriph_Driver/src/stm32f4xx_cryp_aes.c ****         {
 869:Libraries/STM32F4xx_StdPeriph_Driver/src/stm32f4xx_cryp_aes.c ****           /* Wait until the OFNE flag is reset */
 870:Libraries/STM32F4xx_StdPeriph_Driver/src/stm32f4xx_cryp_aes.c ****           while(CRYP_GetFlagStatus(CRYP_FLAG_OFNE) == RESET)
 871:Libraries/STM32F4xx_StdPeriph_Driver/src/stm32f4xx_cryp_aes.c ****           {
 872:Libraries/STM32F4xx_StdPeriph_Driver/src/stm32f4xx_cryp_aes.c ****           }
 873:Libraries/STM32F4xx_StdPeriph_Driver/src/stm32f4xx_cryp_aes.c ****           
 874:Libraries/STM32F4xx_StdPeriph_Driver/src/stm32f4xx_cryp_aes.c ****           /* Read the Output block from the Output FIFO */
 875:Libraries/STM32F4xx_StdPeriph_Driver/src/stm32f4xx_cryp_aes.c ****           *(uint32_t*)(outputaddr) = CRYP_DataOut();
 876:Libraries/STM32F4xx_StdPeriph_Driver/src/stm32f4xx_cryp_aes.c ****           outputaddr+=4;
 877:Libraries/STM32F4xx_StdPeriph_Driver/src/stm32f4xx_cryp_aes.c ****           *(uint32_t*)(outputaddr) = CRYP_DataOut();
 878:Libraries/STM32F4xx_StdPeriph_Driver/src/stm32f4xx_cryp_aes.c ****           outputaddr+=4;
 879:Libraries/STM32F4xx_StdPeriph_Driver/src/stm32f4xx_cryp_aes.c ****           *(uint32_t*)(outputaddr) = CRYP_DataOut();
 880:Libraries/STM32F4xx_StdPeriph_Driver/src/stm32f4xx_cryp_aes.c ****           outputaddr+=4;
 881:Libraries/STM32F4xx_StdPeriph_Driver/src/stm32f4xx_cryp_aes.c ****           *(uint32_t*)(outputaddr) = CRYP_DataOut();
 882:Libraries/STM32F4xx_StdPeriph_Driver/src/stm32f4xx_cryp_aes.c ****           outputaddr+=4;
 883:Libraries/STM32F4xx_StdPeriph_Driver/src/stm32f4xx_cryp_aes.c ****         }
 884:Libraries/STM32F4xx_StdPeriph_Driver/src/stm32f4xx_cryp_aes.c ****       }
 885:Libraries/STM32F4xx_StdPeriph_Driver/src/stm32f4xx_cryp_aes.c ****     }
ARM GAS  /tmp/ccklj7FS.s 			page 72


 886:Libraries/STM32F4xx_StdPeriph_Driver/src/stm32f4xx_cryp_aes.c ****     
 887:Libraries/STM32F4xx_StdPeriph_Driver/src/stm32f4xx_cryp_aes.c ****     /***************************** final phase ********************************/
 888:Libraries/STM32F4xx_StdPeriph_Driver/src/stm32f4xx_cryp_aes.c ****     /* Select final phase */
 889:Libraries/STM32F4xx_StdPeriph_Driver/src/stm32f4xx_cryp_aes.c ****     CRYP_PhaseConfig(CRYP_Phase_Final);
 890:Libraries/STM32F4xx_StdPeriph_Driver/src/stm32f4xx_cryp_aes.c ****     
 891:Libraries/STM32F4xx_StdPeriph_Driver/src/stm32f4xx_cryp_aes.c ****     /* Enable Crypto processor */
 892:Libraries/STM32F4xx_StdPeriph_Driver/src/stm32f4xx_cryp_aes.c ****     CRYP_Cmd(ENABLE);
 893:Libraries/STM32F4xx_StdPeriph_Driver/src/stm32f4xx_cryp_aes.c ****     
 894:Libraries/STM32F4xx_StdPeriph_Driver/src/stm32f4xx_cryp_aes.c ****     if(CRYP_GetCmdStatus() == DISABLE)
 895:Libraries/STM32F4xx_StdPeriph_Driver/src/stm32f4xx_cryp_aes.c ****     {
 896:Libraries/STM32F4xx_StdPeriph_Driver/src/stm32f4xx_cryp_aes.c ****       /* The CRYP peripheral clock is not enabled or the device doesn't embed 
 897:Libraries/STM32F4xx_StdPeriph_Driver/src/stm32f4xx_cryp_aes.c ****          the CRYP peripheral (please check the device sales type. */
 898:Libraries/STM32F4xx_StdPeriph_Driver/src/stm32f4xx_cryp_aes.c ****       return(ERROR);
 899:Libraries/STM32F4xx_StdPeriph_Driver/src/stm32f4xx_cryp_aes.c ****     }
 900:Libraries/STM32F4xx_StdPeriph_Driver/src/stm32f4xx_cryp_aes.c ****     
 901:Libraries/STM32F4xx_StdPeriph_Driver/src/stm32f4xx_cryp_aes.c ****     /* Write number of bits concatenated with header in the IN FIFO */
 902:Libraries/STM32F4xx_StdPeriph_Driver/src/stm32f4xx_cryp_aes.c ****     CRYP_DataIn(__REV(headerlength>>32));
 903:Libraries/STM32F4xx_StdPeriph_Driver/src/stm32f4xx_cryp_aes.c ****     CRYP_DataIn(__REV(headerlength));
 904:Libraries/STM32F4xx_StdPeriph_Driver/src/stm32f4xx_cryp_aes.c ****     CRYP_DataIn(__REV(inputlength>>32));
 905:Libraries/STM32F4xx_StdPeriph_Driver/src/stm32f4xx_cryp_aes.c ****     CRYP_DataIn(__REV(inputlength));
 906:Libraries/STM32F4xx_StdPeriph_Driver/src/stm32f4xx_cryp_aes.c ****     /* Wait until the OFNE flag is reset */
 907:Libraries/STM32F4xx_StdPeriph_Driver/src/stm32f4xx_cryp_aes.c ****     while(CRYP_GetFlagStatus(CRYP_FLAG_OFNE) == RESET)
 908:Libraries/STM32F4xx_StdPeriph_Driver/src/stm32f4xx_cryp_aes.c ****     {
 909:Libraries/STM32F4xx_StdPeriph_Driver/src/stm32f4xx_cryp_aes.c ****     }
 910:Libraries/STM32F4xx_StdPeriph_Driver/src/stm32f4xx_cryp_aes.c ****     
 911:Libraries/STM32F4xx_StdPeriph_Driver/src/stm32f4xx_cryp_aes.c ****     tagaddr = (uint32_t)AuthTAG;
 912:Libraries/STM32F4xx_StdPeriph_Driver/src/stm32f4xx_cryp_aes.c ****     /* Read the Auth TAG in the IN FIFO */
 913:Libraries/STM32F4xx_StdPeriph_Driver/src/stm32f4xx_cryp_aes.c ****     *(uint32_t*)(tagaddr) = CRYP_DataOut();
 914:Libraries/STM32F4xx_StdPeriph_Driver/src/stm32f4xx_cryp_aes.c ****     tagaddr+=4;
 915:Libraries/STM32F4xx_StdPeriph_Driver/src/stm32f4xx_cryp_aes.c ****     *(uint32_t*)(tagaddr) = CRYP_DataOut();
 916:Libraries/STM32F4xx_StdPeriph_Driver/src/stm32f4xx_cryp_aes.c ****     tagaddr+=4;
 917:Libraries/STM32F4xx_StdPeriph_Driver/src/stm32f4xx_cryp_aes.c ****     *(uint32_t*)(tagaddr) = CRYP_DataOut();
 918:Libraries/STM32F4xx_StdPeriph_Driver/src/stm32f4xx_cryp_aes.c ****     tagaddr+=4;
 919:Libraries/STM32F4xx_StdPeriph_Driver/src/stm32f4xx_cryp_aes.c ****     *(uint32_t*)(tagaddr) = CRYP_DataOut();
 920:Libraries/STM32F4xx_StdPeriph_Driver/src/stm32f4xx_cryp_aes.c ****     tagaddr+=4;
 921:Libraries/STM32F4xx_StdPeriph_Driver/src/stm32f4xx_cryp_aes.c ****   }
 922:Libraries/STM32F4xx_StdPeriph_Driver/src/stm32f4xx_cryp_aes.c ****   /*------------------ AES Decryption ------------------*/
 923:Libraries/STM32F4xx_StdPeriph_Driver/src/stm32f4xx_cryp_aes.c ****   else /* AES decryption */
 924:Libraries/STM32F4xx_StdPeriph_Driver/src/stm32f4xx_cryp_aes.c ****   {
 925:Libraries/STM32F4xx_StdPeriph_Driver/src/stm32f4xx_cryp_aes.c ****     /* Flush IN/OUT FIFOs */
 926:Libraries/STM32F4xx_StdPeriph_Driver/src/stm32f4xx_cryp_aes.c ****     CRYP_FIFOFlush();
 2291              		.loc 1 926 5 is_stmt 1 view .LVU889
 2292 0064 FFF7FEFF 		bl	CRYP_FIFOFlush
 2293              	.LVL323:
 927:Libraries/STM32F4xx_StdPeriph_Driver/src/stm32f4xx_cryp_aes.c ****     
 928:Libraries/STM32F4xx_StdPeriph_Driver/src/stm32f4xx_cryp_aes.c ****     /* Key Initialisation */
 929:Libraries/STM32F4xx_StdPeriph_Driver/src/stm32f4xx_cryp_aes.c ****     CRYP_KeyInit(&AES_CRYP_KeyInitStructure);
 2294              		.loc 1 929 5 view .LVU890
 2295 0068 0AA8     		add	r0, sp, #40
 2296 006a FFF7FEFF 		bl	CRYP_KeyInit
 2297              	.LVL324:
 930:Libraries/STM32F4xx_StdPeriph_Driver/src/stm32f4xx_cryp_aes.c ****     
 931:Libraries/STM32F4xx_StdPeriph_Driver/src/stm32f4xx_cryp_aes.c ****     /* CRYP Initialization Vectors */
 932:Libraries/STM32F4xx_StdPeriph_Driver/src/stm32f4xx_cryp_aes.c ****     CRYP_IVInit(&AES_CRYP_IVInitStructure);
 2298              		.loc 1 932 5 view .LVU891
 2299 006e 06A8     		add	r0, sp, #24
 2300 0070 FFF7FEFF 		bl	CRYP_IVInit
ARM GAS  /tmp/ccklj7FS.s 			page 73


 2301              	.LVL325:
 933:Libraries/STM32F4xx_StdPeriph_Driver/src/stm32f4xx_cryp_aes.c ****     
 934:Libraries/STM32F4xx_StdPeriph_Driver/src/stm32f4xx_cryp_aes.c ****     /* Crypto Init for Key preparation for decryption process */
 935:Libraries/STM32F4xx_StdPeriph_Driver/src/stm32f4xx_cryp_aes.c ****     AES_CRYP_InitStructure.CRYP_AlgoDir = CRYP_AlgoDir_Decrypt;
 2302              		.loc 1 935 5 view .LVU892
 2303              		.loc 1 935 41 is_stmt 0 view .LVU893
 2304 0074 0423     		movs	r3, #4
 2305 0076 1293     		str	r3, [sp, #72]
 936:Libraries/STM32F4xx_StdPeriph_Driver/src/stm32f4xx_cryp_aes.c ****     AES_CRYP_InitStructure.CRYP_AlgoMode = CRYP_AlgoMode_AES_GCM;
 2306              		.loc 1 936 5 is_stmt 1 view .LVU894
 2307              		.loc 1 936 42 is_stmt 0 view .LVU895
 2308 0078 4FF40023 		mov	r3, #524288
 2309 007c 1393     		str	r3, [sp, #76]
 937:Libraries/STM32F4xx_StdPeriph_Driver/src/stm32f4xx_cryp_aes.c ****     AES_CRYP_InitStructure.CRYP_DataType = CRYP_DataType_8b;
 2310              		.loc 1 937 5 is_stmt 1 view .LVU896
 2311              		.loc 1 937 42 is_stmt 0 view .LVU897
 2312 007e 8023     		movs	r3, #128
 2313 0080 1493     		str	r3, [sp, #80]
 938:Libraries/STM32F4xx_StdPeriph_Driver/src/stm32f4xx_cryp_aes.c ****     CRYP_Init(&AES_CRYP_InitStructure);
 2314              		.loc 1 938 5 is_stmt 1 view .LVU898
 2315 0082 12A8     		add	r0, sp, #72
 2316 0084 FFF7FEFF 		bl	CRYP_Init
 2317              	.LVL326:
 939:Libraries/STM32F4xx_StdPeriph_Driver/src/stm32f4xx_cryp_aes.c ****     
 940:Libraries/STM32F4xx_StdPeriph_Driver/src/stm32f4xx_cryp_aes.c ****     /***************************** Init phase *********************************/
 941:Libraries/STM32F4xx_StdPeriph_Driver/src/stm32f4xx_cryp_aes.c ****     /* Select init phase */
 942:Libraries/STM32F4xx_StdPeriph_Driver/src/stm32f4xx_cryp_aes.c ****     CRYP_PhaseConfig(CRYP_Phase_Init);
 2318              		.loc 1 942 5 view .LVU899
 2319 0088 0020     		movs	r0, #0
 2320 008a FFF7FEFF 		bl	CRYP_PhaseConfig
 2321              	.LVL327:
 943:Libraries/STM32F4xx_StdPeriph_Driver/src/stm32f4xx_cryp_aes.c ****     
 944:Libraries/STM32F4xx_StdPeriph_Driver/src/stm32f4xx_cryp_aes.c ****     /* Enable Crypto processor */
 945:Libraries/STM32F4xx_StdPeriph_Driver/src/stm32f4xx_cryp_aes.c ****     CRYP_Cmd(ENABLE);
 2322              		.loc 1 945 5 view .LVU900
 2323 008e 0120     		movs	r0, #1
 2324 0090 FFF7FEFF 		bl	CRYP_Cmd
 2325              	.LVL328:
 946:Libraries/STM32F4xx_StdPeriph_Driver/src/stm32f4xx_cryp_aes.c ****     
 947:Libraries/STM32F4xx_StdPeriph_Driver/src/stm32f4xx_cryp_aes.c ****     /* Wait for CRYPEN bit to be 0 */
 948:Libraries/STM32F4xx_StdPeriph_Driver/src/stm32f4xx_cryp_aes.c ****     while(CRYP_GetCmdStatus() == ENABLE)
 2326              		.loc 1 948 5 view .LVU901
 2327              	.L77:
 949:Libraries/STM32F4xx_StdPeriph_Driver/src/stm32f4xx_cryp_aes.c ****     {
 950:Libraries/STM32F4xx_StdPeriph_Driver/src/stm32f4xx_cryp_aes.c ****     }
 2328              		.loc 1 950 5 discriminator 1 view .LVU902
 948:Libraries/STM32F4xx_StdPeriph_Driver/src/stm32f4xx_cryp_aes.c ****     {
 2329              		.loc 1 948 10 discriminator 1 view .LVU903
 948:Libraries/STM32F4xx_StdPeriph_Driver/src/stm32f4xx_cryp_aes.c ****     {
 2330              		.loc 1 948 11 is_stmt 0 discriminator 1 view .LVU904
 2331 0094 FFF7FEFF 		bl	CRYP_GetCmdStatus
 2332              	.LVL329:
 948:Libraries/STM32F4xx_StdPeriph_Driver/src/stm32f4xx_cryp_aes.c ****     {
 2333              		.loc 1 948 10 discriminator 1 view .LVU905
 2334 0098 0128     		cmp	r0, #1
 2335 009a FBD0     		beq	.L77
 951:Libraries/STM32F4xx_StdPeriph_Driver/src/stm32f4xx_cryp_aes.c ****     
ARM GAS  /tmp/ccklj7FS.s 			page 74


 952:Libraries/STM32F4xx_StdPeriph_Driver/src/stm32f4xx_cryp_aes.c ****     /***************************** header phase *******************************/
 953:Libraries/STM32F4xx_StdPeriph_Driver/src/stm32f4xx_cryp_aes.c ****     if(HLength != 0)
 2336              		.loc 1 953 5 is_stmt 1 view .LVU906
 2337              		.loc 1 953 7 is_stmt 0 view .LVU907
 2338 009c BAF1000F 		cmp	r10, #0
 2339 00a0 40F03481 		bne	.L101
 674:Libraries/STM32F4xx_StdPeriph_Driver/src/stm32f4xx_cryp_aes.c ****   uint32_t keyaddr    = (uint32_t)Key;
 2340              		.loc 1 674 15 view .LVU908
 2341 00a4 0125     		movs	r5, #1
 2342              	.LVL330:
 2343              	.L78:
 954:Libraries/STM32F4xx_StdPeriph_Driver/src/stm32f4xx_cryp_aes.c ****     {
 955:Libraries/STM32F4xx_StdPeriph_Driver/src/stm32f4xx_cryp_aes.c ****       /* Select header phase */
 956:Libraries/STM32F4xx_StdPeriph_Driver/src/stm32f4xx_cryp_aes.c ****       CRYP_PhaseConfig(CRYP_Phase_Header);
 957:Libraries/STM32F4xx_StdPeriph_Driver/src/stm32f4xx_cryp_aes.c ****       
 958:Libraries/STM32F4xx_StdPeriph_Driver/src/stm32f4xx_cryp_aes.c ****       /* Enable Crypto processor */
 959:Libraries/STM32F4xx_StdPeriph_Driver/src/stm32f4xx_cryp_aes.c ****       CRYP_Cmd(ENABLE);
 960:Libraries/STM32F4xx_StdPeriph_Driver/src/stm32f4xx_cryp_aes.c ****       
 961:Libraries/STM32F4xx_StdPeriph_Driver/src/stm32f4xx_cryp_aes.c ****       if(CRYP_GetCmdStatus() == DISABLE)
 962:Libraries/STM32F4xx_StdPeriph_Driver/src/stm32f4xx_cryp_aes.c ****       {
 963:Libraries/STM32F4xx_StdPeriph_Driver/src/stm32f4xx_cryp_aes.c ****         /* The CRYP peripheral clock is not enabled or the device doesn't embed 
 964:Libraries/STM32F4xx_StdPeriph_Driver/src/stm32f4xx_cryp_aes.c ****            the CRYP peripheral (please check the device sales type. */
 965:Libraries/STM32F4xx_StdPeriph_Driver/src/stm32f4xx_cryp_aes.c ****         return(ERROR);
 966:Libraries/STM32F4xx_StdPeriph_Driver/src/stm32f4xx_cryp_aes.c ****       }
 967:Libraries/STM32F4xx_StdPeriph_Driver/src/stm32f4xx_cryp_aes.c ****       
 968:Libraries/STM32F4xx_StdPeriph_Driver/src/stm32f4xx_cryp_aes.c ****       for(loopcounter = 0; (loopcounter < HLength); loopcounter+=16)
 969:Libraries/STM32F4xx_StdPeriph_Driver/src/stm32f4xx_cryp_aes.c ****       {
 970:Libraries/STM32F4xx_StdPeriph_Driver/src/stm32f4xx_cryp_aes.c ****         /* Wait until the IFEM flag is reset */
 971:Libraries/STM32F4xx_StdPeriph_Driver/src/stm32f4xx_cryp_aes.c ****         while(CRYP_GetFlagStatus(CRYP_FLAG_IFEM) == RESET)
 972:Libraries/STM32F4xx_StdPeriph_Driver/src/stm32f4xx_cryp_aes.c ****         {
 973:Libraries/STM32F4xx_StdPeriph_Driver/src/stm32f4xx_cryp_aes.c ****         }
 974:Libraries/STM32F4xx_StdPeriph_Driver/src/stm32f4xx_cryp_aes.c ****         
 975:Libraries/STM32F4xx_StdPeriph_Driver/src/stm32f4xx_cryp_aes.c ****         /* Write the Input block in the IN FIFO */
 976:Libraries/STM32F4xx_StdPeriph_Driver/src/stm32f4xx_cryp_aes.c ****         CRYP_DataIn(*(uint32_t*)(headeraddr));
 977:Libraries/STM32F4xx_StdPeriph_Driver/src/stm32f4xx_cryp_aes.c ****         headeraddr+=4;
 978:Libraries/STM32F4xx_StdPeriph_Driver/src/stm32f4xx_cryp_aes.c ****         CRYP_DataIn(*(uint32_t*)(headeraddr));
 979:Libraries/STM32F4xx_StdPeriph_Driver/src/stm32f4xx_cryp_aes.c ****         headeraddr+=4;
 980:Libraries/STM32F4xx_StdPeriph_Driver/src/stm32f4xx_cryp_aes.c ****         CRYP_DataIn(*(uint32_t*)(headeraddr));
 981:Libraries/STM32F4xx_StdPeriph_Driver/src/stm32f4xx_cryp_aes.c ****         headeraddr+=4;
 982:Libraries/STM32F4xx_StdPeriph_Driver/src/stm32f4xx_cryp_aes.c ****         CRYP_DataIn(*(uint32_t*)(headeraddr));
 983:Libraries/STM32F4xx_StdPeriph_Driver/src/stm32f4xx_cryp_aes.c ****         headeraddr+=4;
 984:Libraries/STM32F4xx_StdPeriph_Driver/src/stm32f4xx_cryp_aes.c ****       }
 985:Libraries/STM32F4xx_StdPeriph_Driver/src/stm32f4xx_cryp_aes.c ****       
 986:Libraries/STM32F4xx_StdPeriph_Driver/src/stm32f4xx_cryp_aes.c ****       /* Wait until the complete message has been processed */
 987:Libraries/STM32F4xx_StdPeriph_Driver/src/stm32f4xx_cryp_aes.c ****       counter = 0;
 988:Libraries/STM32F4xx_StdPeriph_Driver/src/stm32f4xx_cryp_aes.c ****       do
 989:Libraries/STM32F4xx_StdPeriph_Driver/src/stm32f4xx_cryp_aes.c ****       {
 990:Libraries/STM32F4xx_StdPeriph_Driver/src/stm32f4xx_cryp_aes.c ****         busystatus = CRYP_GetFlagStatus(CRYP_FLAG_BUSY);
 991:Libraries/STM32F4xx_StdPeriph_Driver/src/stm32f4xx_cryp_aes.c ****         counter++;
 992:Libraries/STM32F4xx_StdPeriph_Driver/src/stm32f4xx_cryp_aes.c ****       }while ((counter != AESBUSY_TIMEOUT) && (busystatus != RESET));
 993:Libraries/STM32F4xx_StdPeriph_Driver/src/stm32f4xx_cryp_aes.c **** 
 994:Libraries/STM32F4xx_StdPeriph_Driver/src/stm32f4xx_cryp_aes.c ****       if (busystatus != RESET)
 995:Libraries/STM32F4xx_StdPeriph_Driver/src/stm32f4xx_cryp_aes.c ****       {
 996:Libraries/STM32F4xx_StdPeriph_Driver/src/stm32f4xx_cryp_aes.c ****         status = ERROR;
 997:Libraries/STM32F4xx_StdPeriph_Driver/src/stm32f4xx_cryp_aes.c ****       }
 998:Libraries/STM32F4xx_StdPeriph_Driver/src/stm32f4xx_cryp_aes.c ****     }
 999:Libraries/STM32F4xx_StdPeriph_Driver/src/stm32f4xx_cryp_aes.c ****     
ARM GAS  /tmp/ccklj7FS.s 			page 75


1000:Libraries/STM32F4xx_StdPeriph_Driver/src/stm32f4xx_cryp_aes.c ****     /**************************** payload phase *******************************/
1001:Libraries/STM32F4xx_StdPeriph_Driver/src/stm32f4xx_cryp_aes.c ****     if(ILength != 0)
 2344              		.loc 1 1001 5 is_stmt 1 view .LVU909
 2345              		.loc 1 1001 7 is_stmt 0 view .LVU910
 2346 00a6 B9F1000F 		cmp	r9, #0
 2347 00aa 00F0A681 		beq	.L83
1002:Libraries/STM32F4xx_StdPeriph_Driver/src/stm32f4xx_cryp_aes.c ****     {
1003:Libraries/STM32F4xx_StdPeriph_Driver/src/stm32f4xx_cryp_aes.c ****       /* Select payload phase */
1004:Libraries/STM32F4xx_StdPeriph_Driver/src/stm32f4xx_cryp_aes.c ****       CRYP_PhaseConfig(CRYP_Phase_Payload);
 2348              		.loc 1 1004 7 is_stmt 1 view .LVU911
 2349 00ae 4FF40030 		mov	r0, #131072
 2350 00b2 FFF7FEFF 		bl	CRYP_PhaseConfig
 2351              	.LVL331:
1005:Libraries/STM32F4xx_StdPeriph_Driver/src/stm32f4xx_cryp_aes.c **** 
1006:Libraries/STM32F4xx_StdPeriph_Driver/src/stm32f4xx_cryp_aes.c ****       /* Enable Crypto processor */
1007:Libraries/STM32F4xx_StdPeriph_Driver/src/stm32f4xx_cryp_aes.c ****       CRYP_Cmd(ENABLE);
 2352              		.loc 1 1007 7 view .LVU912
 2353 00b6 0120     		movs	r0, #1
 2354 00b8 FFF7FEFF 		bl	CRYP_Cmd
 2355              	.LVL332:
1008:Libraries/STM32F4xx_StdPeriph_Driver/src/stm32f4xx_cryp_aes.c ****       
1009:Libraries/STM32F4xx_StdPeriph_Driver/src/stm32f4xx_cryp_aes.c ****       if(CRYP_GetCmdStatus() == DISABLE)
 2356              		.loc 1 1009 7 view .LVU913
 2357              		.loc 1 1009 10 is_stmt 0 view .LVU914
 2358 00bc FFF7FEFF 		bl	CRYP_GetCmdStatus
 2359              	.LVL333:
 2360              		.loc 1 1009 9 view .LVU915
 2361 00c0 0646     		mov	r6, r0
 2362 00c2 0028     		cmp	r0, #0
 2363 00c4 00F0CB81 		beq	.L63
1010:Libraries/STM32F4xx_StdPeriph_Driver/src/stm32f4xx_cryp_aes.c ****       {
1011:Libraries/STM32F4xx_StdPeriph_Driver/src/stm32f4xx_cryp_aes.c ****         /* The CRYP peripheral clock is not enabled or the device doesn't embed 
1012:Libraries/STM32F4xx_StdPeriph_Driver/src/stm32f4xx_cryp_aes.c ****            the CRYP peripheral (please check the device sales type. */
1013:Libraries/STM32F4xx_StdPeriph_Driver/src/stm32f4xx_cryp_aes.c ****         return(ERROR);
1014:Libraries/STM32F4xx_StdPeriph_Driver/src/stm32f4xx_cryp_aes.c ****       }
1015:Libraries/STM32F4xx_StdPeriph_Driver/src/stm32f4xx_cryp_aes.c ****       
1016:Libraries/STM32F4xx_StdPeriph_Driver/src/stm32f4xx_cryp_aes.c ****       for(loopcounter = 0; ((loopcounter < ILength) && (status != ERROR)); loopcounter+=16)
 2364              		.loc 1 1016 23 view .LVU916
 2365 00c8 0026     		movs	r6, #0
 2366              	.LVL334:
 2367              		.loc 1 1016 23 view .LVU917
 2368 00ca 59E1     		b	.L84
 2369              	.LVL335:
 2370              	.L99:
 691:Libraries/STM32F4xx_StdPeriph_Driver/src/stm32f4xx_cryp_aes.c ****     AES_CRYP_KeyInitStructure.CRYP_Key2Left = __REV(*(uint32_t*)(keyaddr));
 2371              		.loc 1 691 5 is_stmt 1 view .LVU918
 691:Libraries/STM32F4xx_StdPeriph_Driver/src/stm32f4xx_cryp_aes.c ****     AES_CRYP_KeyInitStructure.CRYP_Key2Left = __REV(*(uint32_t*)(keyaddr));
 2372              		.loc 1 691 41 is_stmt 0 view .LVU919
 2373 00cc 0023     		movs	r3, #0
 2374 00ce 1593     		str	r3, [sp, #84]
 692:Libraries/STM32F4xx_StdPeriph_Driver/src/stm32f4xx_cryp_aes.c ****     keyaddr+=4;
 2375              		.loc 1 692 5 is_stmt 1 view .LVU920
 692:Libraries/STM32F4xx_StdPeriph_Driver/src/stm32f4xx_cryp_aes.c ****     keyaddr+=4;
 2376              		.loc 1 692 47 is_stmt 0 view .LVU921
 2377 00d0 3368     		ldr	r3, [r6]
 2378              	.LVL336:
 2379              	.LBB362:
ARM GAS  /tmp/ccklj7FS.s 			page 76


 2380              	.LBI362:
 495:Libraries/CMSIS/Include/core_cmInstr.h **** {
 2381              		.loc 2 495 57 is_stmt 1 view .LVU922
 2382              	.LBB363:
 2383              		.loc 2 498 3 view .LVU923
 2384              		.loc 2 498 10 is_stmt 0 view .LVU924
 2385 00d2 1BBA     		rev	r3, r3
 2386              	.LVL337:
 2387              		.loc 2 498 10 view .LVU925
 2388              	.LBE363:
 2389              	.LBE362:
 692:Libraries/STM32F4xx_StdPeriph_Driver/src/stm32f4xx_cryp_aes.c ****     keyaddr+=4;
 2390              		.loc 1 692 45 view .LVU926
 2391 00d4 0E93     		str	r3, [sp, #56]
 693:Libraries/STM32F4xx_StdPeriph_Driver/src/stm32f4xx_cryp_aes.c ****     AES_CRYP_KeyInitStructure.CRYP_Key2Right= __REV(*(uint32_t*)(keyaddr));
 2392              		.loc 1 693 5 is_stmt 1 view .LVU927
 2393              	.LVL338:
 694:Libraries/STM32F4xx_StdPeriph_Driver/src/stm32f4xx_cryp_aes.c ****     keyaddr+=4;
 2394              		.loc 1 694 5 view .LVU928
 694:Libraries/STM32F4xx_StdPeriph_Driver/src/stm32f4xx_cryp_aes.c ****     keyaddr+=4;
 2395              		.loc 1 694 47 is_stmt 0 view .LVU929
 2396 00d6 7368     		ldr	r3, [r6, #4]
 2397              	.LVL339:
 2398              	.LBB364:
 2399              	.LBI364:
 495:Libraries/CMSIS/Include/core_cmInstr.h **** {
 2400              		.loc 2 495 57 is_stmt 1 view .LVU930
 2401              	.LBB365:
 2402              		.loc 2 498 3 view .LVU931
 2403              		.loc 2 498 10 is_stmt 0 view .LVU932
 2404 00d8 1BBA     		rev	r3, r3
 2405              	.LVL340:
 2406              		.loc 2 498 10 view .LVU933
 2407              	.LBE365:
 2408              	.LBE364:
 694:Libraries/STM32F4xx_StdPeriph_Driver/src/stm32f4xx_cryp_aes.c ****     keyaddr+=4;
 2409              		.loc 1 694 45 view .LVU934
 2410 00da 0F93     		str	r3, [sp, #60]
 695:Libraries/STM32F4xx_StdPeriph_Driver/src/stm32f4xx_cryp_aes.c ****     AES_CRYP_KeyInitStructure.CRYP_Key3Left = __REV(*(uint32_t*)(keyaddr));
 2411              		.loc 1 695 5 is_stmt 1 view .LVU935
 2412              	.LVL341:
 696:Libraries/STM32F4xx_StdPeriph_Driver/src/stm32f4xx_cryp_aes.c ****     keyaddr+=4;
 2413              		.loc 1 696 5 view .LVU936
 696:Libraries/STM32F4xx_StdPeriph_Driver/src/stm32f4xx_cryp_aes.c ****     keyaddr+=4;
 2414              		.loc 1 696 47 is_stmt 0 view .LVU937
 2415 00dc B368     		ldr	r3, [r6, #8]
 2416              	.LVL342:
 2417              	.LBB366:
 2418              	.LBI366:
 495:Libraries/CMSIS/Include/core_cmInstr.h **** {
 2419              		.loc 2 495 57 is_stmt 1 view .LVU938
 2420              	.LBB367:
 2421              		.loc 2 498 3 view .LVU939
 2422              		.loc 2 498 10 is_stmt 0 view .LVU940
 2423 00de 1BBA     		rev	r3, r3
 2424              	.LVL343:
 2425              		.loc 2 498 10 view .LVU941
ARM GAS  /tmp/ccklj7FS.s 			page 77


 2426              	.LBE367:
 2427              	.LBE366:
 696:Libraries/STM32F4xx_StdPeriph_Driver/src/stm32f4xx_cryp_aes.c ****     keyaddr+=4;
 2428              		.loc 1 696 45 view .LVU942
 2429 00e0 1093     		str	r3, [sp, #64]
 697:Libraries/STM32F4xx_StdPeriph_Driver/src/stm32f4xx_cryp_aes.c ****     AES_CRYP_KeyInitStructure.CRYP_Key3Right= __REV(*(uint32_t*)(keyaddr));
 2430              		.loc 1 697 5 is_stmt 1 view .LVU943
 2431              	.LVL344:
 698:Libraries/STM32F4xx_StdPeriph_Driver/src/stm32f4xx_cryp_aes.c ****     break;
 2432              		.loc 1 698 5 view .LVU944
 698:Libraries/STM32F4xx_StdPeriph_Driver/src/stm32f4xx_cryp_aes.c ****     break;
 2433              		.loc 1 698 47 is_stmt 0 view .LVU945
 2434 00e2 F368     		ldr	r3, [r6, #12]
 2435              	.LVL345:
 2436              	.LBB368:
 2437              	.LBI368:
 495:Libraries/CMSIS/Include/core_cmInstr.h **** {
 2438              		.loc 2 495 57 is_stmt 1 view .LVU946
 2439              	.LBB369:
 2440              		.loc 2 498 3 view .LVU947
 2441              		.loc 2 498 10 is_stmt 0 view .LVU948
 2442 00e4 1BBA     		rev	r3, r3
 2443              	.LVL346:
 2444              		.loc 2 498 10 view .LVU949
 2445              	.LBE369:
 2446              	.LBE368:
 698:Libraries/STM32F4xx_StdPeriph_Driver/src/stm32f4xx_cryp_aes.c ****     break;
 2447              		.loc 1 698 45 view .LVU950
 2448 00e6 1193     		str	r3, [sp, #68]
 699:Libraries/STM32F4xx_StdPeriph_Driver/src/stm32f4xx_cryp_aes.c ****     case 192:
 2449              		.loc 1 699 5 is_stmt 1 view .LVU951
 2450 00e8 ADE7     		b	.L59
 2451              	.LVL347:
 2452              	.L57:
 701:Libraries/STM32F4xx_StdPeriph_Driver/src/stm32f4xx_cryp_aes.c ****     AES_CRYP_KeyInitStructure.CRYP_Key1Left = __REV(*(uint32_t*)(keyaddr));
 2453              		.loc 1 701 5 view .LVU952
 701:Libraries/STM32F4xx_StdPeriph_Driver/src/stm32f4xx_cryp_aes.c ****     AES_CRYP_KeyInitStructure.CRYP_Key1Left = __REV(*(uint32_t*)(keyaddr));
 2454              		.loc 1 701 42 is_stmt 0 view .LVU953
 2455 00ea 4FF48073 		mov	r3, #256
 2456 00ee 1593     		str	r3, [sp, #84]
 702:Libraries/STM32F4xx_StdPeriph_Driver/src/stm32f4xx_cryp_aes.c ****     keyaddr+=4;
 2457              		.loc 1 702 5 is_stmt 1 view .LVU954
 702:Libraries/STM32F4xx_StdPeriph_Driver/src/stm32f4xx_cryp_aes.c ****     keyaddr+=4;
 2458              		.loc 1 702 47 is_stmt 0 view .LVU955
 2459 00f0 3368     		ldr	r3, [r6]
 2460              	.LVL348:
 2461              	.LBB370:
 2462              	.LBI370:
 495:Libraries/CMSIS/Include/core_cmInstr.h **** {
 2463              		.loc 2 495 57 is_stmt 1 view .LVU956
 2464              	.LBB371:
 2465              		.loc 2 498 3 view .LVU957
 2466              		.loc 2 498 10 is_stmt 0 view .LVU958
 2467 00f2 1BBA     		rev	r3, r3
 2468              	.LVL349:
 2469              		.loc 2 498 10 view .LVU959
 2470              	.LBE371:
ARM GAS  /tmp/ccklj7FS.s 			page 78


 2471              	.LBE370:
 702:Libraries/STM32F4xx_StdPeriph_Driver/src/stm32f4xx_cryp_aes.c ****     keyaddr+=4;
 2472              		.loc 1 702 45 view .LVU960
 2473 00f4 0C93     		str	r3, [sp, #48]
 703:Libraries/STM32F4xx_StdPeriph_Driver/src/stm32f4xx_cryp_aes.c ****     AES_CRYP_KeyInitStructure.CRYP_Key1Right= __REV(*(uint32_t*)(keyaddr));
 2474              		.loc 1 703 5 is_stmt 1 view .LVU961
 2475              	.LVL350:
 704:Libraries/STM32F4xx_StdPeriph_Driver/src/stm32f4xx_cryp_aes.c ****     keyaddr+=4;
 2476              		.loc 1 704 5 view .LVU962
 704:Libraries/STM32F4xx_StdPeriph_Driver/src/stm32f4xx_cryp_aes.c ****     keyaddr+=4;
 2477              		.loc 1 704 47 is_stmt 0 view .LVU963
 2478 00f6 7368     		ldr	r3, [r6, #4]
 2479              	.LVL351:
 2480              	.LBB372:
 2481              	.LBI372:
 495:Libraries/CMSIS/Include/core_cmInstr.h **** {
 2482              		.loc 2 495 57 is_stmt 1 view .LVU964
 2483              	.LBB373:
 2484              		.loc 2 498 3 view .LVU965
 2485              		.loc 2 498 10 is_stmt 0 view .LVU966
 2486 00f8 1BBA     		rev	r3, r3
 2487              	.LVL352:
 2488              		.loc 2 498 10 view .LVU967
 2489              	.LBE373:
 2490              	.LBE372:
 704:Libraries/STM32F4xx_StdPeriph_Driver/src/stm32f4xx_cryp_aes.c ****     keyaddr+=4;
 2491              		.loc 1 704 45 view .LVU968
 2492 00fa 0D93     		str	r3, [sp, #52]
 705:Libraries/STM32F4xx_StdPeriph_Driver/src/stm32f4xx_cryp_aes.c ****     AES_CRYP_KeyInitStructure.CRYP_Key2Left = __REV(*(uint32_t*)(keyaddr));
 2493              		.loc 1 705 5 is_stmt 1 view .LVU969
 2494              	.LVL353:
 706:Libraries/STM32F4xx_StdPeriph_Driver/src/stm32f4xx_cryp_aes.c ****     keyaddr+=4;
 2495              		.loc 1 706 5 view .LVU970
 706:Libraries/STM32F4xx_StdPeriph_Driver/src/stm32f4xx_cryp_aes.c ****     keyaddr+=4;
 2496              		.loc 1 706 47 is_stmt 0 view .LVU971
 2497 00fc B368     		ldr	r3, [r6, #8]
 2498              	.LVL354:
 2499              	.LBB374:
 2500              	.LBI374:
 495:Libraries/CMSIS/Include/core_cmInstr.h **** {
 2501              		.loc 2 495 57 is_stmt 1 view .LVU972
 2502              	.LBB375:
 2503              		.loc 2 498 3 view .LVU973
 2504              		.loc 2 498 10 is_stmt 0 view .LVU974
 2505 00fe 1BBA     		rev	r3, r3
 2506              	.LVL355:
 2507              		.loc 2 498 10 view .LVU975
 2508              	.LBE375:
 2509              	.LBE374:
 706:Libraries/STM32F4xx_StdPeriph_Driver/src/stm32f4xx_cryp_aes.c ****     keyaddr+=4;
 2510              		.loc 1 706 45 view .LVU976
 2511 0100 0E93     		str	r3, [sp, #56]
 707:Libraries/STM32F4xx_StdPeriph_Driver/src/stm32f4xx_cryp_aes.c ****     AES_CRYP_KeyInitStructure.CRYP_Key2Right= __REV(*(uint32_t*)(keyaddr));
 2512              		.loc 1 707 5 is_stmt 1 view .LVU977
 2513              	.LVL356:
 708:Libraries/STM32F4xx_StdPeriph_Driver/src/stm32f4xx_cryp_aes.c ****     keyaddr+=4;
 2514              		.loc 1 708 5 view .LVU978
ARM GAS  /tmp/ccklj7FS.s 			page 79


 708:Libraries/STM32F4xx_StdPeriph_Driver/src/stm32f4xx_cryp_aes.c ****     keyaddr+=4;
 2515              		.loc 1 708 47 is_stmt 0 view .LVU979
 2516 0102 F368     		ldr	r3, [r6, #12]
 2517              	.LVL357:
 2518              	.LBB376:
 2519              	.LBI376:
 495:Libraries/CMSIS/Include/core_cmInstr.h **** {
 2520              		.loc 2 495 57 is_stmt 1 view .LVU980
 2521              	.LBB377:
 2522              		.loc 2 498 3 view .LVU981
 2523              		.loc 2 498 10 is_stmt 0 view .LVU982
 2524 0104 1BBA     		rev	r3, r3
 2525              	.LVL358:
 2526              		.loc 2 498 10 view .LVU983
 2527              	.LBE377:
 2528              	.LBE376:
 708:Libraries/STM32F4xx_StdPeriph_Driver/src/stm32f4xx_cryp_aes.c ****     keyaddr+=4;
 2529              		.loc 1 708 45 view .LVU984
 2530 0106 0F93     		str	r3, [sp, #60]
 709:Libraries/STM32F4xx_StdPeriph_Driver/src/stm32f4xx_cryp_aes.c ****     AES_CRYP_KeyInitStructure.CRYP_Key3Left = __REV(*(uint32_t*)(keyaddr));
 2531              		.loc 1 709 5 is_stmt 1 view .LVU985
 2532              	.LVL359:
 710:Libraries/STM32F4xx_StdPeriph_Driver/src/stm32f4xx_cryp_aes.c ****     keyaddr+=4;
 2533              		.loc 1 710 5 view .LVU986
 710:Libraries/STM32F4xx_StdPeriph_Driver/src/stm32f4xx_cryp_aes.c ****     keyaddr+=4;
 2534              		.loc 1 710 47 is_stmt 0 view .LVU987
 2535 0108 3369     		ldr	r3, [r6, #16]
 2536              	.LVL360:
 2537              	.LBB378:
 2538              	.LBI378:
 495:Libraries/CMSIS/Include/core_cmInstr.h **** {
 2539              		.loc 2 495 57 is_stmt 1 view .LVU988
 2540              	.LBB379:
 2541              		.loc 2 498 3 view .LVU989
 2542              		.loc 2 498 10 is_stmt 0 view .LVU990
 2543 010a 1BBA     		rev	r3, r3
 2544              	.LVL361:
 2545              		.loc 2 498 10 view .LVU991
 2546              	.LBE379:
 2547              	.LBE378:
 710:Libraries/STM32F4xx_StdPeriph_Driver/src/stm32f4xx_cryp_aes.c ****     keyaddr+=4;
 2548              		.loc 1 710 45 view .LVU992
 2549 010c 1093     		str	r3, [sp, #64]
 711:Libraries/STM32F4xx_StdPeriph_Driver/src/stm32f4xx_cryp_aes.c ****     AES_CRYP_KeyInitStructure.CRYP_Key3Right= __REV(*(uint32_t*)(keyaddr));
 2550              		.loc 1 711 5 is_stmt 1 view .LVU993
 2551              	.LVL362:
 712:Libraries/STM32F4xx_StdPeriph_Driver/src/stm32f4xx_cryp_aes.c ****     break;
 2552              		.loc 1 712 5 view .LVU994
 712:Libraries/STM32F4xx_StdPeriph_Driver/src/stm32f4xx_cryp_aes.c ****     break;
 2553              		.loc 1 712 47 is_stmt 0 view .LVU995
 2554 010e 7369     		ldr	r3, [r6, #20]
 2555              	.LVL363:
 2556              	.LBB380:
 2557              	.LBI380:
 495:Libraries/CMSIS/Include/core_cmInstr.h **** {
 2558              		.loc 2 495 57 is_stmt 1 view .LVU996
 2559              	.LBB381:
ARM GAS  /tmp/ccklj7FS.s 			page 80


 2560              		.loc 2 498 3 view .LVU997
 2561              		.loc 2 498 10 is_stmt 0 view .LVU998
 2562 0110 1BBA     		rev	r3, r3
 2563              	.LVL364:
 2564              		.loc 2 498 10 view .LVU999
 2565              	.LBE381:
 2566              	.LBE380:
 712:Libraries/STM32F4xx_StdPeriph_Driver/src/stm32f4xx_cryp_aes.c ****     break;
 2567              		.loc 1 712 45 view .LVU1000
 2568 0112 1193     		str	r3, [sp, #68]
 713:Libraries/STM32F4xx_StdPeriph_Driver/src/stm32f4xx_cryp_aes.c ****     case 256:
 2569              		.loc 1 713 5 is_stmt 1 view .LVU1001
 2570 0114 97E7     		b	.L59
 2571              	.LVL365:
 2572              	.L58:
 715:Libraries/STM32F4xx_StdPeriph_Driver/src/stm32f4xx_cryp_aes.c ****     AES_CRYP_KeyInitStructure.CRYP_Key0Left = __REV(*(uint32_t*)(keyaddr));
 2573              		.loc 1 715 5 view .LVU1002
 715:Libraries/STM32F4xx_StdPeriph_Driver/src/stm32f4xx_cryp_aes.c ****     AES_CRYP_KeyInitStructure.CRYP_Key0Left = __REV(*(uint32_t*)(keyaddr));
 2574              		.loc 1 715 42 is_stmt 0 view .LVU1003
 2575 0116 4FF40073 		mov	r3, #512
 2576 011a 1593     		str	r3, [sp, #84]
 716:Libraries/STM32F4xx_StdPeriph_Driver/src/stm32f4xx_cryp_aes.c ****     keyaddr+=4;
 2577              		.loc 1 716 5 is_stmt 1 view .LVU1004
 716:Libraries/STM32F4xx_StdPeriph_Driver/src/stm32f4xx_cryp_aes.c ****     keyaddr+=4;
 2578              		.loc 1 716 47 is_stmt 0 view .LVU1005
 2579 011c 3368     		ldr	r3, [r6]
 2580              	.LVL366:
 2581              	.LBB382:
 2582              	.LBI382:
 495:Libraries/CMSIS/Include/core_cmInstr.h **** {
 2583              		.loc 2 495 57 is_stmt 1 view .LVU1006
 2584              	.LBB383:
 2585              		.loc 2 498 3 view .LVU1007
 2586              		.loc 2 498 10 is_stmt 0 view .LVU1008
 2587 011e 1BBA     		rev	r3, r3
 2588              	.LVL367:
 2589              		.loc 2 498 10 view .LVU1009
 2590              	.LBE383:
 2591              	.LBE382:
 716:Libraries/STM32F4xx_StdPeriph_Driver/src/stm32f4xx_cryp_aes.c ****     keyaddr+=4;
 2592              		.loc 1 716 45 view .LVU1010
 2593 0120 0A93     		str	r3, [sp, #40]
 717:Libraries/STM32F4xx_StdPeriph_Driver/src/stm32f4xx_cryp_aes.c ****     AES_CRYP_KeyInitStructure.CRYP_Key0Right= __REV(*(uint32_t*)(keyaddr));
 2594              		.loc 1 717 5 is_stmt 1 view .LVU1011
 2595              	.LVL368:
 718:Libraries/STM32F4xx_StdPeriph_Driver/src/stm32f4xx_cryp_aes.c ****     keyaddr+=4;
 2596              		.loc 1 718 5 view .LVU1012
 718:Libraries/STM32F4xx_StdPeriph_Driver/src/stm32f4xx_cryp_aes.c ****     keyaddr+=4;
 2597              		.loc 1 718 47 is_stmt 0 view .LVU1013
 2598 0122 7368     		ldr	r3, [r6, #4]
 2599              	.LVL369:
 2600              	.LBB384:
 2601              	.LBI384:
 495:Libraries/CMSIS/Include/core_cmInstr.h **** {
 2602              		.loc 2 495 57 is_stmt 1 view .LVU1014
 2603              	.LBB385:
 2604              		.loc 2 498 3 view .LVU1015
ARM GAS  /tmp/ccklj7FS.s 			page 81


 2605              		.loc 2 498 10 is_stmt 0 view .LVU1016
 2606 0124 1BBA     		rev	r3, r3
 2607              	.LVL370:
 2608              		.loc 2 498 10 view .LVU1017
 2609              	.LBE385:
 2610              	.LBE384:
 718:Libraries/STM32F4xx_StdPeriph_Driver/src/stm32f4xx_cryp_aes.c ****     keyaddr+=4;
 2611              		.loc 1 718 45 view .LVU1018
 2612 0126 0B93     		str	r3, [sp, #44]
 719:Libraries/STM32F4xx_StdPeriph_Driver/src/stm32f4xx_cryp_aes.c ****     AES_CRYP_KeyInitStructure.CRYP_Key1Left = __REV(*(uint32_t*)(keyaddr));
 2613              		.loc 1 719 5 is_stmt 1 view .LVU1019
 2614              	.LVL371:
 720:Libraries/STM32F4xx_StdPeriph_Driver/src/stm32f4xx_cryp_aes.c ****     keyaddr+=4;
 2615              		.loc 1 720 5 view .LVU1020
 720:Libraries/STM32F4xx_StdPeriph_Driver/src/stm32f4xx_cryp_aes.c ****     keyaddr+=4;
 2616              		.loc 1 720 47 is_stmt 0 view .LVU1021
 2617 0128 B368     		ldr	r3, [r6, #8]
 2618              	.LVL372:
 2619              	.LBB386:
 2620              	.LBI386:
 495:Libraries/CMSIS/Include/core_cmInstr.h **** {
 2621              		.loc 2 495 57 is_stmt 1 view .LVU1022
 2622              	.LBB387:
 2623              		.loc 2 498 3 view .LVU1023
 2624              		.loc 2 498 10 is_stmt 0 view .LVU1024
 2625 012a 1BBA     		rev	r3, r3
 2626              	.LVL373:
 2627              		.loc 2 498 10 view .LVU1025
 2628              	.LBE387:
 2629              	.LBE386:
 720:Libraries/STM32F4xx_StdPeriph_Driver/src/stm32f4xx_cryp_aes.c ****     keyaddr+=4;
 2630              		.loc 1 720 45 view .LVU1026
 2631 012c 0C93     		str	r3, [sp, #48]
 721:Libraries/STM32F4xx_StdPeriph_Driver/src/stm32f4xx_cryp_aes.c ****     AES_CRYP_KeyInitStructure.CRYP_Key1Right= __REV(*(uint32_t*)(keyaddr));
 2632              		.loc 1 721 5 is_stmt 1 view .LVU1027
 2633              	.LVL374:
 722:Libraries/STM32F4xx_StdPeriph_Driver/src/stm32f4xx_cryp_aes.c ****     keyaddr+=4;
 2634              		.loc 1 722 5 view .LVU1028
 722:Libraries/STM32F4xx_StdPeriph_Driver/src/stm32f4xx_cryp_aes.c ****     keyaddr+=4;
 2635              		.loc 1 722 47 is_stmt 0 view .LVU1029
 2636 012e F368     		ldr	r3, [r6, #12]
 2637              	.LVL375:
 2638              	.LBB388:
 2639              	.LBI388:
 495:Libraries/CMSIS/Include/core_cmInstr.h **** {
 2640              		.loc 2 495 57 is_stmt 1 view .LVU1030
 2641              	.LBB389:
 2642              		.loc 2 498 3 view .LVU1031
 2643              		.loc 2 498 10 is_stmt 0 view .LVU1032
 2644 0130 1BBA     		rev	r3, r3
 2645              	.LVL376:
 2646              		.loc 2 498 10 view .LVU1033
 2647              	.LBE389:
 2648              	.LBE388:
 722:Libraries/STM32F4xx_StdPeriph_Driver/src/stm32f4xx_cryp_aes.c ****     keyaddr+=4;
 2649              		.loc 1 722 45 view .LVU1034
 2650 0132 0D93     		str	r3, [sp, #52]
ARM GAS  /tmp/ccklj7FS.s 			page 82


 723:Libraries/STM32F4xx_StdPeriph_Driver/src/stm32f4xx_cryp_aes.c ****     AES_CRYP_KeyInitStructure.CRYP_Key2Left = __REV(*(uint32_t*)(keyaddr));
 2651              		.loc 1 723 5 is_stmt 1 view .LVU1035
 2652              	.LVL377:
 724:Libraries/STM32F4xx_StdPeriph_Driver/src/stm32f4xx_cryp_aes.c ****     keyaddr+=4;
 2653              		.loc 1 724 5 view .LVU1036
 724:Libraries/STM32F4xx_StdPeriph_Driver/src/stm32f4xx_cryp_aes.c ****     keyaddr+=4;
 2654              		.loc 1 724 47 is_stmt 0 view .LVU1037
 2655 0134 3369     		ldr	r3, [r6, #16]
 2656              	.LVL378:
 2657              	.LBB390:
 2658              	.LBI390:
 495:Libraries/CMSIS/Include/core_cmInstr.h **** {
 2659              		.loc 2 495 57 is_stmt 1 view .LVU1038
 2660              	.LBB391:
 2661              		.loc 2 498 3 view .LVU1039
 2662              		.loc 2 498 10 is_stmt 0 view .LVU1040
 2663 0136 1BBA     		rev	r3, r3
 2664              	.LVL379:
 2665              		.loc 2 498 10 view .LVU1041
 2666              	.LBE391:
 2667              	.LBE390:
 724:Libraries/STM32F4xx_StdPeriph_Driver/src/stm32f4xx_cryp_aes.c ****     keyaddr+=4;
 2668              		.loc 1 724 45 view .LVU1042
 2669 0138 0E93     		str	r3, [sp, #56]
 725:Libraries/STM32F4xx_StdPeriph_Driver/src/stm32f4xx_cryp_aes.c ****     AES_CRYP_KeyInitStructure.CRYP_Key2Right= __REV(*(uint32_t*)(keyaddr));
 2670              		.loc 1 725 5 is_stmt 1 view .LVU1043
 2671              	.LVL380:
 726:Libraries/STM32F4xx_StdPeriph_Driver/src/stm32f4xx_cryp_aes.c ****     keyaddr+=4;
 2672              		.loc 1 726 5 view .LVU1044
 726:Libraries/STM32F4xx_StdPeriph_Driver/src/stm32f4xx_cryp_aes.c ****     keyaddr+=4;
 2673              		.loc 1 726 47 is_stmt 0 view .LVU1045
 2674 013a 7369     		ldr	r3, [r6, #20]
 2675              	.LVL381:
 2676              	.LBB392:
 2677              	.LBI392:
 495:Libraries/CMSIS/Include/core_cmInstr.h **** {
 2678              		.loc 2 495 57 is_stmt 1 view .LVU1046
 2679              	.LBB393:
 2680              		.loc 2 498 3 view .LVU1047
 2681              		.loc 2 498 10 is_stmt 0 view .LVU1048
 2682 013c 1BBA     		rev	r3, r3
 2683              	.LVL382:
 2684              		.loc 2 498 10 view .LVU1049
 2685              	.LBE393:
 2686              	.LBE392:
 726:Libraries/STM32F4xx_StdPeriph_Driver/src/stm32f4xx_cryp_aes.c ****     keyaddr+=4;
 2687              		.loc 1 726 45 view .LVU1050
 2688 013e 0F93     		str	r3, [sp, #60]
 727:Libraries/STM32F4xx_StdPeriph_Driver/src/stm32f4xx_cryp_aes.c ****     AES_CRYP_KeyInitStructure.CRYP_Key3Left = __REV(*(uint32_t*)(keyaddr));
 2689              		.loc 1 727 5 is_stmt 1 view .LVU1051
 2690              	.LVL383:
 728:Libraries/STM32F4xx_StdPeriph_Driver/src/stm32f4xx_cryp_aes.c ****     keyaddr+=4;
 2691              		.loc 1 728 5 view .LVU1052
 728:Libraries/STM32F4xx_StdPeriph_Driver/src/stm32f4xx_cryp_aes.c ****     keyaddr+=4;
 2692              		.loc 1 728 47 is_stmt 0 view .LVU1053
 2693 0140 B369     		ldr	r3, [r6, #24]
 2694              	.LVL384:
ARM GAS  /tmp/ccklj7FS.s 			page 83


 2695              	.LBB394:
 2696              	.LBI394:
 495:Libraries/CMSIS/Include/core_cmInstr.h **** {
 2697              		.loc 2 495 57 is_stmt 1 view .LVU1054
 2698              	.LBB395:
 2699              		.loc 2 498 3 view .LVU1055
 2700              		.loc 2 498 10 is_stmt 0 view .LVU1056
 2701 0142 1BBA     		rev	r3, r3
 2702              	.LVL385:
 2703              		.loc 2 498 10 view .LVU1057
 2704              	.LBE395:
 2705              	.LBE394:
 728:Libraries/STM32F4xx_StdPeriph_Driver/src/stm32f4xx_cryp_aes.c ****     keyaddr+=4;
 2706              		.loc 1 728 45 view .LVU1058
 2707 0144 1093     		str	r3, [sp, #64]
 729:Libraries/STM32F4xx_StdPeriph_Driver/src/stm32f4xx_cryp_aes.c ****     AES_CRYP_KeyInitStructure.CRYP_Key3Right= __REV(*(uint32_t*)(keyaddr));
 2708              		.loc 1 729 5 is_stmt 1 view .LVU1059
 2709              	.LVL386:
 730:Libraries/STM32F4xx_StdPeriph_Driver/src/stm32f4xx_cryp_aes.c ****     break;
 2710              		.loc 1 730 5 view .LVU1060
 730:Libraries/STM32F4xx_StdPeriph_Driver/src/stm32f4xx_cryp_aes.c ****     break;
 2711              		.loc 1 730 47 is_stmt 0 view .LVU1061
 2712 0146 F369     		ldr	r3, [r6, #28]
 2713              	.LVL387:
 2714              	.LBB396:
 2715              	.LBI396:
 495:Libraries/CMSIS/Include/core_cmInstr.h **** {
 2716              		.loc 2 495 57 is_stmt 1 view .LVU1062
 2717              	.LBB397:
 2718              		.loc 2 498 3 view .LVU1063
 2719              		.loc 2 498 10 is_stmt 0 view .LVU1064
 2720 0148 1BBA     		rev	r3, r3
 2721              	.LVL388:
 2722              		.loc 2 498 10 view .LVU1065
 2723              	.LBE397:
 2724              	.LBE396:
 730:Libraries/STM32F4xx_StdPeriph_Driver/src/stm32f4xx_cryp_aes.c ****     break;
 2725              		.loc 1 730 45 view .LVU1066
 2726 014a 1193     		str	r3, [sp, #68]
 731:Libraries/STM32F4xx_StdPeriph_Driver/src/stm32f4xx_cryp_aes.c ****     default:
 2727              		.loc 1 731 5 is_stmt 1 view .LVU1067
 2728 014c 7BE7     		b	.L59
 2729              	.LVL389:
 2730              	.L100:
 749:Libraries/STM32F4xx_StdPeriph_Driver/src/stm32f4xx_cryp_aes.c ****     
 2731              		.loc 1 749 5 view .LVU1068
 2732 014e FFF7FEFF 		bl	CRYP_FIFOFlush
 2733              	.LVL390:
 752:Libraries/STM32F4xx_StdPeriph_Driver/src/stm32f4xx_cryp_aes.c ****     
 2734              		.loc 1 752 5 view .LVU1069
 2735 0152 0AA8     		add	r0, sp, #40
 2736 0154 FFF7FEFF 		bl	CRYP_KeyInit
 2737              	.LVL391:
 755:Libraries/STM32F4xx_StdPeriph_Driver/src/stm32f4xx_cryp_aes.c ****     
 2738              		.loc 1 755 5 view .LVU1070
 2739 0158 06A8     		add	r0, sp, #24
 2740 015a FFF7FEFF 		bl	CRYP_IVInit
ARM GAS  /tmp/ccklj7FS.s 			page 84


 2741              	.LVL392:
 758:Libraries/STM32F4xx_StdPeriph_Driver/src/stm32f4xx_cryp_aes.c ****     AES_CRYP_InitStructure.CRYP_AlgoMode = CRYP_AlgoMode_AES_GCM;
 2742              		.loc 1 758 5 view .LVU1071
 758:Libraries/STM32F4xx_StdPeriph_Driver/src/stm32f4xx_cryp_aes.c ****     AES_CRYP_InitStructure.CRYP_AlgoMode = CRYP_AlgoMode_AES_GCM;
 2743              		.loc 1 758 41 is_stmt 0 view .LVU1072
 2744 015e 0026     		movs	r6, #0
 2745              	.LVL393:
 758:Libraries/STM32F4xx_StdPeriph_Driver/src/stm32f4xx_cryp_aes.c ****     AES_CRYP_InitStructure.CRYP_AlgoMode = CRYP_AlgoMode_AES_GCM;
 2746              		.loc 1 758 41 view .LVU1073
 2747 0160 1296     		str	r6, [sp, #72]
 759:Libraries/STM32F4xx_StdPeriph_Driver/src/stm32f4xx_cryp_aes.c ****     AES_CRYP_InitStructure.CRYP_DataType = CRYP_DataType_8b;
 2748              		.loc 1 759 5 is_stmt 1 view .LVU1074
 759:Libraries/STM32F4xx_StdPeriph_Driver/src/stm32f4xx_cryp_aes.c ****     AES_CRYP_InitStructure.CRYP_DataType = CRYP_DataType_8b;
 2749              		.loc 1 759 42 is_stmt 0 view .LVU1075
 2750 0162 4FF40023 		mov	r3, #524288
 2751 0166 1393     		str	r3, [sp, #76]
 760:Libraries/STM32F4xx_StdPeriph_Driver/src/stm32f4xx_cryp_aes.c ****     CRYP_Init(&AES_CRYP_InitStructure);
 2752              		.loc 1 760 5 is_stmt 1 view .LVU1076
 760:Libraries/STM32F4xx_StdPeriph_Driver/src/stm32f4xx_cryp_aes.c ****     CRYP_Init(&AES_CRYP_InitStructure);
 2753              		.loc 1 760 42 is_stmt 0 view .LVU1077
 2754 0168 8023     		movs	r3, #128
 2755 016a 1493     		str	r3, [sp, #80]
 761:Libraries/STM32F4xx_StdPeriph_Driver/src/stm32f4xx_cryp_aes.c ****     
 2756              		.loc 1 761 5 is_stmt 1 view .LVU1078
 2757 016c 12A8     		add	r0, sp, #72
 2758 016e FFF7FEFF 		bl	CRYP_Init
 2759              	.LVL394:
 765:Libraries/STM32F4xx_StdPeriph_Driver/src/stm32f4xx_cryp_aes.c ****     
 2760              		.loc 1 765 5 view .LVU1079
 2761 0172 3046     		mov	r0, r6
 2762 0174 FFF7FEFF 		bl	CRYP_PhaseConfig
 2763              	.LVL395:
 768:Libraries/STM32F4xx_StdPeriph_Driver/src/stm32f4xx_cryp_aes.c ****     
 2764              		.loc 1 768 5 view .LVU1080
 2765 0178 0120     		movs	r0, #1
 2766 017a FFF7FEFF 		bl	CRYP_Cmd
 2767              	.LVL396:
 771:Libraries/STM32F4xx_StdPeriph_Driver/src/stm32f4xx_cryp_aes.c ****     {
 2768              		.loc 1 771 5 view .LVU1081
 2769              	.L61:
 773:Libraries/STM32F4xx_StdPeriph_Driver/src/stm32f4xx_cryp_aes.c ****     
 2770              		.loc 1 773 5 discriminator 1 view .LVU1082
 771:Libraries/STM32F4xx_StdPeriph_Driver/src/stm32f4xx_cryp_aes.c ****     {
 2771              		.loc 1 771 10 discriminator 1 view .LVU1083
 771:Libraries/STM32F4xx_StdPeriph_Driver/src/stm32f4xx_cryp_aes.c ****     {
 2772              		.loc 1 771 11 is_stmt 0 discriminator 1 view .LVU1084
 2773 017e FFF7FEFF 		bl	CRYP_GetCmdStatus
 2774              	.LVL397:
 771:Libraries/STM32F4xx_StdPeriph_Driver/src/stm32f4xx_cryp_aes.c ****     {
 2775              		.loc 1 771 10 discriminator 1 view .LVU1085
 2776 0182 0128     		cmp	r0, #1
 2777 0184 FBD0     		beq	.L61
 776:Libraries/STM32F4xx_StdPeriph_Driver/src/stm32f4xx_cryp_aes.c ****     {
 2778              		.loc 1 776 5 is_stmt 1 view .LVU1086
 776:Libraries/STM32F4xx_StdPeriph_Driver/src/stm32f4xx_cryp_aes.c ****     {
 2779              		.loc 1 776 7 is_stmt 0 view .LVU1087
 2780 0186 BAF1000F 		cmp	r10, #0
ARM GAS  /tmp/ccklj7FS.s 			page 85


 2781 018a 13D1     		bne	.L102
 2782              	.LVL398:
 2783              	.L62:
 824:Libraries/STM32F4xx_StdPeriph_Driver/src/stm32f4xx_cryp_aes.c ****     {
 2784              		.loc 1 824 5 is_stmt 1 view .LVU1088
 824:Libraries/STM32F4xx_StdPeriph_Driver/src/stm32f4xx_cryp_aes.c ****     {
 2785              		.loc 1 824 7 is_stmt 0 view .LVU1089
 2786 018c B9F1000F 		cmp	r9, #0
 2787 0190 00F08A80 		beq	.L68
 827:Libraries/STM32F4xx_StdPeriph_Driver/src/stm32f4xx_cryp_aes.c ****       
 2788              		.loc 1 827 7 is_stmt 1 view .LVU1090
 2789 0194 4FF40030 		mov	r0, #131072
 2790 0198 FFF7FEFF 		bl	CRYP_PhaseConfig
 2791              	.LVL399:
 830:Libraries/STM32F4xx_StdPeriph_Driver/src/stm32f4xx_cryp_aes.c ****       
 2792              		.loc 1 830 7 view .LVU1091
 2793 019c 0120     		movs	r0, #1
 2794 019e FFF7FEFF 		bl	CRYP_Cmd
 2795              	.LVL400:
 832:Libraries/STM32F4xx_StdPeriph_Driver/src/stm32f4xx_cryp_aes.c ****       {
 2796              		.loc 1 832 7 view .LVU1092
 832:Libraries/STM32F4xx_StdPeriph_Driver/src/stm32f4xx_cryp_aes.c ****       {
 2797              		.loc 1 832 10 is_stmt 0 view .LVU1093
 2798 01a2 FFF7FEFF 		bl	CRYP_GetCmdStatus
 2799              	.LVL401:
 832:Libraries/STM32F4xx_StdPeriph_Driver/src/stm32f4xx_cryp_aes.c ****       {
 2800              		.loc 1 832 9 view .LVU1094
 2801 01a6 0646     		mov	r6, r0
 2802 01a8 0028     		cmp	r0, #0
 2803 01aa 00F05881 		beq	.L63
 839:Libraries/STM32F4xx_StdPeriph_Driver/src/stm32f4xx_cryp_aes.c ****       {
 2804              		.loc 1 839 23 view .LVU1095
 2805 01ae 0025     		movs	r5, #0
 2806              	.LVL402:
 839:Libraries/STM32F4xx_StdPeriph_Driver/src/stm32f4xx_cryp_aes.c ****       {
 2807              		.loc 1 839 23 view .LVU1096
 2808 01b0 019E     		ldr	r6, [sp, #4]
 2809 01b2 39E0     		b	.L69
 2810              	.LVL403:
 2811              	.L102:
 779:Libraries/STM32F4xx_StdPeriph_Driver/src/stm32f4xx_cryp_aes.c ****       
 2812              		.loc 1 779 7 is_stmt 1 view .LVU1097
 2813 01b4 4FF48030 		mov	r0, #65536
 2814 01b8 FFF7FEFF 		bl	CRYP_PhaseConfig
 2815              	.LVL404:
 782:Libraries/STM32F4xx_StdPeriph_Driver/src/stm32f4xx_cryp_aes.c ****       
 2816              		.loc 1 782 7 view .LVU1098
 2817 01bc 0120     		movs	r0, #1
 2818 01be FFF7FEFF 		bl	CRYP_Cmd
 2819              	.LVL405:
 784:Libraries/STM32F4xx_StdPeriph_Driver/src/stm32f4xx_cryp_aes.c ****       {
 2820              		.loc 1 784 7 view .LVU1099
 784:Libraries/STM32F4xx_StdPeriph_Driver/src/stm32f4xx_cryp_aes.c ****       {
 2821              		.loc 1 784 10 is_stmt 0 view .LVU1100
 2822 01c2 FFF7FEFF 		bl	CRYP_GetCmdStatus
 2823              	.LVL406:
 784:Libraries/STM32F4xx_StdPeriph_Driver/src/stm32f4xx_cryp_aes.c ****       {
ARM GAS  /tmp/ccklj7FS.s 			page 86


 2824              		.loc 1 784 9 view .LVU1101
 2825 01c6 0646     		mov	r6, r0
 2826              	.LVL407:
 784:Libraries/STM32F4xx_StdPeriph_Driver/src/stm32f4xx_cryp_aes.c ****       {
 2827              		.loc 1 784 9 view .LVU1102
 2828 01c8 0028     		cmp	r0, #0
 2829 01ca 00F04881 		beq	.L63
 791:Libraries/STM32F4xx_StdPeriph_Driver/src/stm32f4xx_cryp_aes.c ****       {
 2830              		.loc 1 791 23 view .LVU1103
 2831 01ce 0026     		movs	r6, #0
 2832 01d0 12E0     		b	.L64
 2833              	.LVL408:
 2834              	.L65:
 796:Libraries/STM32F4xx_StdPeriph_Driver/src/stm32f4xx_cryp_aes.c ****         
 2835              		.loc 1 796 9 is_stmt 1 discriminator 1 view .LVU1104
 794:Libraries/STM32F4xx_StdPeriph_Driver/src/stm32f4xx_cryp_aes.c ****         {
 2836              		.loc 1 794 14 discriminator 1 view .LVU1105
 794:Libraries/STM32F4xx_StdPeriph_Driver/src/stm32f4xx_cryp_aes.c ****         {
 2837              		.loc 1 794 15 is_stmt 0 discriminator 1 view .LVU1106
 2838 01d2 0120     		movs	r0, #1
 2839 01d4 FFF7FEFF 		bl	CRYP_GetFlagStatus
 2840              	.LVL409:
 794:Libraries/STM32F4xx_StdPeriph_Driver/src/stm32f4xx_cryp_aes.c ****         {
 2841              		.loc 1 794 14 discriminator 1 view .LVU1107
 2842 01d8 0028     		cmp	r0, #0
 2843 01da FAD0     		beq	.L65
 799:Libraries/STM32F4xx_StdPeriph_Driver/src/stm32f4xx_cryp_aes.c ****         headeraddr+=4;
 2844              		.loc 1 799 9 is_stmt 1 discriminator 2 view .LVU1108
 2845 01dc 2868     		ldr	r0, [r5]
 2846 01de FFF7FEFF 		bl	CRYP_DataIn
 2847              	.LVL410:
 800:Libraries/STM32F4xx_StdPeriph_Driver/src/stm32f4xx_cryp_aes.c ****         CRYP_DataIn(*(uint32_t*)(headeraddr));
 2848              		.loc 1 800 9 discriminator 2 view .LVU1109
 801:Libraries/STM32F4xx_StdPeriph_Driver/src/stm32f4xx_cryp_aes.c ****         headeraddr+=4;
 2849              		.loc 1 801 9 discriminator 2 view .LVU1110
 2850 01e2 6868     		ldr	r0, [r5, #4]
 2851 01e4 FFF7FEFF 		bl	CRYP_DataIn
 2852              	.LVL411:
 802:Libraries/STM32F4xx_StdPeriph_Driver/src/stm32f4xx_cryp_aes.c ****         CRYP_DataIn(*(uint32_t*)(headeraddr));
 2853              		.loc 1 802 9 discriminator 2 view .LVU1111
 803:Libraries/STM32F4xx_StdPeriph_Driver/src/stm32f4xx_cryp_aes.c ****         headeraddr+=4;
 2854              		.loc 1 803 9 discriminator 2 view .LVU1112
 2855 01e8 A868     		ldr	r0, [r5, #8]
 2856 01ea FFF7FEFF 		bl	CRYP_DataIn
 2857              	.LVL412:
 804:Libraries/STM32F4xx_StdPeriph_Driver/src/stm32f4xx_cryp_aes.c ****         CRYP_DataIn(*(uint32_t*)(headeraddr));
 2858              		.loc 1 804 9 discriminator 2 view .LVU1113
 805:Libraries/STM32F4xx_StdPeriph_Driver/src/stm32f4xx_cryp_aes.c ****         headeraddr+=4;
 2859              		.loc 1 805 9 discriminator 2 view .LVU1114
 2860 01ee E868     		ldr	r0, [r5, #12]
 2861 01f0 FFF7FEFF 		bl	CRYP_DataIn
 2862              	.LVL413:
 806:Libraries/STM32F4xx_StdPeriph_Driver/src/stm32f4xx_cryp_aes.c ****       }
 2863              		.loc 1 806 9 discriminator 2 view .LVU1115
 806:Libraries/STM32F4xx_StdPeriph_Driver/src/stm32f4xx_cryp_aes.c ****       }
 2864              		.loc 1 806 19 is_stmt 0 discriminator 2 view .LVU1116
 2865 01f4 1035     		adds	r5, r5, #16
ARM GAS  /tmp/ccklj7FS.s 			page 87


 2866              	.LVL414:
 791:Libraries/STM32F4xx_StdPeriph_Driver/src/stm32f4xx_cryp_aes.c ****       {
 2867              		.loc 1 791 53 is_stmt 1 discriminator 2 view .LVU1117
 791:Libraries/STM32F4xx_StdPeriph_Driver/src/stm32f4xx_cryp_aes.c ****       {
 2868              		.loc 1 791 64 is_stmt 0 discriminator 2 view .LVU1118
 2869 01f6 1036     		adds	r6, r6, #16
 2870              	.LVL415:
 2871              	.L64:
 791:Libraries/STM32F4xx_StdPeriph_Driver/src/stm32f4xx_cryp_aes.c ****       {
 2872              		.loc 1 791 28 is_stmt 1 discriminator 1 view .LVU1119
 791:Libraries/STM32F4xx_StdPeriph_Driver/src/stm32f4xx_cryp_aes.c ****       {
 2873              		.loc 1 791 7 is_stmt 0 discriminator 1 view .LVU1120
 2874 01f8 5645     		cmp	r6, r10
 2875 01fa EAD3     		bcc	.L65
 810:Libraries/STM32F4xx_StdPeriph_Driver/src/stm32f4xx_cryp_aes.c ****       do
 2876              		.loc 1 810 7 is_stmt 1 view .LVU1121
 810:Libraries/STM32F4xx_StdPeriph_Driver/src/stm32f4xx_cryp_aes.c ****       do
 2877              		.loc 1 810 15 is_stmt 0 view .LVU1122
 2878 01fc 0023     		movs	r3, #0
 2879 01fe 0593     		str	r3, [sp, #20]
 2880              	.LVL416:
 2881              	.L67:
 811:Libraries/STM32F4xx_StdPeriph_Driver/src/stm32f4xx_cryp_aes.c ****       {
 2882              		.loc 1 811 7 is_stmt 1 discriminator 2 view .LVU1123
 813:Libraries/STM32F4xx_StdPeriph_Driver/src/stm32f4xx_cryp_aes.c ****         counter++;
 2883              		.loc 1 813 9 discriminator 2 view .LVU1124
 813:Libraries/STM32F4xx_StdPeriph_Driver/src/stm32f4xx_cryp_aes.c ****         counter++;
 2884              		.loc 1 813 22 is_stmt 0 discriminator 2 view .LVU1125
 2885 0200 1020     		movs	r0, #16
 2886 0202 FFF7FEFF 		bl	CRYP_GetFlagStatus
 2887              	.LVL417:
 814:Libraries/STM32F4xx_StdPeriph_Driver/src/stm32f4xx_cryp_aes.c ****       }while ((counter != AESBUSY_TIMEOUT) && (busystatus != RESET));
 2888              		.loc 1 814 9 is_stmt 1 discriminator 2 view .LVU1126
 814:Libraries/STM32F4xx_StdPeriph_Driver/src/stm32f4xx_cryp_aes.c ****       }while ((counter != AESBUSY_TIMEOUT) && (busystatus != RESET));
 2889              		.loc 1 814 16 is_stmt 0 discriminator 2 view .LVU1127
 2890 0206 059B     		ldr	r3, [sp, #20]
 2891 0208 0133     		adds	r3, r3, #1
 2892 020a 0593     		str	r3, [sp, #20]
 815:Libraries/STM32F4xx_StdPeriph_Driver/src/stm32f4xx_cryp_aes.c **** 
 2893              		.loc 1 815 14 is_stmt 1 discriminator 2 view .LVU1128
 815:Libraries/STM32F4xx_StdPeriph_Driver/src/stm32f4xx_cryp_aes.c **** 
 2894              		.loc 1 815 24 is_stmt 0 discriminator 2 view .LVU1129
 2895 020c 059B     		ldr	r3, [sp, #20]
 815:Libraries/STM32F4xx_StdPeriph_Driver/src/stm32f4xx_cryp_aes.c **** 
 2896              		.loc 1 815 7 discriminator 2 view .LVU1130
 2897 020e B3F5803F 		cmp	r3, #65536
 2898 0212 01D0     		beq	.L66
 815:Libraries/STM32F4xx_StdPeriph_Driver/src/stm32f4xx_cryp_aes.c **** 
 2899              		.loc 1 815 44 discriminator 1 view .LVU1131
 2900 0214 0028     		cmp	r0, #0
 2901 0216 F3D1     		bne	.L67
 2902              	.L66:
 817:Libraries/STM32F4xx_StdPeriph_Driver/src/stm32f4xx_cryp_aes.c ****       {
 2903              		.loc 1 817 7 is_stmt 1 view .LVU1132
 817:Libraries/STM32F4xx_StdPeriph_Driver/src/stm32f4xx_cryp_aes.c ****       {
 2904              		.loc 1 817 10 is_stmt 0 view .LVU1133
 2905 0218 0028     		cmp	r0, #0
ARM GAS  /tmp/ccklj7FS.s 			page 88


 2906 021a B7D0     		beq	.L62
 819:Libraries/STM32F4xx_StdPeriph_Driver/src/stm32f4xx_cryp_aes.c ****       }
 2907              		.loc 1 819 16 view .LVU1134
 2908 021c 0023     		movs	r3, #0
 2909              	.LVL418:
 819:Libraries/STM32F4xx_StdPeriph_Driver/src/stm32f4xx_cryp_aes.c ****       }
 2910              		.loc 1 819 16 view .LVU1135
 2911 021e 0193     		str	r3, [sp, #4]
 2912 0220 B4E7     		b	.L62
 2913              	.LVL419:
 2914              	.L71:
 863:Libraries/STM32F4xx_StdPeriph_Driver/src/stm32f4xx_cryp_aes.c ****         {
 2915              		.loc 1 863 9 is_stmt 1 view .LVU1136
 863:Libraries/STM32F4xx_StdPeriph_Driver/src/stm32f4xx_cryp_aes.c ****         {
 2916              		.loc 1 863 12 is_stmt 0 view .LVU1137
 2917 0222 30B3     		cbz	r0, .L74
 865:Libraries/STM32F4xx_StdPeriph_Driver/src/stm32f4xx_cryp_aes.c ****         }
 2918              		.loc 1 865 18 view .LVU1138
 2919 0224 0026     		movs	r6, #0
 2920              	.LVL420:
 2921              	.L73:
 839:Libraries/STM32F4xx_StdPeriph_Driver/src/stm32f4xx_cryp_aes.c ****       {
 2922              		.loc 1 839 76 is_stmt 1 discriminator 2 view .LVU1139
 839:Libraries/STM32F4xx_StdPeriph_Driver/src/stm32f4xx_cryp_aes.c ****       {
 2923              		.loc 1 839 87 is_stmt 0 discriminator 2 view .LVU1140
 2924 0226 1035     		adds	r5, r5, #16
 2925              	.LVL421:
 2926              	.L69:
 839:Libraries/STM32F4xx_StdPeriph_Driver/src/stm32f4xx_cryp_aes.c ****       {
 2927              		.loc 1 839 28 is_stmt 1 discriminator 1 view .LVU1141
 839:Libraries/STM32F4xx_StdPeriph_Driver/src/stm32f4xx_cryp_aes.c ****       {
 2928              		.loc 1 839 7 is_stmt 0 discriminator 1 view .LVU1142
 2929 0228 4D45     		cmp	r5, r9
 2930 022a 3CD2     		bcs	.L96
 839:Libraries/STM32F4xx_StdPeriph_Driver/src/stm32f4xx_cryp_aes.c ****       {
 2931              		.loc 1 839 53 discriminator 3 view .LVU1143
 2932 022c 002E     		cmp	r6, #0
 2933 022e 38D0     		beq	.L103
 2934              	.L70:
 844:Libraries/STM32F4xx_StdPeriph_Driver/src/stm32f4xx_cryp_aes.c ****         /* Write the Input block in the IN FIFO */
 2935              		.loc 1 844 9 is_stmt 1 discriminator 1 view .LVU1144
 842:Libraries/STM32F4xx_StdPeriph_Driver/src/stm32f4xx_cryp_aes.c ****         {
 2936              		.loc 1 842 14 discriminator 1 view .LVU1145
 842:Libraries/STM32F4xx_StdPeriph_Driver/src/stm32f4xx_cryp_aes.c ****         {
 2937              		.loc 1 842 15 is_stmt 0 discriminator 1 view .LVU1146
 2938 0230 0120     		movs	r0, #1
 2939 0232 FFF7FEFF 		bl	CRYP_GetFlagStatus
 2940              	.LVL422:
 842:Libraries/STM32F4xx_StdPeriph_Driver/src/stm32f4xx_cryp_aes.c ****         {
 2941              		.loc 1 842 14 discriminator 1 view .LVU1147
 2942 0236 0028     		cmp	r0, #0
 2943 0238 FAD0     		beq	.L70
 846:Libraries/STM32F4xx_StdPeriph_Driver/src/stm32f4xx_cryp_aes.c ****         inputaddr+=4;
 2944              		.loc 1 846 9 is_stmt 1 view .LVU1148
 2945 023a 2068     		ldr	r0, [r4]
 2946 023c FFF7FEFF 		bl	CRYP_DataIn
 2947              	.LVL423:
ARM GAS  /tmp/ccklj7FS.s 			page 89


 847:Libraries/STM32F4xx_StdPeriph_Driver/src/stm32f4xx_cryp_aes.c ****         CRYP_DataIn(*(uint32_t*)(inputaddr));
 2948              		.loc 1 847 9 view .LVU1149
 848:Libraries/STM32F4xx_StdPeriph_Driver/src/stm32f4xx_cryp_aes.c ****         inputaddr+=4;
 2949              		.loc 1 848 9 view .LVU1150
 2950 0240 6068     		ldr	r0, [r4, #4]
 2951 0242 FFF7FEFF 		bl	CRYP_DataIn
 2952              	.LVL424:
 849:Libraries/STM32F4xx_StdPeriph_Driver/src/stm32f4xx_cryp_aes.c ****         CRYP_DataIn(*(uint32_t*)(inputaddr));
 2953              		.loc 1 849 9 view .LVU1151
 850:Libraries/STM32F4xx_StdPeriph_Driver/src/stm32f4xx_cryp_aes.c ****         inputaddr+=4;
 2954              		.loc 1 850 9 view .LVU1152
 2955 0246 A068     		ldr	r0, [r4, #8]
 2956 0248 FFF7FEFF 		bl	CRYP_DataIn
 2957              	.LVL425:
 851:Libraries/STM32F4xx_StdPeriph_Driver/src/stm32f4xx_cryp_aes.c ****         CRYP_DataIn(*(uint32_t*)(inputaddr));
 2958              		.loc 1 851 9 view .LVU1153
 852:Libraries/STM32F4xx_StdPeriph_Driver/src/stm32f4xx_cryp_aes.c ****         inputaddr+=4;
 2959              		.loc 1 852 9 view .LVU1154
 2960 024c E068     		ldr	r0, [r4, #12]
 2961 024e FFF7FEFF 		bl	CRYP_DataIn
 2962              	.LVL426:
 853:Libraries/STM32F4xx_StdPeriph_Driver/src/stm32f4xx_cryp_aes.c ****         
 2963              		.loc 1 853 9 view .LVU1155
 853:Libraries/STM32F4xx_StdPeriph_Driver/src/stm32f4xx_cryp_aes.c ****         
 2964              		.loc 1 853 18 is_stmt 0 view .LVU1156
 2965 0252 1034     		adds	r4, r4, #16
 2966              	.LVL427:
 856:Libraries/STM32F4xx_StdPeriph_Driver/src/stm32f4xx_cryp_aes.c ****         do
 2967              		.loc 1 856 9 is_stmt 1 view .LVU1157
 856:Libraries/STM32F4xx_StdPeriph_Driver/src/stm32f4xx_cryp_aes.c ****         do
 2968              		.loc 1 856 17 is_stmt 0 view .LVU1158
 2969 0254 0023     		movs	r3, #0
 2970              	.LVL428:
 856:Libraries/STM32F4xx_StdPeriph_Driver/src/stm32f4xx_cryp_aes.c ****         do
 2971              		.loc 1 856 17 view .LVU1159
 2972 0256 0593     		str	r3, [sp, #20]
 2973              	.LVL429:
 2974              	.L72:
 857:Libraries/STM32F4xx_StdPeriph_Driver/src/stm32f4xx_cryp_aes.c ****         {
 2975              		.loc 1 857 9 is_stmt 1 discriminator 2 view .LVU1160
 859:Libraries/STM32F4xx_StdPeriph_Driver/src/stm32f4xx_cryp_aes.c ****           counter++;
 2976              		.loc 1 859 11 discriminator 2 view .LVU1161
 859:Libraries/STM32F4xx_StdPeriph_Driver/src/stm32f4xx_cryp_aes.c ****           counter++;
 2977              		.loc 1 859 24 is_stmt 0 discriminator 2 view .LVU1162
 2978 0258 1020     		movs	r0, #16
 2979 025a FFF7FEFF 		bl	CRYP_GetFlagStatus
 2980              	.LVL430:
 860:Libraries/STM32F4xx_StdPeriph_Driver/src/stm32f4xx_cryp_aes.c ****         }while ((counter != AESBUSY_TIMEOUT) && (busystatus != RESET));
 2981              		.loc 1 860 11 is_stmt 1 discriminator 2 view .LVU1163
 860:Libraries/STM32F4xx_StdPeriph_Driver/src/stm32f4xx_cryp_aes.c ****         }while ((counter != AESBUSY_TIMEOUT) && (busystatus != RESET));
 2982              		.loc 1 860 18 is_stmt 0 discriminator 2 view .LVU1164
 2983 025e 059B     		ldr	r3, [sp, #20]
 2984 0260 0133     		adds	r3, r3, #1
 2985 0262 0593     		str	r3, [sp, #20]
 861:Libraries/STM32F4xx_StdPeriph_Driver/src/stm32f4xx_cryp_aes.c **** 
 2986              		.loc 1 861 16 is_stmt 1 discriminator 2 view .LVU1165
 861:Libraries/STM32F4xx_StdPeriph_Driver/src/stm32f4xx_cryp_aes.c **** 
ARM GAS  /tmp/ccklj7FS.s 			page 90


 2987              		.loc 1 861 26 is_stmt 0 discriminator 2 view .LVU1166
 2988 0264 059B     		ldr	r3, [sp, #20]
 861:Libraries/STM32F4xx_StdPeriph_Driver/src/stm32f4xx_cryp_aes.c **** 
 2989              		.loc 1 861 9 discriminator 2 view .LVU1167
 2990 0266 B3F5803F 		cmp	r3, #65536
 2991 026a DAD0     		beq	.L71
 861:Libraries/STM32F4xx_StdPeriph_Driver/src/stm32f4xx_cryp_aes.c **** 
 2992              		.loc 1 861 46 discriminator 1 view .LVU1168
 2993 026c 0028     		cmp	r0, #0
 2994 026e F3D1     		bne	.L72
 2995 0270 D7E7     		b	.L71
 2996              	.LVL431:
 2997              	.L74:
 872:Libraries/STM32F4xx_StdPeriph_Driver/src/stm32f4xx_cryp_aes.c ****           
 2998              		.loc 1 872 11 is_stmt 1 discriminator 1 view .LVU1169
 870:Libraries/STM32F4xx_StdPeriph_Driver/src/stm32f4xx_cryp_aes.c ****           {
 2999              		.loc 1 870 16 discriminator 1 view .LVU1170
 870:Libraries/STM32F4xx_StdPeriph_Driver/src/stm32f4xx_cryp_aes.c ****           {
 3000              		.loc 1 870 17 is_stmt 0 discriminator 1 view .LVU1171
 3001 0272 0420     		movs	r0, #4
 3002 0274 FFF7FEFF 		bl	CRYP_GetFlagStatus
 3003              	.LVL432:
 870:Libraries/STM32F4xx_StdPeriph_Driver/src/stm32f4xx_cryp_aes.c ****           {
 3004              		.loc 1 870 16 discriminator 1 view .LVU1172
 3005 0278 0028     		cmp	r0, #0
 3006 027a FAD0     		beq	.L74
 875:Libraries/STM32F4xx_StdPeriph_Driver/src/stm32f4xx_cryp_aes.c ****           outputaddr+=4;
 3007              		.loc 1 875 11 is_stmt 1 view .LVU1173
 875:Libraries/STM32F4xx_StdPeriph_Driver/src/stm32f4xx_cryp_aes.c ****           outputaddr+=4;
 3008              		.loc 1 875 38 is_stmt 0 view .LVU1174
 3009 027c FFF7FEFF 		bl	CRYP_DataOut
 3010              	.LVL433:
 875:Libraries/STM32F4xx_StdPeriph_Driver/src/stm32f4xx_cryp_aes.c ****           outputaddr+=4;
 3011              		.loc 1 875 36 view .LVU1175
 3012 0280 CBF80000 		str	r0, [fp]
 876:Libraries/STM32F4xx_StdPeriph_Driver/src/stm32f4xx_cryp_aes.c ****           *(uint32_t*)(outputaddr) = CRYP_DataOut();
 3013              		.loc 1 876 11 is_stmt 1 view .LVU1176
 3014              	.LVL434:
 877:Libraries/STM32F4xx_StdPeriph_Driver/src/stm32f4xx_cryp_aes.c ****           outputaddr+=4;
 3015              		.loc 1 877 11 view .LVU1177
 877:Libraries/STM32F4xx_StdPeriph_Driver/src/stm32f4xx_cryp_aes.c ****           outputaddr+=4;
 3016              		.loc 1 877 38 is_stmt 0 view .LVU1178
 3017 0284 FFF7FEFF 		bl	CRYP_DataOut
 3018              	.LVL435:
 877:Libraries/STM32F4xx_StdPeriph_Driver/src/stm32f4xx_cryp_aes.c ****           outputaddr+=4;
 3019              		.loc 1 877 36 view .LVU1179
 3020 0288 CBF80400 		str	r0, [fp, #4]
 878:Libraries/STM32F4xx_StdPeriph_Driver/src/stm32f4xx_cryp_aes.c ****           *(uint32_t*)(outputaddr) = CRYP_DataOut();
 3021              		.loc 1 878 11 is_stmt 1 view .LVU1180
 3022              	.LVL436:
 879:Libraries/STM32F4xx_StdPeriph_Driver/src/stm32f4xx_cryp_aes.c ****           outputaddr+=4;
 3023              		.loc 1 879 11 view .LVU1181
 879:Libraries/STM32F4xx_StdPeriph_Driver/src/stm32f4xx_cryp_aes.c ****           outputaddr+=4;
 3024              		.loc 1 879 38 is_stmt 0 view .LVU1182
 3025 028c FFF7FEFF 		bl	CRYP_DataOut
 3026              	.LVL437:
 879:Libraries/STM32F4xx_StdPeriph_Driver/src/stm32f4xx_cryp_aes.c ****           outputaddr+=4;
ARM GAS  /tmp/ccklj7FS.s 			page 91


 3027              		.loc 1 879 36 view .LVU1183
 3028 0290 CBF80800 		str	r0, [fp, #8]
 880:Libraries/STM32F4xx_StdPeriph_Driver/src/stm32f4xx_cryp_aes.c ****           *(uint32_t*)(outputaddr) = CRYP_DataOut();
 3029              		.loc 1 880 11 is_stmt 1 view .LVU1184
 3030              	.LVL438:
 881:Libraries/STM32F4xx_StdPeriph_Driver/src/stm32f4xx_cryp_aes.c ****           outputaddr+=4;
 3031              		.loc 1 881 11 view .LVU1185
 881:Libraries/STM32F4xx_StdPeriph_Driver/src/stm32f4xx_cryp_aes.c ****           outputaddr+=4;
 3032              		.loc 1 881 38 is_stmt 0 view .LVU1186
 3033 0294 FFF7FEFF 		bl	CRYP_DataOut
 3034              	.LVL439:
 881:Libraries/STM32F4xx_StdPeriph_Driver/src/stm32f4xx_cryp_aes.c ****           outputaddr+=4;
 3035              		.loc 1 881 36 view .LVU1187
 3036 0298 CBF80C00 		str	r0, [fp, #12]
 882:Libraries/STM32F4xx_StdPeriph_Driver/src/stm32f4xx_cryp_aes.c ****         }
 3037              		.loc 1 882 11 is_stmt 1 view .LVU1188
 882:Libraries/STM32F4xx_StdPeriph_Driver/src/stm32f4xx_cryp_aes.c ****         }
 3038              		.loc 1 882 21 is_stmt 0 view .LVU1189
 3039 029c 0BF1100B 		add	fp, fp, #16
 3040              	.LVL440:
 882:Libraries/STM32F4xx_StdPeriph_Driver/src/stm32f4xx_cryp_aes.c ****         }
 3041              		.loc 1 882 21 view .LVU1190
 3042 02a0 C1E7     		b	.L73
 3043              	.L103:
 882:Libraries/STM32F4xx_StdPeriph_Driver/src/stm32f4xx_cryp_aes.c ****         }
 3044              		.loc 1 882 21 view .LVU1191
 3045 02a2 0196     		str	r6, [sp, #4]
 3046 02a4 00E0     		b	.L68
 3047              	.L96:
 3048 02a6 0196     		str	r6, [sp, #4]
 3049              	.LVL441:
 3050              	.L68:
 889:Libraries/STM32F4xx_StdPeriph_Driver/src/stm32f4xx_cryp_aes.c ****     
 3051              		.loc 1 889 5 is_stmt 1 view .LVU1192
 3052 02a8 4FF44030 		mov	r0, #196608
 3053 02ac FFF7FEFF 		bl	CRYP_PhaseConfig
 3054              	.LVL442:
 892:Libraries/STM32F4xx_StdPeriph_Driver/src/stm32f4xx_cryp_aes.c ****     
 3055              		.loc 1 892 5 view .LVU1193
 3056 02b0 0120     		movs	r0, #1
 3057 02b2 FFF7FEFF 		bl	CRYP_Cmd
 3058              	.LVL443:
 894:Libraries/STM32F4xx_StdPeriph_Driver/src/stm32f4xx_cryp_aes.c ****     {
 3059              		.loc 1 894 5 view .LVU1194
 894:Libraries/STM32F4xx_StdPeriph_Driver/src/stm32f4xx_cryp_aes.c ****     {
 3060              		.loc 1 894 8 is_stmt 0 view .LVU1195
 3061 02b6 FFF7FEFF 		bl	CRYP_GetCmdStatus
 3062              	.LVL444:
 894:Libraries/STM32F4xx_StdPeriph_Driver/src/stm32f4xx_cryp_aes.c ****     {
 3063              		.loc 1 894 7 view .LVU1196
 3064 02ba 0646     		mov	r6, r0
 3065 02bc 0028     		cmp	r0, #0
 3066 02be 00F0CE80 		beq	.L63
 902:Libraries/STM32F4xx_StdPeriph_Driver/src/stm32f4xx_cryp_aes.c ****     CRYP_DataIn(__REV(headerlength));
 3067              		.loc 1 902 5 is_stmt 1 view .LVU1197
 3068              	.LVL445:
 3069              	.LBB398:
ARM GAS  /tmp/ccklj7FS.s 			page 92


 3070              	.LBI398:
 495:Libraries/CMSIS/Include/core_cmInstr.h **** {
 3071              		.loc 2 495 57 view .LVU1198
 3072              	.LBB399:
 3073              		.loc 2 498 3 view .LVU1199
 3074              		.loc 2 498 3 is_stmt 0 view .LVU1200
 3075              	.LBE399:
 3076              	.LBE398:
 902:Libraries/STM32F4xx_StdPeriph_Driver/src/stm32f4xx_cryp_aes.c ****     CRYP_DataIn(__REV(headerlength));
 3077              		.loc 1 902 5 view .LVU1201
 3078 02c2 0020     		movs	r0, #0
 3079              	.LVL446:
 902:Libraries/STM32F4xx_StdPeriph_Driver/src/stm32f4xx_cryp_aes.c ****     CRYP_DataIn(__REV(headerlength));
 3080              		.loc 1 902 5 view .LVU1202
 3081 02c4 FFF7FEFF 		bl	CRYP_DataIn
 3082              	.LVL447:
 903:Libraries/STM32F4xx_StdPeriph_Driver/src/stm32f4xx_cryp_aes.c ****     CRYP_DataIn(__REV(inputlength>>32));
 3083              		.loc 1 903 5 is_stmt 1 view .LVU1203
 3084              	.LBB400:
 3085              	.LBI400:
 495:Libraries/CMSIS/Include/core_cmInstr.h **** {
 3086              		.loc 2 495 57 view .LVU1204
 3087              	.LBB401:
 3088              		.loc 2 498 3 view .LVU1205
 3089              		.loc 2 498 3 is_stmt 0 view .LVU1206
 3090              	.LBE401:
 3091              	.LBE400:
 903:Libraries/STM32F4xx_StdPeriph_Driver/src/stm32f4xx_cryp_aes.c ****     CRYP_DataIn(__REV(inputlength>>32));
 3092              		.loc 1 903 5 view .LVU1207
 3093 02c8 029B     		ldr	r3, [sp, #8]
 3094 02ca 18BA     		rev	r0, r3
 3095 02cc FFF7FEFF 		bl	CRYP_DataIn
 3096              	.LVL448:
 904:Libraries/STM32F4xx_StdPeriph_Driver/src/stm32f4xx_cryp_aes.c ****     CRYP_DataIn(__REV(inputlength));
 3097              		.loc 1 904 5 is_stmt 1 view .LVU1208
 3098              	.LBB402:
 3099              	.LBI402:
 495:Libraries/CMSIS/Include/core_cmInstr.h **** {
 3100              		.loc 2 495 57 view .LVU1209
 3101              	.LBB403:
 3102              		.loc 2 498 3 view .LVU1210
 3103              		.loc 2 498 3 is_stmt 0 view .LVU1211
 3104              	.LBE403:
 3105              	.LBE402:
 904:Libraries/STM32F4xx_StdPeriph_Driver/src/stm32f4xx_cryp_aes.c ****     CRYP_DataIn(__REV(inputlength));
 3106              		.loc 1 904 5 view .LVU1212
 3107 02d0 0020     		movs	r0, #0
 3108              	.LVL449:
 904:Libraries/STM32F4xx_StdPeriph_Driver/src/stm32f4xx_cryp_aes.c ****     CRYP_DataIn(__REV(inputlength));
 3109              		.loc 1 904 5 view .LVU1213
 3110 02d2 FFF7FEFF 		bl	CRYP_DataIn
 3111              	.LVL450:
 905:Libraries/STM32F4xx_StdPeriph_Driver/src/stm32f4xx_cryp_aes.c ****     /* Wait until the OFNE flag is reset */
 3112              		.loc 1 905 5 is_stmt 1 view .LVU1214
 3113              	.LBB404:
 3114              	.LBI404:
 495:Libraries/CMSIS/Include/core_cmInstr.h **** {
ARM GAS  /tmp/ccklj7FS.s 			page 93


 3115              		.loc 2 495 57 view .LVU1215
 3116              	.LBB405:
 3117              		.loc 2 498 3 view .LVU1216
 3118              		.loc 2 498 3 is_stmt 0 view .LVU1217
 3119              	.LBE405:
 3120              	.LBE404:
 905:Libraries/STM32F4xx_StdPeriph_Driver/src/stm32f4xx_cryp_aes.c ****     /* Wait until the OFNE flag is reset */
 3121              		.loc 1 905 5 view .LVU1218
 3122 02d6 039B     		ldr	r3, [sp, #12]
 3123 02d8 18BA     		rev	r0, r3
 3124 02da FFF7FEFF 		bl	CRYP_DataIn
 3125              	.LVL451:
 907:Libraries/STM32F4xx_StdPeriph_Driver/src/stm32f4xx_cryp_aes.c ****     {
 3126              		.loc 1 907 5 is_stmt 1 view .LVU1219
 3127              	.L75:
 909:Libraries/STM32F4xx_StdPeriph_Driver/src/stm32f4xx_cryp_aes.c ****     
 3128              		.loc 1 909 5 discriminator 1 view .LVU1220
 907:Libraries/STM32F4xx_StdPeriph_Driver/src/stm32f4xx_cryp_aes.c ****     {
 3129              		.loc 1 907 10 discriminator 1 view .LVU1221
 907:Libraries/STM32F4xx_StdPeriph_Driver/src/stm32f4xx_cryp_aes.c ****     {
 3130              		.loc 1 907 11 is_stmt 0 discriminator 1 view .LVU1222
 3131 02de 0420     		movs	r0, #4
 3132 02e0 FFF7FEFF 		bl	CRYP_GetFlagStatus
 3133              	.LVL452:
 907:Libraries/STM32F4xx_StdPeriph_Driver/src/stm32f4xx_cryp_aes.c ****     {
 3134              		.loc 1 907 10 discriminator 1 view .LVU1223
 3135 02e4 0028     		cmp	r0, #0
 3136 02e6 FAD0     		beq	.L75
 911:Libraries/STM32F4xx_StdPeriph_Driver/src/stm32f4xx_cryp_aes.c ****     /* Read the Auth TAG in the IN FIFO */
 3137              		.loc 1 911 5 is_stmt 1 view .LVU1224
 913:Libraries/STM32F4xx_StdPeriph_Driver/src/stm32f4xx_cryp_aes.c ****     tagaddr+=4;
 3138              		.loc 1 913 5 view .LVU1225
 913:Libraries/STM32F4xx_StdPeriph_Driver/src/stm32f4xx_cryp_aes.c ****     tagaddr+=4;
 3139              		.loc 1 913 29 is_stmt 0 view .LVU1226
 3140 02e8 FFF7FEFF 		bl	CRYP_DataOut
 3141              	.LVL453:
 913:Libraries/STM32F4xx_StdPeriph_Driver/src/stm32f4xx_cryp_aes.c ****     tagaddr+=4;
 3142              		.loc 1 913 27 view .LVU1227
 3143 02ec 259B     		ldr	r3, [sp, #148]
 3144 02ee 1860     		str	r0, [r3]
 914:Libraries/STM32F4xx_StdPeriph_Driver/src/stm32f4xx_cryp_aes.c ****     *(uint32_t*)(tagaddr) = CRYP_DataOut();
 3145              		.loc 1 914 5 is_stmt 1 view .LVU1228
 3146              	.LVL454:
 915:Libraries/STM32F4xx_StdPeriph_Driver/src/stm32f4xx_cryp_aes.c ****     tagaddr+=4;
 3147              		.loc 1 915 5 view .LVU1229
 915:Libraries/STM32F4xx_StdPeriph_Driver/src/stm32f4xx_cryp_aes.c ****     tagaddr+=4;
 3148              		.loc 1 915 29 is_stmt 0 view .LVU1230
 3149 02f0 FFF7FEFF 		bl	CRYP_DataOut
 3150              	.LVL455:
 915:Libraries/STM32F4xx_StdPeriph_Driver/src/stm32f4xx_cryp_aes.c ****     tagaddr+=4;
 3151              		.loc 1 915 27 view .LVU1231
 3152 02f4 259B     		ldr	r3, [sp, #148]
 3153 02f6 5860     		str	r0, [r3, #4]
 916:Libraries/STM32F4xx_StdPeriph_Driver/src/stm32f4xx_cryp_aes.c ****     *(uint32_t*)(tagaddr) = CRYP_DataOut();
 3154              		.loc 1 916 5 is_stmt 1 view .LVU1232
 3155              	.LVL456:
 917:Libraries/STM32F4xx_StdPeriph_Driver/src/stm32f4xx_cryp_aes.c ****     tagaddr+=4;
ARM GAS  /tmp/ccklj7FS.s 			page 94


 3156              		.loc 1 917 5 view .LVU1233
 917:Libraries/STM32F4xx_StdPeriph_Driver/src/stm32f4xx_cryp_aes.c ****     tagaddr+=4;
 3157              		.loc 1 917 29 is_stmt 0 view .LVU1234
 3158 02f8 FFF7FEFF 		bl	CRYP_DataOut
 3159              	.LVL457:
 917:Libraries/STM32F4xx_StdPeriph_Driver/src/stm32f4xx_cryp_aes.c ****     tagaddr+=4;
 3160              		.loc 1 917 27 view .LVU1235
 3161 02fc 259B     		ldr	r3, [sp, #148]
 3162 02fe 9860     		str	r0, [r3, #8]
 918:Libraries/STM32F4xx_StdPeriph_Driver/src/stm32f4xx_cryp_aes.c ****     *(uint32_t*)(tagaddr) = CRYP_DataOut();
 3163              		.loc 1 918 5 is_stmt 1 view .LVU1236
 3164              	.LVL458:
 919:Libraries/STM32F4xx_StdPeriph_Driver/src/stm32f4xx_cryp_aes.c ****     tagaddr+=4;
 3165              		.loc 1 919 5 view .LVU1237
 919:Libraries/STM32F4xx_StdPeriph_Driver/src/stm32f4xx_cryp_aes.c ****     tagaddr+=4;
 3166              		.loc 1 919 29 is_stmt 0 view .LVU1238
 3167 0300 FFF7FEFF 		bl	CRYP_DataOut
 3168              	.LVL459:
 919:Libraries/STM32F4xx_StdPeriph_Driver/src/stm32f4xx_cryp_aes.c ****     tagaddr+=4;
 3169              		.loc 1 919 27 view .LVU1239
 3170 0304 259B     		ldr	r3, [sp, #148]
 3171 0306 D860     		str	r0, [r3, #12]
 920:Libraries/STM32F4xx_StdPeriph_Driver/src/stm32f4xx_cryp_aes.c ****   }
 3172              		.loc 1 920 5 is_stmt 1 view .LVU1240
 3173              	.LVL460:
 920:Libraries/STM32F4xx_StdPeriph_Driver/src/stm32f4xx_cryp_aes.c ****   }
 3174              		.loc 1 920 5 is_stmt 0 view .LVU1241
 3175 0308 019E     		ldr	r6, [sp, #4]
 3176 030a A5E0     		b	.L76
 3177              	.LVL461:
 3178              	.L101:
 956:Libraries/STM32F4xx_StdPeriph_Driver/src/stm32f4xx_cryp_aes.c ****       
 3179              		.loc 1 956 7 is_stmt 1 view .LVU1242
 3180 030c 4FF48030 		mov	r0, #65536
 3181 0310 FFF7FEFF 		bl	CRYP_PhaseConfig
 3182              	.LVL462:
 959:Libraries/STM32F4xx_StdPeriph_Driver/src/stm32f4xx_cryp_aes.c ****       
 3183              		.loc 1 959 7 view .LVU1243
 3184 0314 0120     		movs	r0, #1
 3185 0316 FFF7FEFF 		bl	CRYP_Cmd
 3186              	.LVL463:
 961:Libraries/STM32F4xx_StdPeriph_Driver/src/stm32f4xx_cryp_aes.c ****       {
 3187              		.loc 1 961 7 view .LVU1244
 961:Libraries/STM32F4xx_StdPeriph_Driver/src/stm32f4xx_cryp_aes.c ****       {
 3188              		.loc 1 961 10 is_stmt 0 view .LVU1245
 3189 031a FFF7FEFF 		bl	CRYP_GetCmdStatus
 3190              	.LVL464:
 961:Libraries/STM32F4xx_StdPeriph_Driver/src/stm32f4xx_cryp_aes.c ****       {
 3191              		.loc 1 961 9 view .LVU1246
 3192 031e 0646     		mov	r6, r0
 3193              	.LVL465:
 961:Libraries/STM32F4xx_StdPeriph_Driver/src/stm32f4xx_cryp_aes.c ****       {
 3194              		.loc 1 961 9 view .LVU1247
 3195 0320 0028     		cmp	r0, #0
 3196 0322 00F09C80 		beq	.L63
 968:Libraries/STM32F4xx_StdPeriph_Driver/src/stm32f4xx_cryp_aes.c ****       {
 3197              		.loc 1 968 23 view .LVU1248
ARM GAS  /tmp/ccklj7FS.s 			page 95


 3198 0326 0026     		movs	r6, #0
 3199 0328 12E0     		b	.L79
 3200              	.LVL466:
 3201              	.L80:
 973:Libraries/STM32F4xx_StdPeriph_Driver/src/stm32f4xx_cryp_aes.c ****         
 3202              		.loc 1 973 9 is_stmt 1 discriminator 1 view .LVU1249
 971:Libraries/STM32F4xx_StdPeriph_Driver/src/stm32f4xx_cryp_aes.c ****         {
 3203              		.loc 1 971 14 discriminator 1 view .LVU1250
 971:Libraries/STM32F4xx_StdPeriph_Driver/src/stm32f4xx_cryp_aes.c ****         {
 3204              		.loc 1 971 15 is_stmt 0 discriminator 1 view .LVU1251
 3205 032a 0120     		movs	r0, #1
 3206 032c FFF7FEFF 		bl	CRYP_GetFlagStatus
 3207              	.LVL467:
 971:Libraries/STM32F4xx_StdPeriph_Driver/src/stm32f4xx_cryp_aes.c ****         {
 3208              		.loc 1 971 14 discriminator 1 view .LVU1252
 3209 0330 0028     		cmp	r0, #0
 3210 0332 FAD0     		beq	.L80
 976:Libraries/STM32F4xx_StdPeriph_Driver/src/stm32f4xx_cryp_aes.c ****         headeraddr+=4;
 3211              		.loc 1 976 9 is_stmt 1 discriminator 2 view .LVU1253
 3212 0334 2868     		ldr	r0, [r5]
 3213 0336 FFF7FEFF 		bl	CRYP_DataIn
 3214              	.LVL468:
 977:Libraries/STM32F4xx_StdPeriph_Driver/src/stm32f4xx_cryp_aes.c ****         CRYP_DataIn(*(uint32_t*)(headeraddr));
 3215              		.loc 1 977 9 discriminator 2 view .LVU1254
 978:Libraries/STM32F4xx_StdPeriph_Driver/src/stm32f4xx_cryp_aes.c ****         headeraddr+=4;
 3216              		.loc 1 978 9 discriminator 2 view .LVU1255
 3217 033a 6868     		ldr	r0, [r5, #4]
 3218 033c FFF7FEFF 		bl	CRYP_DataIn
 3219              	.LVL469:
 979:Libraries/STM32F4xx_StdPeriph_Driver/src/stm32f4xx_cryp_aes.c ****         CRYP_DataIn(*(uint32_t*)(headeraddr));
 3220              		.loc 1 979 9 discriminator 2 view .LVU1256
 980:Libraries/STM32F4xx_StdPeriph_Driver/src/stm32f4xx_cryp_aes.c ****         headeraddr+=4;
 3221              		.loc 1 980 9 discriminator 2 view .LVU1257
 3222 0340 A868     		ldr	r0, [r5, #8]
 3223 0342 FFF7FEFF 		bl	CRYP_DataIn
 3224              	.LVL470:
 981:Libraries/STM32F4xx_StdPeriph_Driver/src/stm32f4xx_cryp_aes.c ****         CRYP_DataIn(*(uint32_t*)(headeraddr));
 3225              		.loc 1 981 9 discriminator 2 view .LVU1258
 982:Libraries/STM32F4xx_StdPeriph_Driver/src/stm32f4xx_cryp_aes.c ****         headeraddr+=4;
 3226              		.loc 1 982 9 discriminator 2 view .LVU1259
 3227 0346 E868     		ldr	r0, [r5, #12]
 3228 0348 FFF7FEFF 		bl	CRYP_DataIn
 3229              	.LVL471:
 983:Libraries/STM32F4xx_StdPeriph_Driver/src/stm32f4xx_cryp_aes.c ****       }
 3230              		.loc 1 983 9 discriminator 2 view .LVU1260
 983:Libraries/STM32F4xx_StdPeriph_Driver/src/stm32f4xx_cryp_aes.c ****       }
 3231              		.loc 1 983 19 is_stmt 0 discriminator 2 view .LVU1261
 3232 034c 1035     		adds	r5, r5, #16
 3233              	.LVL472:
 968:Libraries/STM32F4xx_StdPeriph_Driver/src/stm32f4xx_cryp_aes.c ****       {
 3234              		.loc 1 968 53 is_stmt 1 discriminator 2 view .LVU1262
 968:Libraries/STM32F4xx_StdPeriph_Driver/src/stm32f4xx_cryp_aes.c ****       {
 3235              		.loc 1 968 64 is_stmt 0 discriminator 2 view .LVU1263
 3236 034e 1036     		adds	r6, r6, #16
 3237              	.LVL473:
 3238              	.L79:
 968:Libraries/STM32F4xx_StdPeriph_Driver/src/stm32f4xx_cryp_aes.c ****       {
ARM GAS  /tmp/ccklj7FS.s 			page 96


 3239              		.loc 1 968 28 is_stmt 1 discriminator 1 view .LVU1264
 968:Libraries/STM32F4xx_StdPeriph_Driver/src/stm32f4xx_cryp_aes.c ****       {
 3240              		.loc 1 968 7 is_stmt 0 discriminator 1 view .LVU1265
 3241 0350 5645     		cmp	r6, r10
 3242 0352 EAD3     		bcc	.L80
 987:Libraries/STM32F4xx_StdPeriph_Driver/src/stm32f4xx_cryp_aes.c ****       do
 3243              		.loc 1 987 7 is_stmt 1 view .LVU1266
 987:Libraries/STM32F4xx_StdPeriph_Driver/src/stm32f4xx_cryp_aes.c ****       do
 3244              		.loc 1 987 15 is_stmt 0 view .LVU1267
 3245 0354 0023     		movs	r3, #0
 3246 0356 0593     		str	r3, [sp, #20]
 3247              	.LVL474:
 3248              	.L82:
 988:Libraries/STM32F4xx_StdPeriph_Driver/src/stm32f4xx_cryp_aes.c ****       {
 3249              		.loc 1 988 7 is_stmt 1 discriminator 2 view .LVU1268
 990:Libraries/STM32F4xx_StdPeriph_Driver/src/stm32f4xx_cryp_aes.c ****         counter++;
 3250              		.loc 1 990 9 discriminator 2 view .LVU1269
 990:Libraries/STM32F4xx_StdPeriph_Driver/src/stm32f4xx_cryp_aes.c ****         counter++;
 3251              		.loc 1 990 22 is_stmt 0 discriminator 2 view .LVU1270
 3252 0358 1020     		movs	r0, #16
 3253 035a FFF7FEFF 		bl	CRYP_GetFlagStatus
 3254              	.LVL475:
 991:Libraries/STM32F4xx_StdPeriph_Driver/src/stm32f4xx_cryp_aes.c ****       }while ((counter != AESBUSY_TIMEOUT) && (busystatus != RESET));
 3255              		.loc 1 991 9 is_stmt 1 discriminator 2 view .LVU1271
 991:Libraries/STM32F4xx_StdPeriph_Driver/src/stm32f4xx_cryp_aes.c ****       }while ((counter != AESBUSY_TIMEOUT) && (busystatus != RESET));
 3256              		.loc 1 991 16 is_stmt 0 discriminator 2 view .LVU1272
 3257 035e 059B     		ldr	r3, [sp, #20]
 3258 0360 0133     		adds	r3, r3, #1
 3259 0362 0593     		str	r3, [sp, #20]
 992:Libraries/STM32F4xx_StdPeriph_Driver/src/stm32f4xx_cryp_aes.c **** 
 3260              		.loc 1 992 14 is_stmt 1 discriminator 2 view .LVU1273
 992:Libraries/STM32F4xx_StdPeriph_Driver/src/stm32f4xx_cryp_aes.c **** 
 3261              		.loc 1 992 24 is_stmt 0 discriminator 2 view .LVU1274
 3262 0364 059B     		ldr	r3, [sp, #20]
 992:Libraries/STM32F4xx_StdPeriph_Driver/src/stm32f4xx_cryp_aes.c **** 
 3263              		.loc 1 992 7 discriminator 2 view .LVU1275
 3264 0366 B3F5803F 		cmp	r3, #65536
 3265 036a 01D0     		beq	.L81
 992:Libraries/STM32F4xx_StdPeriph_Driver/src/stm32f4xx_cryp_aes.c **** 
 3266              		.loc 1 992 44 discriminator 1 view .LVU1276
 3267 036c 0028     		cmp	r0, #0
 3268 036e F3D1     		bne	.L82
 3269              	.L81:
 994:Libraries/STM32F4xx_StdPeriph_Driver/src/stm32f4xx_cryp_aes.c ****       {
 3270              		.loc 1 994 7 is_stmt 1 view .LVU1277
 994:Libraries/STM32F4xx_StdPeriph_Driver/src/stm32f4xx_cryp_aes.c ****       {
 3271              		.loc 1 994 10 is_stmt 0 view .LVU1278
 3272 0370 08B9     		cbnz	r0, .L94
 674:Libraries/STM32F4xx_StdPeriph_Driver/src/stm32f4xx_cryp_aes.c ****   uint32_t keyaddr    = (uint32_t)Key;
 3273              		.loc 1 674 15 view .LVU1279
 3274 0372 0125     		movs	r5, #1
 3275              	.LVL476:
 674:Libraries/STM32F4xx_StdPeriph_Driver/src/stm32f4xx_cryp_aes.c ****   uint32_t keyaddr    = (uint32_t)Key;
 3276              		.loc 1 674 15 view .LVU1280
 3277 0374 97E6     		b	.L78
 3278              	.LVL477:
 3279              	.L94:
ARM GAS  /tmp/ccklj7FS.s 			page 97


 996:Libraries/STM32F4xx_StdPeriph_Driver/src/stm32f4xx_cryp_aes.c ****       }
 3280              		.loc 1 996 16 view .LVU1281
 3281 0376 0025     		movs	r5, #0
 3282              	.LVL478:
 996:Libraries/STM32F4xx_StdPeriph_Driver/src/stm32f4xx_cryp_aes.c ****       }
 3283              		.loc 1 996 16 view .LVU1282
 3284 0378 95E6     		b	.L78
 3285              	.LVL479:
 3286              	.L86:
1017:Libraries/STM32F4xx_StdPeriph_Driver/src/stm32f4xx_cryp_aes.c ****       {
1018:Libraries/STM32F4xx_StdPeriph_Driver/src/stm32f4xx_cryp_aes.c ****         /* Wait until the IFEM flag is reset */
1019:Libraries/STM32F4xx_StdPeriph_Driver/src/stm32f4xx_cryp_aes.c ****         while(CRYP_GetFlagStatus(CRYP_FLAG_IFEM) == RESET)
1020:Libraries/STM32F4xx_StdPeriph_Driver/src/stm32f4xx_cryp_aes.c ****         {
1021:Libraries/STM32F4xx_StdPeriph_Driver/src/stm32f4xx_cryp_aes.c ****         }
1022:Libraries/STM32F4xx_StdPeriph_Driver/src/stm32f4xx_cryp_aes.c ****         /* Write the Input block in the IN FIFO */
1023:Libraries/STM32F4xx_StdPeriph_Driver/src/stm32f4xx_cryp_aes.c ****         CRYP_DataIn(*(uint32_t*)(inputaddr));
1024:Libraries/STM32F4xx_StdPeriph_Driver/src/stm32f4xx_cryp_aes.c ****         inputaddr+=4;
1025:Libraries/STM32F4xx_StdPeriph_Driver/src/stm32f4xx_cryp_aes.c ****         CRYP_DataIn(*(uint32_t*)(inputaddr));
1026:Libraries/STM32F4xx_StdPeriph_Driver/src/stm32f4xx_cryp_aes.c ****         inputaddr+=4;
1027:Libraries/STM32F4xx_StdPeriph_Driver/src/stm32f4xx_cryp_aes.c ****         CRYP_DataIn(*(uint32_t*)(inputaddr));
1028:Libraries/STM32F4xx_StdPeriph_Driver/src/stm32f4xx_cryp_aes.c ****         inputaddr+=4;
1029:Libraries/STM32F4xx_StdPeriph_Driver/src/stm32f4xx_cryp_aes.c ****         CRYP_DataIn(*(uint32_t*)(inputaddr));
1030:Libraries/STM32F4xx_StdPeriph_Driver/src/stm32f4xx_cryp_aes.c ****         inputaddr+=4;
1031:Libraries/STM32F4xx_StdPeriph_Driver/src/stm32f4xx_cryp_aes.c ****         
1032:Libraries/STM32F4xx_StdPeriph_Driver/src/stm32f4xx_cryp_aes.c ****         /* Wait until the complete message has been processed */
1033:Libraries/STM32F4xx_StdPeriph_Driver/src/stm32f4xx_cryp_aes.c ****         counter = 0;
1034:Libraries/STM32F4xx_StdPeriph_Driver/src/stm32f4xx_cryp_aes.c ****         do
1035:Libraries/STM32F4xx_StdPeriph_Driver/src/stm32f4xx_cryp_aes.c ****         {
1036:Libraries/STM32F4xx_StdPeriph_Driver/src/stm32f4xx_cryp_aes.c ****           busystatus = CRYP_GetFlagStatus(CRYP_FLAG_BUSY);
1037:Libraries/STM32F4xx_StdPeriph_Driver/src/stm32f4xx_cryp_aes.c ****           counter++;
1038:Libraries/STM32F4xx_StdPeriph_Driver/src/stm32f4xx_cryp_aes.c ****         }while ((counter != AESBUSY_TIMEOUT) && (busystatus != RESET));
1039:Libraries/STM32F4xx_StdPeriph_Driver/src/stm32f4xx_cryp_aes.c **** 
1040:Libraries/STM32F4xx_StdPeriph_Driver/src/stm32f4xx_cryp_aes.c ****         if (busystatus != RESET)
 3287              		.loc 1 1040 9 is_stmt 1 view .LVU1283
 3288              		.loc 1 1040 12 is_stmt 0 view .LVU1284
 3289 037a 30B3     		cbz	r0, .L89
1041:Libraries/STM32F4xx_StdPeriph_Driver/src/stm32f4xx_cryp_aes.c ****         {
1042:Libraries/STM32F4xx_StdPeriph_Driver/src/stm32f4xx_cryp_aes.c ****           status = ERROR;
 3290              		.loc 1 1042 18 view .LVU1285
 3291 037c 0025     		movs	r5, #0
 3292              	.LVL480:
 3293              	.L88:
1016:Libraries/STM32F4xx_StdPeriph_Driver/src/stm32f4xx_cryp_aes.c ****       {
 3294              		.loc 1 1016 76 is_stmt 1 discriminator 2 view .LVU1286
1016:Libraries/STM32F4xx_StdPeriph_Driver/src/stm32f4xx_cryp_aes.c ****       {
 3295              		.loc 1 1016 87 is_stmt 0 discriminator 2 view .LVU1287
 3296 037e 1036     		adds	r6, r6, #16
 3297              	.LVL481:
 3298              	.L84:
1016:Libraries/STM32F4xx_StdPeriph_Driver/src/stm32f4xx_cryp_aes.c ****       {
 3299              		.loc 1 1016 28 is_stmt 1 discriminator 1 view .LVU1288
1016:Libraries/STM32F4xx_StdPeriph_Driver/src/stm32f4xx_cryp_aes.c ****       {
 3300              		.loc 1 1016 7 is_stmt 0 discriminator 1 view .LVU1289
 3301 0380 4E45     		cmp	r6, r9
 3302 0382 3AD2     		bcs	.L83
1016:Libraries/STM32F4xx_StdPeriph_Driver/src/stm32f4xx_cryp_aes.c ****       {
 3303              		.loc 1 1016 53 discriminator 3 view .LVU1290
ARM GAS  /tmp/ccklj7FS.s 			page 98


 3304 0384 002D     		cmp	r5, #0
 3305 0386 38D0     		beq	.L83
 3306              	.L85:
1021:Libraries/STM32F4xx_StdPeriph_Driver/src/stm32f4xx_cryp_aes.c ****         /* Write the Input block in the IN FIFO */
 3307              		.loc 1 1021 9 is_stmt 1 discriminator 1 view .LVU1291
1019:Libraries/STM32F4xx_StdPeriph_Driver/src/stm32f4xx_cryp_aes.c ****         {
 3308              		.loc 1 1019 14 discriminator 1 view .LVU1292
1019:Libraries/STM32F4xx_StdPeriph_Driver/src/stm32f4xx_cryp_aes.c ****         {
 3309              		.loc 1 1019 15 is_stmt 0 discriminator 1 view .LVU1293
 3310 0388 0120     		movs	r0, #1
 3311 038a FFF7FEFF 		bl	CRYP_GetFlagStatus
 3312              	.LVL482:
1019:Libraries/STM32F4xx_StdPeriph_Driver/src/stm32f4xx_cryp_aes.c ****         {
 3313              		.loc 1 1019 14 discriminator 1 view .LVU1294
 3314 038e 0028     		cmp	r0, #0
 3315 0390 FAD0     		beq	.L85
1023:Libraries/STM32F4xx_StdPeriph_Driver/src/stm32f4xx_cryp_aes.c ****         inputaddr+=4;
 3316              		.loc 1 1023 9 is_stmt 1 view .LVU1295
 3317 0392 2068     		ldr	r0, [r4]
 3318 0394 FFF7FEFF 		bl	CRYP_DataIn
 3319              	.LVL483:
1024:Libraries/STM32F4xx_StdPeriph_Driver/src/stm32f4xx_cryp_aes.c ****         CRYP_DataIn(*(uint32_t*)(inputaddr));
 3320              		.loc 1 1024 9 view .LVU1296
1025:Libraries/STM32F4xx_StdPeriph_Driver/src/stm32f4xx_cryp_aes.c ****         inputaddr+=4;
 3321              		.loc 1 1025 9 view .LVU1297
 3322 0398 6068     		ldr	r0, [r4, #4]
 3323 039a FFF7FEFF 		bl	CRYP_DataIn
 3324              	.LVL484:
1026:Libraries/STM32F4xx_StdPeriph_Driver/src/stm32f4xx_cryp_aes.c ****         CRYP_DataIn(*(uint32_t*)(inputaddr));
 3325              		.loc 1 1026 9 view .LVU1298
1027:Libraries/STM32F4xx_StdPeriph_Driver/src/stm32f4xx_cryp_aes.c ****         inputaddr+=4;
 3326              		.loc 1 1027 9 view .LVU1299
 3327 039e A068     		ldr	r0, [r4, #8]
 3328 03a0 FFF7FEFF 		bl	CRYP_DataIn
 3329              	.LVL485:
1028:Libraries/STM32F4xx_StdPeriph_Driver/src/stm32f4xx_cryp_aes.c ****         CRYP_DataIn(*(uint32_t*)(inputaddr));
 3330              		.loc 1 1028 9 view .LVU1300
1029:Libraries/STM32F4xx_StdPeriph_Driver/src/stm32f4xx_cryp_aes.c ****         inputaddr+=4;
 3331              		.loc 1 1029 9 view .LVU1301
 3332 03a4 E068     		ldr	r0, [r4, #12]
 3333 03a6 FFF7FEFF 		bl	CRYP_DataIn
 3334              	.LVL486:
1030:Libraries/STM32F4xx_StdPeriph_Driver/src/stm32f4xx_cryp_aes.c ****         
 3335              		.loc 1 1030 9 view .LVU1302
1030:Libraries/STM32F4xx_StdPeriph_Driver/src/stm32f4xx_cryp_aes.c ****         
 3336              		.loc 1 1030 18 is_stmt 0 view .LVU1303
 3337 03aa 1034     		adds	r4, r4, #16
 3338              	.LVL487:
1033:Libraries/STM32F4xx_StdPeriph_Driver/src/stm32f4xx_cryp_aes.c ****         do
 3339              		.loc 1 1033 9 is_stmt 1 view .LVU1304
1033:Libraries/STM32F4xx_StdPeriph_Driver/src/stm32f4xx_cryp_aes.c ****         do
 3340              		.loc 1 1033 17 is_stmt 0 view .LVU1305
 3341 03ac 0023     		movs	r3, #0
 3342              	.LVL488:
1033:Libraries/STM32F4xx_StdPeriph_Driver/src/stm32f4xx_cryp_aes.c ****         do
 3343              		.loc 1 1033 17 view .LVU1306
 3344 03ae 0593     		str	r3, [sp, #20]
ARM GAS  /tmp/ccklj7FS.s 			page 99


 3345              	.LVL489:
 3346              	.L87:
1034:Libraries/STM32F4xx_StdPeriph_Driver/src/stm32f4xx_cryp_aes.c ****         {
 3347              		.loc 1 1034 9 is_stmt 1 discriminator 2 view .LVU1307
1036:Libraries/STM32F4xx_StdPeriph_Driver/src/stm32f4xx_cryp_aes.c ****           counter++;
 3348              		.loc 1 1036 11 discriminator 2 view .LVU1308
1036:Libraries/STM32F4xx_StdPeriph_Driver/src/stm32f4xx_cryp_aes.c ****           counter++;
 3349              		.loc 1 1036 24 is_stmt 0 discriminator 2 view .LVU1309
 3350 03b0 1020     		movs	r0, #16
 3351 03b2 FFF7FEFF 		bl	CRYP_GetFlagStatus
 3352              	.LVL490:
1037:Libraries/STM32F4xx_StdPeriph_Driver/src/stm32f4xx_cryp_aes.c ****         }while ((counter != AESBUSY_TIMEOUT) && (busystatus != RESET));
 3353              		.loc 1 1037 11 is_stmt 1 discriminator 2 view .LVU1310
1037:Libraries/STM32F4xx_StdPeriph_Driver/src/stm32f4xx_cryp_aes.c ****         }while ((counter != AESBUSY_TIMEOUT) && (busystatus != RESET));
 3354              		.loc 1 1037 18 is_stmt 0 discriminator 2 view .LVU1311
 3355 03b6 059B     		ldr	r3, [sp, #20]
 3356 03b8 0133     		adds	r3, r3, #1
 3357 03ba 0593     		str	r3, [sp, #20]
1038:Libraries/STM32F4xx_StdPeriph_Driver/src/stm32f4xx_cryp_aes.c **** 
 3358              		.loc 1 1038 16 is_stmt 1 discriminator 2 view .LVU1312
1038:Libraries/STM32F4xx_StdPeriph_Driver/src/stm32f4xx_cryp_aes.c **** 
 3359              		.loc 1 1038 26 is_stmt 0 discriminator 2 view .LVU1313
 3360 03bc 059B     		ldr	r3, [sp, #20]
1038:Libraries/STM32F4xx_StdPeriph_Driver/src/stm32f4xx_cryp_aes.c **** 
 3361              		.loc 1 1038 9 discriminator 2 view .LVU1314
 3362 03be B3F5803F 		cmp	r3, #65536
 3363 03c2 DAD0     		beq	.L86
1038:Libraries/STM32F4xx_StdPeriph_Driver/src/stm32f4xx_cryp_aes.c **** 
 3364              		.loc 1 1038 46 discriminator 1 view .LVU1315
 3365 03c4 0028     		cmp	r0, #0
 3366 03c6 F3D1     		bne	.L87
 3367 03c8 D7E7     		b	.L86
 3368              	.LVL491:
 3369              	.L89:
1043:Libraries/STM32F4xx_StdPeriph_Driver/src/stm32f4xx_cryp_aes.c ****         }
1044:Libraries/STM32F4xx_StdPeriph_Driver/src/stm32f4xx_cryp_aes.c ****         else
1045:Libraries/STM32F4xx_StdPeriph_Driver/src/stm32f4xx_cryp_aes.c ****         {
1046:Libraries/STM32F4xx_StdPeriph_Driver/src/stm32f4xx_cryp_aes.c ****           /* Wait until the OFNE flag is reset */
1047:Libraries/STM32F4xx_StdPeriph_Driver/src/stm32f4xx_cryp_aes.c ****           while(CRYP_GetFlagStatus(CRYP_FLAG_OFNE) == RESET)
1048:Libraries/STM32F4xx_StdPeriph_Driver/src/stm32f4xx_cryp_aes.c ****           {
1049:Libraries/STM32F4xx_StdPeriph_Driver/src/stm32f4xx_cryp_aes.c ****           }
 3370              		.loc 1 1049 11 is_stmt 1 discriminator 1 view .LVU1316
1047:Libraries/STM32F4xx_StdPeriph_Driver/src/stm32f4xx_cryp_aes.c ****           {
 3371              		.loc 1 1047 16 discriminator 1 view .LVU1317
1047:Libraries/STM32F4xx_StdPeriph_Driver/src/stm32f4xx_cryp_aes.c ****           {
 3372              		.loc 1 1047 17 is_stmt 0 discriminator 1 view .LVU1318
 3373 03ca 0420     		movs	r0, #4
 3374 03cc FFF7FEFF 		bl	CRYP_GetFlagStatus
 3375              	.LVL492:
1047:Libraries/STM32F4xx_StdPeriph_Driver/src/stm32f4xx_cryp_aes.c ****           {
 3376              		.loc 1 1047 16 discriminator 1 view .LVU1319
 3377 03d0 0028     		cmp	r0, #0
 3378 03d2 FAD0     		beq	.L89
1050:Libraries/STM32F4xx_StdPeriph_Driver/src/stm32f4xx_cryp_aes.c ****           
1051:Libraries/STM32F4xx_StdPeriph_Driver/src/stm32f4xx_cryp_aes.c ****           /* Read the Output block from the Output FIFO */
1052:Libraries/STM32F4xx_StdPeriph_Driver/src/stm32f4xx_cryp_aes.c ****           *(uint32_t*)(outputaddr) = CRYP_DataOut();
 3379              		.loc 1 1052 11 is_stmt 1 view .LVU1320
ARM GAS  /tmp/ccklj7FS.s 			page 100


 3380              		.loc 1 1052 38 is_stmt 0 view .LVU1321
 3381 03d4 FFF7FEFF 		bl	CRYP_DataOut
 3382              	.LVL493:
 3383              		.loc 1 1052 36 view .LVU1322
 3384 03d8 CBF80000 		str	r0, [fp]
1053:Libraries/STM32F4xx_StdPeriph_Driver/src/stm32f4xx_cryp_aes.c ****           outputaddr+=4;
 3385              		.loc 1 1053 11 is_stmt 1 view .LVU1323
 3386              	.LVL494:
1054:Libraries/STM32F4xx_StdPeriph_Driver/src/stm32f4xx_cryp_aes.c ****           *(uint32_t*)(outputaddr) = CRYP_DataOut();
 3387              		.loc 1 1054 11 view .LVU1324
 3388              		.loc 1 1054 38 is_stmt 0 view .LVU1325
 3389 03dc FFF7FEFF 		bl	CRYP_DataOut
 3390              	.LVL495:
 3391              		.loc 1 1054 36 view .LVU1326
 3392 03e0 CBF80400 		str	r0, [fp, #4]
1055:Libraries/STM32F4xx_StdPeriph_Driver/src/stm32f4xx_cryp_aes.c ****           outputaddr+=4;
 3393              		.loc 1 1055 11 is_stmt 1 view .LVU1327
 3394              	.LVL496:
1056:Libraries/STM32F4xx_StdPeriph_Driver/src/stm32f4xx_cryp_aes.c ****           *(uint32_t*)(outputaddr) = CRYP_DataOut();
 3395              		.loc 1 1056 11 view .LVU1328
 3396              		.loc 1 1056 38 is_stmt 0 view .LVU1329
 3397 03e4 FFF7FEFF 		bl	CRYP_DataOut
 3398              	.LVL497:
 3399              		.loc 1 1056 36 view .LVU1330
 3400 03e8 CBF80800 		str	r0, [fp, #8]
1057:Libraries/STM32F4xx_StdPeriph_Driver/src/stm32f4xx_cryp_aes.c ****           outputaddr+=4;
 3401              		.loc 1 1057 11 is_stmt 1 view .LVU1331
 3402              	.LVL498:
1058:Libraries/STM32F4xx_StdPeriph_Driver/src/stm32f4xx_cryp_aes.c ****           *(uint32_t*)(outputaddr) = CRYP_DataOut();
 3403              		.loc 1 1058 11 view .LVU1332
 3404              		.loc 1 1058 38 is_stmt 0 view .LVU1333
 3405 03ec FFF7FEFF 		bl	CRYP_DataOut
 3406              	.LVL499:
 3407              		.loc 1 1058 36 view .LVU1334
 3408 03f0 CBF80C00 		str	r0, [fp, #12]
1059:Libraries/STM32F4xx_StdPeriph_Driver/src/stm32f4xx_cryp_aes.c ****           outputaddr+=4;
 3409              		.loc 1 1059 11 is_stmt 1 view .LVU1335
 3410              		.loc 1 1059 21 is_stmt 0 view .LVU1336
 3411 03f4 0BF1100B 		add	fp, fp, #16
 3412              	.LVL500:
 3413              		.loc 1 1059 21 view .LVU1337
 3414 03f8 C1E7     		b	.L88
 3415              	.LVL501:
 3416              	.L83:
1060:Libraries/STM32F4xx_StdPeriph_Driver/src/stm32f4xx_cryp_aes.c ****         }
1061:Libraries/STM32F4xx_StdPeriph_Driver/src/stm32f4xx_cryp_aes.c ****       }
1062:Libraries/STM32F4xx_StdPeriph_Driver/src/stm32f4xx_cryp_aes.c ****     }
1063:Libraries/STM32F4xx_StdPeriph_Driver/src/stm32f4xx_cryp_aes.c ****     
1064:Libraries/STM32F4xx_StdPeriph_Driver/src/stm32f4xx_cryp_aes.c ****     /***************************** final phase ********************************/
1065:Libraries/STM32F4xx_StdPeriph_Driver/src/stm32f4xx_cryp_aes.c ****     /* Select final phase */
1066:Libraries/STM32F4xx_StdPeriph_Driver/src/stm32f4xx_cryp_aes.c ****     CRYP_PhaseConfig(CRYP_Phase_Final);
 3417              		.loc 1 1066 5 is_stmt 1 view .LVU1338
 3418 03fa 4FF44030 		mov	r0, #196608
 3419 03fe FFF7FEFF 		bl	CRYP_PhaseConfig
 3420              	.LVL502:
1067:Libraries/STM32F4xx_StdPeriph_Driver/src/stm32f4xx_cryp_aes.c **** 
1068:Libraries/STM32F4xx_StdPeriph_Driver/src/stm32f4xx_cryp_aes.c ****     /* Enable Crypto processor */
ARM GAS  /tmp/ccklj7FS.s 			page 101


1069:Libraries/STM32F4xx_StdPeriph_Driver/src/stm32f4xx_cryp_aes.c ****     CRYP_Cmd(ENABLE);
 3421              		.loc 1 1069 5 view .LVU1339
 3422 0402 0120     		movs	r0, #1
 3423 0404 FFF7FEFF 		bl	CRYP_Cmd
 3424              	.LVL503:
1070:Libraries/STM32F4xx_StdPeriph_Driver/src/stm32f4xx_cryp_aes.c ****     
1071:Libraries/STM32F4xx_StdPeriph_Driver/src/stm32f4xx_cryp_aes.c ****     if(CRYP_GetCmdStatus() == DISABLE)
 3425              		.loc 1 1071 5 view .LVU1340
 3426              		.loc 1 1071 8 is_stmt 0 view .LVU1341
 3427 0408 FFF7FEFF 		bl	CRYP_GetCmdStatus
 3428              	.LVL504:
 3429              		.loc 1 1071 7 view .LVU1342
 3430 040c 0646     		mov	r6, r0
 3431 040e 30B3     		cbz	r0, .L63
1072:Libraries/STM32F4xx_StdPeriph_Driver/src/stm32f4xx_cryp_aes.c ****     {
1073:Libraries/STM32F4xx_StdPeriph_Driver/src/stm32f4xx_cryp_aes.c ****       /* The CRYP peripheral clock is not enabled or the device doesn't embed 
1074:Libraries/STM32F4xx_StdPeriph_Driver/src/stm32f4xx_cryp_aes.c ****          the CRYP peripheral (please check the device sales type. */
1075:Libraries/STM32F4xx_StdPeriph_Driver/src/stm32f4xx_cryp_aes.c ****       return(ERROR);
1076:Libraries/STM32F4xx_StdPeriph_Driver/src/stm32f4xx_cryp_aes.c ****     }
1077:Libraries/STM32F4xx_StdPeriph_Driver/src/stm32f4xx_cryp_aes.c ****     
1078:Libraries/STM32F4xx_StdPeriph_Driver/src/stm32f4xx_cryp_aes.c ****     /* Write number of bits concatenated with header in the IN FIFO */
1079:Libraries/STM32F4xx_StdPeriph_Driver/src/stm32f4xx_cryp_aes.c ****     CRYP_DataIn(__REV(headerlength>>32));
 3432              		.loc 1 1079 5 is_stmt 1 view .LVU1343
 3433              	.LVL505:
 3434              	.LBB406:
 3435              	.LBI406:
 495:Libraries/CMSIS/Include/core_cmInstr.h **** {
 3436              		.loc 2 495 57 view .LVU1344
 3437              	.LBB407:
 3438              		.loc 2 498 3 view .LVU1345
 3439              		.loc 2 498 3 is_stmt 0 view .LVU1346
 3440              	.LBE407:
 3441              	.LBE406:
 3442              		.loc 1 1079 5 view .LVU1347
 3443 0410 0020     		movs	r0, #0
 3444              	.LVL506:
 3445              		.loc 1 1079 5 view .LVU1348
 3446 0412 FFF7FEFF 		bl	CRYP_DataIn
 3447              	.LVL507:
1080:Libraries/STM32F4xx_StdPeriph_Driver/src/stm32f4xx_cryp_aes.c ****     CRYP_DataIn(__REV(headerlength));
 3448              		.loc 1 1080 5 is_stmt 1 view .LVU1349
 3449              	.LBB408:
 3450              	.LBI408:
 495:Libraries/CMSIS/Include/core_cmInstr.h **** {
 3451              		.loc 2 495 57 view .LVU1350
 3452              	.LBB409:
 3453              		.loc 2 498 3 view .LVU1351
 3454              		.loc 2 498 3 is_stmt 0 view .LVU1352
 3455              	.LBE409:
 3456              	.LBE408:
 3457              		.loc 1 1080 5 view .LVU1353
 3458 0416 029B     		ldr	r3, [sp, #8]
 3459 0418 18BA     		rev	r0, r3
 3460 041a FFF7FEFF 		bl	CRYP_DataIn
 3461              	.LVL508:
1081:Libraries/STM32F4xx_StdPeriph_Driver/src/stm32f4xx_cryp_aes.c ****     CRYP_DataIn(__REV(inputlength>>32));
 3462              		.loc 1 1081 5 is_stmt 1 view .LVU1354
ARM GAS  /tmp/ccklj7FS.s 			page 102


 3463              	.LBB410:
 3464              	.LBI410:
 495:Libraries/CMSIS/Include/core_cmInstr.h **** {
 3465              		.loc 2 495 57 view .LVU1355
 3466              	.LBB411:
 3467              		.loc 2 498 3 view .LVU1356
 3468              		.loc 2 498 3 is_stmt 0 view .LVU1357
 3469              	.LBE411:
 3470              	.LBE410:
 3471              		.loc 1 1081 5 view .LVU1358
 3472 041e 0020     		movs	r0, #0
 3473              	.LVL509:
 3474              		.loc 1 1081 5 view .LVU1359
 3475 0420 FFF7FEFF 		bl	CRYP_DataIn
 3476              	.LVL510:
1082:Libraries/STM32F4xx_StdPeriph_Driver/src/stm32f4xx_cryp_aes.c ****     CRYP_DataIn(__REV(inputlength));
 3477              		.loc 1 1082 5 is_stmt 1 view .LVU1360
 3478              	.LBB412:
 3479              	.LBI412:
 495:Libraries/CMSIS/Include/core_cmInstr.h **** {
 3480              		.loc 2 495 57 view .LVU1361
 3481              	.LBB413:
 3482              		.loc 2 498 3 view .LVU1362
 3483              		.loc 2 498 3 is_stmt 0 view .LVU1363
 3484              	.LBE413:
 3485              	.LBE412:
 3486              		.loc 1 1082 5 view .LVU1364
 3487 0424 039B     		ldr	r3, [sp, #12]
 3488 0426 18BA     		rev	r0, r3
 3489 0428 FFF7FEFF 		bl	CRYP_DataIn
 3490              	.LVL511:
1083:Libraries/STM32F4xx_StdPeriph_Driver/src/stm32f4xx_cryp_aes.c ****     /* Wait until the OFNE flag is reset */
1084:Libraries/STM32F4xx_StdPeriph_Driver/src/stm32f4xx_cryp_aes.c ****     while(CRYP_GetFlagStatus(CRYP_FLAG_OFNE) == RESET)
 3491              		.loc 1 1084 5 is_stmt 1 view .LVU1365
 3492              	.L90:
1085:Libraries/STM32F4xx_StdPeriph_Driver/src/stm32f4xx_cryp_aes.c ****     {
1086:Libraries/STM32F4xx_StdPeriph_Driver/src/stm32f4xx_cryp_aes.c ****     }
 3493              		.loc 1 1086 5 discriminator 1 view .LVU1366
1084:Libraries/STM32F4xx_StdPeriph_Driver/src/stm32f4xx_cryp_aes.c ****     {
 3494              		.loc 1 1084 10 discriminator 1 view .LVU1367
1084:Libraries/STM32F4xx_StdPeriph_Driver/src/stm32f4xx_cryp_aes.c ****     {
 3495              		.loc 1 1084 11 is_stmt 0 discriminator 1 view .LVU1368
 3496 042c 0420     		movs	r0, #4
 3497 042e FFF7FEFF 		bl	CRYP_GetFlagStatus
 3498              	.LVL512:
1084:Libraries/STM32F4xx_StdPeriph_Driver/src/stm32f4xx_cryp_aes.c ****     {
 3499              		.loc 1 1084 10 discriminator 1 view .LVU1369
 3500 0432 0028     		cmp	r0, #0
 3501 0434 FAD0     		beq	.L90
1087:Libraries/STM32F4xx_StdPeriph_Driver/src/stm32f4xx_cryp_aes.c ****     
1088:Libraries/STM32F4xx_StdPeriph_Driver/src/stm32f4xx_cryp_aes.c ****     tagaddr = (uint32_t)AuthTAG;
 3502              		.loc 1 1088 5 is_stmt 1 view .LVU1370
1089:Libraries/STM32F4xx_StdPeriph_Driver/src/stm32f4xx_cryp_aes.c ****     /* Read the Auth TAG in the IN FIFO */
1090:Libraries/STM32F4xx_StdPeriph_Driver/src/stm32f4xx_cryp_aes.c ****     *(uint32_t*)(tagaddr) = CRYP_DataOut();
 3503              		.loc 1 1090 5 view .LVU1371
 3504              		.loc 1 1090 29 is_stmt 0 view .LVU1372
 3505 0436 FFF7FEFF 		bl	CRYP_DataOut
ARM GAS  /tmp/ccklj7FS.s 			page 103


 3506              	.LVL513:
 3507              		.loc 1 1090 27 view .LVU1373
 3508 043a 259B     		ldr	r3, [sp, #148]
 3509 043c 1860     		str	r0, [r3]
1091:Libraries/STM32F4xx_StdPeriph_Driver/src/stm32f4xx_cryp_aes.c ****     tagaddr+=4;
 3510              		.loc 1 1091 5 is_stmt 1 view .LVU1374
 3511              	.LVL514:
1092:Libraries/STM32F4xx_StdPeriph_Driver/src/stm32f4xx_cryp_aes.c ****     *(uint32_t*)(tagaddr) = CRYP_DataOut();
 3512              		.loc 1 1092 5 view .LVU1375
 3513              		.loc 1 1092 29 is_stmt 0 view .LVU1376
 3514 043e FFF7FEFF 		bl	CRYP_DataOut
 3515              	.LVL515:
 3516              		.loc 1 1092 27 view .LVU1377
 3517 0442 259B     		ldr	r3, [sp, #148]
 3518 0444 5860     		str	r0, [r3, #4]
1093:Libraries/STM32F4xx_StdPeriph_Driver/src/stm32f4xx_cryp_aes.c ****     tagaddr+=4;
 3519              		.loc 1 1093 5 is_stmt 1 view .LVU1378
 3520              	.LVL516:
1094:Libraries/STM32F4xx_StdPeriph_Driver/src/stm32f4xx_cryp_aes.c ****     *(uint32_t*)(tagaddr) = CRYP_DataOut();
 3521              		.loc 1 1094 5 view .LVU1379
 3522              		.loc 1 1094 29 is_stmt 0 view .LVU1380
 3523 0446 FFF7FEFF 		bl	CRYP_DataOut
 3524              	.LVL517:
 3525              		.loc 1 1094 27 view .LVU1381
 3526 044a 259B     		ldr	r3, [sp, #148]
 3527 044c 9860     		str	r0, [r3, #8]
1095:Libraries/STM32F4xx_StdPeriph_Driver/src/stm32f4xx_cryp_aes.c ****     tagaddr+=4;
 3528              		.loc 1 1095 5 is_stmt 1 view .LVU1382
 3529              	.LVL518:
1096:Libraries/STM32F4xx_StdPeriph_Driver/src/stm32f4xx_cryp_aes.c ****     *(uint32_t*)(tagaddr) = CRYP_DataOut();
 3530              		.loc 1 1096 5 view .LVU1383
 3531              		.loc 1 1096 29 is_stmt 0 view .LVU1384
 3532 044e FFF7FEFF 		bl	CRYP_DataOut
 3533              	.LVL519:
 3534              		.loc 1 1096 27 view .LVU1385
 3535 0452 259B     		ldr	r3, [sp, #148]
 3536 0454 D860     		str	r0, [r3, #12]
1097:Libraries/STM32F4xx_StdPeriph_Driver/src/stm32f4xx_cryp_aes.c ****     tagaddr+=4;
 3537              		.loc 1 1097 5 is_stmt 1 view .LVU1386
 3538              	.LVL520:
1096:Libraries/STM32F4xx_StdPeriph_Driver/src/stm32f4xx_cryp_aes.c ****     *(uint32_t*)(tagaddr) = CRYP_DataOut();
 3539              		.loc 1 1096 27 is_stmt 0 view .LVU1387
 3540 0456 2E46     		mov	r6, r5
 3541              	.LVL521:
 3542              	.L76:
1098:Libraries/STM32F4xx_StdPeriph_Driver/src/stm32f4xx_cryp_aes.c ****   }
1099:Libraries/STM32F4xx_StdPeriph_Driver/src/stm32f4xx_cryp_aes.c ****   /* Disable Crypto */
1100:Libraries/STM32F4xx_StdPeriph_Driver/src/stm32f4xx_cryp_aes.c ****   CRYP_Cmd(DISABLE);
 3543              		.loc 1 1100 3 is_stmt 1 view .LVU1388
 3544 0458 0020     		movs	r0, #0
 3545              	.LVL522:
 3546              		.loc 1 1100 3 is_stmt 0 view .LVU1389
 3547 045a FFF7FEFF 		bl	CRYP_Cmd
 3548              	.LVL523:
1101:Libraries/STM32F4xx_StdPeriph_Driver/src/stm32f4xx_cryp_aes.c **** 
1102:Libraries/STM32F4xx_StdPeriph_Driver/src/stm32f4xx_cryp_aes.c ****   return status;
 3549              		.loc 1 1102 3 is_stmt 1 view .LVU1390
ARM GAS  /tmp/ccklj7FS.s 			page 104


 3550              	.L63:
1103:Libraries/STM32F4xx_StdPeriph_Driver/src/stm32f4xx_cryp_aes.c **** }
 3551              		.loc 1 1103 1 is_stmt 0 view .LVU1391
 3552 045e 3046     		mov	r0, r6
 3553 0460 17B0     		add	sp, sp, #92
 3554              	.LCFI11:
 3555              		.cfi_def_cfa_offset 36
 3556              		@ sp needed
 3557 0462 BDE8F08F 		pop	{r4, r5, r6, r7, r8, r9, r10, fp, pc}
 3558              		.loc 1 1103 1 view .LVU1392
 3559              		.cfi_endproc
 3560              	.LFE126:
 3562              		.section	.text.CRYP_AES_CCM,"ax",%progbits
 3563              		.align	1
 3564              		.global	CRYP_AES_CCM
 3565              		.syntax unified
 3566              		.thumb
 3567              		.thumb_func
 3568              		.fpu fpv4-sp-d16
 3570              	CRYP_AES_CCM:
 3571              	.LVL524:
 3572              	.LFB127:
1104:Libraries/STM32F4xx_StdPeriph_Driver/src/stm32f4xx_cryp_aes.c **** 
1105:Libraries/STM32F4xx_StdPeriph_Driver/src/stm32f4xx_cryp_aes.c **** /**
1106:Libraries/STM32F4xx_StdPeriph_Driver/src/stm32f4xx_cryp_aes.c ****   * @brief  Encrypt and decrypt using AES in CCM Mode. The GCM and CCM modes
1107:Libraries/STM32F4xx_StdPeriph_Driver/src/stm32f4xx_cryp_aes.c ****   *         are available only on STM32F437x Devices.
1108:Libraries/STM32F4xx_StdPeriph_Driver/src/stm32f4xx_cryp_aes.c ****   * @param  Mode: encryption or decryption Mode.
1109:Libraries/STM32F4xx_StdPeriph_Driver/src/stm32f4xx_cryp_aes.c ****   *          This parameter can be one of the following values:
1110:Libraries/STM32F4xx_StdPeriph_Driver/src/stm32f4xx_cryp_aes.c ****   *            @arg MODE_ENCRYPT: Encryption
1111:Libraries/STM32F4xx_StdPeriph_Driver/src/stm32f4xx_cryp_aes.c ****   *            @arg MODE_DECRYPT: Decryption
1112:Libraries/STM32F4xx_StdPeriph_Driver/src/stm32f4xx_cryp_aes.c ****   * @param  Nonce: the nonce used for AES algorithm. It shall be unique for each processing.
1113:Libraries/STM32F4xx_StdPeriph_Driver/src/stm32f4xx_cryp_aes.c ****   * @param  Key: Key used for AES algorithm.
1114:Libraries/STM32F4xx_StdPeriph_Driver/src/stm32f4xx_cryp_aes.c ****   * @param  Keysize: length of the Key, must be a 128, 192 or 256.
1115:Libraries/STM32F4xx_StdPeriph_Driver/src/stm32f4xx_cryp_aes.c ****   * @param  Input: pointer to the Input buffer.
1116:Libraries/STM32F4xx_StdPeriph_Driver/src/stm32f4xx_cryp_aes.c ****   * @param  Ilength: length of the Input buffer in bytes, must be a multiple of 16.
1117:Libraries/STM32F4xx_StdPeriph_Driver/src/stm32f4xx_cryp_aes.c ****   * @param  Header: pointer to the header buffer.
1118:Libraries/STM32F4xx_StdPeriph_Driver/src/stm32f4xx_cryp_aes.c ****   * @param  Hlength: length of the header buffer in bytes.
1119:Libraries/STM32F4xx_StdPeriph_Driver/src/stm32f4xx_cryp_aes.c ****   * @param  HBuffer: pointer to temporary buffer used to append the header
1120:Libraries/STM32F4xx_StdPeriph_Driver/src/stm32f4xx_cryp_aes.c ****   *         HBuffer size must be equal to Hlength + 21
1121:Libraries/STM32F4xx_StdPeriph_Driver/src/stm32f4xx_cryp_aes.c ****   * @param  Output: pointer to the returned buffer.
1122:Libraries/STM32F4xx_StdPeriph_Driver/src/stm32f4xx_cryp_aes.c ****   * @param  AuthTAG: pointer to the authentication TAG buffer.
1123:Libraries/STM32F4xx_StdPeriph_Driver/src/stm32f4xx_cryp_aes.c ****   * @param  TAGSize: the size of the TAG (called also MAC).
1124:Libraries/STM32F4xx_StdPeriph_Driver/src/stm32f4xx_cryp_aes.c ****   * @retval An ErrorStatus enumeration value:
1125:Libraries/STM32F4xx_StdPeriph_Driver/src/stm32f4xx_cryp_aes.c ****   *          - SUCCESS: Operation done
1126:Libraries/STM32F4xx_StdPeriph_Driver/src/stm32f4xx_cryp_aes.c ****   *          - ERROR: Operation failed
1127:Libraries/STM32F4xx_StdPeriph_Driver/src/stm32f4xx_cryp_aes.c ****   */
1128:Libraries/STM32F4xx_StdPeriph_Driver/src/stm32f4xx_cryp_aes.c **** ErrorStatus CRYP_AES_CCM(uint8_t Mode, 
1129:Libraries/STM32F4xx_StdPeriph_Driver/src/stm32f4xx_cryp_aes.c ****                          uint8_t* Nonce, uint32_t NonceSize,
1130:Libraries/STM32F4xx_StdPeriph_Driver/src/stm32f4xx_cryp_aes.c ****                          uint8_t *Key, uint16_t Keysize,
1131:Libraries/STM32F4xx_StdPeriph_Driver/src/stm32f4xx_cryp_aes.c ****                          uint8_t *Input, uint32_t ILength,
1132:Libraries/STM32F4xx_StdPeriph_Driver/src/stm32f4xx_cryp_aes.c ****                          uint8_t *Header, uint32_t HLength, uint8_t *HBuffer,
1133:Libraries/STM32F4xx_StdPeriph_Driver/src/stm32f4xx_cryp_aes.c ****                          uint8_t *Output,
1134:Libraries/STM32F4xx_StdPeriph_Driver/src/stm32f4xx_cryp_aes.c ****                          uint8_t *AuthTAG, uint32_t TAGSize)
1135:Libraries/STM32F4xx_StdPeriph_Driver/src/stm32f4xx_cryp_aes.c **** {
 3573              		.loc 1 1135 1 is_stmt 1 view -0
 3574              		.cfi_startproc
 3575              		@ args = 36, pretend = 0, frame = 128
ARM GAS  /tmp/ccklj7FS.s 			page 105


 3576              		@ frame_needed = 0, uses_anonymous_args = 0
 3577              		.loc 1 1135 1 is_stmt 0 view .LVU1394
 3578 0000 2DE9F04F 		push	{r4, r5, r6, r7, r8, r9, r10, fp, lr}
 3579              	.LCFI12:
 3580              		.cfi_def_cfa_offset 36
 3581              		.cfi_offset 4, -36
 3582              		.cfi_offset 5, -32
 3583              		.cfi_offset 6, -28
 3584              		.cfi_offset 7, -24
 3585              		.cfi_offset 8, -20
 3586              		.cfi_offset 9, -16
 3587              		.cfi_offset 10, -12
 3588              		.cfi_offset 11, -8
 3589              		.cfi_offset 14, -4
 3590 0004 A1B0     		sub	sp, sp, #132
 3591              	.LCFI13:
 3592              		.cfi_def_cfa_offset 168
 3593 0006 0190     		str	r0, [sp, #4]
 3594 0008 1F46     		mov	r7, r3
 3595 000a BDF8A8B0 		ldrh	fp, [sp, #168]
 3596 000e DDF8B080 		ldr	r8, [sp, #176]
 3597 0012 DDF8B4E0 		ldr	lr, [sp, #180]
 3598 0016 2E9C     		ldr	r4, [sp, #184]
 3599 0018 DDF8BCC0 		ldr	ip, [sp, #188]
 3600 001c DDF8C890 		ldr	r9, [sp, #200]
1136:Libraries/STM32F4xx_StdPeriph_Driver/src/stm32f4xx_cryp_aes.c ****   CRYP_InitTypeDef AES_CRYP_InitStructure;
 3601              		.loc 1 1136 3 is_stmt 1 view .LVU1395
1137:Libraries/STM32F4xx_StdPeriph_Driver/src/stm32f4xx_cryp_aes.c ****   CRYP_KeyInitTypeDef AES_CRYP_KeyInitStructure;
 3602              		.loc 1 1137 3 view .LVU1396
1138:Libraries/STM32F4xx_StdPeriph_Driver/src/stm32f4xx_cryp_aes.c ****   CRYP_IVInitTypeDef AES_CRYP_IVInitStructure;
 3603              		.loc 1 1138 3 view .LVU1397
1139:Libraries/STM32F4xx_StdPeriph_Driver/src/stm32f4xx_cryp_aes.c ****   __IO uint32_t counter = 0;
 3604              		.loc 1 1139 3 view .LVU1398
 3605              		.loc 1 1139 17 is_stmt 0 view .LVU1399
 3606 0020 0023     		movs	r3, #0
 3607              	.LVL525:
 3608              		.loc 1 1139 17 view .LVU1400
 3609 0022 0F93     		str	r3, [sp, #60]
1140:Libraries/STM32F4xx_StdPeriph_Driver/src/stm32f4xx_cryp_aes.c ****   uint32_t busystatus = 0;
 3610              		.loc 1 1140 3 is_stmt 1 view .LVU1401
 3611              	.LVL526:
1141:Libraries/STM32F4xx_StdPeriph_Driver/src/stm32f4xx_cryp_aes.c ****   ErrorStatus status = SUCCESS;
 3612              		.loc 1 1141 3 view .LVU1402
1142:Libraries/STM32F4xx_StdPeriph_Driver/src/stm32f4xx_cryp_aes.c ****   uint32_t keyaddr    = (uint32_t)Key;
 3613              		.loc 1 1142 3 view .LVU1403
1143:Libraries/STM32F4xx_StdPeriph_Driver/src/stm32f4xx_cryp_aes.c ****   uint32_t inputaddr  = (uint32_t)Input;
 3614              		.loc 1 1143 3 view .LVU1404
 3615              		.loc 1 1143 12 is_stmt 0 view .LVU1405
 3616 0024 2B9D     		ldr	r5, [sp, #172]
 3617              	.LVL527:
1144:Libraries/STM32F4xx_StdPeriph_Driver/src/stm32f4xx_cryp_aes.c ****   uint32_t outputaddr = (uint32_t)Output;
 3618              		.loc 1 1144 3 is_stmt 1 view .LVU1406
 3619              		.loc 1 1144 12 is_stmt 0 view .LVU1407
 3620 0026 DDF8C0A0 		ldr	r10, [sp, #192]
 3621              	.LVL528:
1145:Libraries/STM32F4xx_StdPeriph_Driver/src/stm32f4xx_cryp_aes.c ****   uint32_t headeraddr = (uint32_t)Header;
 3622              		.loc 1 1145 3 is_stmt 1 view .LVU1408
ARM GAS  /tmp/ccklj7FS.s 			page 106


 3623              		.loc 1 1145 12 is_stmt 0 view .LVU1409
 3624 002a 7646     		mov	r6, lr
 3625              	.LVL529:
1146:Libraries/STM32F4xx_StdPeriph_Driver/src/stm32f4xx_cryp_aes.c ****   uint32_t tagaddr = (uint32_t)AuthTAG;
 3626              		.loc 1 1146 3 is_stmt 1 view .LVU1410
1147:Libraries/STM32F4xx_StdPeriph_Driver/src/stm32f4xx_cryp_aes.c ****   uint32_t headersize = HLength;
 3627              		.loc 1 1147 3 view .LVU1411
1148:Libraries/STM32F4xx_StdPeriph_Driver/src/stm32f4xx_cryp_aes.c ****   uint32_t loopcounter = 0;
 3628              		.loc 1 1148 3 view .LVU1412
1149:Libraries/STM32F4xx_StdPeriph_Driver/src/stm32f4xx_cryp_aes.c ****   uint32_t bufferidx = 0;
 3629              		.loc 1 1149 3 view .LVU1413
1150:Libraries/STM32F4xx_StdPeriph_Driver/src/stm32f4xx_cryp_aes.c ****   uint8_t blockb0[16] = {0};/* Block B0 */
 3630              		.loc 1 1150 3 view .LVU1414
 3631              		.loc 1 1150 11 is_stmt 0 view .LVU1415
 3632 002c 0B93     		str	r3, [sp, #44]
 3633 002e 0C93     		str	r3, [sp, #48]
 3634 0030 0D93     		str	r3, [sp, #52]
 3635 0032 0E93     		str	r3, [sp, #56]
1151:Libraries/STM32F4xx_StdPeriph_Driver/src/stm32f4xx_cryp_aes.c ****   uint8_t ctr[16] = {0}; /* Counter */
 3636              		.loc 1 1151 3 is_stmt 1 view .LVU1416
 3637              		.loc 1 1151 11 is_stmt 0 view .LVU1417
 3638 0034 0793     		str	r3, [sp, #28]
 3639 0036 0893     		str	r3, [sp, #32]
 3640 0038 0993     		str	r3, [sp, #36]
 3641 003a 0A93     		str	r3, [sp, #40]
1152:Libraries/STM32F4xx_StdPeriph_Driver/src/stm32f4xx_cryp_aes.c ****   uint32_t temptag[4] = {0}; /* temporary TAG (MAC) */
 3642              		.loc 1 1152 3 is_stmt 1 view .LVU1418
 3643              		.loc 1 1152 12 is_stmt 0 view .LVU1419
 3644 003c 0393     		str	r3, [sp, #12]
 3645 003e 0493     		str	r3, [sp, #16]
 3646 0040 0593     		str	r3, [sp, #20]
 3647 0042 0693     		str	r3, [sp, #24]
1153:Libraries/STM32F4xx_StdPeriph_Driver/src/stm32f4xx_cryp_aes.c ****   uint32_t ctraddr = (uint32_t)ctr;
 3648              		.loc 1 1153 3 is_stmt 1 view .LVU1420
 3649              	.LVL530:
1154:Libraries/STM32F4xx_StdPeriph_Driver/src/stm32f4xx_cryp_aes.c ****   uint32_t b0addr = (uint32_t)blockb0;
 3650              		.loc 1 1154 3 view .LVU1421
1155:Libraries/STM32F4xx_StdPeriph_Driver/src/stm32f4xx_cryp_aes.c ****   
1156:Libraries/STM32F4xx_StdPeriph_Driver/src/stm32f4xx_cryp_aes.c ****   /************************ Formatting the header block ***********************/
1157:Libraries/STM32F4xx_StdPeriph_Driver/src/stm32f4xx_cryp_aes.c ****   if(headersize != 0)
 3651              		.loc 1 1157 3 view .LVU1422
 3652              		.loc 1 1157 5 is_stmt 0 view .LVU1423
 3653 0044 54B3     		cbz	r4, .L105
1158:Libraries/STM32F4xx_StdPeriph_Driver/src/stm32f4xx_cryp_aes.c ****   {
1159:Libraries/STM32F4xx_StdPeriph_Driver/src/stm32f4xx_cryp_aes.c ****     /* Check that the associated data (or header) length is lower than 2^16 - 2^8 = 65536 - 256 = 6
1160:Libraries/STM32F4xx_StdPeriph_Driver/src/stm32f4xx_cryp_aes.c ****     if(headersize < 65280)
 3654              		.loc 1 1160 5 is_stmt 1 view .LVU1424
 3655              		.loc 1 1160 7 is_stmt 0 view .LVU1425
 3656 0046 B4F57F4F 		cmp	r4, #65280
 3657 004a 09D2     		bcs	.L106
1161:Libraries/STM32F4xx_StdPeriph_Driver/src/stm32f4xx_cryp_aes.c ****     {
1162:Libraries/STM32F4xx_StdPeriph_Driver/src/stm32f4xx_cryp_aes.c ****       HBuffer[bufferidx++] = (uint8_t) ((headersize >> 8) & 0xFF);
 3658              		.loc 1 1162 7 is_stmt 1 view .LVU1426
 3659              	.LVL531:
 3660              		.loc 1 1162 30 is_stmt 0 view .LVU1427
 3661 004c C4F30723 		ubfx	r3, r4, #8, #8
 3662              		.loc 1 1162 28 view .LVU1428
ARM GAS  /tmp/ccklj7FS.s 			page 107


 3663 0050 8CF80030 		strb	r3, [ip]
1163:Libraries/STM32F4xx_StdPeriph_Driver/src/stm32f4xx_cryp_aes.c ****       HBuffer[bufferidx++] = (uint8_t) ((headersize) & 0xFF);
 3664              		.loc 1 1163 7 is_stmt 1 view .LVU1429
 3665              	.LVL532:
 3666              		.loc 1 1163 28 is_stmt 0 view .LVU1430
 3667 0054 8CF80140 		strb	r4, [ip, #1]
1164:Libraries/STM32F4xx_StdPeriph_Driver/src/stm32f4xx_cryp_aes.c ****       headersize += 2;
 3668              		.loc 1 1164 7 is_stmt 1 view .LVU1431
 3669              		.loc 1 1164 18 is_stmt 0 view .LVU1432
 3670 0058 0234     		adds	r4, r4, #2
 3671              	.LVL533:
1163:Libraries/STM32F4xx_StdPeriph_Driver/src/stm32f4xx_cryp_aes.c ****       HBuffer[bufferidx++] = (uint8_t) ((headersize) & 0xFF);
 3672              		.loc 1 1163 24 view .LVU1433
 3673 005a 0220     		movs	r0, #2
 3674              	.LVL534:
 3675              	.L107:
1165:Libraries/STM32F4xx_StdPeriph_Driver/src/stm32f4xx_cryp_aes.c ****     }
1166:Libraries/STM32F4xx_StdPeriph_Driver/src/stm32f4xx_cryp_aes.c ****     else
1167:Libraries/STM32F4xx_StdPeriph_Driver/src/stm32f4xx_cryp_aes.c ****     {
1168:Libraries/STM32F4xx_StdPeriph_Driver/src/stm32f4xx_cryp_aes.c ****       /* header is encoded as 0xff || 0xfe || [headersize]32, i.e., six octets */
1169:Libraries/STM32F4xx_StdPeriph_Driver/src/stm32f4xx_cryp_aes.c ****       HBuffer[bufferidx++] = 0xFF;
1170:Libraries/STM32F4xx_StdPeriph_Driver/src/stm32f4xx_cryp_aes.c ****       HBuffer[bufferidx++] = 0xFE;
1171:Libraries/STM32F4xx_StdPeriph_Driver/src/stm32f4xx_cryp_aes.c ****       HBuffer[bufferidx++] = headersize & 0xff000000;
1172:Libraries/STM32F4xx_StdPeriph_Driver/src/stm32f4xx_cryp_aes.c ****       HBuffer[bufferidx++] = headersize & 0x00ff0000;
1173:Libraries/STM32F4xx_StdPeriph_Driver/src/stm32f4xx_cryp_aes.c ****       HBuffer[bufferidx++] = headersize & 0x0000ff00;
1174:Libraries/STM32F4xx_StdPeriph_Driver/src/stm32f4xx_cryp_aes.c ****       HBuffer[bufferidx++] = headersize & 0x000000ff;
1175:Libraries/STM32F4xx_StdPeriph_Driver/src/stm32f4xx_cryp_aes.c ****       headersize += 6;
1176:Libraries/STM32F4xx_StdPeriph_Driver/src/stm32f4xx_cryp_aes.c ****     }
1177:Libraries/STM32F4xx_StdPeriph_Driver/src/stm32f4xx_cryp_aes.c ****     /* Copy the header buffer in internal buffer "HBuffer" */
1178:Libraries/STM32F4xx_StdPeriph_Driver/src/stm32f4xx_cryp_aes.c ****     for(loopcounter = 0; loopcounter < headersize; loopcounter++)
 3676              		.loc 1 1178 5 is_stmt 1 view .LVU1434
 3677              		.loc 1 1178 21 is_stmt 0 view .LVU1435
 3678 005c 0023     		movs	r3, #0
 3679              		.loc 1 1178 5 view .LVU1436
 3680 005e 17E0     		b	.L108
 3681              	.LVL535:
 3682              	.L106:
1169:Libraries/STM32F4xx_StdPeriph_Driver/src/stm32f4xx_cryp_aes.c ****       HBuffer[bufferidx++] = 0xFE;
 3683              		.loc 1 1169 7 is_stmt 1 view .LVU1437
1169:Libraries/STM32F4xx_StdPeriph_Driver/src/stm32f4xx_cryp_aes.c ****       HBuffer[bufferidx++] = 0xFE;
 3684              		.loc 1 1169 28 is_stmt 0 view .LVU1438
 3685 0060 FF23     		movs	r3, #255
 3686 0062 8CF80030 		strb	r3, [ip]
1170:Libraries/STM32F4xx_StdPeriph_Driver/src/stm32f4xx_cryp_aes.c ****       HBuffer[bufferidx++] = headersize & 0xff000000;
 3687              		.loc 1 1170 7 is_stmt 1 view .LVU1439
 3688              	.LVL536:
1170:Libraries/STM32F4xx_StdPeriph_Driver/src/stm32f4xx_cryp_aes.c ****       HBuffer[bufferidx++] = headersize & 0xff000000;
 3689              		.loc 1 1170 28 is_stmt 0 view .LVU1440
 3690 0066 FE23     		movs	r3, #254
 3691 0068 8CF80130 		strb	r3, [ip, #1]
1171:Libraries/STM32F4xx_StdPeriph_Driver/src/stm32f4xx_cryp_aes.c ****       HBuffer[bufferidx++] = headersize & 0x00ff0000;
 3692              		.loc 1 1171 7 is_stmt 1 view .LVU1441
 3693              	.LVL537:
1171:Libraries/STM32F4xx_StdPeriph_Driver/src/stm32f4xx_cryp_aes.c ****       HBuffer[bufferidx++] = headersize & 0x00ff0000;
 3694              		.loc 1 1171 28 is_stmt 0 view .LVU1442
 3695 006c 0023     		movs	r3, #0
 3696 006e 8CF80230 		strb	r3, [ip, #2]
ARM GAS  /tmp/ccklj7FS.s 			page 108


1172:Libraries/STM32F4xx_StdPeriph_Driver/src/stm32f4xx_cryp_aes.c ****       HBuffer[bufferidx++] = headersize & 0x0000ff00;
 3697              		.loc 1 1172 7 is_stmt 1 view .LVU1443
 3698              	.LVL538:
1172:Libraries/STM32F4xx_StdPeriph_Driver/src/stm32f4xx_cryp_aes.c ****       HBuffer[bufferidx++] = headersize & 0x0000ff00;
 3699              		.loc 1 1172 28 is_stmt 0 view .LVU1444
 3700 0072 8CF80330 		strb	r3, [ip, #3]
1173:Libraries/STM32F4xx_StdPeriph_Driver/src/stm32f4xx_cryp_aes.c ****       HBuffer[bufferidx++] = headersize & 0x000000ff;
 3701              		.loc 1 1173 7 is_stmt 1 view .LVU1445
 3702              	.LVL539:
1173:Libraries/STM32F4xx_StdPeriph_Driver/src/stm32f4xx_cryp_aes.c ****       HBuffer[bufferidx++] = headersize & 0x000000ff;
 3703              		.loc 1 1173 28 is_stmt 0 view .LVU1446
 3704 0076 8CF80430 		strb	r3, [ip, #4]
1174:Libraries/STM32F4xx_StdPeriph_Driver/src/stm32f4xx_cryp_aes.c ****       headersize += 6;
 3705              		.loc 1 1174 7 is_stmt 1 view .LVU1447
 3706              	.LVL540:
1174:Libraries/STM32F4xx_StdPeriph_Driver/src/stm32f4xx_cryp_aes.c ****       headersize += 6;
 3707              		.loc 1 1174 28 is_stmt 0 view .LVU1448
 3708 007a 8CF80540 		strb	r4, [ip, #5]
1175:Libraries/STM32F4xx_StdPeriph_Driver/src/stm32f4xx_cryp_aes.c ****     }
 3709              		.loc 1 1175 7 is_stmt 1 view .LVU1449
1175:Libraries/STM32F4xx_StdPeriph_Driver/src/stm32f4xx_cryp_aes.c ****     }
 3710              		.loc 1 1175 18 is_stmt 0 view .LVU1450
 3711 007e 0634     		adds	r4, r4, #6
 3712              	.LVL541:
1174:Libraries/STM32F4xx_StdPeriph_Driver/src/stm32f4xx_cryp_aes.c ****       headersize += 6;
 3713              		.loc 1 1174 24 view .LVU1451
 3714 0080 0620     		movs	r0, #6
 3715              	.LVL542:
1174:Libraries/STM32F4xx_StdPeriph_Driver/src/stm32f4xx_cryp_aes.c ****       headersize += 6;
 3716              		.loc 1 1174 24 view .LVU1452
 3717 0082 EBE7     		b	.L107
 3718              	.LVL543:
 3719              	.L109:
1179:Libraries/STM32F4xx_StdPeriph_Driver/src/stm32f4xx_cryp_aes.c ****     {
1180:Libraries/STM32F4xx_StdPeriph_Driver/src/stm32f4xx_cryp_aes.c ****       HBuffer[bufferidx++] = Header[loopcounter];
 3720              		.loc 1 1180 7 is_stmt 1 discriminator 3 view .LVU1453
 3721              		.loc 1 1180 36 is_stmt 0 discriminator 3 view .LVU1454
 3722 0084 1EF80360 		ldrb	r6, [lr, r3]	@ zero_extendqisi2
 3723              		.loc 1 1180 28 discriminator 3 view .LVU1455
 3724 0088 0CF80060 		strb	r6, [ip, r0]
1178:Libraries/STM32F4xx_StdPeriph_Driver/src/stm32f4xx_cryp_aes.c ****     {
 3725              		.loc 1 1178 52 is_stmt 1 discriminator 3 view .LVU1456
1178:Libraries/STM32F4xx_StdPeriph_Driver/src/stm32f4xx_cryp_aes.c ****     {
 3726              		.loc 1 1178 63 is_stmt 0 discriminator 3 view .LVU1457
 3727 008c 0133     		adds	r3, r3, #1
 3728              	.LVL544:
 3729              		.loc 1 1180 24 discriminator 3 view .LVU1458
 3730 008e 0130     		adds	r0, r0, #1
 3731              	.LVL545:
 3732              	.L108:
1178:Libraries/STM32F4xx_StdPeriph_Driver/src/stm32f4xx_cryp_aes.c ****     {
 3733              		.loc 1 1178 26 is_stmt 1 discriminator 1 view .LVU1459
1178:Libraries/STM32F4xx_StdPeriph_Driver/src/stm32f4xx_cryp_aes.c ****     {
 3734              		.loc 1 1178 5 is_stmt 0 discriminator 1 view .LVU1460
 3735 0090 9C42     		cmp	r4, r3
 3736 0092 F7D8     		bhi	.L109
1181:Libraries/STM32F4xx_StdPeriph_Driver/src/stm32f4xx_cryp_aes.c ****     }
ARM GAS  /tmp/ccklj7FS.s 			page 109


1182:Libraries/STM32F4xx_StdPeriph_Driver/src/stm32f4xx_cryp_aes.c ****     /* Check if the header size is modulo 16 */
1183:Libraries/STM32F4xx_StdPeriph_Driver/src/stm32f4xx_cryp_aes.c ****     if ((headersize % 16) != 0)
 3737              		.loc 1 1183 5 is_stmt 1 view .LVU1461
 3738              		.loc 1 1183 8 is_stmt 0 view .LVU1462
 3739 0094 14F00F0F 		tst	r4, #15
 3740 0098 25D1     		bne	.L156
 3741              	.LVL546:
 3742              	.L111:
1184:Libraries/STM32F4xx_StdPeriph_Driver/src/stm32f4xx_cryp_aes.c ****     {
1185:Libraries/STM32F4xx_StdPeriph_Driver/src/stm32f4xx_cryp_aes.c ****       /* Padd the header buffer with 0s till the HBuffer length is modulo 16 */
1186:Libraries/STM32F4xx_StdPeriph_Driver/src/stm32f4xx_cryp_aes.c ****       for(loopcounter = headersize; loopcounter <= ((headersize/16) + 1) * 16; loopcounter++)
1187:Libraries/STM32F4xx_StdPeriph_Driver/src/stm32f4xx_cryp_aes.c ****       {
1188:Libraries/STM32F4xx_StdPeriph_Driver/src/stm32f4xx_cryp_aes.c ****         HBuffer[loopcounter] = 0;
1189:Libraries/STM32F4xx_StdPeriph_Driver/src/stm32f4xx_cryp_aes.c ****       }
1190:Libraries/STM32F4xx_StdPeriph_Driver/src/stm32f4xx_cryp_aes.c ****       /* Set the header size to modulo 16 */
1191:Libraries/STM32F4xx_StdPeriph_Driver/src/stm32f4xx_cryp_aes.c ****       headersize = ((headersize/16) + 1) * 16;
1192:Libraries/STM32F4xx_StdPeriph_Driver/src/stm32f4xx_cryp_aes.c ****     }
1193:Libraries/STM32F4xx_StdPeriph_Driver/src/stm32f4xx_cryp_aes.c ****     /* set the pointer headeraddr to HBuffer */
1194:Libraries/STM32F4xx_StdPeriph_Driver/src/stm32f4xx_cryp_aes.c ****     headeraddr = (uint32_t)HBuffer;
 3743              		.loc 1 1194 5 is_stmt 1 view .LVU1463
 3744              		.loc 1 1194 16 is_stmt 0 view .LVU1464
 3745 009a 6646     		mov	r6, ip
 3746              	.LVL547:
 3747              	.L105:
1195:Libraries/STM32F4xx_StdPeriph_Driver/src/stm32f4xx_cryp_aes.c ****   }
1196:Libraries/STM32F4xx_StdPeriph_Driver/src/stm32f4xx_cryp_aes.c ****   /************************* Formatting the block B0 **************************/
1197:Libraries/STM32F4xx_StdPeriph_Driver/src/stm32f4xx_cryp_aes.c ****   if(headersize != 0)
 3748              		.loc 1 1197 3 is_stmt 1 view .LVU1465
 3749              		.loc 1 1197 5 is_stmt 0 view .LVU1466
 3750 009c 14B1     		cbz	r4, .L113
1198:Libraries/STM32F4xx_StdPeriph_Driver/src/stm32f4xx_cryp_aes.c ****   {
1199:Libraries/STM32F4xx_StdPeriph_Driver/src/stm32f4xx_cryp_aes.c ****     blockb0[0] = 0x40;
 3751              		.loc 1 1199 5 is_stmt 1 view .LVU1467
 3752              		.loc 1 1199 16 is_stmt 0 view .LVU1468
 3753 009e 4023     		movs	r3, #64
 3754 00a0 8DF82C30 		strb	r3, [sp, #44]
 3755              	.L113:
1200:Libraries/STM32F4xx_StdPeriph_Driver/src/stm32f4xx_cryp_aes.c ****   }
1201:Libraries/STM32F4xx_StdPeriph_Driver/src/stm32f4xx_cryp_aes.c ****   /* Flags byte */
1202:Libraries/STM32F4xx_StdPeriph_Driver/src/stm32f4xx_cryp_aes.c ****   blockb0[0] |= 0u | (((( (uint8_t) TAGSize - 2) / 2) & 0x07 ) << 3 ) | ( ( (uint8_t) (15 - NonceSi
 3756              		.loc 1 1202 3 is_stmt 1 view .LVU1469
 3757              		.loc 1 1202 27 is_stmt 0 view .LVU1470
 3758 00a4 5FFA89F3 		uxtb	r3, r9
 3759              		.loc 1 1202 45 view .LVU1471
 3760 00a8 023B     		subs	r3, r3, #2
 3761              		.loc 1 1202 50 view .LVU1472
 3762 00aa 03EBD373 		add	r3, r3, r3, lsr #31
 3763 00ae 5B10     		asrs	r3, r3, #1
 3764              		.loc 1 1202 64 view .LVU1473
 3765 00b0 DB00     		lsls	r3, r3, #3
 3766              		.loc 1 1202 20 view .LVU1474
 3767 00b2 03F03803 		and	r3, r3, #56
 3768              		.loc 1 1202 104 view .LVU1475
 3769 00b6 C2F10E00 		rsb	r0, r2, #14
 3770              		.loc 1 1202 109 view .LVU1476
 3771 00ba 00F00700 		and	r0, r0, #7
 3772              		.loc 1 1202 71 view .LVU1477
ARM GAS  /tmp/ccklj7FS.s 			page 110


 3773 00be 0343     		orrs	r3, r3, r0
 3774              		.loc 1 1202 14 view .LVU1478
 3775 00c0 9DF82C00 		ldrb	r0, [sp, #44]	@ zero_extendqisi2
 3776 00c4 0343     		orrs	r3, r3, r0
 3777 00c6 8DF82C30 		strb	r3, [sp, #44]
1203:Libraries/STM32F4xx_StdPeriph_Driver/src/stm32f4xx_cryp_aes.c ****   
1204:Libraries/STM32F4xx_StdPeriph_Driver/src/stm32f4xx_cryp_aes.c ****   for (loopcounter = 0; loopcounter < NonceSize; loopcounter++)
 3778              		.loc 1 1204 3 is_stmt 1 view .LVU1479
 3779              	.LVL548:
 3780              		.loc 1 1204 20 is_stmt 0 view .LVU1480
 3781 00ca 0023     		movs	r3, #0
 3782              		.loc 1 1204 3 view .LVU1481
 3783 00cc 15E0     		b	.L114
 3784              	.LVL549:
 3785              	.L112:
1188:Libraries/STM32F4xx_StdPeriph_Driver/src/stm32f4xx_cryp_aes.c ****       }
 3786              		.loc 1 1188 9 is_stmt 1 discriminator 3 view .LVU1482
1188:Libraries/STM32F4xx_StdPeriph_Driver/src/stm32f4xx_cryp_aes.c ****       }
 3787              		.loc 1 1188 30 is_stmt 0 discriminator 3 view .LVU1483
 3788 00ce 0023     		movs	r3, #0
 3789 00d0 0CF80030 		strb	r3, [ip, r0]
1186:Libraries/STM32F4xx_StdPeriph_Driver/src/stm32f4xx_cryp_aes.c ****       {
 3790              		.loc 1 1186 80 is_stmt 1 discriminator 3 view .LVU1484
1186:Libraries/STM32F4xx_StdPeriph_Driver/src/stm32f4xx_cryp_aes.c ****       {
 3791              		.loc 1 1186 91 is_stmt 0 discriminator 3 view .LVU1485
 3792 00d4 0130     		adds	r0, r0, #1
 3793              	.LVL550:
 3794              	.L110:
1186:Libraries/STM32F4xx_StdPeriph_Driver/src/stm32f4xx_cryp_aes.c ****       {
 3795              		.loc 1 1186 37 is_stmt 1 discriminator 1 view .LVU1486
1186:Libraries/STM32F4xx_StdPeriph_Driver/src/stm32f4xx_cryp_aes.c ****       {
 3796              		.loc 1 1186 64 is_stmt 0 discriminator 1 view .LVU1487
 3797 00d6 2309     		lsrs	r3, r4, #4
1186:Libraries/STM32F4xx_StdPeriph_Driver/src/stm32f4xx_cryp_aes.c ****       {
 3798              		.loc 1 1186 69 discriminator 1 view .LVU1488
 3799 00d8 0133     		adds	r3, r3, #1
1186:Libraries/STM32F4xx_StdPeriph_Driver/src/stm32f4xx_cryp_aes.c ****       {
 3800              		.loc 1 1186 74 discriminator 1 view .LVU1489
 3801 00da 1E01     		lsls	r6, r3, #4
1186:Libraries/STM32F4xx_StdPeriph_Driver/src/stm32f4xx_cryp_aes.c ****       {
 3802              		.loc 1 1186 7 discriminator 1 view .LVU1490
 3803 00dc B0EB031F 		cmp	r0, r3, lsl #4
 3804 00e0 F5D9     		bls	.L112
1191:Libraries/STM32F4xx_StdPeriph_Driver/src/stm32f4xx_cryp_aes.c ****     }
 3805              		.loc 1 1191 18 view .LVU1491
 3806 00e2 3446     		mov	r4, r6
 3807              	.LVL551:
1191:Libraries/STM32F4xx_StdPeriph_Driver/src/stm32f4xx_cryp_aes.c ****     }
 3808              		.loc 1 1191 18 view .LVU1492
 3809 00e4 D9E7     		b	.L111
 3810              	.LVL552:
 3811              	.L156:
1186:Libraries/STM32F4xx_StdPeriph_Driver/src/stm32f4xx_cryp_aes.c ****       {
 3812              		.loc 1 1186 23 view .LVU1493
 3813 00e6 2046     		mov	r0, r4
 3814              	.LVL553:
1186:Libraries/STM32F4xx_StdPeriph_Driver/src/stm32f4xx_cryp_aes.c ****       {
ARM GAS  /tmp/ccklj7FS.s 			page 111


 3815              		.loc 1 1186 23 view .LVU1494
 3816 00e8 F5E7     		b	.L110
 3817              	.LVL554:
 3818              	.L115:
1205:Libraries/STM32F4xx_StdPeriph_Driver/src/stm32f4xx_cryp_aes.c ****   {
1206:Libraries/STM32F4xx_StdPeriph_Driver/src/stm32f4xx_cryp_aes.c ****     blockb0[loopcounter+1] = Nonce[loopcounter];
 3819              		.loc 1 1206 5 is_stmt 1 discriminator 3 view .LVU1495
 3820              		.loc 1 1206 35 is_stmt 0 discriminator 3 view .LVU1496
 3821 00ea C818     		adds	r0, r1, r3
 3822              		.loc 1 1206 24 discriminator 3 view .LVU1497
 3823 00ec 0133     		adds	r3, r3, #1
 3824              	.LVL555:
 3825              		.loc 1 1206 35 discriminator 3 view .LVU1498
 3826 00ee 90F800C0 		ldrb	ip, [r0]	@ zero_extendqisi2
 3827              		.loc 1 1206 28 discriminator 3 view .LVU1499
 3828 00f2 20A8     		add	r0, sp, #128
 3829 00f4 1844     		add	r0, r0, r3
 3830 00f6 00F854CC 		strb	ip, [r0, #-84]
1204:Libraries/STM32F4xx_StdPeriph_Driver/src/stm32f4xx_cryp_aes.c ****   {
 3831              		.loc 1 1204 50 is_stmt 1 discriminator 3 view .LVU1500
 3832              	.LVL556:
 3833              	.L114:
1204:Libraries/STM32F4xx_StdPeriph_Driver/src/stm32f4xx_cryp_aes.c ****   {
 3834              		.loc 1 1204 25 discriminator 1 view .LVU1501
1204:Libraries/STM32F4xx_StdPeriph_Driver/src/stm32f4xx_cryp_aes.c ****   {
 3835              		.loc 1 1204 3 is_stmt 0 discriminator 1 view .LVU1502
 3836 00fa 9342     		cmp	r3, r2
 3837 00fc F5D3     		bcc	.L115
 3838 00fe 05E0     		b	.L116
 3839              	.LVL557:
 3840              	.L117:
1207:Libraries/STM32F4xx_StdPeriph_Driver/src/stm32f4xx_cryp_aes.c ****   }
1208:Libraries/STM32F4xx_StdPeriph_Driver/src/stm32f4xx_cryp_aes.c ****   for ( ; loopcounter < 13; loopcounter++)
1209:Libraries/STM32F4xx_StdPeriph_Driver/src/stm32f4xx_cryp_aes.c ****   {
1210:Libraries/STM32F4xx_StdPeriph_Driver/src/stm32f4xx_cryp_aes.c ****     blockb0[loopcounter+1] = 0;
 3841              		.loc 1 1210 5 is_stmt 1 discriminator 2 view .LVU1503
 3842              		.loc 1 1210 24 is_stmt 0 discriminator 2 view .LVU1504
 3843 0100 0133     		adds	r3, r3, #1
 3844              	.LVL558:
 3845              		.loc 1 1210 28 discriminator 2 view .LVU1505
 3846 0102 20A9     		add	r1, sp, #128
 3847 0104 1944     		add	r1, r1, r3
 3848 0106 0020     		movs	r0, #0
 3849 0108 01F8540C 		strb	r0, [r1, #-84]
1208:Libraries/STM32F4xx_StdPeriph_Driver/src/stm32f4xx_cryp_aes.c ****   {
 3850              		.loc 1 1208 29 is_stmt 1 discriminator 2 view .LVU1506
 3851              	.LVL559:
 3852              	.L116:
1208:Libraries/STM32F4xx_StdPeriph_Driver/src/stm32f4xx_cryp_aes.c ****   {
 3853              		.loc 1 1208 11 discriminator 1 view .LVU1507
1208:Libraries/STM32F4xx_StdPeriph_Driver/src/stm32f4xx_cryp_aes.c ****   {
 3854              		.loc 1 1208 3 is_stmt 0 discriminator 1 view .LVU1508
 3855 010c 0C2B     		cmp	r3, #12
 3856 010e F7D9     		bls	.L117
1211:Libraries/STM32F4xx_StdPeriph_Driver/src/stm32f4xx_cryp_aes.c ****   }
1212:Libraries/STM32F4xx_StdPeriph_Driver/src/stm32f4xx_cryp_aes.c ****   
1213:Libraries/STM32F4xx_StdPeriph_Driver/src/stm32f4xx_cryp_aes.c ****   blockb0[14] = ((ILength >> 8) & 0xFF);
ARM GAS  /tmp/ccklj7FS.s 			page 112


 3857              		.loc 1 1213 3 is_stmt 1 view .LVU1509
 3858              		.loc 1 1213 27 is_stmt 0 view .LVU1510
 3859 0110 4FEA1823 		lsr	r3, r8, #8
 3860              	.LVL560:
 3861              		.loc 1 1213 15 view .LVU1511
 3862 0114 8DF83A30 		strb	r3, [sp, #58]
1214:Libraries/STM32F4xx_StdPeriph_Driver/src/stm32f4xx_cryp_aes.c ****   blockb0[15] = (ILength & 0xFF);
 3863              		.loc 1 1214 3 is_stmt 1 view .LVU1512
 3864              		.loc 1 1214 15 is_stmt 0 view .LVU1513
 3865 0118 8DF83B80 		strb	r8, [sp, #59]
1215:Libraries/STM32F4xx_StdPeriph_Driver/src/stm32f4xx_cryp_aes.c ****   
1216:Libraries/STM32F4xx_StdPeriph_Driver/src/stm32f4xx_cryp_aes.c ****   /************************* Formatting the initial counter *******************/
1217:Libraries/STM32F4xx_StdPeriph_Driver/src/stm32f4xx_cryp_aes.c ****   /* Byte 0:
1218:Libraries/STM32F4xx_StdPeriph_Driver/src/stm32f4xx_cryp_aes.c ****      Bits 7 and 6 are reserved and shall be set to 0
1219:Libraries/STM32F4xx_StdPeriph_Driver/src/stm32f4xx_cryp_aes.c ****      Bits 3, 4, and 5 shall also be set to 0, to ensure that all the counter blocks
1220:Libraries/STM32F4xx_StdPeriph_Driver/src/stm32f4xx_cryp_aes.c ****      are distinct from B0
1221:Libraries/STM32F4xx_StdPeriph_Driver/src/stm32f4xx_cryp_aes.c ****      Bits 0, 1, and 2 contain the same encoding of q as in B0
1222:Libraries/STM32F4xx_StdPeriph_Driver/src/stm32f4xx_cryp_aes.c ****   */
1223:Libraries/STM32F4xx_StdPeriph_Driver/src/stm32f4xx_cryp_aes.c ****   ctr[0] = blockb0[0] & 0x07;
 3866              		.loc 1 1223 3 is_stmt 1 view .LVU1514
 3867              		.loc 1 1223 19 is_stmt 0 view .LVU1515
 3868 011c 9DF82C30 		ldrb	r3, [sp, #44]	@ zero_extendqisi2
 3869              		.loc 1 1223 23 view .LVU1516
 3870 0120 03F00703 		and	r3, r3, #7
 3871              		.loc 1 1223 10 view .LVU1517
 3872 0124 8DF81C30 		strb	r3, [sp, #28]
1224:Libraries/STM32F4xx_StdPeriph_Driver/src/stm32f4xx_cryp_aes.c ****   /* byte 1 to NonceSize is the IV (Nonce) */
1225:Libraries/STM32F4xx_StdPeriph_Driver/src/stm32f4xx_cryp_aes.c ****   for(loopcounter = 1; loopcounter < NonceSize + 1; loopcounter++)
 3873              		.loc 1 1225 3 is_stmt 1 view .LVU1518
 3874              	.LVL561:
 3875              		.loc 1 1225 19 is_stmt 0 view .LVU1519
 3876 0128 0123     		movs	r3, #1
 3877              		.loc 1 1225 3 view .LVU1520
 3878 012a 06E0     		b	.L118
 3879              	.LVL562:
 3880              	.L119:
1226:Libraries/STM32F4xx_StdPeriph_Driver/src/stm32f4xx_cryp_aes.c ****   {
1227:Libraries/STM32F4xx_StdPeriph_Driver/src/stm32f4xx_cryp_aes.c ****     ctr[loopcounter] = blockb0[loopcounter];
 3881              		.loc 1 1227 5 is_stmt 1 discriminator 3 view .LVU1521
 3882              		.loc 1 1227 31 is_stmt 0 discriminator 3 view .LVU1522
 3883 012c 20A9     		add	r1, sp, #128
 3884 012e 1944     		add	r1, r1, r3
 3885 0130 11F8540C 		ldrb	r0, [r1, #-84]	@ zero_extendqisi2
 3886              		.loc 1 1227 22 discriminator 3 view .LVU1523
 3887 0134 01F8640C 		strb	r0, [r1, #-100]
1225:Libraries/STM32F4xx_StdPeriph_Driver/src/stm32f4xx_cryp_aes.c ****   {
 3888              		.loc 1 1225 53 is_stmt 1 discriminator 3 view .LVU1524
1225:Libraries/STM32F4xx_StdPeriph_Driver/src/stm32f4xx_cryp_aes.c ****   {
 3889              		.loc 1 1225 64 is_stmt 0 discriminator 3 view .LVU1525
 3890 0138 0133     		adds	r3, r3, #1
 3891              	.LVL563:
 3892              	.L118:
1225:Libraries/STM32F4xx_StdPeriph_Driver/src/stm32f4xx_cryp_aes.c ****   {
 3893              		.loc 1 1225 24 is_stmt 1 discriminator 1 view .LVU1526
1225:Libraries/STM32F4xx_StdPeriph_Driver/src/stm32f4xx_cryp_aes.c ****   {
 3894              		.loc 1 1225 48 is_stmt 0 discriminator 1 view .LVU1527
 3895 013a 511C     		adds	r1, r2, #1
ARM GAS  /tmp/ccklj7FS.s 			page 113


1225:Libraries/STM32F4xx_StdPeriph_Driver/src/stm32f4xx_cryp_aes.c ****   {
 3896              		.loc 1 1225 3 discriminator 1 view .LVU1528
 3897 013c 9942     		cmp	r1, r3
 3898 013e F5D8     		bhi	.L119
1228:Libraries/STM32F4xx_StdPeriph_Driver/src/stm32f4xx_cryp_aes.c ****   }
1229:Libraries/STM32F4xx_StdPeriph_Driver/src/stm32f4xx_cryp_aes.c ****   /* Set the LSB to 1 */
1230:Libraries/STM32F4xx_StdPeriph_Driver/src/stm32f4xx_cryp_aes.c ****   ctr[15] |= 0x01;
 3899              		.loc 1 1230 3 is_stmt 1 view .LVU1529
 3900              		.loc 1 1230 11 is_stmt 0 view .LVU1530
 3901 0140 9DF82B30 		ldrb	r3, [sp, #43]	@ zero_extendqisi2
 3902              	.LVL564:
 3903              		.loc 1 1230 11 view .LVU1531
 3904 0144 43F00103 		orr	r3, r3, #1
 3905 0148 8DF82B30 		strb	r3, [sp, #43]
1231:Libraries/STM32F4xx_StdPeriph_Driver/src/stm32f4xx_cryp_aes.c ****   
1232:Libraries/STM32F4xx_StdPeriph_Driver/src/stm32f4xx_cryp_aes.c ****   /* Crypto structures initialisation*/
1233:Libraries/STM32F4xx_StdPeriph_Driver/src/stm32f4xx_cryp_aes.c ****   CRYP_KeyStructInit(&AES_CRYP_KeyInitStructure);
 3906              		.loc 1 1233 3 is_stmt 1 view .LVU1532
 3907 014c 14A8     		add	r0, sp, #80
 3908 014e FFF7FEFF 		bl	CRYP_KeyStructInit
 3909              	.LVL565:
1234:Libraries/STM32F4xx_StdPeriph_Driver/src/stm32f4xx_cryp_aes.c ****   
1235:Libraries/STM32F4xx_StdPeriph_Driver/src/stm32f4xx_cryp_aes.c ****   switch(Keysize)
 3910              		.loc 1 1235 3 view .LVU1533
 3911 0152 BBF1C00F 		cmp	fp, #192
 3912 0156 62D0     		beq	.L120
 3913 0158 BBF5807F 		cmp	fp, #256
 3914 015c 75D0     		beq	.L121
 3915 015e BBF1800F 		cmp	fp, #128
 3916 0162 4DD0     		beq	.L165
 3917              	.LVL566:
 3918              	.L122:
1236:Libraries/STM32F4xx_StdPeriph_Driver/src/stm32f4xx_cryp_aes.c ****   {
1237:Libraries/STM32F4xx_StdPeriph_Driver/src/stm32f4xx_cryp_aes.c ****     case 128:
1238:Libraries/STM32F4xx_StdPeriph_Driver/src/stm32f4xx_cryp_aes.c ****     AES_CRYP_InitStructure.CRYP_KeySize = CRYP_KeySize_128b;
1239:Libraries/STM32F4xx_StdPeriph_Driver/src/stm32f4xx_cryp_aes.c ****     AES_CRYP_KeyInitStructure.CRYP_Key2Left = __REV(*(uint32_t*)(keyaddr));
1240:Libraries/STM32F4xx_StdPeriph_Driver/src/stm32f4xx_cryp_aes.c ****     keyaddr+=4;
1241:Libraries/STM32F4xx_StdPeriph_Driver/src/stm32f4xx_cryp_aes.c ****     AES_CRYP_KeyInitStructure.CRYP_Key2Right= __REV(*(uint32_t*)(keyaddr));
1242:Libraries/STM32F4xx_StdPeriph_Driver/src/stm32f4xx_cryp_aes.c ****     keyaddr+=4;
1243:Libraries/STM32F4xx_StdPeriph_Driver/src/stm32f4xx_cryp_aes.c ****     AES_CRYP_KeyInitStructure.CRYP_Key3Left = __REV(*(uint32_t*)(keyaddr));
1244:Libraries/STM32F4xx_StdPeriph_Driver/src/stm32f4xx_cryp_aes.c ****     keyaddr+=4;
1245:Libraries/STM32F4xx_StdPeriph_Driver/src/stm32f4xx_cryp_aes.c ****     AES_CRYP_KeyInitStructure.CRYP_Key3Right= __REV(*(uint32_t*)(keyaddr));
1246:Libraries/STM32F4xx_StdPeriph_Driver/src/stm32f4xx_cryp_aes.c ****     break;
1247:Libraries/STM32F4xx_StdPeriph_Driver/src/stm32f4xx_cryp_aes.c ****     case 192:
1248:Libraries/STM32F4xx_StdPeriph_Driver/src/stm32f4xx_cryp_aes.c ****     AES_CRYP_InitStructure.CRYP_KeySize  = CRYP_KeySize_192b;
1249:Libraries/STM32F4xx_StdPeriph_Driver/src/stm32f4xx_cryp_aes.c ****     AES_CRYP_KeyInitStructure.CRYP_Key1Left = __REV(*(uint32_t*)(keyaddr));
1250:Libraries/STM32F4xx_StdPeriph_Driver/src/stm32f4xx_cryp_aes.c ****     keyaddr+=4;
1251:Libraries/STM32F4xx_StdPeriph_Driver/src/stm32f4xx_cryp_aes.c ****     AES_CRYP_KeyInitStructure.CRYP_Key1Right= __REV(*(uint32_t*)(keyaddr));
1252:Libraries/STM32F4xx_StdPeriph_Driver/src/stm32f4xx_cryp_aes.c ****     keyaddr+=4;
1253:Libraries/STM32F4xx_StdPeriph_Driver/src/stm32f4xx_cryp_aes.c ****     AES_CRYP_KeyInitStructure.CRYP_Key2Left = __REV(*(uint32_t*)(keyaddr));
1254:Libraries/STM32F4xx_StdPeriph_Driver/src/stm32f4xx_cryp_aes.c ****     keyaddr+=4;
1255:Libraries/STM32F4xx_StdPeriph_Driver/src/stm32f4xx_cryp_aes.c ****     AES_CRYP_KeyInitStructure.CRYP_Key2Right= __REV(*(uint32_t*)(keyaddr));
1256:Libraries/STM32F4xx_StdPeriph_Driver/src/stm32f4xx_cryp_aes.c ****     keyaddr+=4;
1257:Libraries/STM32F4xx_StdPeriph_Driver/src/stm32f4xx_cryp_aes.c ****     AES_CRYP_KeyInitStructure.CRYP_Key3Left = __REV(*(uint32_t*)(keyaddr));
1258:Libraries/STM32F4xx_StdPeriph_Driver/src/stm32f4xx_cryp_aes.c ****     keyaddr+=4;
1259:Libraries/STM32F4xx_StdPeriph_Driver/src/stm32f4xx_cryp_aes.c ****     AES_CRYP_KeyInitStructure.CRYP_Key3Right= __REV(*(uint32_t*)(keyaddr));
1260:Libraries/STM32F4xx_StdPeriph_Driver/src/stm32f4xx_cryp_aes.c ****     break;
ARM GAS  /tmp/ccklj7FS.s 			page 114


1261:Libraries/STM32F4xx_StdPeriph_Driver/src/stm32f4xx_cryp_aes.c ****     case 256:
1262:Libraries/STM32F4xx_StdPeriph_Driver/src/stm32f4xx_cryp_aes.c ****     AES_CRYP_InitStructure.CRYP_KeySize  = CRYP_KeySize_256b;
1263:Libraries/STM32F4xx_StdPeriph_Driver/src/stm32f4xx_cryp_aes.c ****     AES_CRYP_KeyInitStructure.CRYP_Key0Left = __REV(*(uint32_t*)(keyaddr));
1264:Libraries/STM32F4xx_StdPeriph_Driver/src/stm32f4xx_cryp_aes.c ****     keyaddr+=4;
1265:Libraries/STM32F4xx_StdPeriph_Driver/src/stm32f4xx_cryp_aes.c ****     AES_CRYP_KeyInitStructure.CRYP_Key0Right= __REV(*(uint32_t*)(keyaddr));
1266:Libraries/STM32F4xx_StdPeriph_Driver/src/stm32f4xx_cryp_aes.c ****     keyaddr+=4;
1267:Libraries/STM32F4xx_StdPeriph_Driver/src/stm32f4xx_cryp_aes.c ****     AES_CRYP_KeyInitStructure.CRYP_Key1Left = __REV(*(uint32_t*)(keyaddr));
1268:Libraries/STM32F4xx_StdPeriph_Driver/src/stm32f4xx_cryp_aes.c ****     keyaddr+=4;
1269:Libraries/STM32F4xx_StdPeriph_Driver/src/stm32f4xx_cryp_aes.c ****     AES_CRYP_KeyInitStructure.CRYP_Key1Right= __REV(*(uint32_t*)(keyaddr));
1270:Libraries/STM32F4xx_StdPeriph_Driver/src/stm32f4xx_cryp_aes.c ****     keyaddr+=4;
1271:Libraries/STM32F4xx_StdPeriph_Driver/src/stm32f4xx_cryp_aes.c ****     AES_CRYP_KeyInitStructure.CRYP_Key2Left = __REV(*(uint32_t*)(keyaddr));
1272:Libraries/STM32F4xx_StdPeriph_Driver/src/stm32f4xx_cryp_aes.c ****     keyaddr+=4;
1273:Libraries/STM32F4xx_StdPeriph_Driver/src/stm32f4xx_cryp_aes.c ****     AES_CRYP_KeyInitStructure.CRYP_Key2Right= __REV(*(uint32_t*)(keyaddr));
1274:Libraries/STM32F4xx_StdPeriph_Driver/src/stm32f4xx_cryp_aes.c ****     keyaddr+=4;
1275:Libraries/STM32F4xx_StdPeriph_Driver/src/stm32f4xx_cryp_aes.c ****     AES_CRYP_KeyInitStructure.CRYP_Key3Left = __REV(*(uint32_t*)(keyaddr));
1276:Libraries/STM32F4xx_StdPeriph_Driver/src/stm32f4xx_cryp_aes.c ****     keyaddr+=4;
1277:Libraries/STM32F4xx_StdPeriph_Driver/src/stm32f4xx_cryp_aes.c ****     AES_CRYP_KeyInitStructure.CRYP_Key3Right= __REV(*(uint32_t*)(keyaddr));
1278:Libraries/STM32F4xx_StdPeriph_Driver/src/stm32f4xx_cryp_aes.c ****     break;
1279:Libraries/STM32F4xx_StdPeriph_Driver/src/stm32f4xx_cryp_aes.c ****     default:
1280:Libraries/STM32F4xx_StdPeriph_Driver/src/stm32f4xx_cryp_aes.c ****     break;
1281:Libraries/STM32F4xx_StdPeriph_Driver/src/stm32f4xx_cryp_aes.c ****   }
1282:Libraries/STM32F4xx_StdPeriph_Driver/src/stm32f4xx_cryp_aes.c ****   
1283:Libraries/STM32F4xx_StdPeriph_Driver/src/stm32f4xx_cryp_aes.c ****   /* CRYP Initialization Vectors */
1284:Libraries/STM32F4xx_StdPeriph_Driver/src/stm32f4xx_cryp_aes.c ****   AES_CRYP_IVInitStructure.CRYP_IV0Left = (__REV(*(uint32_t*)(ctraddr)));
 3919              		.loc 1 1284 3 view .LVU1534
 3920              		.loc 1 1284 44 is_stmt 0 view .LVU1535
 3921 0164 079B     		ldr	r3, [sp, #28]
 3922              	.LVL567:
 3923              	.LBB414:
 3924              	.LBI414:
 495:Libraries/CMSIS/Include/core_cmInstr.h **** {
 3925              		.loc 2 495 57 is_stmt 1 view .LVU1536
 3926              	.LBB415:
 3927              		.loc 2 498 3 view .LVU1537
 3928              		.loc 2 498 10 is_stmt 0 view .LVU1538
 3929 0166 1BBA     		rev	r3, r3
 3930              	.LVL568:
 3931              		.loc 2 498 10 view .LVU1539
 3932              	.LBE415:
 3933              	.LBE414:
 3934              		.loc 1 1284 41 view .LVU1540
 3935 0168 1093     		str	r3, [sp, #64]
1285:Libraries/STM32F4xx_StdPeriph_Driver/src/stm32f4xx_cryp_aes.c ****   ctraddr+=4;
 3936              		.loc 1 1285 3 is_stmt 1 view .LVU1541
 3937              	.LVL569:
1286:Libraries/STM32F4xx_StdPeriph_Driver/src/stm32f4xx_cryp_aes.c ****   AES_CRYP_IVInitStructure.CRYP_IV0Right= (__REV(*(uint32_t*)(ctraddr)));
 3938              		.loc 1 1286 3 view .LVU1542
 3939              		.loc 1 1286 44 is_stmt 0 view .LVU1543
 3940 016a 089B     		ldr	r3, [sp, #32]
 3941              	.LVL570:
 3942              	.LBB416:
 3943              	.LBI416:
 495:Libraries/CMSIS/Include/core_cmInstr.h **** {
 3944              		.loc 2 495 57 is_stmt 1 view .LVU1544
 3945              	.LBB417:
 3946              		.loc 2 498 3 view .LVU1545
 3947              		.loc 2 498 10 is_stmt 0 view .LVU1546
ARM GAS  /tmp/ccklj7FS.s 			page 115


 3948 016c 1BBA     		rev	r3, r3
 3949              	.LVL571:
 3950              		.loc 2 498 10 view .LVU1547
 3951              	.LBE417:
 3952              	.LBE416:
 3953              		.loc 1 1286 41 view .LVU1548
 3954 016e 1193     		str	r3, [sp, #68]
1287:Libraries/STM32F4xx_StdPeriph_Driver/src/stm32f4xx_cryp_aes.c ****   ctraddr+=4;
 3955              		.loc 1 1287 3 is_stmt 1 view .LVU1549
 3956              	.LVL572:
1288:Libraries/STM32F4xx_StdPeriph_Driver/src/stm32f4xx_cryp_aes.c ****   AES_CRYP_IVInitStructure.CRYP_IV1Left = (__REV(*(uint32_t*)(ctraddr)));
 3957              		.loc 1 1288 3 view .LVU1550
 3958              		.loc 1 1288 44 is_stmt 0 view .LVU1551
 3959 0170 099B     		ldr	r3, [sp, #36]
 3960              	.LVL573:
 3961              	.LBB418:
 3962              	.LBI418:
 495:Libraries/CMSIS/Include/core_cmInstr.h **** {
 3963              		.loc 2 495 57 is_stmt 1 view .LVU1552
 3964              	.LBB419:
 3965              		.loc 2 498 3 view .LVU1553
 3966              		.loc 2 498 10 is_stmt 0 view .LVU1554
 3967 0172 1BBA     		rev	r3, r3
 3968              	.LVL574:
 3969              		.loc 2 498 10 view .LVU1555
 3970              	.LBE419:
 3971              	.LBE418:
 3972              		.loc 1 1288 41 view .LVU1556
 3973 0174 1293     		str	r3, [sp, #72]
1289:Libraries/STM32F4xx_StdPeriph_Driver/src/stm32f4xx_cryp_aes.c ****   ctraddr+=4;
 3974              		.loc 1 1289 3 is_stmt 1 view .LVU1557
 3975              	.LVL575:
1290:Libraries/STM32F4xx_StdPeriph_Driver/src/stm32f4xx_cryp_aes.c ****   AES_CRYP_IVInitStructure.CRYP_IV1Right= (__REV(*(uint32_t*)(ctraddr)));
 3976              		.loc 1 1290 3 view .LVU1558
 3977              		.loc 1 1290 44 is_stmt 0 view .LVU1559
 3978 0176 0A9B     		ldr	r3, [sp, #40]
 3979              	.LVL576:
 3980              	.LBB420:
 3981              	.LBI420:
 495:Libraries/CMSIS/Include/core_cmInstr.h **** {
 3982              		.loc 2 495 57 is_stmt 1 view .LVU1560
 3983              	.LBB421:
 3984              		.loc 2 498 3 view .LVU1561
 3985              		.loc 2 498 10 is_stmt 0 view .LVU1562
 3986 0178 1BBA     		rev	r3, r3
 3987              	.LVL577:
 3988              		.loc 2 498 10 view .LVU1563
 3989              	.LBE421:
 3990              	.LBE420:
 3991              		.loc 1 1290 41 view .LVU1564
 3992 017a 1393     		str	r3, [sp, #76]
1291:Libraries/STM32F4xx_StdPeriph_Driver/src/stm32f4xx_cryp_aes.c ****   
1292:Libraries/STM32F4xx_StdPeriph_Driver/src/stm32f4xx_cryp_aes.c ****   /*------------------ AES Encryption ------------------*/
1293:Libraries/STM32F4xx_StdPeriph_Driver/src/stm32f4xx_cryp_aes.c ****   if(Mode == MODE_ENCRYPT) /* AES encryption */
 3993              		.loc 1 1293 3 is_stmt 1 view .LVU1565
 3994              		.loc 1 1293 5 is_stmt 0 view .LVU1566
 3995 017c 019B     		ldr	r3, [sp, #4]
ARM GAS  /tmp/ccklj7FS.s 			page 116


 3996 017e 012B     		cmp	r3, #1
 3997 0180 7FD0     		beq	.L166
1294:Libraries/STM32F4xx_StdPeriph_Driver/src/stm32f4xx_cryp_aes.c ****   {
1295:Libraries/STM32F4xx_StdPeriph_Driver/src/stm32f4xx_cryp_aes.c ****     /* Flush IN/OUT FIFOs */
1296:Libraries/STM32F4xx_StdPeriph_Driver/src/stm32f4xx_cryp_aes.c ****     CRYP_FIFOFlush();
1297:Libraries/STM32F4xx_StdPeriph_Driver/src/stm32f4xx_cryp_aes.c ****     
1298:Libraries/STM32F4xx_StdPeriph_Driver/src/stm32f4xx_cryp_aes.c ****     /* Key Initialisation */
1299:Libraries/STM32F4xx_StdPeriph_Driver/src/stm32f4xx_cryp_aes.c ****     CRYP_KeyInit(&AES_CRYP_KeyInitStructure);
1300:Libraries/STM32F4xx_StdPeriph_Driver/src/stm32f4xx_cryp_aes.c ****     
1301:Libraries/STM32F4xx_StdPeriph_Driver/src/stm32f4xx_cryp_aes.c ****     /* CRYP Initialization Vectors */
1302:Libraries/STM32F4xx_StdPeriph_Driver/src/stm32f4xx_cryp_aes.c ****     CRYP_IVInit(&AES_CRYP_IVInitStructure);
1303:Libraries/STM32F4xx_StdPeriph_Driver/src/stm32f4xx_cryp_aes.c ****     
1304:Libraries/STM32F4xx_StdPeriph_Driver/src/stm32f4xx_cryp_aes.c ****     /* Crypto Init for Key preparation for decryption process */
1305:Libraries/STM32F4xx_StdPeriph_Driver/src/stm32f4xx_cryp_aes.c ****     AES_CRYP_InitStructure.CRYP_AlgoDir = CRYP_AlgoDir_Encrypt;
1306:Libraries/STM32F4xx_StdPeriph_Driver/src/stm32f4xx_cryp_aes.c ****     AES_CRYP_InitStructure.CRYP_AlgoMode = CRYP_AlgoMode_AES_CCM;
1307:Libraries/STM32F4xx_StdPeriph_Driver/src/stm32f4xx_cryp_aes.c ****     AES_CRYP_InitStructure.CRYP_DataType = CRYP_DataType_8b;
1308:Libraries/STM32F4xx_StdPeriph_Driver/src/stm32f4xx_cryp_aes.c ****     CRYP_Init(&AES_CRYP_InitStructure);
1309:Libraries/STM32F4xx_StdPeriph_Driver/src/stm32f4xx_cryp_aes.c ****     
1310:Libraries/STM32F4xx_StdPeriph_Driver/src/stm32f4xx_cryp_aes.c ****     /***************************** Init phase *********************************/
1311:Libraries/STM32F4xx_StdPeriph_Driver/src/stm32f4xx_cryp_aes.c ****     /* Select init phase */
1312:Libraries/STM32F4xx_StdPeriph_Driver/src/stm32f4xx_cryp_aes.c ****     CRYP_PhaseConfig(CRYP_Phase_Init);
1313:Libraries/STM32F4xx_StdPeriph_Driver/src/stm32f4xx_cryp_aes.c ****     
1314:Libraries/STM32F4xx_StdPeriph_Driver/src/stm32f4xx_cryp_aes.c ****     b0addr = (uint32_t)blockb0;
1315:Libraries/STM32F4xx_StdPeriph_Driver/src/stm32f4xx_cryp_aes.c ****     /* Write the blockb0 block in the IN FIFO */
1316:Libraries/STM32F4xx_StdPeriph_Driver/src/stm32f4xx_cryp_aes.c ****     CRYP_DataIn((*(uint32_t*)(b0addr)));
1317:Libraries/STM32F4xx_StdPeriph_Driver/src/stm32f4xx_cryp_aes.c ****     b0addr+=4;
1318:Libraries/STM32F4xx_StdPeriph_Driver/src/stm32f4xx_cryp_aes.c ****     CRYP_DataIn((*(uint32_t*)(b0addr)));
1319:Libraries/STM32F4xx_StdPeriph_Driver/src/stm32f4xx_cryp_aes.c ****     b0addr+=4;
1320:Libraries/STM32F4xx_StdPeriph_Driver/src/stm32f4xx_cryp_aes.c ****     CRYP_DataIn((*(uint32_t*)(b0addr)));
1321:Libraries/STM32F4xx_StdPeriph_Driver/src/stm32f4xx_cryp_aes.c ****     b0addr+=4;
1322:Libraries/STM32F4xx_StdPeriph_Driver/src/stm32f4xx_cryp_aes.c ****     CRYP_DataIn((*(uint32_t*)(b0addr)));
1323:Libraries/STM32F4xx_StdPeriph_Driver/src/stm32f4xx_cryp_aes.c ****     
1324:Libraries/STM32F4xx_StdPeriph_Driver/src/stm32f4xx_cryp_aes.c ****     /* Enable Crypto processor */
1325:Libraries/STM32F4xx_StdPeriph_Driver/src/stm32f4xx_cryp_aes.c ****     CRYP_Cmd(ENABLE);
1326:Libraries/STM32F4xx_StdPeriph_Driver/src/stm32f4xx_cryp_aes.c ****     
1327:Libraries/STM32F4xx_StdPeriph_Driver/src/stm32f4xx_cryp_aes.c ****     /* Wait for CRYPEN bit to be 0 */
1328:Libraries/STM32F4xx_StdPeriph_Driver/src/stm32f4xx_cryp_aes.c ****     while(CRYP_GetCmdStatus() == ENABLE)
1329:Libraries/STM32F4xx_StdPeriph_Driver/src/stm32f4xx_cryp_aes.c ****     {
1330:Libraries/STM32F4xx_StdPeriph_Driver/src/stm32f4xx_cryp_aes.c ****     }
1331:Libraries/STM32F4xx_StdPeriph_Driver/src/stm32f4xx_cryp_aes.c ****     /***************************** header phase *******************************/
1332:Libraries/STM32F4xx_StdPeriph_Driver/src/stm32f4xx_cryp_aes.c ****     if(headersize != 0)
1333:Libraries/STM32F4xx_StdPeriph_Driver/src/stm32f4xx_cryp_aes.c ****     {
1334:Libraries/STM32F4xx_StdPeriph_Driver/src/stm32f4xx_cryp_aes.c ****       /* Select header phase */
1335:Libraries/STM32F4xx_StdPeriph_Driver/src/stm32f4xx_cryp_aes.c ****       CRYP_PhaseConfig(CRYP_Phase_Header);
1336:Libraries/STM32F4xx_StdPeriph_Driver/src/stm32f4xx_cryp_aes.c ****       
1337:Libraries/STM32F4xx_StdPeriph_Driver/src/stm32f4xx_cryp_aes.c ****       /* Enable Crypto processor */
1338:Libraries/STM32F4xx_StdPeriph_Driver/src/stm32f4xx_cryp_aes.c ****       CRYP_Cmd(ENABLE);
1339:Libraries/STM32F4xx_StdPeriph_Driver/src/stm32f4xx_cryp_aes.c ****       
1340:Libraries/STM32F4xx_StdPeriph_Driver/src/stm32f4xx_cryp_aes.c ****       if(CRYP_GetCmdStatus() == DISABLE)
1341:Libraries/STM32F4xx_StdPeriph_Driver/src/stm32f4xx_cryp_aes.c ****       {
1342:Libraries/STM32F4xx_StdPeriph_Driver/src/stm32f4xx_cryp_aes.c ****          /* The CRYP peripheral clock is not enabled or the device doesn't embed 
1343:Libraries/STM32F4xx_StdPeriph_Driver/src/stm32f4xx_cryp_aes.c ****             the CRYP peripheral (please check the device sales type. */
1344:Libraries/STM32F4xx_StdPeriph_Driver/src/stm32f4xx_cryp_aes.c ****          return(ERROR);
1345:Libraries/STM32F4xx_StdPeriph_Driver/src/stm32f4xx_cryp_aes.c ****       }
1346:Libraries/STM32F4xx_StdPeriph_Driver/src/stm32f4xx_cryp_aes.c ****       
1347:Libraries/STM32F4xx_StdPeriph_Driver/src/stm32f4xx_cryp_aes.c ****       for(loopcounter = 0; (loopcounter < headersize); loopcounter+=16)
1348:Libraries/STM32F4xx_StdPeriph_Driver/src/stm32f4xx_cryp_aes.c ****       {
ARM GAS  /tmp/ccklj7FS.s 			page 117


1349:Libraries/STM32F4xx_StdPeriph_Driver/src/stm32f4xx_cryp_aes.c ****         /* Wait until the IFEM flag is reset */
1350:Libraries/STM32F4xx_StdPeriph_Driver/src/stm32f4xx_cryp_aes.c ****         while(CRYP_GetFlagStatus(CRYP_FLAG_IFEM) == RESET)
1351:Libraries/STM32F4xx_StdPeriph_Driver/src/stm32f4xx_cryp_aes.c ****         {
1352:Libraries/STM32F4xx_StdPeriph_Driver/src/stm32f4xx_cryp_aes.c ****         }
1353:Libraries/STM32F4xx_StdPeriph_Driver/src/stm32f4xx_cryp_aes.c ****         
1354:Libraries/STM32F4xx_StdPeriph_Driver/src/stm32f4xx_cryp_aes.c ****         /* Write the Input block in the IN FIFO */
1355:Libraries/STM32F4xx_StdPeriph_Driver/src/stm32f4xx_cryp_aes.c ****         CRYP_DataIn(*(uint32_t*)(headeraddr));
1356:Libraries/STM32F4xx_StdPeriph_Driver/src/stm32f4xx_cryp_aes.c ****         headeraddr+=4;
1357:Libraries/STM32F4xx_StdPeriph_Driver/src/stm32f4xx_cryp_aes.c ****         CRYP_DataIn(*(uint32_t*)(headeraddr));
1358:Libraries/STM32F4xx_StdPeriph_Driver/src/stm32f4xx_cryp_aes.c ****         headeraddr+=4;
1359:Libraries/STM32F4xx_StdPeriph_Driver/src/stm32f4xx_cryp_aes.c ****         CRYP_DataIn(*(uint32_t*)(headeraddr));
1360:Libraries/STM32F4xx_StdPeriph_Driver/src/stm32f4xx_cryp_aes.c ****         headeraddr+=4;
1361:Libraries/STM32F4xx_StdPeriph_Driver/src/stm32f4xx_cryp_aes.c ****         CRYP_DataIn(*(uint32_t*)(headeraddr));
1362:Libraries/STM32F4xx_StdPeriph_Driver/src/stm32f4xx_cryp_aes.c ****         headeraddr+=4;
1363:Libraries/STM32F4xx_StdPeriph_Driver/src/stm32f4xx_cryp_aes.c ****       }
1364:Libraries/STM32F4xx_StdPeriph_Driver/src/stm32f4xx_cryp_aes.c ****       
1365:Libraries/STM32F4xx_StdPeriph_Driver/src/stm32f4xx_cryp_aes.c ****       /* Wait until the complete message has been processed */
1366:Libraries/STM32F4xx_StdPeriph_Driver/src/stm32f4xx_cryp_aes.c ****       counter = 0;
1367:Libraries/STM32F4xx_StdPeriph_Driver/src/stm32f4xx_cryp_aes.c ****       do
1368:Libraries/STM32F4xx_StdPeriph_Driver/src/stm32f4xx_cryp_aes.c ****       {
1369:Libraries/STM32F4xx_StdPeriph_Driver/src/stm32f4xx_cryp_aes.c ****         busystatus = CRYP_GetFlagStatus(CRYP_FLAG_BUSY);
1370:Libraries/STM32F4xx_StdPeriph_Driver/src/stm32f4xx_cryp_aes.c ****         counter++;
1371:Libraries/STM32F4xx_StdPeriph_Driver/src/stm32f4xx_cryp_aes.c ****       }while ((counter != AESBUSY_TIMEOUT) && (busystatus != RESET));
1372:Libraries/STM32F4xx_StdPeriph_Driver/src/stm32f4xx_cryp_aes.c **** 
1373:Libraries/STM32F4xx_StdPeriph_Driver/src/stm32f4xx_cryp_aes.c ****       if (busystatus != RESET)
1374:Libraries/STM32F4xx_StdPeriph_Driver/src/stm32f4xx_cryp_aes.c ****       {
1375:Libraries/STM32F4xx_StdPeriph_Driver/src/stm32f4xx_cryp_aes.c ****         status = ERROR;
1376:Libraries/STM32F4xx_StdPeriph_Driver/src/stm32f4xx_cryp_aes.c ****       }
1377:Libraries/STM32F4xx_StdPeriph_Driver/src/stm32f4xx_cryp_aes.c ****     }
1378:Libraries/STM32F4xx_StdPeriph_Driver/src/stm32f4xx_cryp_aes.c ****     
1379:Libraries/STM32F4xx_StdPeriph_Driver/src/stm32f4xx_cryp_aes.c ****     /**************************** payload phase *******************************/
1380:Libraries/STM32F4xx_StdPeriph_Driver/src/stm32f4xx_cryp_aes.c ****     if(ILength != 0)
1381:Libraries/STM32F4xx_StdPeriph_Driver/src/stm32f4xx_cryp_aes.c ****     {
1382:Libraries/STM32F4xx_StdPeriph_Driver/src/stm32f4xx_cryp_aes.c ****       /* Select payload phase */
1383:Libraries/STM32F4xx_StdPeriph_Driver/src/stm32f4xx_cryp_aes.c ****       CRYP_PhaseConfig(CRYP_Phase_Payload);
1384:Libraries/STM32F4xx_StdPeriph_Driver/src/stm32f4xx_cryp_aes.c ****       
1385:Libraries/STM32F4xx_StdPeriph_Driver/src/stm32f4xx_cryp_aes.c ****       /* Enable Crypto processor */
1386:Libraries/STM32F4xx_StdPeriph_Driver/src/stm32f4xx_cryp_aes.c ****       CRYP_Cmd(ENABLE);
1387:Libraries/STM32F4xx_StdPeriph_Driver/src/stm32f4xx_cryp_aes.c ****       
1388:Libraries/STM32F4xx_StdPeriph_Driver/src/stm32f4xx_cryp_aes.c ****       if(CRYP_GetCmdStatus() == DISABLE)
1389:Libraries/STM32F4xx_StdPeriph_Driver/src/stm32f4xx_cryp_aes.c ****       {
1390:Libraries/STM32F4xx_StdPeriph_Driver/src/stm32f4xx_cryp_aes.c ****         /* The CRYP peripheral clock is not enabled or the device doesn't embed 
1391:Libraries/STM32F4xx_StdPeriph_Driver/src/stm32f4xx_cryp_aes.c ****            the CRYP peripheral (please check the device sales type. */
1392:Libraries/STM32F4xx_StdPeriph_Driver/src/stm32f4xx_cryp_aes.c ****         return(ERROR);
1393:Libraries/STM32F4xx_StdPeriph_Driver/src/stm32f4xx_cryp_aes.c ****       }
1394:Libraries/STM32F4xx_StdPeriph_Driver/src/stm32f4xx_cryp_aes.c ****       
1395:Libraries/STM32F4xx_StdPeriph_Driver/src/stm32f4xx_cryp_aes.c ****       for(loopcounter = 0; ((loopcounter < ILength) && (status != ERROR)); loopcounter+=16)
1396:Libraries/STM32F4xx_StdPeriph_Driver/src/stm32f4xx_cryp_aes.c ****       {
1397:Libraries/STM32F4xx_StdPeriph_Driver/src/stm32f4xx_cryp_aes.c ****         /* Wait until the IFEM flag is reset */
1398:Libraries/STM32F4xx_StdPeriph_Driver/src/stm32f4xx_cryp_aes.c ****         while(CRYP_GetFlagStatus(CRYP_FLAG_IFEM) == RESET)
1399:Libraries/STM32F4xx_StdPeriph_Driver/src/stm32f4xx_cryp_aes.c ****         {
1400:Libraries/STM32F4xx_StdPeriph_Driver/src/stm32f4xx_cryp_aes.c ****         }
1401:Libraries/STM32F4xx_StdPeriph_Driver/src/stm32f4xx_cryp_aes.c ****         
1402:Libraries/STM32F4xx_StdPeriph_Driver/src/stm32f4xx_cryp_aes.c ****         /* Write the Input block in the IN FIFO */
1403:Libraries/STM32F4xx_StdPeriph_Driver/src/stm32f4xx_cryp_aes.c ****         CRYP_DataIn(*(uint32_t*)(inputaddr));
1404:Libraries/STM32F4xx_StdPeriph_Driver/src/stm32f4xx_cryp_aes.c ****         inputaddr+=4;
1405:Libraries/STM32F4xx_StdPeriph_Driver/src/stm32f4xx_cryp_aes.c ****         CRYP_DataIn(*(uint32_t*)(inputaddr));
ARM GAS  /tmp/ccklj7FS.s 			page 118


1406:Libraries/STM32F4xx_StdPeriph_Driver/src/stm32f4xx_cryp_aes.c ****         inputaddr+=4;
1407:Libraries/STM32F4xx_StdPeriph_Driver/src/stm32f4xx_cryp_aes.c ****         CRYP_DataIn(*(uint32_t*)(inputaddr));
1408:Libraries/STM32F4xx_StdPeriph_Driver/src/stm32f4xx_cryp_aes.c ****         inputaddr+=4;
1409:Libraries/STM32F4xx_StdPeriph_Driver/src/stm32f4xx_cryp_aes.c ****         CRYP_DataIn(*(uint32_t*)(inputaddr));
1410:Libraries/STM32F4xx_StdPeriph_Driver/src/stm32f4xx_cryp_aes.c ****         inputaddr+=4;
1411:Libraries/STM32F4xx_StdPeriph_Driver/src/stm32f4xx_cryp_aes.c ****         
1412:Libraries/STM32F4xx_StdPeriph_Driver/src/stm32f4xx_cryp_aes.c ****         /* Wait until the complete message has been processed */
1413:Libraries/STM32F4xx_StdPeriph_Driver/src/stm32f4xx_cryp_aes.c ****         counter = 0;
1414:Libraries/STM32F4xx_StdPeriph_Driver/src/stm32f4xx_cryp_aes.c ****         do
1415:Libraries/STM32F4xx_StdPeriph_Driver/src/stm32f4xx_cryp_aes.c ****         {
1416:Libraries/STM32F4xx_StdPeriph_Driver/src/stm32f4xx_cryp_aes.c ****           busystatus = CRYP_GetFlagStatus(CRYP_FLAG_BUSY);
1417:Libraries/STM32F4xx_StdPeriph_Driver/src/stm32f4xx_cryp_aes.c ****           counter++;
1418:Libraries/STM32F4xx_StdPeriph_Driver/src/stm32f4xx_cryp_aes.c ****         }while ((counter != AESBUSY_TIMEOUT) && (busystatus != RESET));
1419:Libraries/STM32F4xx_StdPeriph_Driver/src/stm32f4xx_cryp_aes.c **** 
1420:Libraries/STM32F4xx_StdPeriph_Driver/src/stm32f4xx_cryp_aes.c ****         if (busystatus != RESET)
1421:Libraries/STM32F4xx_StdPeriph_Driver/src/stm32f4xx_cryp_aes.c ****         {
1422:Libraries/STM32F4xx_StdPeriph_Driver/src/stm32f4xx_cryp_aes.c ****           status = ERROR;
1423:Libraries/STM32F4xx_StdPeriph_Driver/src/stm32f4xx_cryp_aes.c ****         }
1424:Libraries/STM32F4xx_StdPeriph_Driver/src/stm32f4xx_cryp_aes.c ****         else
1425:Libraries/STM32F4xx_StdPeriph_Driver/src/stm32f4xx_cryp_aes.c ****         {
1426:Libraries/STM32F4xx_StdPeriph_Driver/src/stm32f4xx_cryp_aes.c ****           /* Wait until the OFNE flag is reset */
1427:Libraries/STM32F4xx_StdPeriph_Driver/src/stm32f4xx_cryp_aes.c ****           while(CRYP_GetFlagStatus(CRYP_FLAG_OFNE) == RESET)
1428:Libraries/STM32F4xx_StdPeriph_Driver/src/stm32f4xx_cryp_aes.c ****           {
1429:Libraries/STM32F4xx_StdPeriph_Driver/src/stm32f4xx_cryp_aes.c ****           }
1430:Libraries/STM32F4xx_StdPeriph_Driver/src/stm32f4xx_cryp_aes.c ****           
1431:Libraries/STM32F4xx_StdPeriph_Driver/src/stm32f4xx_cryp_aes.c ****           /* Read the Output block from the Output FIFO */
1432:Libraries/STM32F4xx_StdPeriph_Driver/src/stm32f4xx_cryp_aes.c ****           *(uint32_t*)(outputaddr) = CRYP_DataOut();
1433:Libraries/STM32F4xx_StdPeriph_Driver/src/stm32f4xx_cryp_aes.c ****           outputaddr+=4;
1434:Libraries/STM32F4xx_StdPeriph_Driver/src/stm32f4xx_cryp_aes.c ****           *(uint32_t*)(outputaddr) = CRYP_DataOut();
1435:Libraries/STM32F4xx_StdPeriph_Driver/src/stm32f4xx_cryp_aes.c ****           outputaddr+=4;
1436:Libraries/STM32F4xx_StdPeriph_Driver/src/stm32f4xx_cryp_aes.c ****           *(uint32_t*)(outputaddr) = CRYP_DataOut();
1437:Libraries/STM32F4xx_StdPeriph_Driver/src/stm32f4xx_cryp_aes.c ****           outputaddr+=4;
1438:Libraries/STM32F4xx_StdPeriph_Driver/src/stm32f4xx_cryp_aes.c ****           *(uint32_t*)(outputaddr) = CRYP_DataOut();
1439:Libraries/STM32F4xx_StdPeriph_Driver/src/stm32f4xx_cryp_aes.c ****           outputaddr+=4;
1440:Libraries/STM32F4xx_StdPeriph_Driver/src/stm32f4xx_cryp_aes.c ****         }
1441:Libraries/STM32F4xx_StdPeriph_Driver/src/stm32f4xx_cryp_aes.c ****       }
1442:Libraries/STM32F4xx_StdPeriph_Driver/src/stm32f4xx_cryp_aes.c ****     }
1443:Libraries/STM32F4xx_StdPeriph_Driver/src/stm32f4xx_cryp_aes.c ****     
1444:Libraries/STM32F4xx_StdPeriph_Driver/src/stm32f4xx_cryp_aes.c ****     /***************************** final phase ********************************/
1445:Libraries/STM32F4xx_StdPeriph_Driver/src/stm32f4xx_cryp_aes.c ****     /* Select final phase */
1446:Libraries/STM32F4xx_StdPeriph_Driver/src/stm32f4xx_cryp_aes.c ****     CRYP_PhaseConfig(CRYP_Phase_Final);
1447:Libraries/STM32F4xx_StdPeriph_Driver/src/stm32f4xx_cryp_aes.c ****     
1448:Libraries/STM32F4xx_StdPeriph_Driver/src/stm32f4xx_cryp_aes.c ****     /* Enable Crypto processor */
1449:Libraries/STM32F4xx_StdPeriph_Driver/src/stm32f4xx_cryp_aes.c ****     CRYP_Cmd(ENABLE);
1450:Libraries/STM32F4xx_StdPeriph_Driver/src/stm32f4xx_cryp_aes.c ****     
1451:Libraries/STM32F4xx_StdPeriph_Driver/src/stm32f4xx_cryp_aes.c ****     if(CRYP_GetCmdStatus() == DISABLE)
1452:Libraries/STM32F4xx_StdPeriph_Driver/src/stm32f4xx_cryp_aes.c ****     {
1453:Libraries/STM32F4xx_StdPeriph_Driver/src/stm32f4xx_cryp_aes.c ****       /* The CRYP peripheral clock is not enabled or the device doesn't embed 
1454:Libraries/STM32F4xx_StdPeriph_Driver/src/stm32f4xx_cryp_aes.c ****          the CRYP peripheral (please check the device sales type. */
1455:Libraries/STM32F4xx_StdPeriph_Driver/src/stm32f4xx_cryp_aes.c ****       return(ERROR);
1456:Libraries/STM32F4xx_StdPeriph_Driver/src/stm32f4xx_cryp_aes.c ****     }
1457:Libraries/STM32F4xx_StdPeriph_Driver/src/stm32f4xx_cryp_aes.c ****     
1458:Libraries/STM32F4xx_StdPeriph_Driver/src/stm32f4xx_cryp_aes.c ****     ctraddr = (uint32_t)ctr;
1459:Libraries/STM32F4xx_StdPeriph_Driver/src/stm32f4xx_cryp_aes.c ****     /* Write the counter block in the IN FIFO */
1460:Libraries/STM32F4xx_StdPeriph_Driver/src/stm32f4xx_cryp_aes.c ****     CRYP_DataIn(*(uint32_t*)(ctraddr));
1461:Libraries/STM32F4xx_StdPeriph_Driver/src/stm32f4xx_cryp_aes.c ****     ctraddr+=4;
1462:Libraries/STM32F4xx_StdPeriph_Driver/src/stm32f4xx_cryp_aes.c ****     CRYP_DataIn(*(uint32_t*)(ctraddr));
ARM GAS  /tmp/ccklj7FS.s 			page 119


1463:Libraries/STM32F4xx_StdPeriph_Driver/src/stm32f4xx_cryp_aes.c ****     ctraddr+=4;
1464:Libraries/STM32F4xx_StdPeriph_Driver/src/stm32f4xx_cryp_aes.c ****     CRYP_DataIn(*(uint32_t*)(ctraddr));
1465:Libraries/STM32F4xx_StdPeriph_Driver/src/stm32f4xx_cryp_aes.c ****     ctraddr+=4;
1466:Libraries/STM32F4xx_StdPeriph_Driver/src/stm32f4xx_cryp_aes.c ****     /* Reset bit 0 (after 8-bit swap) is equivalent to reset bit 24 (before 8-bit swap) */
1467:Libraries/STM32F4xx_StdPeriph_Driver/src/stm32f4xx_cryp_aes.c ****     CRYP_DataIn(*(uint32_t*)(ctraddr) & 0xfeffffff);
1468:Libraries/STM32F4xx_StdPeriph_Driver/src/stm32f4xx_cryp_aes.c ****     
1469:Libraries/STM32F4xx_StdPeriph_Driver/src/stm32f4xx_cryp_aes.c ****     /* Wait until the OFNE flag is reset */
1470:Libraries/STM32F4xx_StdPeriph_Driver/src/stm32f4xx_cryp_aes.c ****     while(CRYP_GetFlagStatus(CRYP_FLAG_OFNE) == RESET)
1471:Libraries/STM32F4xx_StdPeriph_Driver/src/stm32f4xx_cryp_aes.c ****     {
1472:Libraries/STM32F4xx_StdPeriph_Driver/src/stm32f4xx_cryp_aes.c ****     }
1473:Libraries/STM32F4xx_StdPeriph_Driver/src/stm32f4xx_cryp_aes.c ****     
1474:Libraries/STM32F4xx_StdPeriph_Driver/src/stm32f4xx_cryp_aes.c ****     /* Read the Auth TAG in the IN FIFO */
1475:Libraries/STM32F4xx_StdPeriph_Driver/src/stm32f4xx_cryp_aes.c ****     temptag[0] = CRYP_DataOut();
1476:Libraries/STM32F4xx_StdPeriph_Driver/src/stm32f4xx_cryp_aes.c ****     temptag[1] = CRYP_DataOut();
1477:Libraries/STM32F4xx_StdPeriph_Driver/src/stm32f4xx_cryp_aes.c ****     temptag[2] = CRYP_DataOut();
1478:Libraries/STM32F4xx_StdPeriph_Driver/src/stm32f4xx_cryp_aes.c ****     temptag[3] = CRYP_DataOut();
1479:Libraries/STM32F4xx_StdPeriph_Driver/src/stm32f4xx_cryp_aes.c ****   }
1480:Libraries/STM32F4xx_StdPeriph_Driver/src/stm32f4xx_cryp_aes.c ****   /*------------------ AES Decryption ------------------*/
1481:Libraries/STM32F4xx_StdPeriph_Driver/src/stm32f4xx_cryp_aes.c ****   else /* AES decryption */
1482:Libraries/STM32F4xx_StdPeriph_Driver/src/stm32f4xx_cryp_aes.c ****   {
1483:Libraries/STM32F4xx_StdPeriph_Driver/src/stm32f4xx_cryp_aes.c ****     /* Flush IN/OUT FIFOs */
1484:Libraries/STM32F4xx_StdPeriph_Driver/src/stm32f4xx_cryp_aes.c ****     CRYP_FIFOFlush();
 3998              		.loc 1 1484 5 is_stmt 1 view .LVU1567
 3999 0182 FFF7FEFF 		bl	CRYP_FIFOFlush
 4000              	.LVL578:
1485:Libraries/STM32F4xx_StdPeriph_Driver/src/stm32f4xx_cryp_aes.c ****     
1486:Libraries/STM32F4xx_StdPeriph_Driver/src/stm32f4xx_cryp_aes.c ****     /* Key Initialisation */
1487:Libraries/STM32F4xx_StdPeriph_Driver/src/stm32f4xx_cryp_aes.c ****     CRYP_KeyInit(&AES_CRYP_KeyInitStructure);
 4001              		.loc 1 1487 5 view .LVU1568
 4002 0186 14A8     		add	r0, sp, #80
 4003 0188 FFF7FEFF 		bl	CRYP_KeyInit
 4004              	.LVL579:
1488:Libraries/STM32F4xx_StdPeriph_Driver/src/stm32f4xx_cryp_aes.c ****     
1489:Libraries/STM32F4xx_StdPeriph_Driver/src/stm32f4xx_cryp_aes.c ****     /* CRYP Initialization Vectors */
1490:Libraries/STM32F4xx_StdPeriph_Driver/src/stm32f4xx_cryp_aes.c ****     CRYP_IVInit(&AES_CRYP_IVInitStructure);
 4005              		.loc 1 1490 5 view .LVU1569
 4006 018c 10A8     		add	r0, sp, #64
 4007 018e FFF7FEFF 		bl	CRYP_IVInit
 4008              	.LVL580:
1491:Libraries/STM32F4xx_StdPeriph_Driver/src/stm32f4xx_cryp_aes.c ****     
1492:Libraries/STM32F4xx_StdPeriph_Driver/src/stm32f4xx_cryp_aes.c ****     /* Crypto Init for Key preparation for decryption process */
1493:Libraries/STM32F4xx_StdPeriph_Driver/src/stm32f4xx_cryp_aes.c ****     AES_CRYP_InitStructure.CRYP_AlgoDir = CRYP_AlgoDir_Decrypt;
 4009              		.loc 1 1493 5 view .LVU1570
 4010              		.loc 1 1493 41 is_stmt 0 view .LVU1571
 4011 0192 0423     		movs	r3, #4
 4012 0194 1C93     		str	r3, [sp, #112]
1494:Libraries/STM32F4xx_StdPeriph_Driver/src/stm32f4xx_cryp_aes.c ****     AES_CRYP_InitStructure.CRYP_AlgoMode = CRYP_AlgoMode_AES_CCM;
 4013              		.loc 1 1494 5 is_stmt 1 view .LVU1572
 4014              		.loc 1 1494 42 is_stmt 0 view .LVU1573
 4015 0196 4FF00813 		mov	r3, #524296
 4016 019a 1D93     		str	r3, [sp, #116]
1495:Libraries/STM32F4xx_StdPeriph_Driver/src/stm32f4xx_cryp_aes.c ****     AES_CRYP_InitStructure.CRYP_DataType = CRYP_DataType_8b;
 4017              		.loc 1 1495 5 is_stmt 1 view .LVU1574
 4018              		.loc 1 1495 42 is_stmt 0 view .LVU1575
 4019 019c 8023     		movs	r3, #128
 4020 019e 1E93     		str	r3, [sp, #120]
1496:Libraries/STM32F4xx_StdPeriph_Driver/src/stm32f4xx_cryp_aes.c ****     CRYP_Init(&AES_CRYP_InitStructure);
ARM GAS  /tmp/ccklj7FS.s 			page 120


 4021              		.loc 1 1496 5 is_stmt 1 view .LVU1576
 4022 01a0 1CA8     		add	r0, sp, #112
 4023 01a2 FFF7FEFF 		bl	CRYP_Init
 4024              	.LVL581:
1497:Libraries/STM32F4xx_StdPeriph_Driver/src/stm32f4xx_cryp_aes.c ****     
1498:Libraries/STM32F4xx_StdPeriph_Driver/src/stm32f4xx_cryp_aes.c ****     /***************************** Init phase *********************************/
1499:Libraries/STM32F4xx_StdPeriph_Driver/src/stm32f4xx_cryp_aes.c ****     /* Select init phase */
1500:Libraries/STM32F4xx_StdPeriph_Driver/src/stm32f4xx_cryp_aes.c ****     CRYP_PhaseConfig(CRYP_Phase_Init);
 4025              		.loc 1 1500 5 view .LVU1577
 4026 01a6 0020     		movs	r0, #0
 4027 01a8 FFF7FEFF 		bl	CRYP_PhaseConfig
 4028              	.LVL582:
1501:Libraries/STM32F4xx_StdPeriph_Driver/src/stm32f4xx_cryp_aes.c ****     
1502:Libraries/STM32F4xx_StdPeriph_Driver/src/stm32f4xx_cryp_aes.c ****     b0addr = (uint32_t)blockb0;
 4029              		.loc 1 1502 5 view .LVU1578
1503:Libraries/STM32F4xx_StdPeriph_Driver/src/stm32f4xx_cryp_aes.c ****     /* Write the blockb0 block in the IN FIFO */
1504:Libraries/STM32F4xx_StdPeriph_Driver/src/stm32f4xx_cryp_aes.c ****     CRYP_DataIn((*(uint32_t*)(b0addr)));
 4030              		.loc 1 1504 5 view .LVU1579
 4031 01ac 0B98     		ldr	r0, [sp, #44]
 4032 01ae FFF7FEFF 		bl	CRYP_DataIn
 4033              	.LVL583:
1505:Libraries/STM32F4xx_StdPeriph_Driver/src/stm32f4xx_cryp_aes.c ****     b0addr+=4;
 4034              		.loc 1 1505 5 view .LVU1580
1506:Libraries/STM32F4xx_StdPeriph_Driver/src/stm32f4xx_cryp_aes.c ****     CRYP_DataIn((*(uint32_t*)(b0addr)));
 4035              		.loc 1 1506 5 view .LVU1581
 4036 01b2 0C98     		ldr	r0, [sp, #48]
 4037 01b4 FFF7FEFF 		bl	CRYP_DataIn
 4038              	.LVL584:
1507:Libraries/STM32F4xx_StdPeriph_Driver/src/stm32f4xx_cryp_aes.c ****     b0addr+=4;
 4039              		.loc 1 1507 5 view .LVU1582
1508:Libraries/STM32F4xx_StdPeriph_Driver/src/stm32f4xx_cryp_aes.c ****     CRYP_DataIn((*(uint32_t*)(b0addr)));
 4040              		.loc 1 1508 5 view .LVU1583
 4041 01b8 0D98     		ldr	r0, [sp, #52]
 4042 01ba FFF7FEFF 		bl	CRYP_DataIn
 4043              	.LVL585:
1509:Libraries/STM32F4xx_StdPeriph_Driver/src/stm32f4xx_cryp_aes.c ****     b0addr+=4;
 4044              		.loc 1 1509 5 view .LVU1584
1510:Libraries/STM32F4xx_StdPeriph_Driver/src/stm32f4xx_cryp_aes.c ****     CRYP_DataIn((*(uint32_t*)(b0addr)));
 4045              		.loc 1 1510 5 view .LVU1585
 4046 01be 0E98     		ldr	r0, [sp, #56]
 4047 01c0 FFF7FEFF 		bl	CRYP_DataIn
 4048              	.LVL586:
1511:Libraries/STM32F4xx_StdPeriph_Driver/src/stm32f4xx_cryp_aes.c ****     
1512:Libraries/STM32F4xx_StdPeriph_Driver/src/stm32f4xx_cryp_aes.c ****     /* Enable Crypto processor */
1513:Libraries/STM32F4xx_StdPeriph_Driver/src/stm32f4xx_cryp_aes.c ****     CRYP_Cmd(ENABLE);
 4049              		.loc 1 1513 5 view .LVU1586
 4050 01c4 0120     		movs	r0, #1
 4051 01c6 FFF7FEFF 		bl	CRYP_Cmd
 4052              	.LVL587:
1514:Libraries/STM32F4xx_StdPeriph_Driver/src/stm32f4xx_cryp_aes.c ****     
1515:Libraries/STM32F4xx_StdPeriph_Driver/src/stm32f4xx_cryp_aes.c ****     /* Wait for CRYPEN bit to be 0 */
1516:Libraries/STM32F4xx_StdPeriph_Driver/src/stm32f4xx_cryp_aes.c ****     while(CRYP_GetCmdStatus() == ENABLE)
 4053              		.loc 1 1516 5 view .LVU1587
 4054              	.L140:
1517:Libraries/STM32F4xx_StdPeriph_Driver/src/stm32f4xx_cryp_aes.c ****     {
1518:Libraries/STM32F4xx_StdPeriph_Driver/src/stm32f4xx_cryp_aes.c ****     }
 4055              		.loc 1 1518 5 discriminator 1 view .LVU1588
ARM GAS  /tmp/ccklj7FS.s 			page 121


1516:Libraries/STM32F4xx_StdPeriph_Driver/src/stm32f4xx_cryp_aes.c ****     {
 4056              		.loc 1 1516 10 discriminator 1 view .LVU1589
1516:Libraries/STM32F4xx_StdPeriph_Driver/src/stm32f4xx_cryp_aes.c ****     {
 4057              		.loc 1 1516 11 is_stmt 0 discriminator 1 view .LVU1590
 4058 01ca FFF7FEFF 		bl	CRYP_GetCmdStatus
 4059              	.LVL588:
1516:Libraries/STM32F4xx_StdPeriph_Driver/src/stm32f4xx_cryp_aes.c ****     {
 4060              		.loc 1 1516 10 discriminator 1 view .LVU1591
 4061 01ce 0128     		cmp	r0, #1
 4062 01d0 FBD0     		beq	.L140
1519:Libraries/STM32F4xx_StdPeriph_Driver/src/stm32f4xx_cryp_aes.c ****     
1520:Libraries/STM32F4xx_StdPeriph_Driver/src/stm32f4xx_cryp_aes.c ****     /***************************** header phase *******************************/
1521:Libraries/STM32F4xx_StdPeriph_Driver/src/stm32f4xx_cryp_aes.c ****     if(headersize != 0)
 4063              		.loc 1 1521 5 is_stmt 1 view .LVU1592
 4064              		.loc 1 1521 7 is_stmt 0 view .LVU1593
 4065 01d2 002C     		cmp	r4, #0
 4066 01d4 40F03A81 		bne	.L167
1141:Libraries/STM32F4xx_StdPeriph_Driver/src/stm32f4xx_cryp_aes.c ****   uint32_t keyaddr    = (uint32_t)Key;
 4067              		.loc 1 1141 15 view .LVU1594
 4068 01d8 0124     		movs	r4, #1
 4069              	.LVL589:
 4070              	.L141:
1522:Libraries/STM32F4xx_StdPeriph_Driver/src/stm32f4xx_cryp_aes.c ****     {
1523:Libraries/STM32F4xx_StdPeriph_Driver/src/stm32f4xx_cryp_aes.c ****       /* Select header phase */
1524:Libraries/STM32F4xx_StdPeriph_Driver/src/stm32f4xx_cryp_aes.c ****       CRYP_PhaseConfig(CRYP_Phase_Header);
1525:Libraries/STM32F4xx_StdPeriph_Driver/src/stm32f4xx_cryp_aes.c ****       
1526:Libraries/STM32F4xx_StdPeriph_Driver/src/stm32f4xx_cryp_aes.c ****       /* Enable Crypto processor */
1527:Libraries/STM32F4xx_StdPeriph_Driver/src/stm32f4xx_cryp_aes.c ****       CRYP_Cmd(ENABLE);
1528:Libraries/STM32F4xx_StdPeriph_Driver/src/stm32f4xx_cryp_aes.c ****       
1529:Libraries/STM32F4xx_StdPeriph_Driver/src/stm32f4xx_cryp_aes.c ****       if(CRYP_GetCmdStatus() == DISABLE)
1530:Libraries/STM32F4xx_StdPeriph_Driver/src/stm32f4xx_cryp_aes.c ****       {
1531:Libraries/STM32F4xx_StdPeriph_Driver/src/stm32f4xx_cryp_aes.c ****         /* The CRYP peripheral clock is not enabled or the device doesn't embed 
1532:Libraries/STM32F4xx_StdPeriph_Driver/src/stm32f4xx_cryp_aes.c ****            the CRYP peripheral (please check the device sales type. */
1533:Libraries/STM32F4xx_StdPeriph_Driver/src/stm32f4xx_cryp_aes.c ****         return(ERROR);
1534:Libraries/STM32F4xx_StdPeriph_Driver/src/stm32f4xx_cryp_aes.c ****       }
1535:Libraries/STM32F4xx_StdPeriph_Driver/src/stm32f4xx_cryp_aes.c ****       
1536:Libraries/STM32F4xx_StdPeriph_Driver/src/stm32f4xx_cryp_aes.c ****       for(loopcounter = 0; (loopcounter < headersize); loopcounter+=16)
1537:Libraries/STM32F4xx_StdPeriph_Driver/src/stm32f4xx_cryp_aes.c ****       {
1538:Libraries/STM32F4xx_StdPeriph_Driver/src/stm32f4xx_cryp_aes.c ****         /* Wait until the IFEM flag is reset */
1539:Libraries/STM32F4xx_StdPeriph_Driver/src/stm32f4xx_cryp_aes.c ****         while(CRYP_GetFlagStatus(CRYP_FLAG_IFEM) == RESET)
1540:Libraries/STM32F4xx_StdPeriph_Driver/src/stm32f4xx_cryp_aes.c ****         {
1541:Libraries/STM32F4xx_StdPeriph_Driver/src/stm32f4xx_cryp_aes.c ****         }
1542:Libraries/STM32F4xx_StdPeriph_Driver/src/stm32f4xx_cryp_aes.c ****         
1543:Libraries/STM32F4xx_StdPeriph_Driver/src/stm32f4xx_cryp_aes.c ****         /* Write the Input block in the IN FIFO */
1544:Libraries/STM32F4xx_StdPeriph_Driver/src/stm32f4xx_cryp_aes.c ****         CRYP_DataIn(*(uint32_t*)(headeraddr));
1545:Libraries/STM32F4xx_StdPeriph_Driver/src/stm32f4xx_cryp_aes.c ****         headeraddr+=4;
1546:Libraries/STM32F4xx_StdPeriph_Driver/src/stm32f4xx_cryp_aes.c ****         CRYP_DataIn(*(uint32_t*)(headeraddr));
1547:Libraries/STM32F4xx_StdPeriph_Driver/src/stm32f4xx_cryp_aes.c ****         headeraddr+=4;
1548:Libraries/STM32F4xx_StdPeriph_Driver/src/stm32f4xx_cryp_aes.c ****         CRYP_DataIn(*(uint32_t*)(headeraddr));
1549:Libraries/STM32F4xx_StdPeriph_Driver/src/stm32f4xx_cryp_aes.c ****         headeraddr+=4;
1550:Libraries/STM32F4xx_StdPeriph_Driver/src/stm32f4xx_cryp_aes.c ****         CRYP_DataIn(*(uint32_t*)(headeraddr));
1551:Libraries/STM32F4xx_StdPeriph_Driver/src/stm32f4xx_cryp_aes.c ****         headeraddr+=4;
1552:Libraries/STM32F4xx_StdPeriph_Driver/src/stm32f4xx_cryp_aes.c ****       }
1553:Libraries/STM32F4xx_StdPeriph_Driver/src/stm32f4xx_cryp_aes.c ****       
1554:Libraries/STM32F4xx_StdPeriph_Driver/src/stm32f4xx_cryp_aes.c ****       /* Wait until the complete message has been processed */
1555:Libraries/STM32F4xx_StdPeriph_Driver/src/stm32f4xx_cryp_aes.c ****       counter = 0;
1556:Libraries/STM32F4xx_StdPeriph_Driver/src/stm32f4xx_cryp_aes.c ****       do
ARM GAS  /tmp/ccklj7FS.s 			page 122


1557:Libraries/STM32F4xx_StdPeriph_Driver/src/stm32f4xx_cryp_aes.c ****       {
1558:Libraries/STM32F4xx_StdPeriph_Driver/src/stm32f4xx_cryp_aes.c ****         busystatus = CRYP_GetFlagStatus(CRYP_FLAG_BUSY);
1559:Libraries/STM32F4xx_StdPeriph_Driver/src/stm32f4xx_cryp_aes.c ****         counter++;
1560:Libraries/STM32F4xx_StdPeriph_Driver/src/stm32f4xx_cryp_aes.c ****       }while ((counter != AESBUSY_TIMEOUT) && (busystatus != RESET));
1561:Libraries/STM32F4xx_StdPeriph_Driver/src/stm32f4xx_cryp_aes.c **** 
1562:Libraries/STM32F4xx_StdPeriph_Driver/src/stm32f4xx_cryp_aes.c ****       if (busystatus != RESET)
1563:Libraries/STM32F4xx_StdPeriph_Driver/src/stm32f4xx_cryp_aes.c ****       {
1564:Libraries/STM32F4xx_StdPeriph_Driver/src/stm32f4xx_cryp_aes.c ****         status = ERROR;
1565:Libraries/STM32F4xx_StdPeriph_Driver/src/stm32f4xx_cryp_aes.c ****       }
1566:Libraries/STM32F4xx_StdPeriph_Driver/src/stm32f4xx_cryp_aes.c ****     }
1567:Libraries/STM32F4xx_StdPeriph_Driver/src/stm32f4xx_cryp_aes.c ****     
1568:Libraries/STM32F4xx_StdPeriph_Driver/src/stm32f4xx_cryp_aes.c ****     /**************************** payload phase *******************************/
1569:Libraries/STM32F4xx_StdPeriph_Driver/src/stm32f4xx_cryp_aes.c ****     if(ILength != 0)
 4071              		.loc 1 1569 5 is_stmt 1 view .LVU1595
 4072              		.loc 1 1569 7 is_stmt 0 view .LVU1596
 4073 01da B8F1000F 		cmp	r8, #0
 4074 01de 00F0AC81 		beq	.L146
1570:Libraries/STM32F4xx_StdPeriph_Driver/src/stm32f4xx_cryp_aes.c ****     {
1571:Libraries/STM32F4xx_StdPeriph_Driver/src/stm32f4xx_cryp_aes.c ****       /* Select payload phase */
1572:Libraries/STM32F4xx_StdPeriph_Driver/src/stm32f4xx_cryp_aes.c ****       CRYP_PhaseConfig(CRYP_Phase_Payload);
 4075              		.loc 1 1572 7 is_stmt 1 view .LVU1597
 4076 01e2 4FF40030 		mov	r0, #131072
 4077 01e6 FFF7FEFF 		bl	CRYP_PhaseConfig
 4078              	.LVL590:
1573:Libraries/STM32F4xx_StdPeriph_Driver/src/stm32f4xx_cryp_aes.c **** 
1574:Libraries/STM32F4xx_StdPeriph_Driver/src/stm32f4xx_cryp_aes.c ****       /* Enable Crypto processor */
1575:Libraries/STM32F4xx_StdPeriph_Driver/src/stm32f4xx_cryp_aes.c ****       CRYP_Cmd(ENABLE);
 4079              		.loc 1 1575 7 view .LVU1598
 4080 01ea 0120     		movs	r0, #1
 4081 01ec FFF7FEFF 		bl	CRYP_Cmd
 4082              	.LVL591:
1576:Libraries/STM32F4xx_StdPeriph_Driver/src/stm32f4xx_cryp_aes.c ****       
1577:Libraries/STM32F4xx_StdPeriph_Driver/src/stm32f4xx_cryp_aes.c ****       if(CRYP_GetCmdStatus() == DISABLE)
 4083              		.loc 1 1577 7 view .LVU1599
 4084              		.loc 1 1577 10 is_stmt 0 view .LVU1600
 4085 01f0 FFF7FEFF 		bl	CRYP_GetCmdStatus
 4086              	.LVL592:
 4087              		.loc 1 1577 9 view .LVU1601
 4088 01f4 0746     		mov	r7, r0
 4089 01f6 0028     		cmp	r0, #0
 4090 01f8 00F0D681 		beq	.L126
1578:Libraries/STM32F4xx_StdPeriph_Driver/src/stm32f4xx_cryp_aes.c ****       {
1579:Libraries/STM32F4xx_StdPeriph_Driver/src/stm32f4xx_cryp_aes.c ****         /* The CRYP peripheral clock is not enabled or the device doesn't embed 
1580:Libraries/STM32F4xx_StdPeriph_Driver/src/stm32f4xx_cryp_aes.c ****            the CRYP peripheral (please check the device sales type. */
1581:Libraries/STM32F4xx_StdPeriph_Driver/src/stm32f4xx_cryp_aes.c ****         return(ERROR);
1582:Libraries/STM32F4xx_StdPeriph_Driver/src/stm32f4xx_cryp_aes.c ****       }
1583:Libraries/STM32F4xx_StdPeriph_Driver/src/stm32f4xx_cryp_aes.c ****       
1584:Libraries/STM32F4xx_StdPeriph_Driver/src/stm32f4xx_cryp_aes.c ****       for(loopcounter = 0; ((loopcounter < ILength) && (status != ERROR)); loopcounter+=16)
 4091              		.loc 1 1584 23 view .LVU1602
 4092 01fc 0026     		movs	r6, #0
 4093              	.LVL593:
 4094              		.loc 1 1584 23 view .LVU1603
 4095 01fe 5FE1     		b	.L147
 4096              	.LVL594:
 4097              	.L165:
1238:Libraries/STM32F4xx_StdPeriph_Driver/src/stm32f4xx_cryp_aes.c ****     AES_CRYP_KeyInitStructure.CRYP_Key2Left = __REV(*(uint32_t*)(keyaddr));
 4098              		.loc 1 1238 5 is_stmt 1 view .LVU1604
ARM GAS  /tmp/ccklj7FS.s 			page 123


1238:Libraries/STM32F4xx_StdPeriph_Driver/src/stm32f4xx_cryp_aes.c ****     AES_CRYP_KeyInitStructure.CRYP_Key2Left = __REV(*(uint32_t*)(keyaddr));
 4099              		.loc 1 1238 41 is_stmt 0 view .LVU1605
 4100 0200 0023     		movs	r3, #0
 4101 0202 1F93     		str	r3, [sp, #124]
1239:Libraries/STM32F4xx_StdPeriph_Driver/src/stm32f4xx_cryp_aes.c ****     keyaddr+=4;
 4102              		.loc 1 1239 5 is_stmt 1 view .LVU1606
1239:Libraries/STM32F4xx_StdPeriph_Driver/src/stm32f4xx_cryp_aes.c ****     keyaddr+=4;
 4103              		.loc 1 1239 47 is_stmt 0 view .LVU1607
 4104 0204 3B68     		ldr	r3, [r7]
 4105              	.LVL595:
 4106              	.LBB422:
 4107              	.LBI422:
 495:Libraries/CMSIS/Include/core_cmInstr.h **** {
 4108              		.loc 2 495 57 is_stmt 1 view .LVU1608
 4109              	.LBB423:
 4110              		.loc 2 498 3 view .LVU1609
 4111              		.loc 2 498 10 is_stmt 0 view .LVU1610
 4112 0206 1BBA     		rev	r3, r3
 4113              	.LVL596:
 4114              		.loc 2 498 10 view .LVU1611
 4115              	.LBE423:
 4116              	.LBE422:
1239:Libraries/STM32F4xx_StdPeriph_Driver/src/stm32f4xx_cryp_aes.c ****     keyaddr+=4;
 4117              		.loc 1 1239 45 view .LVU1612
 4118 0208 1893     		str	r3, [sp, #96]
1240:Libraries/STM32F4xx_StdPeriph_Driver/src/stm32f4xx_cryp_aes.c ****     AES_CRYP_KeyInitStructure.CRYP_Key2Right= __REV(*(uint32_t*)(keyaddr));
 4119              		.loc 1 1240 5 is_stmt 1 view .LVU1613
 4120              	.LVL597:
1241:Libraries/STM32F4xx_StdPeriph_Driver/src/stm32f4xx_cryp_aes.c ****     keyaddr+=4;
 4121              		.loc 1 1241 5 view .LVU1614
1241:Libraries/STM32F4xx_StdPeriph_Driver/src/stm32f4xx_cryp_aes.c ****     keyaddr+=4;
 4122              		.loc 1 1241 47 is_stmt 0 view .LVU1615
 4123 020a 7B68     		ldr	r3, [r7, #4]
 4124              	.LVL598:
 4125              	.LBB424:
 4126              	.LBI424:
 495:Libraries/CMSIS/Include/core_cmInstr.h **** {
 4127              		.loc 2 495 57 is_stmt 1 view .LVU1616
 4128              	.LBB425:
 4129              		.loc 2 498 3 view .LVU1617
 4130              		.loc 2 498 10 is_stmt 0 view .LVU1618
 4131 020c 1BBA     		rev	r3, r3
 4132              	.LVL599:
 4133              		.loc 2 498 10 view .LVU1619
 4134              	.LBE425:
 4135              	.LBE424:
1241:Libraries/STM32F4xx_StdPeriph_Driver/src/stm32f4xx_cryp_aes.c ****     keyaddr+=4;
 4136              		.loc 1 1241 45 view .LVU1620
 4137 020e 1993     		str	r3, [sp, #100]
1242:Libraries/STM32F4xx_StdPeriph_Driver/src/stm32f4xx_cryp_aes.c ****     AES_CRYP_KeyInitStructure.CRYP_Key3Left = __REV(*(uint32_t*)(keyaddr));
 4138              		.loc 1 1242 5 is_stmt 1 view .LVU1621
 4139              	.LVL600:
1243:Libraries/STM32F4xx_StdPeriph_Driver/src/stm32f4xx_cryp_aes.c ****     keyaddr+=4;
 4140              		.loc 1 1243 5 view .LVU1622
1243:Libraries/STM32F4xx_StdPeriph_Driver/src/stm32f4xx_cryp_aes.c ****     keyaddr+=4;
 4141              		.loc 1 1243 47 is_stmt 0 view .LVU1623
 4142 0210 BB68     		ldr	r3, [r7, #8]
ARM GAS  /tmp/ccklj7FS.s 			page 124


 4143              	.LVL601:
 4144              	.LBB426:
 4145              	.LBI426:
 495:Libraries/CMSIS/Include/core_cmInstr.h **** {
 4146              		.loc 2 495 57 is_stmt 1 view .LVU1624
 4147              	.LBB427:
 4148              		.loc 2 498 3 view .LVU1625
 4149              		.loc 2 498 10 is_stmt 0 view .LVU1626
 4150 0212 1BBA     		rev	r3, r3
 4151              	.LVL602:
 4152              		.loc 2 498 10 view .LVU1627
 4153              	.LBE427:
 4154              	.LBE426:
1243:Libraries/STM32F4xx_StdPeriph_Driver/src/stm32f4xx_cryp_aes.c ****     keyaddr+=4;
 4155              		.loc 1 1243 45 view .LVU1628
 4156 0214 1A93     		str	r3, [sp, #104]
1244:Libraries/STM32F4xx_StdPeriph_Driver/src/stm32f4xx_cryp_aes.c ****     AES_CRYP_KeyInitStructure.CRYP_Key3Right= __REV(*(uint32_t*)(keyaddr));
 4157              		.loc 1 1244 5 is_stmt 1 view .LVU1629
 4158              	.LVL603:
1245:Libraries/STM32F4xx_StdPeriph_Driver/src/stm32f4xx_cryp_aes.c ****     break;
 4159              		.loc 1 1245 5 view .LVU1630
1245:Libraries/STM32F4xx_StdPeriph_Driver/src/stm32f4xx_cryp_aes.c ****     break;
 4160              		.loc 1 1245 47 is_stmt 0 view .LVU1631
 4161 0216 FB68     		ldr	r3, [r7, #12]
 4162              	.LVL604:
 4163              	.LBB428:
 4164              	.LBI428:
 495:Libraries/CMSIS/Include/core_cmInstr.h **** {
 4165              		.loc 2 495 57 is_stmt 1 view .LVU1632
 4166              	.LBB429:
 4167              		.loc 2 498 3 view .LVU1633
 4168              		.loc 2 498 10 is_stmt 0 view .LVU1634
 4169 0218 1BBA     		rev	r3, r3
 4170              	.LVL605:
 4171              		.loc 2 498 10 view .LVU1635
 4172              	.LBE429:
 4173              	.LBE428:
1245:Libraries/STM32F4xx_StdPeriph_Driver/src/stm32f4xx_cryp_aes.c ****     break;
 4174              		.loc 1 1245 45 view .LVU1636
 4175 021a 1B93     		str	r3, [sp, #108]
1246:Libraries/STM32F4xx_StdPeriph_Driver/src/stm32f4xx_cryp_aes.c ****     case 192:
 4176              		.loc 1 1246 5 is_stmt 1 view .LVU1637
 4177 021c A2E7     		b	.L122
 4178              	.LVL606:
 4179              	.L120:
1248:Libraries/STM32F4xx_StdPeriph_Driver/src/stm32f4xx_cryp_aes.c ****     AES_CRYP_KeyInitStructure.CRYP_Key1Left = __REV(*(uint32_t*)(keyaddr));
 4180              		.loc 1 1248 5 view .LVU1638
1248:Libraries/STM32F4xx_StdPeriph_Driver/src/stm32f4xx_cryp_aes.c ****     AES_CRYP_KeyInitStructure.CRYP_Key1Left = __REV(*(uint32_t*)(keyaddr));
 4181              		.loc 1 1248 42 is_stmt 0 view .LVU1639
 4182 021e 4FF48073 		mov	r3, #256
 4183 0222 1F93     		str	r3, [sp, #124]
1249:Libraries/STM32F4xx_StdPeriph_Driver/src/stm32f4xx_cryp_aes.c ****     keyaddr+=4;
 4184              		.loc 1 1249 5 is_stmt 1 view .LVU1640
1249:Libraries/STM32F4xx_StdPeriph_Driver/src/stm32f4xx_cryp_aes.c ****     keyaddr+=4;
 4185              		.loc 1 1249 47 is_stmt 0 view .LVU1641
 4186 0224 3B68     		ldr	r3, [r7]
 4187              	.LVL607:
ARM GAS  /tmp/ccklj7FS.s 			page 125


 4188              	.LBB430:
 4189              	.LBI430:
 495:Libraries/CMSIS/Include/core_cmInstr.h **** {
 4190              		.loc 2 495 57 is_stmt 1 view .LVU1642
 4191              	.LBB431:
 4192              		.loc 2 498 3 view .LVU1643
 4193              		.loc 2 498 10 is_stmt 0 view .LVU1644
 4194 0226 1BBA     		rev	r3, r3
 4195              	.LVL608:
 4196              		.loc 2 498 10 view .LVU1645
 4197              	.LBE431:
 4198              	.LBE430:
1249:Libraries/STM32F4xx_StdPeriph_Driver/src/stm32f4xx_cryp_aes.c ****     keyaddr+=4;
 4199              		.loc 1 1249 45 view .LVU1646
 4200 0228 1693     		str	r3, [sp, #88]
1250:Libraries/STM32F4xx_StdPeriph_Driver/src/stm32f4xx_cryp_aes.c ****     AES_CRYP_KeyInitStructure.CRYP_Key1Right= __REV(*(uint32_t*)(keyaddr));
 4201              		.loc 1 1250 5 is_stmt 1 view .LVU1647
 4202              	.LVL609:
1251:Libraries/STM32F4xx_StdPeriph_Driver/src/stm32f4xx_cryp_aes.c ****     keyaddr+=4;
 4203              		.loc 1 1251 5 view .LVU1648
1251:Libraries/STM32F4xx_StdPeriph_Driver/src/stm32f4xx_cryp_aes.c ****     keyaddr+=4;
 4204              		.loc 1 1251 47 is_stmt 0 view .LVU1649
 4205 022a 7B68     		ldr	r3, [r7, #4]
 4206              	.LVL610:
 4207              	.LBB432:
 4208              	.LBI432:
 495:Libraries/CMSIS/Include/core_cmInstr.h **** {
 4209              		.loc 2 495 57 is_stmt 1 view .LVU1650
 4210              	.LBB433:
 4211              		.loc 2 498 3 view .LVU1651
 4212              		.loc 2 498 10 is_stmt 0 view .LVU1652
 4213 022c 1BBA     		rev	r3, r3
 4214              	.LVL611:
 4215              		.loc 2 498 10 view .LVU1653
 4216              	.LBE433:
 4217              	.LBE432:
1251:Libraries/STM32F4xx_StdPeriph_Driver/src/stm32f4xx_cryp_aes.c ****     keyaddr+=4;
 4218              		.loc 1 1251 45 view .LVU1654
 4219 022e 1793     		str	r3, [sp, #92]
1252:Libraries/STM32F4xx_StdPeriph_Driver/src/stm32f4xx_cryp_aes.c ****     AES_CRYP_KeyInitStructure.CRYP_Key2Left = __REV(*(uint32_t*)(keyaddr));
 4220              		.loc 1 1252 5 is_stmt 1 view .LVU1655
 4221              	.LVL612:
1253:Libraries/STM32F4xx_StdPeriph_Driver/src/stm32f4xx_cryp_aes.c ****     keyaddr+=4;
 4222              		.loc 1 1253 5 view .LVU1656
1253:Libraries/STM32F4xx_StdPeriph_Driver/src/stm32f4xx_cryp_aes.c ****     keyaddr+=4;
 4223              		.loc 1 1253 47 is_stmt 0 view .LVU1657
 4224 0230 BB68     		ldr	r3, [r7, #8]
 4225              	.LVL613:
 4226              	.LBB434:
 4227              	.LBI434:
 495:Libraries/CMSIS/Include/core_cmInstr.h **** {
 4228              		.loc 2 495 57 is_stmt 1 view .LVU1658
 4229              	.LBB435:
 4230              		.loc 2 498 3 view .LVU1659
 4231              		.loc 2 498 10 is_stmt 0 view .LVU1660
 4232 0232 1BBA     		rev	r3, r3
 4233              	.LVL614:
ARM GAS  /tmp/ccklj7FS.s 			page 126


 4234              		.loc 2 498 10 view .LVU1661
 4235              	.LBE435:
 4236              	.LBE434:
1253:Libraries/STM32F4xx_StdPeriph_Driver/src/stm32f4xx_cryp_aes.c ****     keyaddr+=4;
 4237              		.loc 1 1253 45 view .LVU1662
 4238 0234 1893     		str	r3, [sp, #96]
1254:Libraries/STM32F4xx_StdPeriph_Driver/src/stm32f4xx_cryp_aes.c ****     AES_CRYP_KeyInitStructure.CRYP_Key2Right= __REV(*(uint32_t*)(keyaddr));
 4239              		.loc 1 1254 5 is_stmt 1 view .LVU1663
 4240              	.LVL615:
1255:Libraries/STM32F4xx_StdPeriph_Driver/src/stm32f4xx_cryp_aes.c ****     keyaddr+=4;
 4241              		.loc 1 1255 5 view .LVU1664
1255:Libraries/STM32F4xx_StdPeriph_Driver/src/stm32f4xx_cryp_aes.c ****     keyaddr+=4;
 4242              		.loc 1 1255 47 is_stmt 0 view .LVU1665
 4243 0236 FB68     		ldr	r3, [r7, #12]
 4244              	.LVL616:
 4245              	.LBB436:
 4246              	.LBI436:
 495:Libraries/CMSIS/Include/core_cmInstr.h **** {
 4247              		.loc 2 495 57 is_stmt 1 view .LVU1666
 4248              	.LBB437:
 4249              		.loc 2 498 3 view .LVU1667
 4250              		.loc 2 498 10 is_stmt 0 view .LVU1668
 4251 0238 1BBA     		rev	r3, r3
 4252              	.LVL617:
 4253              		.loc 2 498 10 view .LVU1669
 4254              	.LBE437:
 4255              	.LBE436:
1255:Libraries/STM32F4xx_StdPeriph_Driver/src/stm32f4xx_cryp_aes.c ****     keyaddr+=4;
 4256              		.loc 1 1255 45 view .LVU1670
 4257 023a 1993     		str	r3, [sp, #100]
1256:Libraries/STM32F4xx_StdPeriph_Driver/src/stm32f4xx_cryp_aes.c ****     AES_CRYP_KeyInitStructure.CRYP_Key3Left = __REV(*(uint32_t*)(keyaddr));
 4258              		.loc 1 1256 5 is_stmt 1 view .LVU1671
 4259              	.LVL618:
1257:Libraries/STM32F4xx_StdPeriph_Driver/src/stm32f4xx_cryp_aes.c ****     keyaddr+=4;
 4260              		.loc 1 1257 5 view .LVU1672
1257:Libraries/STM32F4xx_StdPeriph_Driver/src/stm32f4xx_cryp_aes.c ****     keyaddr+=4;
 4261              		.loc 1 1257 47 is_stmt 0 view .LVU1673
 4262 023c 3B69     		ldr	r3, [r7, #16]
 4263              	.LVL619:
 4264              	.LBB438:
 4265              	.LBI438:
 495:Libraries/CMSIS/Include/core_cmInstr.h **** {
 4266              		.loc 2 495 57 is_stmt 1 view .LVU1674
 4267              	.LBB439:
 4268              		.loc 2 498 3 view .LVU1675
 4269              		.loc 2 498 10 is_stmt 0 view .LVU1676
 4270 023e 1BBA     		rev	r3, r3
 4271              	.LVL620:
 4272              		.loc 2 498 10 view .LVU1677
 4273              	.LBE439:
 4274              	.LBE438:
1257:Libraries/STM32F4xx_StdPeriph_Driver/src/stm32f4xx_cryp_aes.c ****     keyaddr+=4;
 4275              		.loc 1 1257 45 view .LVU1678
 4276 0240 1A93     		str	r3, [sp, #104]
1258:Libraries/STM32F4xx_StdPeriph_Driver/src/stm32f4xx_cryp_aes.c ****     AES_CRYP_KeyInitStructure.CRYP_Key3Right= __REV(*(uint32_t*)(keyaddr));
 4277              		.loc 1 1258 5 is_stmt 1 view .LVU1679
 4278              	.LVL621:
ARM GAS  /tmp/ccklj7FS.s 			page 127


1259:Libraries/STM32F4xx_StdPeriph_Driver/src/stm32f4xx_cryp_aes.c ****     break;
 4279              		.loc 1 1259 5 view .LVU1680
1259:Libraries/STM32F4xx_StdPeriph_Driver/src/stm32f4xx_cryp_aes.c ****     break;
 4280              		.loc 1 1259 47 is_stmt 0 view .LVU1681
 4281 0242 7B69     		ldr	r3, [r7, #20]
 4282              	.LVL622:
 4283              	.LBB440:
 4284              	.LBI440:
 495:Libraries/CMSIS/Include/core_cmInstr.h **** {
 4285              		.loc 2 495 57 is_stmt 1 view .LVU1682
 4286              	.LBB441:
 4287              		.loc 2 498 3 view .LVU1683
 4288              		.loc 2 498 10 is_stmt 0 view .LVU1684
 4289 0244 1BBA     		rev	r3, r3
 4290              	.LVL623:
 4291              		.loc 2 498 10 view .LVU1685
 4292              	.LBE441:
 4293              	.LBE440:
1259:Libraries/STM32F4xx_StdPeriph_Driver/src/stm32f4xx_cryp_aes.c ****     break;
 4294              		.loc 1 1259 45 view .LVU1686
 4295 0246 1B93     		str	r3, [sp, #108]
1260:Libraries/STM32F4xx_StdPeriph_Driver/src/stm32f4xx_cryp_aes.c ****     case 256:
 4296              		.loc 1 1260 5 is_stmt 1 view .LVU1687
 4297 0248 8CE7     		b	.L122
 4298              	.LVL624:
 4299              	.L121:
1262:Libraries/STM32F4xx_StdPeriph_Driver/src/stm32f4xx_cryp_aes.c ****     AES_CRYP_KeyInitStructure.CRYP_Key0Left = __REV(*(uint32_t*)(keyaddr));
 4300              		.loc 1 1262 5 view .LVU1688
1262:Libraries/STM32F4xx_StdPeriph_Driver/src/stm32f4xx_cryp_aes.c ****     AES_CRYP_KeyInitStructure.CRYP_Key0Left = __REV(*(uint32_t*)(keyaddr));
 4301              		.loc 1 1262 42 is_stmt 0 view .LVU1689
 4302 024a 4FF40073 		mov	r3, #512
 4303 024e 1F93     		str	r3, [sp, #124]
1263:Libraries/STM32F4xx_StdPeriph_Driver/src/stm32f4xx_cryp_aes.c ****     keyaddr+=4;
 4304              		.loc 1 1263 5 is_stmt 1 view .LVU1690
1263:Libraries/STM32F4xx_StdPeriph_Driver/src/stm32f4xx_cryp_aes.c ****     keyaddr+=4;
 4305              		.loc 1 1263 47 is_stmt 0 view .LVU1691
 4306 0250 3B68     		ldr	r3, [r7]
 4307              	.LVL625:
 4308              	.LBB442:
 4309              	.LBI442:
 495:Libraries/CMSIS/Include/core_cmInstr.h **** {
 4310              		.loc 2 495 57 is_stmt 1 view .LVU1692
 4311              	.LBB443:
 4312              		.loc 2 498 3 view .LVU1693
 4313              		.loc 2 498 10 is_stmt 0 view .LVU1694
 4314 0252 1BBA     		rev	r3, r3
 4315              	.LVL626:
 4316              		.loc 2 498 10 view .LVU1695
 4317              	.LBE443:
 4318              	.LBE442:
1263:Libraries/STM32F4xx_StdPeriph_Driver/src/stm32f4xx_cryp_aes.c ****     keyaddr+=4;
 4319              		.loc 1 1263 45 view .LVU1696
 4320 0254 1493     		str	r3, [sp, #80]
1264:Libraries/STM32F4xx_StdPeriph_Driver/src/stm32f4xx_cryp_aes.c ****     AES_CRYP_KeyInitStructure.CRYP_Key0Right= __REV(*(uint32_t*)(keyaddr));
 4321              		.loc 1 1264 5 is_stmt 1 view .LVU1697
 4322              	.LVL627:
1265:Libraries/STM32F4xx_StdPeriph_Driver/src/stm32f4xx_cryp_aes.c ****     keyaddr+=4;
ARM GAS  /tmp/ccklj7FS.s 			page 128


 4323              		.loc 1 1265 5 view .LVU1698
1265:Libraries/STM32F4xx_StdPeriph_Driver/src/stm32f4xx_cryp_aes.c ****     keyaddr+=4;
 4324              		.loc 1 1265 47 is_stmt 0 view .LVU1699
 4325 0256 7B68     		ldr	r3, [r7, #4]
 4326              	.LVL628:
 4327              	.LBB444:
 4328              	.LBI444:
 495:Libraries/CMSIS/Include/core_cmInstr.h **** {
 4329              		.loc 2 495 57 is_stmt 1 view .LVU1700
 4330              	.LBB445:
 4331              		.loc 2 498 3 view .LVU1701
 4332              		.loc 2 498 10 is_stmt 0 view .LVU1702
 4333 0258 1BBA     		rev	r3, r3
 4334              	.LVL629:
 4335              		.loc 2 498 10 view .LVU1703
 4336              	.LBE445:
 4337              	.LBE444:
1265:Libraries/STM32F4xx_StdPeriph_Driver/src/stm32f4xx_cryp_aes.c ****     keyaddr+=4;
 4338              		.loc 1 1265 45 view .LVU1704
 4339 025a 1593     		str	r3, [sp, #84]
1266:Libraries/STM32F4xx_StdPeriph_Driver/src/stm32f4xx_cryp_aes.c ****     AES_CRYP_KeyInitStructure.CRYP_Key1Left = __REV(*(uint32_t*)(keyaddr));
 4340              		.loc 1 1266 5 is_stmt 1 view .LVU1705
 4341              	.LVL630:
1267:Libraries/STM32F4xx_StdPeriph_Driver/src/stm32f4xx_cryp_aes.c ****     keyaddr+=4;
 4342              		.loc 1 1267 5 view .LVU1706
1267:Libraries/STM32F4xx_StdPeriph_Driver/src/stm32f4xx_cryp_aes.c ****     keyaddr+=4;
 4343              		.loc 1 1267 47 is_stmt 0 view .LVU1707
 4344 025c BB68     		ldr	r3, [r7, #8]
 4345              	.LVL631:
 4346              	.LBB446:
 4347              	.LBI446:
 495:Libraries/CMSIS/Include/core_cmInstr.h **** {
 4348              		.loc 2 495 57 is_stmt 1 view .LVU1708
 4349              	.LBB447:
 4350              		.loc 2 498 3 view .LVU1709
 4351              		.loc 2 498 10 is_stmt 0 view .LVU1710
 4352 025e 1BBA     		rev	r3, r3
 4353              	.LVL632:
 4354              		.loc 2 498 10 view .LVU1711
 4355              	.LBE447:
 4356              	.LBE446:
1267:Libraries/STM32F4xx_StdPeriph_Driver/src/stm32f4xx_cryp_aes.c ****     keyaddr+=4;
 4357              		.loc 1 1267 45 view .LVU1712
 4358 0260 1693     		str	r3, [sp, #88]
1268:Libraries/STM32F4xx_StdPeriph_Driver/src/stm32f4xx_cryp_aes.c ****     AES_CRYP_KeyInitStructure.CRYP_Key1Right= __REV(*(uint32_t*)(keyaddr));
 4359              		.loc 1 1268 5 is_stmt 1 view .LVU1713
 4360              	.LVL633:
1269:Libraries/STM32F4xx_StdPeriph_Driver/src/stm32f4xx_cryp_aes.c ****     keyaddr+=4;
 4361              		.loc 1 1269 5 view .LVU1714
1269:Libraries/STM32F4xx_StdPeriph_Driver/src/stm32f4xx_cryp_aes.c ****     keyaddr+=4;
 4362              		.loc 1 1269 47 is_stmt 0 view .LVU1715
 4363 0262 FB68     		ldr	r3, [r7, #12]
 4364              	.LVL634:
 4365              	.LBB448:
 4366              	.LBI448:
 495:Libraries/CMSIS/Include/core_cmInstr.h **** {
 4367              		.loc 2 495 57 is_stmt 1 view .LVU1716
ARM GAS  /tmp/ccklj7FS.s 			page 129


 4368              	.LBB449:
 4369              		.loc 2 498 3 view .LVU1717
 4370              		.loc 2 498 10 is_stmt 0 view .LVU1718
 4371 0264 1BBA     		rev	r3, r3
 4372              	.LVL635:
 4373              		.loc 2 498 10 view .LVU1719
 4374              	.LBE449:
 4375              	.LBE448:
1269:Libraries/STM32F4xx_StdPeriph_Driver/src/stm32f4xx_cryp_aes.c ****     keyaddr+=4;
 4376              		.loc 1 1269 45 view .LVU1720
 4377 0266 1793     		str	r3, [sp, #92]
1270:Libraries/STM32F4xx_StdPeriph_Driver/src/stm32f4xx_cryp_aes.c ****     AES_CRYP_KeyInitStructure.CRYP_Key2Left = __REV(*(uint32_t*)(keyaddr));
 4378              		.loc 1 1270 5 is_stmt 1 view .LVU1721
 4379              	.LVL636:
1271:Libraries/STM32F4xx_StdPeriph_Driver/src/stm32f4xx_cryp_aes.c ****     keyaddr+=4;
 4380              		.loc 1 1271 5 view .LVU1722
1271:Libraries/STM32F4xx_StdPeriph_Driver/src/stm32f4xx_cryp_aes.c ****     keyaddr+=4;
 4381              		.loc 1 1271 47 is_stmt 0 view .LVU1723
 4382 0268 3B69     		ldr	r3, [r7, #16]
 4383              	.LVL637:
 4384              	.LBB450:
 4385              	.LBI450:
 495:Libraries/CMSIS/Include/core_cmInstr.h **** {
 4386              		.loc 2 495 57 is_stmt 1 view .LVU1724
 4387              	.LBB451:
 4388              		.loc 2 498 3 view .LVU1725
 4389              		.loc 2 498 10 is_stmt 0 view .LVU1726
 4390 026a 1BBA     		rev	r3, r3
 4391              	.LVL638:
 4392              		.loc 2 498 10 view .LVU1727
 4393              	.LBE451:
 4394              	.LBE450:
1271:Libraries/STM32F4xx_StdPeriph_Driver/src/stm32f4xx_cryp_aes.c ****     keyaddr+=4;
 4395              		.loc 1 1271 45 view .LVU1728
 4396 026c 1893     		str	r3, [sp, #96]
1272:Libraries/STM32F4xx_StdPeriph_Driver/src/stm32f4xx_cryp_aes.c ****     AES_CRYP_KeyInitStructure.CRYP_Key2Right= __REV(*(uint32_t*)(keyaddr));
 4397              		.loc 1 1272 5 is_stmt 1 view .LVU1729
 4398              	.LVL639:
1273:Libraries/STM32F4xx_StdPeriph_Driver/src/stm32f4xx_cryp_aes.c ****     keyaddr+=4;
 4399              		.loc 1 1273 5 view .LVU1730
1273:Libraries/STM32F4xx_StdPeriph_Driver/src/stm32f4xx_cryp_aes.c ****     keyaddr+=4;
 4400              		.loc 1 1273 47 is_stmt 0 view .LVU1731
 4401 026e 7B69     		ldr	r3, [r7, #20]
 4402              	.LVL640:
 4403              	.LBB452:
 4404              	.LBI452:
 495:Libraries/CMSIS/Include/core_cmInstr.h **** {
 4405              		.loc 2 495 57 is_stmt 1 view .LVU1732
 4406              	.LBB453:
 4407              		.loc 2 498 3 view .LVU1733
 4408              		.loc 2 498 10 is_stmt 0 view .LVU1734
 4409 0270 1BBA     		rev	r3, r3
 4410              	.LVL641:
 4411              		.loc 2 498 10 view .LVU1735
 4412              	.LBE453:
 4413              	.LBE452:
1273:Libraries/STM32F4xx_StdPeriph_Driver/src/stm32f4xx_cryp_aes.c ****     keyaddr+=4;
ARM GAS  /tmp/ccklj7FS.s 			page 130


 4414              		.loc 1 1273 45 view .LVU1736
 4415 0272 1993     		str	r3, [sp, #100]
1274:Libraries/STM32F4xx_StdPeriph_Driver/src/stm32f4xx_cryp_aes.c ****     AES_CRYP_KeyInitStructure.CRYP_Key3Left = __REV(*(uint32_t*)(keyaddr));
 4416              		.loc 1 1274 5 is_stmt 1 view .LVU1737
 4417              	.LVL642:
1275:Libraries/STM32F4xx_StdPeriph_Driver/src/stm32f4xx_cryp_aes.c ****     keyaddr+=4;
 4418              		.loc 1 1275 5 view .LVU1738
1275:Libraries/STM32F4xx_StdPeriph_Driver/src/stm32f4xx_cryp_aes.c ****     keyaddr+=4;
 4419              		.loc 1 1275 47 is_stmt 0 view .LVU1739
 4420 0274 BB69     		ldr	r3, [r7, #24]
 4421              	.LVL643:
 4422              	.LBB454:
 4423              	.LBI454:
 495:Libraries/CMSIS/Include/core_cmInstr.h **** {
 4424              		.loc 2 495 57 is_stmt 1 view .LVU1740
 4425              	.LBB455:
 4426              		.loc 2 498 3 view .LVU1741
 4427              		.loc 2 498 10 is_stmt 0 view .LVU1742
 4428 0276 1BBA     		rev	r3, r3
 4429              	.LVL644:
 4430              		.loc 2 498 10 view .LVU1743
 4431              	.LBE455:
 4432              	.LBE454:
1275:Libraries/STM32F4xx_StdPeriph_Driver/src/stm32f4xx_cryp_aes.c ****     keyaddr+=4;
 4433              		.loc 1 1275 45 view .LVU1744
 4434 0278 1A93     		str	r3, [sp, #104]
1276:Libraries/STM32F4xx_StdPeriph_Driver/src/stm32f4xx_cryp_aes.c ****     AES_CRYP_KeyInitStructure.CRYP_Key3Right= __REV(*(uint32_t*)(keyaddr));
 4435              		.loc 1 1276 5 is_stmt 1 view .LVU1745
 4436              	.LVL645:
1277:Libraries/STM32F4xx_StdPeriph_Driver/src/stm32f4xx_cryp_aes.c ****     break;
 4437              		.loc 1 1277 5 view .LVU1746
1277:Libraries/STM32F4xx_StdPeriph_Driver/src/stm32f4xx_cryp_aes.c ****     break;
 4438              		.loc 1 1277 47 is_stmt 0 view .LVU1747
 4439 027a FB69     		ldr	r3, [r7, #28]
 4440              	.LVL646:
 4441              	.LBB456:
 4442              	.LBI456:
 495:Libraries/CMSIS/Include/core_cmInstr.h **** {
 4443              		.loc 2 495 57 is_stmt 1 view .LVU1748
 4444              	.LBB457:
 4445              		.loc 2 498 3 view .LVU1749
 4446              		.loc 2 498 10 is_stmt 0 view .LVU1750
 4447 027c 1BBA     		rev	r3, r3
 4448              	.LVL647:
 4449              		.loc 2 498 10 view .LVU1751
 4450              	.LBE457:
 4451              	.LBE456:
1277:Libraries/STM32F4xx_StdPeriph_Driver/src/stm32f4xx_cryp_aes.c ****     break;
 4452              		.loc 1 1277 45 view .LVU1752
 4453 027e 1B93     		str	r3, [sp, #108]
1278:Libraries/STM32F4xx_StdPeriph_Driver/src/stm32f4xx_cryp_aes.c ****     default:
 4454              		.loc 1 1278 5 is_stmt 1 view .LVU1753
 4455 0280 70E7     		b	.L122
 4456              	.LVL648:
 4457              	.L166:
1296:Libraries/STM32F4xx_StdPeriph_Driver/src/stm32f4xx_cryp_aes.c ****     
 4458              		.loc 1 1296 5 view .LVU1754
ARM GAS  /tmp/ccklj7FS.s 			page 131


 4459 0282 FFF7FEFF 		bl	CRYP_FIFOFlush
 4460              	.LVL649:
1299:Libraries/STM32F4xx_StdPeriph_Driver/src/stm32f4xx_cryp_aes.c ****     
 4461              		.loc 1 1299 5 view .LVU1755
 4462 0286 14A8     		add	r0, sp, #80
 4463 0288 FFF7FEFF 		bl	CRYP_KeyInit
 4464              	.LVL650:
1302:Libraries/STM32F4xx_StdPeriph_Driver/src/stm32f4xx_cryp_aes.c ****     
 4465              		.loc 1 1302 5 view .LVU1756
 4466 028c 10A8     		add	r0, sp, #64
 4467 028e FFF7FEFF 		bl	CRYP_IVInit
 4468              	.LVL651:
1305:Libraries/STM32F4xx_StdPeriph_Driver/src/stm32f4xx_cryp_aes.c ****     AES_CRYP_InitStructure.CRYP_AlgoMode = CRYP_AlgoMode_AES_CCM;
 4469              		.loc 1 1305 5 view .LVU1757
1305:Libraries/STM32F4xx_StdPeriph_Driver/src/stm32f4xx_cryp_aes.c ****     AES_CRYP_InitStructure.CRYP_AlgoMode = CRYP_AlgoMode_AES_CCM;
 4470              		.loc 1 1305 41 is_stmt 0 view .LVU1758
 4471 0292 0027     		movs	r7, #0
 4472              	.LVL652:
1305:Libraries/STM32F4xx_StdPeriph_Driver/src/stm32f4xx_cryp_aes.c ****     AES_CRYP_InitStructure.CRYP_AlgoMode = CRYP_AlgoMode_AES_CCM;
 4473              		.loc 1 1305 41 view .LVU1759
 4474 0294 1C97     		str	r7, [sp, #112]
1306:Libraries/STM32F4xx_StdPeriph_Driver/src/stm32f4xx_cryp_aes.c ****     AES_CRYP_InitStructure.CRYP_DataType = CRYP_DataType_8b;
 4475              		.loc 1 1306 5 is_stmt 1 view .LVU1760
1306:Libraries/STM32F4xx_StdPeriph_Driver/src/stm32f4xx_cryp_aes.c ****     AES_CRYP_InitStructure.CRYP_DataType = CRYP_DataType_8b;
 4476              		.loc 1 1306 42 is_stmt 0 view .LVU1761
 4477 0296 4FF00813 		mov	r3, #524296
 4478 029a 1D93     		str	r3, [sp, #116]
1307:Libraries/STM32F4xx_StdPeriph_Driver/src/stm32f4xx_cryp_aes.c ****     CRYP_Init(&AES_CRYP_InitStructure);
 4479              		.loc 1 1307 5 is_stmt 1 view .LVU1762
1307:Libraries/STM32F4xx_StdPeriph_Driver/src/stm32f4xx_cryp_aes.c ****     CRYP_Init(&AES_CRYP_InitStructure);
 4480              		.loc 1 1307 42 is_stmt 0 view .LVU1763
 4481 029c 8023     		movs	r3, #128
 4482 029e 1E93     		str	r3, [sp, #120]
1308:Libraries/STM32F4xx_StdPeriph_Driver/src/stm32f4xx_cryp_aes.c ****     
 4483              		.loc 1 1308 5 is_stmt 1 view .LVU1764
 4484 02a0 1CA8     		add	r0, sp, #112
 4485 02a2 FFF7FEFF 		bl	CRYP_Init
 4486              	.LVL653:
1312:Libraries/STM32F4xx_StdPeriph_Driver/src/stm32f4xx_cryp_aes.c ****     
 4487              		.loc 1 1312 5 view .LVU1765
 4488 02a6 3846     		mov	r0, r7
 4489 02a8 FFF7FEFF 		bl	CRYP_PhaseConfig
 4490              	.LVL654:
1314:Libraries/STM32F4xx_StdPeriph_Driver/src/stm32f4xx_cryp_aes.c ****     /* Write the blockb0 block in the IN FIFO */
 4491              		.loc 1 1314 5 view .LVU1766
1316:Libraries/STM32F4xx_StdPeriph_Driver/src/stm32f4xx_cryp_aes.c ****     b0addr+=4;
 4492              		.loc 1 1316 5 view .LVU1767
 4493 02ac 0B98     		ldr	r0, [sp, #44]
 4494 02ae FFF7FEFF 		bl	CRYP_DataIn
 4495              	.LVL655:
1317:Libraries/STM32F4xx_StdPeriph_Driver/src/stm32f4xx_cryp_aes.c ****     CRYP_DataIn((*(uint32_t*)(b0addr)));
 4496              		.loc 1 1317 5 view .LVU1768
1318:Libraries/STM32F4xx_StdPeriph_Driver/src/stm32f4xx_cryp_aes.c ****     b0addr+=4;
 4497              		.loc 1 1318 5 view .LVU1769
 4498 02b2 0C98     		ldr	r0, [sp, #48]
 4499 02b4 FFF7FEFF 		bl	CRYP_DataIn
 4500              	.LVL656:
ARM GAS  /tmp/ccklj7FS.s 			page 132


1319:Libraries/STM32F4xx_StdPeriph_Driver/src/stm32f4xx_cryp_aes.c ****     CRYP_DataIn((*(uint32_t*)(b0addr)));
 4501              		.loc 1 1319 5 view .LVU1770
1320:Libraries/STM32F4xx_StdPeriph_Driver/src/stm32f4xx_cryp_aes.c ****     b0addr+=4;
 4502              		.loc 1 1320 5 view .LVU1771
 4503 02b8 0D98     		ldr	r0, [sp, #52]
 4504 02ba FFF7FEFF 		bl	CRYP_DataIn
 4505              	.LVL657:
1321:Libraries/STM32F4xx_StdPeriph_Driver/src/stm32f4xx_cryp_aes.c ****     CRYP_DataIn((*(uint32_t*)(b0addr)));
 4506              		.loc 1 1321 5 view .LVU1772
1322:Libraries/STM32F4xx_StdPeriph_Driver/src/stm32f4xx_cryp_aes.c ****     
 4507              		.loc 1 1322 5 view .LVU1773
 4508 02be 0E98     		ldr	r0, [sp, #56]
 4509 02c0 FFF7FEFF 		bl	CRYP_DataIn
 4510              	.LVL658:
1325:Libraries/STM32F4xx_StdPeriph_Driver/src/stm32f4xx_cryp_aes.c ****     
 4511              		.loc 1 1325 5 view .LVU1774
 4512 02c4 0120     		movs	r0, #1
 4513 02c6 FFF7FEFF 		bl	CRYP_Cmd
 4514              	.LVL659:
1328:Libraries/STM32F4xx_StdPeriph_Driver/src/stm32f4xx_cryp_aes.c ****     {
 4515              		.loc 1 1328 5 view .LVU1775
 4516              	.L124:
1330:Libraries/STM32F4xx_StdPeriph_Driver/src/stm32f4xx_cryp_aes.c ****     /***************************** header phase *******************************/
 4517              		.loc 1 1330 5 discriminator 1 view .LVU1776
1328:Libraries/STM32F4xx_StdPeriph_Driver/src/stm32f4xx_cryp_aes.c ****     {
 4518              		.loc 1 1328 10 discriminator 1 view .LVU1777
1328:Libraries/STM32F4xx_StdPeriph_Driver/src/stm32f4xx_cryp_aes.c ****     {
 4519              		.loc 1 1328 11 is_stmt 0 discriminator 1 view .LVU1778
 4520 02ca FFF7FEFF 		bl	CRYP_GetCmdStatus
 4521              	.LVL660:
1328:Libraries/STM32F4xx_StdPeriph_Driver/src/stm32f4xx_cryp_aes.c ****     {
 4522              		.loc 1 1328 10 discriminator 1 view .LVU1779
 4523 02ce 0128     		cmp	r0, #1
 4524 02d0 FBD0     		beq	.L124
1332:Libraries/STM32F4xx_StdPeriph_Driver/src/stm32f4xx_cryp_aes.c ****     {
 4525              		.loc 1 1332 5 is_stmt 1 view .LVU1780
1332:Libraries/STM32F4xx_StdPeriph_Driver/src/stm32f4xx_cryp_aes.c ****     {
 4526              		.loc 1 1332 7 is_stmt 0 view .LVU1781
 4527 02d2 9CB9     		cbnz	r4, .L168
 4528              	.LVL661:
 4529              	.L125:
1380:Libraries/STM32F4xx_StdPeriph_Driver/src/stm32f4xx_cryp_aes.c ****     {
 4530              		.loc 1 1380 5 is_stmt 1 view .LVU1782
1380:Libraries/STM32F4xx_StdPeriph_Driver/src/stm32f4xx_cryp_aes.c ****     {
 4531              		.loc 1 1380 7 is_stmt 0 view .LVU1783
 4532 02d4 B8F1000F 		cmp	r8, #0
 4533 02d8 00F08A80 		beq	.L131
1383:Libraries/STM32F4xx_StdPeriph_Driver/src/stm32f4xx_cryp_aes.c ****       
 4534              		.loc 1 1383 7 is_stmt 1 view .LVU1784
 4535 02dc 4FF40030 		mov	r0, #131072
 4536 02e0 FFF7FEFF 		bl	CRYP_PhaseConfig
 4537              	.LVL662:
1386:Libraries/STM32F4xx_StdPeriph_Driver/src/stm32f4xx_cryp_aes.c ****       
 4538              		.loc 1 1386 7 view .LVU1785
 4539 02e4 0120     		movs	r0, #1
 4540 02e6 FFF7FEFF 		bl	CRYP_Cmd
 4541              	.LVL663:
ARM GAS  /tmp/ccklj7FS.s 			page 133


1388:Libraries/STM32F4xx_StdPeriph_Driver/src/stm32f4xx_cryp_aes.c ****       {
 4542              		.loc 1 1388 7 view .LVU1786
1388:Libraries/STM32F4xx_StdPeriph_Driver/src/stm32f4xx_cryp_aes.c ****       {
 4543              		.loc 1 1388 10 is_stmt 0 view .LVU1787
 4544 02ea FFF7FEFF 		bl	CRYP_GetCmdStatus
 4545              	.LVL664:
1388:Libraries/STM32F4xx_StdPeriph_Driver/src/stm32f4xx_cryp_aes.c ****       {
 4546              		.loc 1 1388 9 view .LVU1788
 4547 02ee 0746     		mov	r7, r0
 4548 02f0 0028     		cmp	r0, #0
 4549 02f2 00F05981 		beq	.L126
1395:Libraries/STM32F4xx_StdPeriph_Driver/src/stm32f4xx_cryp_aes.c ****       {
 4550              		.loc 1 1395 23 view .LVU1789
 4551 02f6 0024     		movs	r4, #0
 4552              	.LVL665:
1395:Libraries/STM32F4xx_StdPeriph_Driver/src/stm32f4xx_cryp_aes.c ****       {
 4553              		.loc 1 1395 23 view .LVU1790
 4554 02f8 019E     		ldr	r6, [sp, #4]
 4555              	.LVL666:
1395:Libraries/STM32F4xx_StdPeriph_Driver/src/stm32f4xx_cryp_aes.c ****       {
 4556              		.loc 1 1395 23 view .LVU1791
 4557 02fa 39E0     		b	.L132
 4558              	.LVL667:
 4559              	.L168:
1335:Libraries/STM32F4xx_StdPeriph_Driver/src/stm32f4xx_cryp_aes.c ****       
 4560              		.loc 1 1335 7 is_stmt 1 view .LVU1792
 4561 02fc 4FF48030 		mov	r0, #65536
 4562 0300 FFF7FEFF 		bl	CRYP_PhaseConfig
 4563              	.LVL668:
1338:Libraries/STM32F4xx_StdPeriph_Driver/src/stm32f4xx_cryp_aes.c ****       
 4564              		.loc 1 1338 7 view .LVU1793
 4565 0304 0120     		movs	r0, #1
 4566 0306 FFF7FEFF 		bl	CRYP_Cmd
 4567              	.LVL669:
1340:Libraries/STM32F4xx_StdPeriph_Driver/src/stm32f4xx_cryp_aes.c ****       {
 4568              		.loc 1 1340 7 view .LVU1794
1340:Libraries/STM32F4xx_StdPeriph_Driver/src/stm32f4xx_cryp_aes.c ****       {
 4569              		.loc 1 1340 10 is_stmt 0 view .LVU1795
 4570 030a FFF7FEFF 		bl	CRYP_GetCmdStatus
 4571              	.LVL670:
1340:Libraries/STM32F4xx_StdPeriph_Driver/src/stm32f4xx_cryp_aes.c ****       {
 4572              		.loc 1 1340 9 view .LVU1796
 4573 030e 0746     		mov	r7, r0
 4574 0310 0028     		cmp	r0, #0
 4575 0312 00F04981 		beq	.L126
1347:Libraries/STM32F4xx_StdPeriph_Driver/src/stm32f4xx_cryp_aes.c ****       {
 4576              		.loc 1 1347 23 view .LVU1797
 4577 0316 0027     		movs	r7, #0
 4578 0318 12E0     		b	.L127
 4579              	.LVL671:
 4580              	.L128:
1352:Libraries/STM32F4xx_StdPeriph_Driver/src/stm32f4xx_cryp_aes.c ****         
 4581              		.loc 1 1352 9 is_stmt 1 discriminator 1 view .LVU1798
1350:Libraries/STM32F4xx_StdPeriph_Driver/src/stm32f4xx_cryp_aes.c ****         {
 4582              		.loc 1 1350 14 discriminator 1 view .LVU1799
1350:Libraries/STM32F4xx_StdPeriph_Driver/src/stm32f4xx_cryp_aes.c ****         {
 4583              		.loc 1 1350 15 is_stmt 0 discriminator 1 view .LVU1800
ARM GAS  /tmp/ccklj7FS.s 			page 134


 4584 031a 0120     		movs	r0, #1
 4585 031c FFF7FEFF 		bl	CRYP_GetFlagStatus
 4586              	.LVL672:
1350:Libraries/STM32F4xx_StdPeriph_Driver/src/stm32f4xx_cryp_aes.c ****         {
 4587              		.loc 1 1350 14 discriminator 1 view .LVU1801
 4588 0320 0028     		cmp	r0, #0
 4589 0322 FAD0     		beq	.L128
1355:Libraries/STM32F4xx_StdPeriph_Driver/src/stm32f4xx_cryp_aes.c ****         headeraddr+=4;
 4590              		.loc 1 1355 9 is_stmt 1 discriminator 2 view .LVU1802
 4591 0324 3068     		ldr	r0, [r6]
 4592 0326 FFF7FEFF 		bl	CRYP_DataIn
 4593              	.LVL673:
1356:Libraries/STM32F4xx_StdPeriph_Driver/src/stm32f4xx_cryp_aes.c ****         CRYP_DataIn(*(uint32_t*)(headeraddr));
 4594              		.loc 1 1356 9 discriminator 2 view .LVU1803
1357:Libraries/STM32F4xx_StdPeriph_Driver/src/stm32f4xx_cryp_aes.c ****         headeraddr+=4;
 4595              		.loc 1 1357 9 discriminator 2 view .LVU1804
 4596 032a 7068     		ldr	r0, [r6, #4]
 4597 032c FFF7FEFF 		bl	CRYP_DataIn
 4598              	.LVL674:
1358:Libraries/STM32F4xx_StdPeriph_Driver/src/stm32f4xx_cryp_aes.c ****         CRYP_DataIn(*(uint32_t*)(headeraddr));
 4599              		.loc 1 1358 9 discriminator 2 view .LVU1805
1359:Libraries/STM32F4xx_StdPeriph_Driver/src/stm32f4xx_cryp_aes.c ****         headeraddr+=4;
 4600              		.loc 1 1359 9 discriminator 2 view .LVU1806
 4601 0330 B068     		ldr	r0, [r6, #8]
 4602 0332 FFF7FEFF 		bl	CRYP_DataIn
 4603              	.LVL675:
1360:Libraries/STM32F4xx_StdPeriph_Driver/src/stm32f4xx_cryp_aes.c ****         CRYP_DataIn(*(uint32_t*)(headeraddr));
 4604              		.loc 1 1360 9 discriminator 2 view .LVU1807
1361:Libraries/STM32F4xx_StdPeriph_Driver/src/stm32f4xx_cryp_aes.c ****         headeraddr+=4;
 4605              		.loc 1 1361 9 discriminator 2 view .LVU1808
 4606 0336 F068     		ldr	r0, [r6, #12]
 4607 0338 FFF7FEFF 		bl	CRYP_DataIn
 4608              	.LVL676:
1362:Libraries/STM32F4xx_StdPeriph_Driver/src/stm32f4xx_cryp_aes.c ****       }
 4609              		.loc 1 1362 9 discriminator 2 view .LVU1809
1362:Libraries/STM32F4xx_StdPeriph_Driver/src/stm32f4xx_cryp_aes.c ****       }
 4610              		.loc 1 1362 19 is_stmt 0 discriminator 2 view .LVU1810
 4611 033c 1036     		adds	r6, r6, #16
 4612              	.LVL677:
1347:Libraries/STM32F4xx_StdPeriph_Driver/src/stm32f4xx_cryp_aes.c ****       {
 4613              		.loc 1 1347 56 is_stmt 1 discriminator 2 view .LVU1811
1347:Libraries/STM32F4xx_StdPeriph_Driver/src/stm32f4xx_cryp_aes.c ****       {
 4614              		.loc 1 1347 67 is_stmt 0 discriminator 2 view .LVU1812
 4615 033e 1037     		adds	r7, r7, #16
 4616              	.LVL678:
 4617              	.L127:
1347:Libraries/STM32F4xx_StdPeriph_Driver/src/stm32f4xx_cryp_aes.c ****       {
 4618              		.loc 1 1347 28 is_stmt 1 discriminator 1 view .LVU1813
1347:Libraries/STM32F4xx_StdPeriph_Driver/src/stm32f4xx_cryp_aes.c ****       {
 4619              		.loc 1 1347 7 is_stmt 0 discriminator 1 view .LVU1814
 4620 0340 BC42     		cmp	r4, r7
 4621 0342 EAD8     		bhi	.L128
1366:Libraries/STM32F4xx_StdPeriph_Driver/src/stm32f4xx_cryp_aes.c ****       do
 4622              		.loc 1 1366 7 is_stmt 1 view .LVU1815
1366:Libraries/STM32F4xx_StdPeriph_Driver/src/stm32f4xx_cryp_aes.c ****       do
 4623              		.loc 1 1366 15 is_stmt 0 view .LVU1816
 4624 0344 0023     		movs	r3, #0
ARM GAS  /tmp/ccklj7FS.s 			page 135


 4625 0346 0F93     		str	r3, [sp, #60]
 4626              	.LVL679:
 4627              	.L130:
1367:Libraries/STM32F4xx_StdPeriph_Driver/src/stm32f4xx_cryp_aes.c ****       {
 4628              		.loc 1 1367 7 is_stmt 1 discriminator 2 view .LVU1817
1369:Libraries/STM32F4xx_StdPeriph_Driver/src/stm32f4xx_cryp_aes.c ****         counter++;
 4629              		.loc 1 1369 9 discriminator 2 view .LVU1818
1369:Libraries/STM32F4xx_StdPeriph_Driver/src/stm32f4xx_cryp_aes.c ****         counter++;
 4630              		.loc 1 1369 22 is_stmt 0 discriminator 2 view .LVU1819
 4631 0348 1020     		movs	r0, #16
 4632 034a FFF7FEFF 		bl	CRYP_GetFlagStatus
 4633              	.LVL680:
1370:Libraries/STM32F4xx_StdPeriph_Driver/src/stm32f4xx_cryp_aes.c ****       }while ((counter != AESBUSY_TIMEOUT) && (busystatus != RESET));
 4634              		.loc 1 1370 9 is_stmt 1 discriminator 2 view .LVU1820
1370:Libraries/STM32F4xx_StdPeriph_Driver/src/stm32f4xx_cryp_aes.c ****       }while ((counter != AESBUSY_TIMEOUT) && (busystatus != RESET));
 4635              		.loc 1 1370 16 is_stmt 0 discriminator 2 view .LVU1821
 4636 034e 0F9B     		ldr	r3, [sp, #60]
 4637 0350 0133     		adds	r3, r3, #1
 4638 0352 0F93     		str	r3, [sp, #60]
1371:Libraries/STM32F4xx_StdPeriph_Driver/src/stm32f4xx_cryp_aes.c **** 
 4639              		.loc 1 1371 14 is_stmt 1 discriminator 2 view .LVU1822
1371:Libraries/STM32F4xx_StdPeriph_Driver/src/stm32f4xx_cryp_aes.c **** 
 4640              		.loc 1 1371 24 is_stmt 0 discriminator 2 view .LVU1823
 4641 0354 0F9B     		ldr	r3, [sp, #60]
1371:Libraries/STM32F4xx_StdPeriph_Driver/src/stm32f4xx_cryp_aes.c **** 
 4642              		.loc 1 1371 7 discriminator 2 view .LVU1824
 4643 0356 B3F5803F 		cmp	r3, #65536
 4644 035a 01D0     		beq	.L129
1371:Libraries/STM32F4xx_StdPeriph_Driver/src/stm32f4xx_cryp_aes.c **** 
 4645              		.loc 1 1371 44 discriminator 1 view .LVU1825
 4646 035c 0028     		cmp	r0, #0
 4647 035e F3D1     		bne	.L130
 4648              	.L129:
1373:Libraries/STM32F4xx_StdPeriph_Driver/src/stm32f4xx_cryp_aes.c ****       {
 4649              		.loc 1 1373 7 is_stmt 1 view .LVU1826
1373:Libraries/STM32F4xx_StdPeriph_Driver/src/stm32f4xx_cryp_aes.c ****       {
 4650              		.loc 1 1373 10 is_stmt 0 view .LVU1827
 4651 0360 0028     		cmp	r0, #0
 4652 0362 B7D0     		beq	.L125
1375:Libraries/STM32F4xx_StdPeriph_Driver/src/stm32f4xx_cryp_aes.c ****       }
 4653              		.loc 1 1375 16 view .LVU1828
 4654 0364 0023     		movs	r3, #0
 4655 0366 0193     		str	r3, [sp, #4]
 4656 0368 B4E7     		b	.L125
 4657              	.LVL681:
 4658              	.L134:
1420:Libraries/STM32F4xx_StdPeriph_Driver/src/stm32f4xx_cryp_aes.c ****         {
 4659              		.loc 1 1420 9 is_stmt 1 view .LVU1829
1420:Libraries/STM32F4xx_StdPeriph_Driver/src/stm32f4xx_cryp_aes.c ****         {
 4660              		.loc 1 1420 12 is_stmt 0 view .LVU1830
 4661 036a 30B3     		cbz	r0, .L137
1422:Libraries/STM32F4xx_StdPeriph_Driver/src/stm32f4xx_cryp_aes.c ****         }
 4662              		.loc 1 1422 18 view .LVU1831
 4663 036c 0026     		movs	r6, #0
 4664              	.LVL682:
 4665              	.L136:
1395:Libraries/STM32F4xx_StdPeriph_Driver/src/stm32f4xx_cryp_aes.c ****       {
ARM GAS  /tmp/ccklj7FS.s 			page 136


 4666              		.loc 1 1395 76 is_stmt 1 discriminator 2 view .LVU1832
1395:Libraries/STM32F4xx_StdPeriph_Driver/src/stm32f4xx_cryp_aes.c ****       {
 4667              		.loc 1 1395 87 is_stmt 0 discriminator 2 view .LVU1833
 4668 036e 1034     		adds	r4, r4, #16
 4669              	.LVL683:
 4670              	.L132:
1395:Libraries/STM32F4xx_StdPeriph_Driver/src/stm32f4xx_cryp_aes.c ****       {
 4671              		.loc 1 1395 28 is_stmt 1 discriminator 1 view .LVU1834
1395:Libraries/STM32F4xx_StdPeriph_Driver/src/stm32f4xx_cryp_aes.c ****       {
 4672              		.loc 1 1395 7 is_stmt 0 discriminator 1 view .LVU1835
 4673 0370 4445     		cmp	r4, r8
 4674 0372 3CD2     		bcs	.L162
1395:Libraries/STM32F4xx_StdPeriph_Driver/src/stm32f4xx_cryp_aes.c ****       {
 4675              		.loc 1 1395 53 discriminator 3 view .LVU1836
 4676 0374 002E     		cmp	r6, #0
 4677 0376 38D0     		beq	.L169
 4678              	.L133:
1400:Libraries/STM32F4xx_StdPeriph_Driver/src/stm32f4xx_cryp_aes.c ****         
 4679              		.loc 1 1400 9 is_stmt 1 discriminator 1 view .LVU1837
1398:Libraries/STM32F4xx_StdPeriph_Driver/src/stm32f4xx_cryp_aes.c ****         {
 4680              		.loc 1 1398 14 discriminator 1 view .LVU1838
1398:Libraries/STM32F4xx_StdPeriph_Driver/src/stm32f4xx_cryp_aes.c ****         {
 4681              		.loc 1 1398 15 is_stmt 0 discriminator 1 view .LVU1839
 4682 0378 0120     		movs	r0, #1
 4683 037a FFF7FEFF 		bl	CRYP_GetFlagStatus
 4684              	.LVL684:
1398:Libraries/STM32F4xx_StdPeriph_Driver/src/stm32f4xx_cryp_aes.c ****         {
 4685              		.loc 1 1398 14 discriminator 1 view .LVU1840
 4686 037e 0028     		cmp	r0, #0
 4687 0380 FAD0     		beq	.L133
1403:Libraries/STM32F4xx_StdPeriph_Driver/src/stm32f4xx_cryp_aes.c ****         inputaddr+=4;
 4688              		.loc 1 1403 9 is_stmt 1 view .LVU1841
 4689 0382 2868     		ldr	r0, [r5]
 4690 0384 FFF7FEFF 		bl	CRYP_DataIn
 4691              	.LVL685:
1404:Libraries/STM32F4xx_StdPeriph_Driver/src/stm32f4xx_cryp_aes.c ****         CRYP_DataIn(*(uint32_t*)(inputaddr));
 4692              		.loc 1 1404 9 view .LVU1842
1405:Libraries/STM32F4xx_StdPeriph_Driver/src/stm32f4xx_cryp_aes.c ****         inputaddr+=4;
 4693              		.loc 1 1405 9 view .LVU1843
 4694 0388 6868     		ldr	r0, [r5, #4]
 4695 038a FFF7FEFF 		bl	CRYP_DataIn
 4696              	.LVL686:
1406:Libraries/STM32F4xx_StdPeriph_Driver/src/stm32f4xx_cryp_aes.c ****         CRYP_DataIn(*(uint32_t*)(inputaddr));
 4697              		.loc 1 1406 9 view .LVU1844
1407:Libraries/STM32F4xx_StdPeriph_Driver/src/stm32f4xx_cryp_aes.c ****         inputaddr+=4;
 4698              		.loc 1 1407 9 view .LVU1845
 4699 038e A868     		ldr	r0, [r5, #8]
 4700 0390 FFF7FEFF 		bl	CRYP_DataIn
 4701              	.LVL687:
1408:Libraries/STM32F4xx_StdPeriph_Driver/src/stm32f4xx_cryp_aes.c ****         CRYP_DataIn(*(uint32_t*)(inputaddr));
 4702              		.loc 1 1408 9 view .LVU1846
1409:Libraries/STM32F4xx_StdPeriph_Driver/src/stm32f4xx_cryp_aes.c ****         inputaddr+=4;
 4703              		.loc 1 1409 9 view .LVU1847
 4704 0394 E868     		ldr	r0, [r5, #12]
 4705 0396 FFF7FEFF 		bl	CRYP_DataIn
 4706              	.LVL688:
1410:Libraries/STM32F4xx_StdPeriph_Driver/src/stm32f4xx_cryp_aes.c ****         
ARM GAS  /tmp/ccklj7FS.s 			page 137


 4707              		.loc 1 1410 9 view .LVU1848
1410:Libraries/STM32F4xx_StdPeriph_Driver/src/stm32f4xx_cryp_aes.c ****         
 4708              		.loc 1 1410 18 is_stmt 0 view .LVU1849
 4709 039a 1035     		adds	r5, r5, #16
 4710              	.LVL689:
1413:Libraries/STM32F4xx_StdPeriph_Driver/src/stm32f4xx_cryp_aes.c ****         do
 4711              		.loc 1 1413 9 is_stmt 1 view .LVU1850
1413:Libraries/STM32F4xx_StdPeriph_Driver/src/stm32f4xx_cryp_aes.c ****         do
 4712              		.loc 1 1413 17 is_stmt 0 view .LVU1851
 4713 039c 0023     		movs	r3, #0
 4714 039e 0F93     		str	r3, [sp, #60]
 4715              	.L135:
1414:Libraries/STM32F4xx_StdPeriph_Driver/src/stm32f4xx_cryp_aes.c ****         {
 4716              		.loc 1 1414 9 is_stmt 1 discriminator 2 view .LVU1852
1416:Libraries/STM32F4xx_StdPeriph_Driver/src/stm32f4xx_cryp_aes.c ****           counter++;
 4717              		.loc 1 1416 11 discriminator 2 view .LVU1853
1416:Libraries/STM32F4xx_StdPeriph_Driver/src/stm32f4xx_cryp_aes.c ****           counter++;
 4718              		.loc 1 1416 24 is_stmt 0 discriminator 2 view .LVU1854
 4719 03a0 1020     		movs	r0, #16
 4720 03a2 FFF7FEFF 		bl	CRYP_GetFlagStatus
 4721              	.LVL690:
1417:Libraries/STM32F4xx_StdPeriph_Driver/src/stm32f4xx_cryp_aes.c ****         }while ((counter != AESBUSY_TIMEOUT) && (busystatus != RESET));
 4722              		.loc 1 1417 11 is_stmt 1 discriminator 2 view .LVU1855
1417:Libraries/STM32F4xx_StdPeriph_Driver/src/stm32f4xx_cryp_aes.c ****         }while ((counter != AESBUSY_TIMEOUT) && (busystatus != RESET));
 4723              		.loc 1 1417 18 is_stmt 0 discriminator 2 view .LVU1856
 4724 03a6 0F9B     		ldr	r3, [sp, #60]
 4725 03a8 0133     		adds	r3, r3, #1
 4726 03aa 0F93     		str	r3, [sp, #60]
1418:Libraries/STM32F4xx_StdPeriph_Driver/src/stm32f4xx_cryp_aes.c **** 
 4727              		.loc 1 1418 16 is_stmt 1 discriminator 2 view .LVU1857
1418:Libraries/STM32F4xx_StdPeriph_Driver/src/stm32f4xx_cryp_aes.c **** 
 4728              		.loc 1 1418 26 is_stmt 0 discriminator 2 view .LVU1858
 4729 03ac 0F9B     		ldr	r3, [sp, #60]
1418:Libraries/STM32F4xx_StdPeriph_Driver/src/stm32f4xx_cryp_aes.c **** 
 4730              		.loc 1 1418 9 discriminator 2 view .LVU1859
 4731 03ae B3F5803F 		cmp	r3, #65536
 4732 03b2 DAD0     		beq	.L134
1418:Libraries/STM32F4xx_StdPeriph_Driver/src/stm32f4xx_cryp_aes.c **** 
 4733              		.loc 1 1418 46 discriminator 1 view .LVU1860
 4734 03b4 0028     		cmp	r0, #0
 4735 03b6 F3D1     		bne	.L135
 4736 03b8 D7E7     		b	.L134
 4737              	.LVL691:
 4738              	.L137:
1429:Libraries/STM32F4xx_StdPeriph_Driver/src/stm32f4xx_cryp_aes.c ****           
 4739              		.loc 1 1429 11 is_stmt 1 discriminator 1 view .LVU1861
1427:Libraries/STM32F4xx_StdPeriph_Driver/src/stm32f4xx_cryp_aes.c ****           {
 4740              		.loc 1 1427 16 discriminator 1 view .LVU1862
1427:Libraries/STM32F4xx_StdPeriph_Driver/src/stm32f4xx_cryp_aes.c ****           {
 4741              		.loc 1 1427 17 is_stmt 0 discriminator 1 view .LVU1863
 4742 03ba 0420     		movs	r0, #4
 4743 03bc FFF7FEFF 		bl	CRYP_GetFlagStatus
 4744              	.LVL692:
1427:Libraries/STM32F4xx_StdPeriph_Driver/src/stm32f4xx_cryp_aes.c ****           {
 4745              		.loc 1 1427 16 discriminator 1 view .LVU1864
 4746 03c0 0028     		cmp	r0, #0
 4747 03c2 FAD0     		beq	.L137
ARM GAS  /tmp/ccklj7FS.s 			page 138


1432:Libraries/STM32F4xx_StdPeriph_Driver/src/stm32f4xx_cryp_aes.c ****           outputaddr+=4;
 4748              		.loc 1 1432 11 is_stmt 1 view .LVU1865
1432:Libraries/STM32F4xx_StdPeriph_Driver/src/stm32f4xx_cryp_aes.c ****           outputaddr+=4;
 4749              		.loc 1 1432 38 is_stmt 0 view .LVU1866
 4750 03c4 FFF7FEFF 		bl	CRYP_DataOut
 4751              	.LVL693:
1432:Libraries/STM32F4xx_StdPeriph_Driver/src/stm32f4xx_cryp_aes.c ****           outputaddr+=4;
 4752              		.loc 1 1432 36 view .LVU1867
 4753 03c8 CAF80000 		str	r0, [r10]
1433:Libraries/STM32F4xx_StdPeriph_Driver/src/stm32f4xx_cryp_aes.c ****           *(uint32_t*)(outputaddr) = CRYP_DataOut();
 4754              		.loc 1 1433 11 is_stmt 1 view .LVU1868
 4755              	.LVL694:
1434:Libraries/STM32F4xx_StdPeriph_Driver/src/stm32f4xx_cryp_aes.c ****           outputaddr+=4;
 4756              		.loc 1 1434 11 view .LVU1869
1434:Libraries/STM32F4xx_StdPeriph_Driver/src/stm32f4xx_cryp_aes.c ****           outputaddr+=4;
 4757              		.loc 1 1434 38 is_stmt 0 view .LVU1870
 4758 03cc FFF7FEFF 		bl	CRYP_DataOut
 4759              	.LVL695:
1434:Libraries/STM32F4xx_StdPeriph_Driver/src/stm32f4xx_cryp_aes.c ****           outputaddr+=4;
 4760              		.loc 1 1434 36 view .LVU1871
 4761 03d0 CAF80400 		str	r0, [r10, #4]
1435:Libraries/STM32F4xx_StdPeriph_Driver/src/stm32f4xx_cryp_aes.c ****           *(uint32_t*)(outputaddr) = CRYP_DataOut();
 4762              		.loc 1 1435 11 is_stmt 1 view .LVU1872
 4763              	.LVL696:
1436:Libraries/STM32F4xx_StdPeriph_Driver/src/stm32f4xx_cryp_aes.c ****           outputaddr+=4;
 4764              		.loc 1 1436 11 view .LVU1873
1436:Libraries/STM32F4xx_StdPeriph_Driver/src/stm32f4xx_cryp_aes.c ****           outputaddr+=4;
 4765              		.loc 1 1436 38 is_stmt 0 view .LVU1874
 4766 03d4 FFF7FEFF 		bl	CRYP_DataOut
 4767              	.LVL697:
1436:Libraries/STM32F4xx_StdPeriph_Driver/src/stm32f4xx_cryp_aes.c ****           outputaddr+=4;
 4768              		.loc 1 1436 36 view .LVU1875
 4769 03d8 CAF80800 		str	r0, [r10, #8]
1437:Libraries/STM32F4xx_StdPeriph_Driver/src/stm32f4xx_cryp_aes.c ****           *(uint32_t*)(outputaddr) = CRYP_DataOut();
 4770              		.loc 1 1437 11 is_stmt 1 view .LVU1876
 4771              	.LVL698:
1438:Libraries/STM32F4xx_StdPeriph_Driver/src/stm32f4xx_cryp_aes.c ****           outputaddr+=4;
 4772              		.loc 1 1438 11 view .LVU1877
1438:Libraries/STM32F4xx_StdPeriph_Driver/src/stm32f4xx_cryp_aes.c ****           outputaddr+=4;
 4773              		.loc 1 1438 38 is_stmt 0 view .LVU1878
 4774 03dc FFF7FEFF 		bl	CRYP_DataOut
 4775              	.LVL699:
1438:Libraries/STM32F4xx_StdPeriph_Driver/src/stm32f4xx_cryp_aes.c ****           outputaddr+=4;
 4776              		.loc 1 1438 36 view .LVU1879
 4777 03e0 CAF80C00 		str	r0, [r10, #12]
1439:Libraries/STM32F4xx_StdPeriph_Driver/src/stm32f4xx_cryp_aes.c ****         }
 4778              		.loc 1 1439 11 is_stmt 1 view .LVU1880
1439:Libraries/STM32F4xx_StdPeriph_Driver/src/stm32f4xx_cryp_aes.c ****         }
 4779              		.loc 1 1439 21 is_stmt 0 view .LVU1881
 4780 03e4 0AF1100A 		add	r10, r10, #16
 4781              	.LVL700:
1439:Libraries/STM32F4xx_StdPeriph_Driver/src/stm32f4xx_cryp_aes.c ****         }
 4782              		.loc 1 1439 21 view .LVU1882
 4783 03e8 C1E7     		b	.L136
 4784              	.L169:
1439:Libraries/STM32F4xx_StdPeriph_Driver/src/stm32f4xx_cryp_aes.c ****         }
 4785              		.loc 1 1439 21 view .LVU1883
ARM GAS  /tmp/ccklj7FS.s 			page 139


 4786 03ea 0196     		str	r6, [sp, #4]
 4787 03ec 00E0     		b	.L131
 4788              	.L162:
 4789 03ee 0196     		str	r6, [sp, #4]
 4790              	.LVL701:
 4791              	.L131:
1446:Libraries/STM32F4xx_StdPeriph_Driver/src/stm32f4xx_cryp_aes.c ****     
 4792              		.loc 1 1446 5 is_stmt 1 view .LVU1884
 4793 03f0 4FF44030 		mov	r0, #196608
 4794 03f4 FFF7FEFF 		bl	CRYP_PhaseConfig
 4795              	.LVL702:
1449:Libraries/STM32F4xx_StdPeriph_Driver/src/stm32f4xx_cryp_aes.c ****     
 4796              		.loc 1 1449 5 view .LVU1885
 4797 03f8 0120     		movs	r0, #1
 4798 03fa FFF7FEFF 		bl	CRYP_Cmd
 4799              	.LVL703:
1451:Libraries/STM32F4xx_StdPeriph_Driver/src/stm32f4xx_cryp_aes.c ****     {
 4800              		.loc 1 1451 5 view .LVU1886
1451:Libraries/STM32F4xx_StdPeriph_Driver/src/stm32f4xx_cryp_aes.c ****     {
 4801              		.loc 1 1451 8 is_stmt 0 view .LVU1887
 4802 03fe FFF7FEFF 		bl	CRYP_GetCmdStatus
 4803              	.LVL704:
1451:Libraries/STM32F4xx_StdPeriph_Driver/src/stm32f4xx_cryp_aes.c ****     {
 4804              		.loc 1 1451 7 view .LVU1888
 4805 0402 0746     		mov	r7, r0
 4806 0404 0028     		cmp	r0, #0
 4807 0406 00F0CF80 		beq	.L126
1458:Libraries/STM32F4xx_StdPeriph_Driver/src/stm32f4xx_cryp_aes.c ****     /* Write the counter block in the IN FIFO */
 4808              		.loc 1 1458 5 is_stmt 1 view .LVU1889
 4809              	.LVL705:
1460:Libraries/STM32F4xx_StdPeriph_Driver/src/stm32f4xx_cryp_aes.c ****     ctraddr+=4;
 4810              		.loc 1 1460 5 view .LVU1890
 4811 040a 0798     		ldr	r0, [sp, #28]
 4812 040c FFF7FEFF 		bl	CRYP_DataIn
 4813              	.LVL706:
1461:Libraries/STM32F4xx_StdPeriph_Driver/src/stm32f4xx_cryp_aes.c ****     CRYP_DataIn(*(uint32_t*)(ctraddr));
 4814              		.loc 1 1461 5 view .LVU1891
1462:Libraries/STM32F4xx_StdPeriph_Driver/src/stm32f4xx_cryp_aes.c ****     ctraddr+=4;
 4815              		.loc 1 1462 5 view .LVU1892
 4816 0410 0898     		ldr	r0, [sp, #32]
 4817 0412 FFF7FEFF 		bl	CRYP_DataIn
 4818              	.LVL707:
1463:Libraries/STM32F4xx_StdPeriph_Driver/src/stm32f4xx_cryp_aes.c ****     CRYP_DataIn(*(uint32_t*)(ctraddr));
 4819              		.loc 1 1463 5 view .LVU1893
1464:Libraries/STM32F4xx_StdPeriph_Driver/src/stm32f4xx_cryp_aes.c ****     ctraddr+=4;
 4820              		.loc 1 1464 5 view .LVU1894
 4821 0416 0998     		ldr	r0, [sp, #36]
 4822 0418 FFF7FEFF 		bl	CRYP_DataIn
 4823              	.LVL708:
1465:Libraries/STM32F4xx_StdPeriph_Driver/src/stm32f4xx_cryp_aes.c ****     /* Reset bit 0 (after 8-bit swap) is equivalent to reset bit 24 (before 8-bit swap) */
 4824              		.loc 1 1465 5 view .LVU1895
1467:Libraries/STM32F4xx_StdPeriph_Driver/src/stm32f4xx_cryp_aes.c ****     
 4825              		.loc 1 1467 5 view .LVU1896
1467:Libraries/STM32F4xx_StdPeriph_Driver/src/stm32f4xx_cryp_aes.c ****     
 4826              		.loc 1 1467 17 is_stmt 0 view .LVU1897
 4827 041c 0A98     		ldr	r0, [sp, #40]
1467:Libraries/STM32F4xx_StdPeriph_Driver/src/stm32f4xx_cryp_aes.c ****     
ARM GAS  /tmp/ccklj7FS.s 			page 140


 4828              		.loc 1 1467 5 view .LVU1898
 4829 041e 20F08070 		bic	r0, r0, #16777216
 4830 0422 FFF7FEFF 		bl	CRYP_DataIn
 4831              	.LVL709:
1470:Libraries/STM32F4xx_StdPeriph_Driver/src/stm32f4xx_cryp_aes.c ****     {
 4832              		.loc 1 1470 5 is_stmt 1 view .LVU1899
 4833              	.L138:
1472:Libraries/STM32F4xx_StdPeriph_Driver/src/stm32f4xx_cryp_aes.c ****     
 4834              		.loc 1 1472 5 discriminator 1 view .LVU1900
1470:Libraries/STM32F4xx_StdPeriph_Driver/src/stm32f4xx_cryp_aes.c ****     {
 4835              		.loc 1 1470 10 discriminator 1 view .LVU1901
1470:Libraries/STM32F4xx_StdPeriph_Driver/src/stm32f4xx_cryp_aes.c ****     {
 4836              		.loc 1 1470 11 is_stmt 0 discriminator 1 view .LVU1902
 4837 0426 0420     		movs	r0, #4
 4838 0428 FFF7FEFF 		bl	CRYP_GetFlagStatus
 4839              	.LVL710:
1470:Libraries/STM32F4xx_StdPeriph_Driver/src/stm32f4xx_cryp_aes.c ****     {
 4840              		.loc 1 1470 10 discriminator 1 view .LVU1903
 4841 042c 0028     		cmp	r0, #0
 4842 042e FAD0     		beq	.L138
1475:Libraries/STM32F4xx_StdPeriph_Driver/src/stm32f4xx_cryp_aes.c ****     temptag[1] = CRYP_DataOut();
 4843              		.loc 1 1475 5 is_stmt 1 view .LVU1904
1475:Libraries/STM32F4xx_StdPeriph_Driver/src/stm32f4xx_cryp_aes.c ****     temptag[1] = CRYP_DataOut();
 4844              		.loc 1 1475 18 is_stmt 0 view .LVU1905
 4845 0430 FFF7FEFF 		bl	CRYP_DataOut
 4846              	.LVL711:
1475:Libraries/STM32F4xx_StdPeriph_Driver/src/stm32f4xx_cryp_aes.c ****     temptag[1] = CRYP_DataOut();
 4847              		.loc 1 1475 16 view .LVU1906
 4848 0434 0390     		str	r0, [sp, #12]
1476:Libraries/STM32F4xx_StdPeriph_Driver/src/stm32f4xx_cryp_aes.c ****     temptag[2] = CRYP_DataOut();
 4849              		.loc 1 1476 5 is_stmt 1 view .LVU1907
1476:Libraries/STM32F4xx_StdPeriph_Driver/src/stm32f4xx_cryp_aes.c ****     temptag[2] = CRYP_DataOut();
 4850              		.loc 1 1476 18 is_stmt 0 view .LVU1908
 4851 0436 FFF7FEFF 		bl	CRYP_DataOut
 4852              	.LVL712:
1476:Libraries/STM32F4xx_StdPeriph_Driver/src/stm32f4xx_cryp_aes.c ****     temptag[2] = CRYP_DataOut();
 4853              		.loc 1 1476 16 view .LVU1909
 4854 043a 0490     		str	r0, [sp, #16]
1477:Libraries/STM32F4xx_StdPeriph_Driver/src/stm32f4xx_cryp_aes.c ****     temptag[3] = CRYP_DataOut();
 4855              		.loc 1 1477 5 is_stmt 1 view .LVU1910
1477:Libraries/STM32F4xx_StdPeriph_Driver/src/stm32f4xx_cryp_aes.c ****     temptag[3] = CRYP_DataOut();
 4856              		.loc 1 1477 18 is_stmt 0 view .LVU1911
 4857 043c FFF7FEFF 		bl	CRYP_DataOut
 4858              	.LVL713:
1477:Libraries/STM32F4xx_StdPeriph_Driver/src/stm32f4xx_cryp_aes.c ****     temptag[3] = CRYP_DataOut();
 4859              		.loc 1 1477 16 view .LVU1912
 4860 0440 0590     		str	r0, [sp, #20]
1478:Libraries/STM32F4xx_StdPeriph_Driver/src/stm32f4xx_cryp_aes.c ****   }
 4861              		.loc 1 1478 5 is_stmt 1 view .LVU1913
1478:Libraries/STM32F4xx_StdPeriph_Driver/src/stm32f4xx_cryp_aes.c ****   }
 4862              		.loc 1 1478 18 is_stmt 0 view .LVU1914
 4863 0442 FFF7FEFF 		bl	CRYP_DataOut
 4864              	.LVL714:
1478:Libraries/STM32F4xx_StdPeriph_Driver/src/stm32f4xx_cryp_aes.c ****   }
 4865              		.loc 1 1478 16 view .LVU1915
 4866 0446 0690     		str	r0, [sp, #24]
 4867 0448 019F     		ldr	r7, [sp, #4]
ARM GAS  /tmp/ccklj7FS.s 			page 141


 4868 044a A1E0     		b	.L139
 4869              	.LVL715:
 4870              	.L167:
1524:Libraries/STM32F4xx_StdPeriph_Driver/src/stm32f4xx_cryp_aes.c ****       
 4871              		.loc 1 1524 7 is_stmt 1 view .LVU1916
 4872 044c 4FF48030 		mov	r0, #65536
 4873 0450 FFF7FEFF 		bl	CRYP_PhaseConfig
 4874              	.LVL716:
1527:Libraries/STM32F4xx_StdPeriph_Driver/src/stm32f4xx_cryp_aes.c ****       
 4875              		.loc 1 1527 7 view .LVU1917
 4876 0454 0120     		movs	r0, #1
 4877 0456 FFF7FEFF 		bl	CRYP_Cmd
 4878              	.LVL717:
1529:Libraries/STM32F4xx_StdPeriph_Driver/src/stm32f4xx_cryp_aes.c ****       {
 4879              		.loc 1 1529 7 view .LVU1918
1529:Libraries/STM32F4xx_StdPeriph_Driver/src/stm32f4xx_cryp_aes.c ****       {
 4880              		.loc 1 1529 10 is_stmt 0 view .LVU1919
 4881 045a FFF7FEFF 		bl	CRYP_GetCmdStatus
 4882              	.LVL718:
1529:Libraries/STM32F4xx_StdPeriph_Driver/src/stm32f4xx_cryp_aes.c ****       {
 4883              		.loc 1 1529 9 view .LVU1920
 4884 045e 0746     		mov	r7, r0
 4885              	.LVL719:
1529:Libraries/STM32F4xx_StdPeriph_Driver/src/stm32f4xx_cryp_aes.c ****       {
 4886              		.loc 1 1529 9 view .LVU1921
 4887 0460 0028     		cmp	r0, #0
 4888 0462 00F0A180 		beq	.L126
1536:Libraries/STM32F4xx_StdPeriph_Driver/src/stm32f4xx_cryp_aes.c ****       {
 4889              		.loc 1 1536 23 view .LVU1922
 4890 0466 0027     		movs	r7, #0
 4891 0468 12E0     		b	.L142
 4892              	.LVL720:
 4893              	.L143:
1541:Libraries/STM32F4xx_StdPeriph_Driver/src/stm32f4xx_cryp_aes.c ****         
 4894              		.loc 1 1541 9 is_stmt 1 discriminator 1 view .LVU1923
1539:Libraries/STM32F4xx_StdPeriph_Driver/src/stm32f4xx_cryp_aes.c ****         {
 4895              		.loc 1 1539 14 discriminator 1 view .LVU1924
1539:Libraries/STM32F4xx_StdPeriph_Driver/src/stm32f4xx_cryp_aes.c ****         {
 4896              		.loc 1 1539 15 is_stmt 0 discriminator 1 view .LVU1925
 4897 046a 0120     		movs	r0, #1
 4898 046c FFF7FEFF 		bl	CRYP_GetFlagStatus
 4899              	.LVL721:
1539:Libraries/STM32F4xx_StdPeriph_Driver/src/stm32f4xx_cryp_aes.c ****         {
 4900              		.loc 1 1539 14 discriminator 1 view .LVU1926
 4901 0470 0028     		cmp	r0, #0
 4902 0472 FAD0     		beq	.L143
1544:Libraries/STM32F4xx_StdPeriph_Driver/src/stm32f4xx_cryp_aes.c ****         headeraddr+=4;
 4903              		.loc 1 1544 9 is_stmt 1 discriminator 2 view .LVU1927
 4904 0474 3068     		ldr	r0, [r6]
 4905 0476 FFF7FEFF 		bl	CRYP_DataIn
 4906              	.LVL722:
1545:Libraries/STM32F4xx_StdPeriph_Driver/src/stm32f4xx_cryp_aes.c ****         CRYP_DataIn(*(uint32_t*)(headeraddr));
 4907              		.loc 1 1545 9 discriminator 2 view .LVU1928
1546:Libraries/STM32F4xx_StdPeriph_Driver/src/stm32f4xx_cryp_aes.c ****         headeraddr+=4;
 4908              		.loc 1 1546 9 discriminator 2 view .LVU1929
 4909 047a 7068     		ldr	r0, [r6, #4]
 4910 047c FFF7FEFF 		bl	CRYP_DataIn
ARM GAS  /tmp/ccklj7FS.s 			page 142


 4911              	.LVL723:
1547:Libraries/STM32F4xx_StdPeriph_Driver/src/stm32f4xx_cryp_aes.c ****         CRYP_DataIn(*(uint32_t*)(headeraddr));
 4912              		.loc 1 1547 9 discriminator 2 view .LVU1930
1548:Libraries/STM32F4xx_StdPeriph_Driver/src/stm32f4xx_cryp_aes.c ****         headeraddr+=4;
 4913              		.loc 1 1548 9 discriminator 2 view .LVU1931
 4914 0480 B068     		ldr	r0, [r6, #8]
 4915 0482 FFF7FEFF 		bl	CRYP_DataIn
 4916              	.LVL724:
1549:Libraries/STM32F4xx_StdPeriph_Driver/src/stm32f4xx_cryp_aes.c ****         CRYP_DataIn(*(uint32_t*)(headeraddr));
 4917              		.loc 1 1549 9 discriminator 2 view .LVU1932
1550:Libraries/STM32F4xx_StdPeriph_Driver/src/stm32f4xx_cryp_aes.c ****         headeraddr+=4;
 4918              		.loc 1 1550 9 discriminator 2 view .LVU1933
 4919 0486 F068     		ldr	r0, [r6, #12]
 4920 0488 FFF7FEFF 		bl	CRYP_DataIn
 4921              	.LVL725:
1551:Libraries/STM32F4xx_StdPeriph_Driver/src/stm32f4xx_cryp_aes.c ****       }
 4922              		.loc 1 1551 9 discriminator 2 view .LVU1934
1551:Libraries/STM32F4xx_StdPeriph_Driver/src/stm32f4xx_cryp_aes.c ****       }
 4923              		.loc 1 1551 19 is_stmt 0 discriminator 2 view .LVU1935
 4924 048c 1036     		adds	r6, r6, #16
 4925              	.LVL726:
1536:Libraries/STM32F4xx_StdPeriph_Driver/src/stm32f4xx_cryp_aes.c ****       {
 4926              		.loc 1 1536 56 is_stmt 1 discriminator 2 view .LVU1936
1536:Libraries/STM32F4xx_StdPeriph_Driver/src/stm32f4xx_cryp_aes.c ****       {
 4927              		.loc 1 1536 67 is_stmt 0 discriminator 2 view .LVU1937
 4928 048e 1037     		adds	r7, r7, #16
 4929              	.LVL727:
 4930              	.L142:
1536:Libraries/STM32F4xx_StdPeriph_Driver/src/stm32f4xx_cryp_aes.c ****       {
 4931              		.loc 1 1536 28 is_stmt 1 discriminator 1 view .LVU1938
1536:Libraries/STM32F4xx_StdPeriph_Driver/src/stm32f4xx_cryp_aes.c ****       {
 4932              		.loc 1 1536 7 is_stmt 0 discriminator 1 view .LVU1939
 4933 0490 BC42     		cmp	r4, r7
 4934 0492 EAD8     		bhi	.L143
1555:Libraries/STM32F4xx_StdPeriph_Driver/src/stm32f4xx_cryp_aes.c ****       do
 4935              		.loc 1 1555 7 is_stmt 1 view .LVU1940
1555:Libraries/STM32F4xx_StdPeriph_Driver/src/stm32f4xx_cryp_aes.c ****       do
 4936              		.loc 1 1555 15 is_stmt 0 view .LVU1941
 4937 0494 0023     		movs	r3, #0
 4938 0496 0F93     		str	r3, [sp, #60]
 4939              	.LVL728:
 4940              	.L145:
1556:Libraries/STM32F4xx_StdPeriph_Driver/src/stm32f4xx_cryp_aes.c ****       {
 4941              		.loc 1 1556 7 is_stmt 1 discriminator 2 view .LVU1942
1558:Libraries/STM32F4xx_StdPeriph_Driver/src/stm32f4xx_cryp_aes.c ****         counter++;
 4942              		.loc 1 1558 9 discriminator 2 view .LVU1943
1558:Libraries/STM32F4xx_StdPeriph_Driver/src/stm32f4xx_cryp_aes.c ****         counter++;
 4943              		.loc 1 1558 22 is_stmt 0 discriminator 2 view .LVU1944
 4944 0498 1020     		movs	r0, #16
 4945 049a FFF7FEFF 		bl	CRYP_GetFlagStatus
 4946              	.LVL729:
1559:Libraries/STM32F4xx_StdPeriph_Driver/src/stm32f4xx_cryp_aes.c ****       }while ((counter != AESBUSY_TIMEOUT) && (busystatus != RESET));
 4947              		.loc 1 1559 9 is_stmt 1 discriminator 2 view .LVU1945
1559:Libraries/STM32F4xx_StdPeriph_Driver/src/stm32f4xx_cryp_aes.c ****       }while ((counter != AESBUSY_TIMEOUT) && (busystatus != RESET));
 4948              		.loc 1 1559 16 is_stmt 0 discriminator 2 view .LVU1946
 4949 049e 0F9B     		ldr	r3, [sp, #60]
 4950 04a0 0133     		adds	r3, r3, #1
ARM GAS  /tmp/ccklj7FS.s 			page 143


 4951 04a2 0F93     		str	r3, [sp, #60]
1560:Libraries/STM32F4xx_StdPeriph_Driver/src/stm32f4xx_cryp_aes.c **** 
 4952              		.loc 1 1560 14 is_stmt 1 discriminator 2 view .LVU1947
1560:Libraries/STM32F4xx_StdPeriph_Driver/src/stm32f4xx_cryp_aes.c **** 
 4953              		.loc 1 1560 24 is_stmt 0 discriminator 2 view .LVU1948
 4954 04a4 0F9B     		ldr	r3, [sp, #60]
1560:Libraries/STM32F4xx_StdPeriph_Driver/src/stm32f4xx_cryp_aes.c **** 
 4955              		.loc 1 1560 7 discriminator 2 view .LVU1949
 4956 04a6 B3F5803F 		cmp	r3, #65536
 4957 04aa 01D0     		beq	.L144
1560:Libraries/STM32F4xx_StdPeriph_Driver/src/stm32f4xx_cryp_aes.c **** 
 4958              		.loc 1 1560 44 discriminator 1 view .LVU1950
 4959 04ac 0028     		cmp	r0, #0
 4960 04ae F3D1     		bne	.L145
 4961              	.L144:
1562:Libraries/STM32F4xx_StdPeriph_Driver/src/stm32f4xx_cryp_aes.c ****       {
 4962              		.loc 1 1562 7 is_stmt 1 view .LVU1951
1562:Libraries/STM32F4xx_StdPeriph_Driver/src/stm32f4xx_cryp_aes.c ****       {
 4963              		.loc 1 1562 10 is_stmt 0 view .LVU1952
 4964 04b0 08B9     		cbnz	r0, .L160
1141:Libraries/STM32F4xx_StdPeriph_Driver/src/stm32f4xx_cryp_aes.c ****   uint32_t keyaddr    = (uint32_t)Key;
 4965              		.loc 1 1141 15 view .LVU1953
 4966 04b2 0124     		movs	r4, #1
 4967              	.LVL730:
1141:Libraries/STM32F4xx_StdPeriph_Driver/src/stm32f4xx_cryp_aes.c ****   uint32_t keyaddr    = (uint32_t)Key;
 4968              		.loc 1 1141 15 view .LVU1954
 4969 04b4 91E6     		b	.L141
 4970              	.LVL731:
 4971              	.L160:
1564:Libraries/STM32F4xx_StdPeriph_Driver/src/stm32f4xx_cryp_aes.c ****       }
 4972              		.loc 1 1564 16 view .LVU1955
 4973 04b6 0024     		movs	r4, #0
 4974              	.LVL732:
1564:Libraries/STM32F4xx_StdPeriph_Driver/src/stm32f4xx_cryp_aes.c ****       }
 4975              		.loc 1 1564 16 view .LVU1956
 4976 04b8 8FE6     		b	.L141
 4977              	.LVL733:
 4978              	.L149:
1585:Libraries/STM32F4xx_StdPeriph_Driver/src/stm32f4xx_cryp_aes.c ****       {
1586:Libraries/STM32F4xx_StdPeriph_Driver/src/stm32f4xx_cryp_aes.c ****         /* Wait until the IFEM flag is reset */
1587:Libraries/STM32F4xx_StdPeriph_Driver/src/stm32f4xx_cryp_aes.c ****         while(CRYP_GetFlagStatus(CRYP_FLAG_IFEM) == RESET)
1588:Libraries/STM32F4xx_StdPeriph_Driver/src/stm32f4xx_cryp_aes.c ****         {
1589:Libraries/STM32F4xx_StdPeriph_Driver/src/stm32f4xx_cryp_aes.c ****         }
1590:Libraries/STM32F4xx_StdPeriph_Driver/src/stm32f4xx_cryp_aes.c ****         
1591:Libraries/STM32F4xx_StdPeriph_Driver/src/stm32f4xx_cryp_aes.c ****         /* Write the Input block in the IN FIFO */
1592:Libraries/STM32F4xx_StdPeriph_Driver/src/stm32f4xx_cryp_aes.c ****         CRYP_DataIn(*(uint32_t*)(inputaddr));
1593:Libraries/STM32F4xx_StdPeriph_Driver/src/stm32f4xx_cryp_aes.c ****         inputaddr+=4;
1594:Libraries/STM32F4xx_StdPeriph_Driver/src/stm32f4xx_cryp_aes.c ****         CRYP_DataIn(*(uint32_t*)(inputaddr));
1595:Libraries/STM32F4xx_StdPeriph_Driver/src/stm32f4xx_cryp_aes.c ****         inputaddr+=4;
1596:Libraries/STM32F4xx_StdPeriph_Driver/src/stm32f4xx_cryp_aes.c ****         CRYP_DataIn(*(uint32_t*)(inputaddr));
1597:Libraries/STM32F4xx_StdPeriph_Driver/src/stm32f4xx_cryp_aes.c ****         inputaddr+=4;
1598:Libraries/STM32F4xx_StdPeriph_Driver/src/stm32f4xx_cryp_aes.c ****         CRYP_DataIn(*(uint32_t*)(inputaddr));
1599:Libraries/STM32F4xx_StdPeriph_Driver/src/stm32f4xx_cryp_aes.c ****         inputaddr+=4;
1600:Libraries/STM32F4xx_StdPeriph_Driver/src/stm32f4xx_cryp_aes.c ****         
1601:Libraries/STM32F4xx_StdPeriph_Driver/src/stm32f4xx_cryp_aes.c ****         /* Wait until the complete message has been processed */
1602:Libraries/STM32F4xx_StdPeriph_Driver/src/stm32f4xx_cryp_aes.c ****         counter = 0;
1603:Libraries/STM32F4xx_StdPeriph_Driver/src/stm32f4xx_cryp_aes.c ****         do
ARM GAS  /tmp/ccklj7FS.s 			page 144


1604:Libraries/STM32F4xx_StdPeriph_Driver/src/stm32f4xx_cryp_aes.c ****         {
1605:Libraries/STM32F4xx_StdPeriph_Driver/src/stm32f4xx_cryp_aes.c ****           busystatus = CRYP_GetFlagStatus(CRYP_FLAG_BUSY);
1606:Libraries/STM32F4xx_StdPeriph_Driver/src/stm32f4xx_cryp_aes.c ****           counter++;
1607:Libraries/STM32F4xx_StdPeriph_Driver/src/stm32f4xx_cryp_aes.c ****         }while ((counter != AESBUSY_TIMEOUT) && (busystatus != RESET));
1608:Libraries/STM32F4xx_StdPeriph_Driver/src/stm32f4xx_cryp_aes.c **** 
1609:Libraries/STM32F4xx_StdPeriph_Driver/src/stm32f4xx_cryp_aes.c ****         if (busystatus != RESET)
 4979              		.loc 1 1609 9 is_stmt 1 view .LVU1957
 4980              		.loc 1 1609 12 is_stmt 0 view .LVU1958
 4981 04ba 30B3     		cbz	r0, .L152
1610:Libraries/STM32F4xx_StdPeriph_Driver/src/stm32f4xx_cryp_aes.c ****         {
1611:Libraries/STM32F4xx_StdPeriph_Driver/src/stm32f4xx_cryp_aes.c ****           status = ERROR;
 4982              		.loc 1 1611 18 view .LVU1959
 4983 04bc 0024     		movs	r4, #0
 4984              	.LVL734:
 4985              	.L151:
1584:Libraries/STM32F4xx_StdPeriph_Driver/src/stm32f4xx_cryp_aes.c ****       {
 4986              		.loc 1 1584 76 is_stmt 1 discriminator 2 view .LVU1960
1584:Libraries/STM32F4xx_StdPeriph_Driver/src/stm32f4xx_cryp_aes.c ****       {
 4987              		.loc 1 1584 87 is_stmt 0 discriminator 2 view .LVU1961
 4988 04be 1036     		adds	r6, r6, #16
 4989              	.LVL735:
 4990              	.L147:
1584:Libraries/STM32F4xx_StdPeriph_Driver/src/stm32f4xx_cryp_aes.c ****       {
 4991              		.loc 1 1584 28 is_stmt 1 discriminator 1 view .LVU1962
1584:Libraries/STM32F4xx_StdPeriph_Driver/src/stm32f4xx_cryp_aes.c ****       {
 4992              		.loc 1 1584 7 is_stmt 0 discriminator 1 view .LVU1963
 4993 04c0 4645     		cmp	r6, r8
 4994 04c2 3AD2     		bcs	.L146
1584:Libraries/STM32F4xx_StdPeriph_Driver/src/stm32f4xx_cryp_aes.c ****       {
 4995              		.loc 1 1584 53 discriminator 3 view .LVU1964
 4996 04c4 002C     		cmp	r4, #0
 4997 04c6 38D0     		beq	.L146
 4998              	.L148:
1589:Libraries/STM32F4xx_StdPeriph_Driver/src/stm32f4xx_cryp_aes.c ****         
 4999              		.loc 1 1589 9 is_stmt 1 discriminator 1 view .LVU1965
1587:Libraries/STM32F4xx_StdPeriph_Driver/src/stm32f4xx_cryp_aes.c ****         {
 5000              		.loc 1 1587 14 discriminator 1 view .LVU1966
1587:Libraries/STM32F4xx_StdPeriph_Driver/src/stm32f4xx_cryp_aes.c ****         {
 5001              		.loc 1 1587 15 is_stmt 0 discriminator 1 view .LVU1967
 5002 04c8 0120     		movs	r0, #1
 5003 04ca FFF7FEFF 		bl	CRYP_GetFlagStatus
 5004              	.LVL736:
1587:Libraries/STM32F4xx_StdPeriph_Driver/src/stm32f4xx_cryp_aes.c ****         {
 5005              		.loc 1 1587 14 discriminator 1 view .LVU1968
 5006 04ce 0028     		cmp	r0, #0
 5007 04d0 FAD0     		beq	.L148
1592:Libraries/STM32F4xx_StdPeriph_Driver/src/stm32f4xx_cryp_aes.c ****         inputaddr+=4;
 5008              		.loc 1 1592 9 is_stmt 1 view .LVU1969
 5009 04d2 2868     		ldr	r0, [r5]
 5010 04d4 FFF7FEFF 		bl	CRYP_DataIn
 5011              	.LVL737:
1593:Libraries/STM32F4xx_StdPeriph_Driver/src/stm32f4xx_cryp_aes.c ****         CRYP_DataIn(*(uint32_t*)(inputaddr));
 5012              		.loc 1 1593 9 view .LVU1970
1594:Libraries/STM32F4xx_StdPeriph_Driver/src/stm32f4xx_cryp_aes.c ****         inputaddr+=4;
 5013              		.loc 1 1594 9 view .LVU1971
 5014 04d8 6868     		ldr	r0, [r5, #4]
 5015 04da FFF7FEFF 		bl	CRYP_DataIn
ARM GAS  /tmp/ccklj7FS.s 			page 145


 5016              	.LVL738:
1595:Libraries/STM32F4xx_StdPeriph_Driver/src/stm32f4xx_cryp_aes.c ****         CRYP_DataIn(*(uint32_t*)(inputaddr));
 5017              		.loc 1 1595 9 view .LVU1972
1596:Libraries/STM32F4xx_StdPeriph_Driver/src/stm32f4xx_cryp_aes.c ****         inputaddr+=4;
 5018              		.loc 1 1596 9 view .LVU1973
 5019 04de A868     		ldr	r0, [r5, #8]
 5020 04e0 FFF7FEFF 		bl	CRYP_DataIn
 5021              	.LVL739:
1597:Libraries/STM32F4xx_StdPeriph_Driver/src/stm32f4xx_cryp_aes.c ****         CRYP_DataIn(*(uint32_t*)(inputaddr));
 5022              		.loc 1 1597 9 view .LVU1974
1598:Libraries/STM32F4xx_StdPeriph_Driver/src/stm32f4xx_cryp_aes.c ****         inputaddr+=4;
 5023              		.loc 1 1598 9 view .LVU1975
 5024 04e4 E868     		ldr	r0, [r5, #12]
 5025 04e6 FFF7FEFF 		bl	CRYP_DataIn
 5026              	.LVL740:
1599:Libraries/STM32F4xx_StdPeriph_Driver/src/stm32f4xx_cryp_aes.c ****         
 5027              		.loc 1 1599 9 view .LVU1976
1599:Libraries/STM32F4xx_StdPeriph_Driver/src/stm32f4xx_cryp_aes.c ****         
 5028              		.loc 1 1599 18 is_stmt 0 view .LVU1977
 5029 04ea 1035     		adds	r5, r5, #16
 5030              	.LVL741:
1602:Libraries/STM32F4xx_StdPeriph_Driver/src/stm32f4xx_cryp_aes.c ****         do
 5031              		.loc 1 1602 9 is_stmt 1 view .LVU1978
1602:Libraries/STM32F4xx_StdPeriph_Driver/src/stm32f4xx_cryp_aes.c ****         do
 5032              		.loc 1 1602 17 is_stmt 0 view .LVU1979
 5033 04ec 0023     		movs	r3, #0
 5034 04ee 0F93     		str	r3, [sp, #60]
 5035              	.L150:
1603:Libraries/STM32F4xx_StdPeriph_Driver/src/stm32f4xx_cryp_aes.c ****         {
 5036              		.loc 1 1603 9 is_stmt 1 discriminator 2 view .LVU1980
1605:Libraries/STM32F4xx_StdPeriph_Driver/src/stm32f4xx_cryp_aes.c ****           counter++;
 5037              		.loc 1 1605 11 discriminator 2 view .LVU1981
1605:Libraries/STM32F4xx_StdPeriph_Driver/src/stm32f4xx_cryp_aes.c ****           counter++;
 5038              		.loc 1 1605 24 is_stmt 0 discriminator 2 view .LVU1982
 5039 04f0 1020     		movs	r0, #16
 5040 04f2 FFF7FEFF 		bl	CRYP_GetFlagStatus
 5041              	.LVL742:
1606:Libraries/STM32F4xx_StdPeriph_Driver/src/stm32f4xx_cryp_aes.c ****         }while ((counter != AESBUSY_TIMEOUT) && (busystatus != RESET));
 5042              		.loc 1 1606 11 is_stmt 1 discriminator 2 view .LVU1983
1606:Libraries/STM32F4xx_StdPeriph_Driver/src/stm32f4xx_cryp_aes.c ****         }while ((counter != AESBUSY_TIMEOUT) && (busystatus != RESET));
 5043              		.loc 1 1606 18 is_stmt 0 discriminator 2 view .LVU1984
 5044 04f6 0F9B     		ldr	r3, [sp, #60]
 5045 04f8 0133     		adds	r3, r3, #1
 5046 04fa 0F93     		str	r3, [sp, #60]
1607:Libraries/STM32F4xx_StdPeriph_Driver/src/stm32f4xx_cryp_aes.c **** 
 5047              		.loc 1 1607 16 is_stmt 1 discriminator 2 view .LVU1985
1607:Libraries/STM32F4xx_StdPeriph_Driver/src/stm32f4xx_cryp_aes.c **** 
 5048              		.loc 1 1607 26 is_stmt 0 discriminator 2 view .LVU1986
 5049 04fc 0F9B     		ldr	r3, [sp, #60]
1607:Libraries/STM32F4xx_StdPeriph_Driver/src/stm32f4xx_cryp_aes.c **** 
 5050              		.loc 1 1607 9 discriminator 2 view .LVU1987
 5051 04fe B3F5803F 		cmp	r3, #65536
 5052 0502 DAD0     		beq	.L149
1607:Libraries/STM32F4xx_StdPeriph_Driver/src/stm32f4xx_cryp_aes.c **** 
 5053              		.loc 1 1607 46 discriminator 1 view .LVU1988
 5054 0504 0028     		cmp	r0, #0
 5055 0506 F3D1     		bne	.L150
ARM GAS  /tmp/ccklj7FS.s 			page 146


 5056 0508 D7E7     		b	.L149
 5057              	.LVL743:
 5058              	.L152:
1612:Libraries/STM32F4xx_StdPeriph_Driver/src/stm32f4xx_cryp_aes.c ****         }
1613:Libraries/STM32F4xx_StdPeriph_Driver/src/stm32f4xx_cryp_aes.c ****         else
1614:Libraries/STM32F4xx_StdPeriph_Driver/src/stm32f4xx_cryp_aes.c ****         {
1615:Libraries/STM32F4xx_StdPeriph_Driver/src/stm32f4xx_cryp_aes.c ****           /* Wait until the OFNE flag is reset */
1616:Libraries/STM32F4xx_StdPeriph_Driver/src/stm32f4xx_cryp_aes.c ****           while(CRYP_GetFlagStatus(CRYP_FLAG_OFNE) == RESET)
1617:Libraries/STM32F4xx_StdPeriph_Driver/src/stm32f4xx_cryp_aes.c ****           {
1618:Libraries/STM32F4xx_StdPeriph_Driver/src/stm32f4xx_cryp_aes.c ****           }
 5059              		.loc 1 1618 11 is_stmt 1 discriminator 1 view .LVU1989
1616:Libraries/STM32F4xx_StdPeriph_Driver/src/stm32f4xx_cryp_aes.c ****           {
 5060              		.loc 1 1616 16 discriminator 1 view .LVU1990
1616:Libraries/STM32F4xx_StdPeriph_Driver/src/stm32f4xx_cryp_aes.c ****           {
 5061              		.loc 1 1616 17 is_stmt 0 discriminator 1 view .LVU1991
 5062 050a 0420     		movs	r0, #4
 5063 050c FFF7FEFF 		bl	CRYP_GetFlagStatus
 5064              	.LVL744:
1616:Libraries/STM32F4xx_StdPeriph_Driver/src/stm32f4xx_cryp_aes.c ****           {
 5065              		.loc 1 1616 16 discriminator 1 view .LVU1992
 5066 0510 0028     		cmp	r0, #0
 5067 0512 FAD0     		beq	.L152
1619:Libraries/STM32F4xx_StdPeriph_Driver/src/stm32f4xx_cryp_aes.c ****           
1620:Libraries/STM32F4xx_StdPeriph_Driver/src/stm32f4xx_cryp_aes.c ****           /* Read the Output block from the Output FIFO */
1621:Libraries/STM32F4xx_StdPeriph_Driver/src/stm32f4xx_cryp_aes.c ****           *(uint32_t*)(outputaddr) = CRYP_DataOut();
 5068              		.loc 1 1621 11 is_stmt 1 view .LVU1993
 5069              		.loc 1 1621 38 is_stmt 0 view .LVU1994
 5070 0514 FFF7FEFF 		bl	CRYP_DataOut
 5071              	.LVL745:
 5072              		.loc 1 1621 36 view .LVU1995
 5073 0518 CAF80000 		str	r0, [r10]
1622:Libraries/STM32F4xx_StdPeriph_Driver/src/stm32f4xx_cryp_aes.c ****           outputaddr+=4;
 5074              		.loc 1 1622 11 is_stmt 1 view .LVU1996
 5075              	.LVL746:
1623:Libraries/STM32F4xx_StdPeriph_Driver/src/stm32f4xx_cryp_aes.c ****           *(uint32_t*)(outputaddr) = CRYP_DataOut();
 5076              		.loc 1 1623 11 view .LVU1997
 5077              		.loc 1 1623 38 is_stmt 0 view .LVU1998
 5078 051c FFF7FEFF 		bl	CRYP_DataOut
 5079              	.LVL747:
 5080              		.loc 1 1623 36 view .LVU1999
 5081 0520 CAF80400 		str	r0, [r10, #4]
1624:Libraries/STM32F4xx_StdPeriph_Driver/src/stm32f4xx_cryp_aes.c ****           outputaddr+=4;
 5082              		.loc 1 1624 11 is_stmt 1 view .LVU2000
 5083              	.LVL748:
1625:Libraries/STM32F4xx_StdPeriph_Driver/src/stm32f4xx_cryp_aes.c ****           *(uint32_t*)(outputaddr) = CRYP_DataOut();
 5084              		.loc 1 1625 11 view .LVU2001
 5085              		.loc 1 1625 38 is_stmt 0 view .LVU2002
 5086 0524 FFF7FEFF 		bl	CRYP_DataOut
 5087              	.LVL749:
 5088              		.loc 1 1625 36 view .LVU2003
 5089 0528 CAF80800 		str	r0, [r10, #8]
1626:Libraries/STM32F4xx_StdPeriph_Driver/src/stm32f4xx_cryp_aes.c ****           outputaddr+=4;
 5090              		.loc 1 1626 11 is_stmt 1 view .LVU2004
 5091              	.LVL750:
1627:Libraries/STM32F4xx_StdPeriph_Driver/src/stm32f4xx_cryp_aes.c ****           *(uint32_t*)(outputaddr) = CRYP_DataOut();
 5092              		.loc 1 1627 11 view .LVU2005
 5093              		.loc 1 1627 38 is_stmt 0 view .LVU2006
ARM GAS  /tmp/ccklj7FS.s 			page 147


 5094 052c FFF7FEFF 		bl	CRYP_DataOut
 5095              	.LVL751:
 5096              		.loc 1 1627 36 view .LVU2007
 5097 0530 CAF80C00 		str	r0, [r10, #12]
1628:Libraries/STM32F4xx_StdPeriph_Driver/src/stm32f4xx_cryp_aes.c ****           outputaddr+=4;
 5098              		.loc 1 1628 11 is_stmt 1 view .LVU2008
 5099              		.loc 1 1628 21 is_stmt 0 view .LVU2009
 5100 0534 0AF1100A 		add	r10, r10, #16
 5101              	.LVL752:
 5102              		.loc 1 1628 21 view .LVU2010
 5103 0538 C1E7     		b	.L151
 5104              	.LVL753:
 5105              	.L146:
1629:Libraries/STM32F4xx_StdPeriph_Driver/src/stm32f4xx_cryp_aes.c ****         }
1630:Libraries/STM32F4xx_StdPeriph_Driver/src/stm32f4xx_cryp_aes.c ****       }
1631:Libraries/STM32F4xx_StdPeriph_Driver/src/stm32f4xx_cryp_aes.c ****     }
1632:Libraries/STM32F4xx_StdPeriph_Driver/src/stm32f4xx_cryp_aes.c ****     
1633:Libraries/STM32F4xx_StdPeriph_Driver/src/stm32f4xx_cryp_aes.c ****     /***************************** final phase ********************************/
1634:Libraries/STM32F4xx_StdPeriph_Driver/src/stm32f4xx_cryp_aes.c ****     /* Select final phase */
1635:Libraries/STM32F4xx_StdPeriph_Driver/src/stm32f4xx_cryp_aes.c ****     CRYP_PhaseConfig(CRYP_Phase_Final);
 5106              		.loc 1 1635 5 is_stmt 1 view .LVU2011
 5107 053a 4FF44030 		mov	r0, #196608
 5108 053e FFF7FEFF 		bl	CRYP_PhaseConfig
 5109              	.LVL754:
1636:Libraries/STM32F4xx_StdPeriph_Driver/src/stm32f4xx_cryp_aes.c ****     
1637:Libraries/STM32F4xx_StdPeriph_Driver/src/stm32f4xx_cryp_aes.c ****     /* Enable Crypto processor */
1638:Libraries/STM32F4xx_StdPeriph_Driver/src/stm32f4xx_cryp_aes.c ****     CRYP_Cmd(ENABLE);
 5110              		.loc 1 1638 5 view .LVU2012
 5111 0542 0120     		movs	r0, #1
 5112 0544 FFF7FEFF 		bl	CRYP_Cmd
 5113              	.LVL755:
1639:Libraries/STM32F4xx_StdPeriph_Driver/src/stm32f4xx_cryp_aes.c ****     
1640:Libraries/STM32F4xx_StdPeriph_Driver/src/stm32f4xx_cryp_aes.c ****     if(CRYP_GetCmdStatus() == DISABLE)
 5114              		.loc 1 1640 5 view .LVU2013
 5115              		.loc 1 1640 8 is_stmt 0 view .LVU2014
 5116 0548 FFF7FEFF 		bl	CRYP_GetCmdStatus
 5117              	.LVL756:
 5118              		.loc 1 1640 7 view .LVU2015
 5119 054c 0746     		mov	r7, r0
 5120 054e 58B3     		cbz	r0, .L126
1641:Libraries/STM32F4xx_StdPeriph_Driver/src/stm32f4xx_cryp_aes.c ****     {
1642:Libraries/STM32F4xx_StdPeriph_Driver/src/stm32f4xx_cryp_aes.c ****       /* The CRYP peripheral clock is not enabled or the device doesn't embed 
1643:Libraries/STM32F4xx_StdPeriph_Driver/src/stm32f4xx_cryp_aes.c ****          the CRYP peripheral (please check the device sales type. */
1644:Libraries/STM32F4xx_StdPeriph_Driver/src/stm32f4xx_cryp_aes.c ****       return(ERROR);
1645:Libraries/STM32F4xx_StdPeriph_Driver/src/stm32f4xx_cryp_aes.c ****     }
1646:Libraries/STM32F4xx_StdPeriph_Driver/src/stm32f4xx_cryp_aes.c ****     
1647:Libraries/STM32F4xx_StdPeriph_Driver/src/stm32f4xx_cryp_aes.c ****     ctraddr = (uint32_t)ctr;
 5121              		.loc 1 1647 5 is_stmt 1 view .LVU2016
 5122              	.LVL757:
1648:Libraries/STM32F4xx_StdPeriph_Driver/src/stm32f4xx_cryp_aes.c ****     /* Write the counter block in the IN FIFO */
1649:Libraries/STM32F4xx_StdPeriph_Driver/src/stm32f4xx_cryp_aes.c ****     CRYP_DataIn(*(uint32_t*)(ctraddr));
 5123              		.loc 1 1649 5 view .LVU2017
 5124 0550 0798     		ldr	r0, [sp, #28]
 5125 0552 FFF7FEFF 		bl	CRYP_DataIn
 5126              	.LVL758:
1650:Libraries/STM32F4xx_StdPeriph_Driver/src/stm32f4xx_cryp_aes.c ****     ctraddr+=4;
 5127              		.loc 1 1650 5 view .LVU2018
ARM GAS  /tmp/ccklj7FS.s 			page 148


1651:Libraries/STM32F4xx_StdPeriph_Driver/src/stm32f4xx_cryp_aes.c ****     CRYP_DataIn(*(uint32_t*)(ctraddr));
 5128              		.loc 1 1651 5 view .LVU2019
 5129 0556 0898     		ldr	r0, [sp, #32]
 5130 0558 FFF7FEFF 		bl	CRYP_DataIn
 5131              	.LVL759:
1652:Libraries/STM32F4xx_StdPeriph_Driver/src/stm32f4xx_cryp_aes.c ****     ctraddr+=4;
 5132              		.loc 1 1652 5 view .LVU2020
1653:Libraries/STM32F4xx_StdPeriph_Driver/src/stm32f4xx_cryp_aes.c ****     CRYP_DataIn(*(uint32_t*)(ctraddr));
 5133              		.loc 1 1653 5 view .LVU2021
 5134 055c 0998     		ldr	r0, [sp, #36]
 5135 055e FFF7FEFF 		bl	CRYP_DataIn
 5136              	.LVL760:
1654:Libraries/STM32F4xx_StdPeriph_Driver/src/stm32f4xx_cryp_aes.c ****     ctraddr+=4;
 5137              		.loc 1 1654 5 view .LVU2022
1655:Libraries/STM32F4xx_StdPeriph_Driver/src/stm32f4xx_cryp_aes.c ****     /* Reset bit 0 (after 8-bit swap) is equivalent to reset bit 24 (before 8-bit swap) */
1656:Libraries/STM32F4xx_StdPeriph_Driver/src/stm32f4xx_cryp_aes.c ****     CRYP_DataIn(*(uint32_t*)(ctraddr) & 0xfeffffff);
 5138              		.loc 1 1656 5 view .LVU2023
 5139              		.loc 1 1656 17 is_stmt 0 view .LVU2024
 5140 0562 0A98     		ldr	r0, [sp, #40]
 5141              		.loc 1 1656 5 view .LVU2025
 5142 0564 20F08070 		bic	r0, r0, #16777216
 5143 0568 FFF7FEFF 		bl	CRYP_DataIn
 5144              	.LVL761:
1657:Libraries/STM32F4xx_StdPeriph_Driver/src/stm32f4xx_cryp_aes.c ****     
1658:Libraries/STM32F4xx_StdPeriph_Driver/src/stm32f4xx_cryp_aes.c ****     /* Wait until the OFNE flag is reset */
1659:Libraries/STM32F4xx_StdPeriph_Driver/src/stm32f4xx_cryp_aes.c ****     while(CRYP_GetFlagStatus(CRYP_FLAG_OFNE) == RESET)
 5145              		.loc 1 1659 5 is_stmt 1 view .LVU2026
 5146              	.L153:
1660:Libraries/STM32F4xx_StdPeriph_Driver/src/stm32f4xx_cryp_aes.c ****     {
1661:Libraries/STM32F4xx_StdPeriph_Driver/src/stm32f4xx_cryp_aes.c ****     }
 5147              		.loc 1 1661 5 discriminator 1 view .LVU2027
1659:Libraries/STM32F4xx_StdPeriph_Driver/src/stm32f4xx_cryp_aes.c ****     {
 5148              		.loc 1 1659 10 discriminator 1 view .LVU2028
1659:Libraries/STM32F4xx_StdPeriph_Driver/src/stm32f4xx_cryp_aes.c ****     {
 5149              		.loc 1 1659 11 is_stmt 0 discriminator 1 view .LVU2029
 5150 056c 0420     		movs	r0, #4
 5151 056e FFF7FEFF 		bl	CRYP_GetFlagStatus
 5152              	.LVL762:
1659:Libraries/STM32F4xx_StdPeriph_Driver/src/stm32f4xx_cryp_aes.c ****     {
 5153              		.loc 1 1659 10 discriminator 1 view .LVU2030
 5154 0572 0028     		cmp	r0, #0
 5155 0574 FAD0     		beq	.L153
1662:Libraries/STM32F4xx_StdPeriph_Driver/src/stm32f4xx_cryp_aes.c ****     
1663:Libraries/STM32F4xx_StdPeriph_Driver/src/stm32f4xx_cryp_aes.c ****     /* Read the Authentification TAG (MAC) in the IN FIFO */
1664:Libraries/STM32F4xx_StdPeriph_Driver/src/stm32f4xx_cryp_aes.c ****     temptag[0] = CRYP_DataOut();
 5156              		.loc 1 1664 5 is_stmt 1 view .LVU2031
 5157              		.loc 1 1664 18 is_stmt 0 view .LVU2032
 5158 0576 FFF7FEFF 		bl	CRYP_DataOut
 5159              	.LVL763:
 5160              		.loc 1 1664 16 view .LVU2033
 5161 057a 0390     		str	r0, [sp, #12]
1665:Libraries/STM32F4xx_StdPeriph_Driver/src/stm32f4xx_cryp_aes.c ****     temptag[1] = CRYP_DataOut();
 5162              		.loc 1 1665 5 is_stmt 1 view .LVU2034
 5163              		.loc 1 1665 18 is_stmt 0 view .LVU2035
 5164 057c FFF7FEFF 		bl	CRYP_DataOut
 5165              	.LVL764:
 5166              		.loc 1 1665 16 view .LVU2036
ARM GAS  /tmp/ccklj7FS.s 			page 149


 5167 0580 0490     		str	r0, [sp, #16]
1666:Libraries/STM32F4xx_StdPeriph_Driver/src/stm32f4xx_cryp_aes.c ****     temptag[2] = CRYP_DataOut();
 5168              		.loc 1 1666 5 is_stmt 1 view .LVU2037
 5169              		.loc 1 1666 18 is_stmt 0 view .LVU2038
 5170 0582 FFF7FEFF 		bl	CRYP_DataOut
 5171              	.LVL765:
 5172              		.loc 1 1666 16 view .LVU2039
 5173 0586 0590     		str	r0, [sp, #20]
1667:Libraries/STM32F4xx_StdPeriph_Driver/src/stm32f4xx_cryp_aes.c ****     temptag[3] = CRYP_DataOut();
 5174              		.loc 1 1667 5 is_stmt 1 view .LVU2040
 5175              		.loc 1 1667 18 is_stmt 0 view .LVU2041
 5176 0588 FFF7FEFF 		bl	CRYP_DataOut
 5177              	.LVL766:
 5178              		.loc 1 1667 16 view .LVU2042
 5179 058c 0690     		str	r0, [sp, #24]
 5180 058e 2746     		mov	r7, r4
 5181              	.LVL767:
 5182              	.L139:
1668:Libraries/STM32F4xx_StdPeriph_Driver/src/stm32f4xx_cryp_aes.c ****   }
1669:Libraries/STM32F4xx_StdPeriph_Driver/src/stm32f4xx_cryp_aes.c ****   
1670:Libraries/STM32F4xx_StdPeriph_Driver/src/stm32f4xx_cryp_aes.c ****   /* Copy temporary authentication TAG in user TAG buffer */
1671:Libraries/STM32F4xx_StdPeriph_Driver/src/stm32f4xx_cryp_aes.c ****   for(loopcounter = 0; (loopcounter < TAGSize); loopcounter++)
 5183              		.loc 1 1671 3 is_stmt 1 view .LVU2043
 5184              		.loc 1 1671 19 is_stmt 0 view .LVU2044
 5185 0590 0023     		movs	r3, #0
 5186 0592 3199     		ldr	r1, [sp, #196]
 5187              		.loc 1 1671 3 view .LVU2045
 5188 0594 03E0     		b	.L154
 5189              	.LVL768:
 5190              	.L155:
1672:Libraries/STM32F4xx_StdPeriph_Driver/src/stm32f4xx_cryp_aes.c ****   {
1673:Libraries/STM32F4xx_StdPeriph_Driver/src/stm32f4xx_cryp_aes.c ****     /* Set the authentication TAG buffer */
1674:Libraries/STM32F4xx_StdPeriph_Driver/src/stm32f4xx_cryp_aes.c ****     *((uint8_t*)tagaddr+loopcounter) = *((uint8_t*)temptag+loopcounter);
 5191              		.loc 1 1674 5 is_stmt 1 discriminator 3 view .LVU2046
 5192              		.loc 1 1674 59 is_stmt 0 discriminator 3 view .LVU2047
 5193 0596 03AA     		add	r2, sp, #12
 5194              		.loc 1 1674 40 discriminator 3 view .LVU2048
 5195 0598 D25C     		ldrb	r2, [r2, r3]	@ zero_extendqisi2
 5196              		.loc 1 1674 38 discriminator 3 view .LVU2049
 5197 059a CA54     		strb	r2, [r1, r3]
1671:Libraries/STM32F4xx_StdPeriph_Driver/src/stm32f4xx_cryp_aes.c ****   {
 5198              		.loc 1 1671 49 is_stmt 1 discriminator 3 view .LVU2050
1671:Libraries/STM32F4xx_StdPeriph_Driver/src/stm32f4xx_cryp_aes.c ****   {
 5199              		.loc 1 1671 60 is_stmt 0 discriminator 3 view .LVU2051
 5200 059c 0133     		adds	r3, r3, #1
 5201              	.LVL769:
 5202              	.L154:
1671:Libraries/STM32F4xx_StdPeriph_Driver/src/stm32f4xx_cryp_aes.c ****   {
 5203              		.loc 1 1671 24 is_stmt 1 discriminator 1 view .LVU2052
1671:Libraries/STM32F4xx_StdPeriph_Driver/src/stm32f4xx_cryp_aes.c ****   {
 5204              		.loc 1 1671 3 is_stmt 0 discriminator 1 view .LVU2053
 5205 059e 4B45     		cmp	r3, r9
 5206 05a0 F9D3     		bcc	.L155
1675:Libraries/STM32F4xx_StdPeriph_Driver/src/stm32f4xx_cryp_aes.c ****   }
1676:Libraries/STM32F4xx_StdPeriph_Driver/src/stm32f4xx_cryp_aes.c ****   
1677:Libraries/STM32F4xx_StdPeriph_Driver/src/stm32f4xx_cryp_aes.c ****   /* Disable Crypto */
1678:Libraries/STM32F4xx_StdPeriph_Driver/src/stm32f4xx_cryp_aes.c ****   CRYP_Cmd(DISABLE);
ARM GAS  /tmp/ccklj7FS.s 			page 150


 5207              		.loc 1 1678 3 is_stmt 1 view .LVU2054
 5208 05a2 0020     		movs	r0, #0
 5209 05a4 FFF7FEFF 		bl	CRYP_Cmd
 5210              	.LVL770:
1679:Libraries/STM32F4xx_StdPeriph_Driver/src/stm32f4xx_cryp_aes.c **** 
1680:Libraries/STM32F4xx_StdPeriph_Driver/src/stm32f4xx_cryp_aes.c ****   return status;
 5211              		.loc 1 1680 3 view .LVU2055
 5212              	.L126:
1681:Libraries/STM32F4xx_StdPeriph_Driver/src/stm32f4xx_cryp_aes.c **** }
 5213              		.loc 1 1681 1 is_stmt 0 view .LVU2056
 5214 05a8 3846     		mov	r0, r7
 5215 05aa 21B0     		add	sp, sp, #132
 5216              	.LCFI14:
 5217              		.cfi_def_cfa_offset 36
 5218              		@ sp needed
 5219 05ac BDE8F08F 		pop	{r4, r5, r6, r7, r8, r9, r10, fp, pc}
 5220              		.loc 1 1681 1 view .LVU2057
 5221              		.cfi_endproc
 5222              	.LFE127:
 5224              		.text
 5225              	.Letext0:
 5226              		.file 3 "/home/ktkuri/arm-gcc-tools/arm-none-eabi/include/machine/_default_types.h"
 5227              		.file 4 "/home/ktkuri/arm-gcc-tools/arm-none-eabi/include/sys/_stdint.h"
 5228              		.file 5 "Libraries/CMSIS/Device/ST/STM32F4xx/Include/stm32f4xx.h"
 5229              		.file 6 "Libraries/STM32F4xx_StdPeriph_Driver/inc/stm32f4xx_cryp.h"
ARM GAS  /tmp/ccklj7FS.s 			page 151


DEFINED SYMBOLS
                            *ABS*:0000000000000000 stm32f4xx_cryp_aes.c
     /tmp/ccklj7FS.s:18     .text.CRYP_AES_ECB:0000000000000000 $t
     /tmp/ccklj7FS.s:26     .text.CRYP_AES_ECB:0000000000000000 CRYP_AES_ECB
     /tmp/ccklj7FS.s:685    .text.CRYP_AES_CBC:0000000000000000 $t
     /tmp/ccklj7FS.s:692    .text.CRYP_AES_CBC:0000000000000000 CRYP_AES_CBC
     /tmp/ccklj7FS.s:1431   .text.CRYP_AES_CTR:0000000000000000 $t
     /tmp/ccklj7FS.s:1438   .text.CRYP_AES_CTR:0000000000000000 CRYP_AES_CTR
     /tmp/ccklj7FS.s:2121   .text.CRYP_AES_GCM:0000000000000000 $t
     /tmp/ccklj7FS.s:2128   .text.CRYP_AES_GCM:0000000000000000 CRYP_AES_GCM
     /tmp/ccklj7FS.s:3563   .text.CRYP_AES_CCM:0000000000000000 $t
     /tmp/ccklj7FS.s:3570   .text.CRYP_AES_CCM:0000000000000000 CRYP_AES_CCM

UNDEFINED SYMBOLS
CRYP_KeyStructInit
CRYP_FIFOFlush
CRYP_Init
CRYP_KeyInit
CRYP_Cmd
CRYP_GetFlagStatus
CRYP_GetCmdStatus
CRYP_DataIn
CRYP_DataOut
CRYP_IVInit
CRYP_PhaseConfig
