ARM GAS  /tmp/ccklj7FS.s 			page 1


   1              		.cpu cortex-m4
   2              		.eabi_attribute 27, 1
   3              		.eabi_attribute 28, 1
   4              		.eabi_attribute 20, 1
   5              		.eabi_attribute 21, 1
   6              		.eabi_attribute 23, 3
   7              		.eabi_attribute 24, 1
   8              		.eabi_attribute 25, 1
   9              		.eabi_attribute 26, 1
  10              		.eabi_attribute 30, 1
  11              		.eabi_attribute 34, 1
  12              		.eabi_attribute 18, 4
  13              		.file	"stm32f4xx_cryp_aes.c"
  14              		.text
  15              	.Ltext0:
  16              		.cfi_sections	.debug_frame
  17              		.section	.text.CRYP_AES_ECB,"ax",%progbits
  18              		.align	1
  19              		.global	CRYP_AES_ECB
  20              		.arch armv7e-m
  21              		.syntax unified
  22              		.thumb
  23              		.thumb_func
  24              		.fpu fpv4-sp-d16
  26              	CRYP_AES_ECB:
  27              	.LVL0:
  28              	.LFB123:
  29              		.file 1 "Libraries/STM32F4xx_StdPeriph_Driver/src/stm32f4xx_cryp_aes.c"
   1:Libraries/STM32F4xx_StdPeriph_Driver/src/stm32f4xx_cryp_aes.c **** /**
   2:Libraries/STM32F4xx_StdPeriph_Driver/src/stm32f4xx_cryp_aes.c ****   ******************************************************************************
   3:Libraries/STM32F4xx_StdPeriph_Driver/src/stm32f4xx_cryp_aes.c ****   * @file    stm32f4xx_cryp_aes.c
   4:Libraries/STM32F4xx_StdPeriph_Driver/src/stm32f4xx_cryp_aes.c ****   * @author  MCD Application Team
   5:Libraries/STM32F4xx_StdPeriph_Driver/src/stm32f4xx_cryp_aes.c ****   * @version V1.8.1
   6:Libraries/STM32F4xx_StdPeriph_Driver/src/stm32f4xx_cryp_aes.c ****   * @date    27-January-2022
   7:Libraries/STM32F4xx_StdPeriph_Driver/src/stm32f4xx_cryp_aes.c ****   * @brief   This file provides high level functions to encrypt and decrypt an 
   8:Libraries/STM32F4xx_StdPeriph_Driver/src/stm32f4xx_cryp_aes.c ****   *          input message using AES in ECB/CBC/CTR/GCM/CCM modes.
   9:Libraries/STM32F4xx_StdPeriph_Driver/src/stm32f4xx_cryp_aes.c ****   *          It uses the stm32f4xx_cryp.c/.h drivers to access the STM32F4xx CRYP
  10:Libraries/STM32F4xx_StdPeriph_Driver/src/stm32f4xx_cryp_aes.c ****   *          peripheral.
  11:Libraries/STM32F4xx_StdPeriph_Driver/src/stm32f4xx_cryp_aes.c ****   *          AES-ECB/CBC/CTR/GCM/CCM modes are available on STM32F437x Devices.
  12:Libraries/STM32F4xx_StdPeriph_Driver/src/stm32f4xx_cryp_aes.c ****   *          For STM32F41xx Devices, only AES-ECB/CBC/CTR modes are available.
  13:Libraries/STM32F4xx_StdPeriph_Driver/src/stm32f4xx_cryp_aes.c ****   *
  14:Libraries/STM32F4xx_StdPeriph_Driver/src/stm32f4xx_cryp_aes.c **** @verbatim
  15:Libraries/STM32F4xx_StdPeriph_Driver/src/stm32f4xx_cryp_aes.c ****  ===================================================================
  16:Libraries/STM32F4xx_StdPeriph_Driver/src/stm32f4xx_cryp_aes.c ****                   ##### How to use this driver #####
  17:Libraries/STM32F4xx_StdPeriph_Driver/src/stm32f4xx_cryp_aes.c ****  ===================================================================
  18:Libraries/STM32F4xx_StdPeriph_Driver/src/stm32f4xx_cryp_aes.c ****  [..]
  19:Libraries/STM32F4xx_StdPeriph_Driver/src/stm32f4xx_cryp_aes.c ****    (#) Enable The CRYP controller clock using 
  20:Libraries/STM32F4xx_StdPeriph_Driver/src/stm32f4xx_cryp_aes.c ****       RCC_AHB2PeriphClockCmd(RCC_AHB2Periph_CRYP, ENABLE); function.
  21:Libraries/STM32F4xx_StdPeriph_Driver/src/stm32f4xx_cryp_aes.c ****   
  22:Libraries/STM32F4xx_StdPeriph_Driver/src/stm32f4xx_cryp_aes.c ****    (#) Encrypt and decrypt using AES in ECB Mode using CRYP_AES_ECB() function.
  23:Libraries/STM32F4xx_StdPeriph_Driver/src/stm32f4xx_cryp_aes.c ****   
  24:Libraries/STM32F4xx_StdPeriph_Driver/src/stm32f4xx_cryp_aes.c ****    (#) Encrypt and decrypt using AES in CBC Mode using CRYP_AES_CBC() function.
  25:Libraries/STM32F4xx_StdPeriph_Driver/src/stm32f4xx_cryp_aes.c ****   
  26:Libraries/STM32F4xx_StdPeriph_Driver/src/stm32f4xx_cryp_aes.c ****    (#) Encrypt and decrypt using AES in CTR Mode using CRYP_AES_CTR() function.
  27:Libraries/STM32F4xx_StdPeriph_Driver/src/stm32f4xx_cryp_aes.c **** 
  28:Libraries/STM32F4xx_StdPeriph_Driver/src/stm32f4xx_cryp_aes.c ****    (#) Encrypt and decrypt using AES in GCM Mode using CRYP_AES_GCM() function.
  29:Libraries/STM32F4xx_StdPeriph_Driver/src/stm32f4xx_cryp_aes.c ****    
ARM GAS  /tmp/ccklj7FS.s 			page 2


  30:Libraries/STM32F4xx_StdPeriph_Driver/src/stm32f4xx_cryp_aes.c ****    (#) Encrypt and decrypt using AES in CCM Mode using CRYP_AES_CCM() function.
  31:Libraries/STM32F4xx_StdPeriph_Driver/src/stm32f4xx_cryp_aes.c ****      
  32:Libraries/STM32F4xx_StdPeriph_Driver/src/stm32f4xx_cryp_aes.c **** @endverbatim
  33:Libraries/STM32F4xx_StdPeriph_Driver/src/stm32f4xx_cryp_aes.c ****   *
  34:Libraries/STM32F4xx_StdPeriph_Driver/src/stm32f4xx_cryp_aes.c ****   ******************************************************************************
  35:Libraries/STM32F4xx_StdPeriph_Driver/src/stm32f4xx_cryp_aes.c ****   * @attention
  36:Libraries/STM32F4xx_StdPeriph_Driver/src/stm32f4xx_cryp_aes.c ****   *
  37:Libraries/STM32F4xx_StdPeriph_Driver/src/stm32f4xx_cryp_aes.c ****   * Copyright (c) 2016 STMicroelectronics.
  38:Libraries/STM32F4xx_StdPeriph_Driver/src/stm32f4xx_cryp_aes.c ****   * All rights reserved.
  39:Libraries/STM32F4xx_StdPeriph_Driver/src/stm32f4xx_cryp_aes.c ****   *
  40:Libraries/STM32F4xx_StdPeriph_Driver/src/stm32f4xx_cryp_aes.c ****   * This software is licensed under terms that can be found in the LICENSE file
  41:Libraries/STM32F4xx_StdPeriph_Driver/src/stm32f4xx_cryp_aes.c ****   * in the root directory of this software component.
  42:Libraries/STM32F4xx_StdPeriph_Driver/src/stm32f4xx_cryp_aes.c ****   * If no LICENSE file comes with this software, it is provided AS-IS.
  43:Libraries/STM32F4xx_StdPeriph_Driver/src/stm32f4xx_cryp_aes.c ****   *
  44:Libraries/STM32F4xx_StdPeriph_Driver/src/stm32f4xx_cryp_aes.c ****   ******************************************************************************
  45:Libraries/STM32F4xx_StdPeriph_Driver/src/stm32f4xx_cryp_aes.c ****   */
  46:Libraries/STM32F4xx_StdPeriph_Driver/src/stm32f4xx_cryp_aes.c **** 
  47:Libraries/STM32F4xx_StdPeriph_Driver/src/stm32f4xx_cryp_aes.c **** /* Includes ------------------------------------------------------------------*/
  48:Libraries/STM32F4xx_StdPeriph_Driver/src/stm32f4xx_cryp_aes.c **** #include "stm32f4xx_cryp.h"
  49:Libraries/STM32F4xx_StdPeriph_Driver/src/stm32f4xx_cryp_aes.c **** 
  50:Libraries/STM32F4xx_StdPeriph_Driver/src/stm32f4xx_cryp_aes.c **** /** @addtogroup STM32F4xx_StdPeriph_Driver
  51:Libraries/STM32F4xx_StdPeriph_Driver/src/stm32f4xx_cryp_aes.c ****   * @{
  52:Libraries/STM32F4xx_StdPeriph_Driver/src/stm32f4xx_cryp_aes.c ****   */
  53:Libraries/STM32F4xx_StdPeriph_Driver/src/stm32f4xx_cryp_aes.c **** 
  54:Libraries/STM32F4xx_StdPeriph_Driver/src/stm32f4xx_cryp_aes.c **** /** @defgroup CRYP 
  55:Libraries/STM32F4xx_StdPeriph_Driver/src/stm32f4xx_cryp_aes.c ****   * @brief CRYP driver modules
  56:Libraries/STM32F4xx_StdPeriph_Driver/src/stm32f4xx_cryp_aes.c ****   * @{
  57:Libraries/STM32F4xx_StdPeriph_Driver/src/stm32f4xx_cryp_aes.c ****   */
  58:Libraries/STM32F4xx_StdPeriph_Driver/src/stm32f4xx_cryp_aes.c **** 
  59:Libraries/STM32F4xx_StdPeriph_Driver/src/stm32f4xx_cryp_aes.c **** /* Private typedef -----------------------------------------------------------*/
  60:Libraries/STM32F4xx_StdPeriph_Driver/src/stm32f4xx_cryp_aes.c **** /* Private define ------------------------------------------------------------*/
  61:Libraries/STM32F4xx_StdPeriph_Driver/src/stm32f4xx_cryp_aes.c **** #define AESBUSY_TIMEOUT    ((uint32_t) 0x00010000)
  62:Libraries/STM32F4xx_StdPeriph_Driver/src/stm32f4xx_cryp_aes.c **** 
  63:Libraries/STM32F4xx_StdPeriph_Driver/src/stm32f4xx_cryp_aes.c **** /* Private macro -------------------------------------------------------------*/
  64:Libraries/STM32F4xx_StdPeriph_Driver/src/stm32f4xx_cryp_aes.c **** /* Private variables ---------------------------------------------------------*/
  65:Libraries/STM32F4xx_StdPeriph_Driver/src/stm32f4xx_cryp_aes.c **** /* Private function prototypes -----------------------------------------------*/
  66:Libraries/STM32F4xx_StdPeriph_Driver/src/stm32f4xx_cryp_aes.c **** /* Private functions ---------------------------------------------------------*/
  67:Libraries/STM32F4xx_StdPeriph_Driver/src/stm32f4xx_cryp_aes.c **** 
  68:Libraries/STM32F4xx_StdPeriph_Driver/src/stm32f4xx_cryp_aes.c **** /** @defgroup CRYP_Private_Functions
  69:Libraries/STM32F4xx_StdPeriph_Driver/src/stm32f4xx_cryp_aes.c ****   * @{
  70:Libraries/STM32F4xx_StdPeriph_Driver/src/stm32f4xx_cryp_aes.c ****   */ 
  71:Libraries/STM32F4xx_StdPeriph_Driver/src/stm32f4xx_cryp_aes.c **** 
  72:Libraries/STM32F4xx_StdPeriph_Driver/src/stm32f4xx_cryp_aes.c **** /** @defgroup CRYP_Group6 High Level AES functions
  73:Libraries/STM32F4xx_StdPeriph_Driver/src/stm32f4xx_cryp_aes.c ****  *  @brief   High Level AES functions 
  74:Libraries/STM32F4xx_StdPeriph_Driver/src/stm32f4xx_cryp_aes.c ****  *
  75:Libraries/STM32F4xx_StdPeriph_Driver/src/stm32f4xx_cryp_aes.c **** @verbatim   
  76:Libraries/STM32F4xx_StdPeriph_Driver/src/stm32f4xx_cryp_aes.c ****  ===============================================================================
  77:Libraries/STM32F4xx_StdPeriph_Driver/src/stm32f4xx_cryp_aes.c ****                        ##### High Level AES functions #####
  78:Libraries/STM32F4xx_StdPeriph_Driver/src/stm32f4xx_cryp_aes.c ****  ===============================================================================
  79:Libraries/STM32F4xx_StdPeriph_Driver/src/stm32f4xx_cryp_aes.c **** 
  80:Libraries/STM32F4xx_StdPeriph_Driver/src/stm32f4xx_cryp_aes.c **** @endverbatim
  81:Libraries/STM32F4xx_StdPeriph_Driver/src/stm32f4xx_cryp_aes.c ****   * @{
  82:Libraries/STM32F4xx_StdPeriph_Driver/src/stm32f4xx_cryp_aes.c ****   */
  83:Libraries/STM32F4xx_StdPeriph_Driver/src/stm32f4xx_cryp_aes.c **** 
  84:Libraries/STM32F4xx_StdPeriph_Driver/src/stm32f4xx_cryp_aes.c **** /**
  85:Libraries/STM32F4xx_StdPeriph_Driver/src/stm32f4xx_cryp_aes.c ****   * @brief  Encrypt and decrypt using AES in ECB Mode
  86:Libraries/STM32F4xx_StdPeriph_Driver/src/stm32f4xx_cryp_aes.c ****   * @param  Mode: encryption or decryption Mode.
ARM GAS  /tmp/ccklj7FS.s 			page 3


  87:Libraries/STM32F4xx_StdPeriph_Driver/src/stm32f4xx_cryp_aes.c ****   *          This parameter can be one of the following values:
  88:Libraries/STM32F4xx_StdPeriph_Driver/src/stm32f4xx_cryp_aes.c ****   *            @arg MODE_ENCRYPT: Encryption
  89:Libraries/STM32F4xx_StdPeriph_Driver/src/stm32f4xx_cryp_aes.c ****   *            @arg MODE_DECRYPT: Decryption
  90:Libraries/STM32F4xx_StdPeriph_Driver/src/stm32f4xx_cryp_aes.c ****   * @param  Key: Key used for AES algorithm.
  91:Libraries/STM32F4xx_StdPeriph_Driver/src/stm32f4xx_cryp_aes.c ****   * @param  Keysize: length of the Key, must be a 128, 192 or 256.
  92:Libraries/STM32F4xx_StdPeriph_Driver/src/stm32f4xx_cryp_aes.c ****   * @param  Input: pointer to the Input buffer.
  93:Libraries/STM32F4xx_StdPeriph_Driver/src/stm32f4xx_cryp_aes.c ****   * @param  Ilength: length of the Input buffer, must be a multiple of 16.
  94:Libraries/STM32F4xx_StdPeriph_Driver/src/stm32f4xx_cryp_aes.c ****   * @param  Output: pointer to the returned buffer.
  95:Libraries/STM32F4xx_StdPeriph_Driver/src/stm32f4xx_cryp_aes.c ****   * @retval An ErrorStatus enumeration value:
  96:Libraries/STM32F4xx_StdPeriph_Driver/src/stm32f4xx_cryp_aes.c ****   *          - SUCCESS: Operation done
  97:Libraries/STM32F4xx_StdPeriph_Driver/src/stm32f4xx_cryp_aes.c ****   *          - ERROR: Operation failed
  98:Libraries/STM32F4xx_StdPeriph_Driver/src/stm32f4xx_cryp_aes.c ****   */
  99:Libraries/STM32F4xx_StdPeriph_Driver/src/stm32f4xx_cryp_aes.c **** ErrorStatus CRYP_AES_ECB(uint8_t Mode, uint8_t* Key, uint16_t Keysize,
 100:Libraries/STM32F4xx_StdPeriph_Driver/src/stm32f4xx_cryp_aes.c ****                          uint8_t* Input, uint32_t Ilength, uint8_t* Output)
 101:Libraries/STM32F4xx_StdPeriph_Driver/src/stm32f4xx_cryp_aes.c **** {
  30              		.loc 1 101 1 view -0
  31              		.cfi_startproc
  32              		@ args = 8, pretend = 0, frame = 56
  33              		@ frame_needed = 0, uses_anonymous_args = 0
  34              		.loc 1 101 1 is_stmt 0 view .LVU1
  35 0000 2DE9F043 		push	{r4, r5, r6, r7, r8, r9, lr}
  36              	.LCFI0:
  37              		.cfi_def_cfa_offset 28
  38              		.cfi_offset 4, -28
  39              		.cfi_offset 5, -24
  40              		.cfi_offset 6, -20
  41              		.cfi_offset 7, -16
  42              		.cfi_offset 8, -12
  43              		.cfi_offset 9, -8
  44              		.cfi_offset 14, -4
  45 0004 8FB0     		sub	sp, sp, #60
  46              	.LCFI1:
  47              		.cfi_def_cfa_offset 88
  48 0006 0646     		mov	r6, r0
  49 0008 0D46     		mov	r5, r1
  50 000a 9146     		mov	r9, r2
  51 000c DDF85880 		ldr	r8, [sp, #88]
 102:Libraries/STM32F4xx_StdPeriph_Driver/src/stm32f4xx_cryp_aes.c ****   CRYP_InitTypeDef AES_CRYP_InitStructure;
  52              		.loc 1 102 3 is_stmt 1 view .LVU2
 103:Libraries/STM32F4xx_StdPeriph_Driver/src/stm32f4xx_cryp_aes.c ****   CRYP_KeyInitTypeDef AES_CRYP_KeyInitStructure;
  53              		.loc 1 103 3 view .LVU3
 104:Libraries/STM32F4xx_StdPeriph_Driver/src/stm32f4xx_cryp_aes.c ****   __IO uint32_t counter = 0;
  54              		.loc 1 104 3 view .LVU4
  55              		.loc 1 104 17 is_stmt 0 view .LVU5
  56 0010 0022     		movs	r2, #0
  57              	.LVL1:
  58              		.loc 1 104 17 view .LVU6
  59 0012 0192     		str	r2, [sp, #4]
 105:Libraries/STM32F4xx_StdPeriph_Driver/src/stm32f4xx_cryp_aes.c ****   uint32_t busystatus = 0;
  60              		.loc 1 105 3 is_stmt 1 view .LVU7
  61              	.LVL2:
 106:Libraries/STM32F4xx_StdPeriph_Driver/src/stm32f4xx_cryp_aes.c ****   ErrorStatus status = SUCCESS;
  62              		.loc 1 106 3 view .LVU8
 107:Libraries/STM32F4xx_StdPeriph_Driver/src/stm32f4xx_cryp_aes.c ****   uint32_t keyaddr    = (uint32_t)Key;
  63              		.loc 1 107 3 view .LVU9
 108:Libraries/STM32F4xx_StdPeriph_Driver/src/stm32f4xx_cryp_aes.c ****   uint32_t inputaddr  = (uint32_t)Input;
  64              		.loc 1 108 3 view .LVU10
ARM GAS  /tmp/ccklj7FS.s 			page 4


  65              		.loc 1 108 12 is_stmt 0 view .LVU11
  66 0014 1C46     		mov	r4, r3
  67              	.LVL3:
 109:Libraries/STM32F4xx_StdPeriph_Driver/src/stm32f4xx_cryp_aes.c ****   uint32_t outputaddr = (uint32_t)Output;
  68              		.loc 1 109 3 is_stmt 1 view .LVU12
  69              		.loc 1 109 12 is_stmt 0 view .LVU13
  70 0016 179F     		ldr	r7, [sp, #92]
  71              	.LVL4:
 110:Libraries/STM32F4xx_StdPeriph_Driver/src/stm32f4xx_cryp_aes.c ****   uint32_t i = 0;
  72              		.loc 1 110 3 is_stmt 1 view .LVU14
 111:Libraries/STM32F4xx_StdPeriph_Driver/src/stm32f4xx_cryp_aes.c **** 
 112:Libraries/STM32F4xx_StdPeriph_Driver/src/stm32f4xx_cryp_aes.c ****   /* Crypto structures initialisation*/
 113:Libraries/STM32F4xx_StdPeriph_Driver/src/stm32f4xx_cryp_aes.c ****   CRYP_KeyStructInit(&AES_CRYP_KeyInitStructure);
  73              		.loc 1 113 3 view .LVU15
  74 0018 02A8     		add	r0, sp, #8
  75              	.LVL5:
  76              		.loc 1 113 3 is_stmt 0 view .LVU16
  77 001a FFF7FEFF 		bl	CRYP_KeyStructInit
  78              	.LVL6:
 114:Libraries/STM32F4xx_StdPeriph_Driver/src/stm32f4xx_cryp_aes.c **** 
 115:Libraries/STM32F4xx_StdPeriph_Driver/src/stm32f4xx_cryp_aes.c ****   switch(Keysize)
  79              		.loc 1 115 3 is_stmt 1 view .LVU17
  80 001e B9F1C00F 		cmp	r9, #192
  81 0022 39D0     		beq	.L2
  82 0024 B9F5807F 		cmp	r9, #256
  83 0028 4CD0     		beq	.L3
  84 002a B9F1800F 		cmp	r9, #128
  85 002e 24D0     		beq	.L18
  86              	.LVL7:
  87              	.L4:
 116:Libraries/STM32F4xx_StdPeriph_Driver/src/stm32f4xx_cryp_aes.c ****   {
 117:Libraries/STM32F4xx_StdPeriph_Driver/src/stm32f4xx_cryp_aes.c ****     case 128:
 118:Libraries/STM32F4xx_StdPeriph_Driver/src/stm32f4xx_cryp_aes.c ****     AES_CRYP_InitStructure.CRYP_KeySize = CRYP_KeySize_128b;
 119:Libraries/STM32F4xx_StdPeriph_Driver/src/stm32f4xx_cryp_aes.c ****     AES_CRYP_KeyInitStructure.CRYP_Key2Left = __REV(*(uint32_t*)(keyaddr));
 120:Libraries/STM32F4xx_StdPeriph_Driver/src/stm32f4xx_cryp_aes.c ****     keyaddr+=4;
 121:Libraries/STM32F4xx_StdPeriph_Driver/src/stm32f4xx_cryp_aes.c ****     AES_CRYP_KeyInitStructure.CRYP_Key2Right= __REV(*(uint32_t*)(keyaddr));
 122:Libraries/STM32F4xx_StdPeriph_Driver/src/stm32f4xx_cryp_aes.c ****     keyaddr+=4;
 123:Libraries/STM32F4xx_StdPeriph_Driver/src/stm32f4xx_cryp_aes.c ****     AES_CRYP_KeyInitStructure.CRYP_Key3Left = __REV(*(uint32_t*)(keyaddr));
 124:Libraries/STM32F4xx_StdPeriph_Driver/src/stm32f4xx_cryp_aes.c ****     keyaddr+=4;
 125:Libraries/STM32F4xx_StdPeriph_Driver/src/stm32f4xx_cryp_aes.c ****     AES_CRYP_KeyInitStructure.CRYP_Key3Right= __REV(*(uint32_t*)(keyaddr));
 126:Libraries/STM32F4xx_StdPeriph_Driver/src/stm32f4xx_cryp_aes.c ****     break;
 127:Libraries/STM32F4xx_StdPeriph_Driver/src/stm32f4xx_cryp_aes.c ****     case 192:
 128:Libraries/STM32F4xx_StdPeriph_Driver/src/stm32f4xx_cryp_aes.c ****     AES_CRYP_InitStructure.CRYP_KeySize  = CRYP_KeySize_192b;
 129:Libraries/STM32F4xx_StdPeriph_Driver/src/stm32f4xx_cryp_aes.c ****     AES_CRYP_KeyInitStructure.CRYP_Key1Left = __REV(*(uint32_t*)(keyaddr));
 130:Libraries/STM32F4xx_StdPeriph_Driver/src/stm32f4xx_cryp_aes.c ****     keyaddr+=4;
 131:Libraries/STM32F4xx_StdPeriph_Driver/src/stm32f4xx_cryp_aes.c ****     AES_CRYP_KeyInitStructure.CRYP_Key1Right= __REV(*(uint32_t*)(keyaddr));
 132:Libraries/STM32F4xx_StdPeriph_Driver/src/stm32f4xx_cryp_aes.c ****     keyaddr+=4;
 133:Libraries/STM32F4xx_StdPeriph_Driver/src/stm32f4xx_cryp_aes.c ****     AES_CRYP_KeyInitStructure.CRYP_Key2Left = __REV(*(uint32_t*)(keyaddr));
 134:Libraries/STM32F4xx_StdPeriph_Driver/src/stm32f4xx_cryp_aes.c ****     keyaddr+=4;
 135:Libraries/STM32F4xx_StdPeriph_Driver/src/stm32f4xx_cryp_aes.c ****     AES_CRYP_KeyInitStructure.CRYP_Key2Right= __REV(*(uint32_t*)(keyaddr));
 136:Libraries/STM32F4xx_StdPeriph_Driver/src/stm32f4xx_cryp_aes.c ****     keyaddr+=4;
 137:Libraries/STM32F4xx_StdPeriph_Driver/src/stm32f4xx_cryp_aes.c ****     AES_CRYP_KeyInitStructure.CRYP_Key3Left = __REV(*(uint32_t*)(keyaddr));
 138:Libraries/STM32F4xx_StdPeriph_Driver/src/stm32f4xx_cryp_aes.c ****     keyaddr+=4;
 139:Libraries/STM32F4xx_StdPeriph_Driver/src/stm32f4xx_cryp_aes.c ****     AES_CRYP_KeyInitStructure.CRYP_Key3Right= __REV(*(uint32_t*)(keyaddr));
 140:Libraries/STM32F4xx_StdPeriph_Driver/src/stm32f4xx_cryp_aes.c ****     break;
 141:Libraries/STM32F4xx_StdPeriph_Driver/src/stm32f4xx_cryp_aes.c ****     case 256:
 142:Libraries/STM32F4xx_StdPeriph_Driver/src/stm32f4xx_cryp_aes.c ****     AES_CRYP_InitStructure.CRYP_KeySize  = CRYP_KeySize_256b;
ARM GAS  /tmp/ccklj7FS.s 			page 5


 143:Libraries/STM32F4xx_StdPeriph_Driver/src/stm32f4xx_cryp_aes.c ****     AES_CRYP_KeyInitStructure.CRYP_Key0Left = __REV(*(uint32_t*)(keyaddr));
 144:Libraries/STM32F4xx_StdPeriph_Driver/src/stm32f4xx_cryp_aes.c ****     keyaddr+=4;
 145:Libraries/STM32F4xx_StdPeriph_Driver/src/stm32f4xx_cryp_aes.c ****     AES_CRYP_KeyInitStructure.CRYP_Key0Right= __REV(*(uint32_t*)(keyaddr));
 146:Libraries/STM32F4xx_StdPeriph_Driver/src/stm32f4xx_cryp_aes.c ****     keyaddr+=4;
 147:Libraries/STM32F4xx_StdPeriph_Driver/src/stm32f4xx_cryp_aes.c ****     AES_CRYP_KeyInitStructure.CRYP_Key1Left = __REV(*(uint32_t*)(keyaddr));
 148:Libraries/STM32F4xx_StdPeriph_Driver/src/stm32f4xx_cryp_aes.c ****     keyaddr+=4;
 149:Libraries/STM32F4xx_StdPeriph_Driver/src/stm32f4xx_cryp_aes.c ****     AES_CRYP_KeyInitStructure.CRYP_Key1Right= __REV(*(uint32_t*)(keyaddr));
 150:Libraries/STM32F4xx_StdPeriph_Driver/src/stm32f4xx_cryp_aes.c ****     keyaddr+=4;
 151:Libraries/STM32F4xx_StdPeriph_Driver/src/stm32f4xx_cryp_aes.c ****     AES_CRYP_KeyInitStructure.CRYP_Key2Left = __REV(*(uint32_t*)(keyaddr));
 152:Libraries/STM32F4xx_StdPeriph_Driver/src/stm32f4xx_cryp_aes.c ****     keyaddr+=4;
 153:Libraries/STM32F4xx_StdPeriph_Driver/src/stm32f4xx_cryp_aes.c ****     AES_CRYP_KeyInitStructure.CRYP_Key2Right= __REV(*(uint32_t*)(keyaddr));
 154:Libraries/STM32F4xx_StdPeriph_Driver/src/stm32f4xx_cryp_aes.c ****     keyaddr+=4;
 155:Libraries/STM32F4xx_StdPeriph_Driver/src/stm32f4xx_cryp_aes.c ****     AES_CRYP_KeyInitStructure.CRYP_Key3Left = __REV(*(uint32_t*)(keyaddr));
 156:Libraries/STM32F4xx_StdPeriph_Driver/src/stm32f4xx_cryp_aes.c ****     keyaddr+=4;
 157:Libraries/STM32F4xx_StdPeriph_Driver/src/stm32f4xx_cryp_aes.c ****     AES_CRYP_KeyInitStructure.CRYP_Key3Right= __REV(*(uint32_t*)(keyaddr));
 158:Libraries/STM32F4xx_StdPeriph_Driver/src/stm32f4xx_cryp_aes.c ****     break;
 159:Libraries/STM32F4xx_StdPeriph_Driver/src/stm32f4xx_cryp_aes.c ****     default:
 160:Libraries/STM32F4xx_StdPeriph_Driver/src/stm32f4xx_cryp_aes.c ****     break;
 161:Libraries/STM32F4xx_StdPeriph_Driver/src/stm32f4xx_cryp_aes.c ****   }
 162:Libraries/STM32F4xx_StdPeriph_Driver/src/stm32f4xx_cryp_aes.c **** 
 163:Libraries/STM32F4xx_StdPeriph_Driver/src/stm32f4xx_cryp_aes.c ****   /*------------------ AES Decryption ------------------*/
 164:Libraries/STM32F4xx_StdPeriph_Driver/src/stm32f4xx_cryp_aes.c ****   if(Mode == MODE_DECRYPT) /* AES decryption */
  88              		.loc 1 164 3 view .LVU18
  89              		.loc 1 164 5 is_stmt 0 view .LVU19
  90 0030 002E     		cmp	r6, #0
  91 0032 63D1     		bne	.L5
 165:Libraries/STM32F4xx_StdPeriph_Driver/src/stm32f4xx_cryp_aes.c ****   {
 166:Libraries/STM32F4xx_StdPeriph_Driver/src/stm32f4xx_cryp_aes.c ****     /* Flush IN/OUT FIFOs */
 167:Libraries/STM32F4xx_StdPeriph_Driver/src/stm32f4xx_cryp_aes.c ****     CRYP_FIFOFlush();
  92              		.loc 1 167 5 is_stmt 1 view .LVU20
  93 0034 FFF7FEFF 		bl	CRYP_FIFOFlush
  94              	.LVL8:
 168:Libraries/STM32F4xx_StdPeriph_Driver/src/stm32f4xx_cryp_aes.c **** 
 169:Libraries/STM32F4xx_StdPeriph_Driver/src/stm32f4xx_cryp_aes.c ****     /* Crypto Init for Key preparation for decryption process */
 170:Libraries/STM32F4xx_StdPeriph_Driver/src/stm32f4xx_cryp_aes.c ****     AES_CRYP_InitStructure.CRYP_AlgoDir = CRYP_AlgoDir_Decrypt;
  95              		.loc 1 170 5 view .LVU21
  96              		.loc 1 170 41 is_stmt 0 view .LVU22
  97 0038 0423     		movs	r3, #4
  98 003a 0A93     		str	r3, [sp, #40]
 171:Libraries/STM32F4xx_StdPeriph_Driver/src/stm32f4xx_cryp_aes.c ****     AES_CRYP_InitStructure.CRYP_AlgoMode = CRYP_AlgoMode_AES_Key;
  99              		.loc 1 171 5 is_stmt 1 view .LVU23
 100              		.loc 1 171 42 is_stmt 0 view .LVU24
 101 003c 3823     		movs	r3, #56
 102 003e 0B93     		str	r3, [sp, #44]
 172:Libraries/STM32F4xx_StdPeriph_Driver/src/stm32f4xx_cryp_aes.c ****     AES_CRYP_InitStructure.CRYP_DataType = CRYP_DataType_32b;
 103              		.loc 1 172 5 is_stmt 1 view .LVU25
 104              		.loc 1 172 42 is_stmt 0 view .LVU26
 105 0040 0023     		movs	r3, #0
 106 0042 0C93     		str	r3, [sp, #48]
 173:Libraries/STM32F4xx_StdPeriph_Driver/src/stm32f4xx_cryp_aes.c ****     CRYP_Init(&AES_CRYP_InitStructure);
 107              		.loc 1 173 5 is_stmt 1 view .LVU27
 108 0044 0AA8     		add	r0, sp, #40
 109 0046 FFF7FEFF 		bl	CRYP_Init
 110              	.LVL9:
 174:Libraries/STM32F4xx_StdPeriph_Driver/src/stm32f4xx_cryp_aes.c **** 
 175:Libraries/STM32F4xx_StdPeriph_Driver/src/stm32f4xx_cryp_aes.c ****     /* Key Initialisation */
 176:Libraries/STM32F4xx_StdPeriph_Driver/src/stm32f4xx_cryp_aes.c ****     CRYP_KeyInit(&AES_CRYP_KeyInitStructure);
ARM GAS  /tmp/ccklj7FS.s 			page 6


 111              		.loc 1 176 5 view .LVU28
 112 004a 02A8     		add	r0, sp, #8
 113 004c FFF7FEFF 		bl	CRYP_KeyInit
 114              	.LVL10:
 177:Libraries/STM32F4xx_StdPeriph_Driver/src/stm32f4xx_cryp_aes.c **** 
 178:Libraries/STM32F4xx_StdPeriph_Driver/src/stm32f4xx_cryp_aes.c ****     /* Enable Crypto processor */
 179:Libraries/STM32F4xx_StdPeriph_Driver/src/stm32f4xx_cryp_aes.c ****     CRYP_Cmd(ENABLE);
 115              		.loc 1 179 5 view .LVU29
 116 0050 0120     		movs	r0, #1
 117 0052 FFF7FEFF 		bl	CRYP_Cmd
 118              	.LVL11:
 119              	.L7:
 180:Libraries/STM32F4xx_StdPeriph_Driver/src/stm32f4xx_cryp_aes.c **** 
 181:Libraries/STM32F4xx_StdPeriph_Driver/src/stm32f4xx_cryp_aes.c ****     /* wait until the Busy flag is RESET */
 182:Libraries/STM32F4xx_StdPeriph_Driver/src/stm32f4xx_cryp_aes.c ****     do
 120              		.loc 1 182 5 discriminator 2 view .LVU30
 183:Libraries/STM32F4xx_StdPeriph_Driver/src/stm32f4xx_cryp_aes.c ****     {
 184:Libraries/STM32F4xx_StdPeriph_Driver/src/stm32f4xx_cryp_aes.c ****       busystatus = CRYP_GetFlagStatus(CRYP_FLAG_BUSY);
 121              		.loc 1 184 7 discriminator 2 view .LVU31
 122              		.loc 1 184 20 is_stmt 0 discriminator 2 view .LVU32
 123 0056 1020     		movs	r0, #16
 124 0058 FFF7FEFF 		bl	CRYP_GetFlagStatus
 125              	.LVL12:
 185:Libraries/STM32F4xx_StdPeriph_Driver/src/stm32f4xx_cryp_aes.c ****       counter++;
 126              		.loc 1 185 7 is_stmt 1 discriminator 2 view .LVU33
 127              		.loc 1 185 14 is_stmt 0 discriminator 2 view .LVU34
 128 005c 019B     		ldr	r3, [sp, #4]
 129 005e 0133     		adds	r3, r3, #1
 130 0060 0193     		str	r3, [sp, #4]
 186:Libraries/STM32F4xx_StdPeriph_Driver/src/stm32f4xx_cryp_aes.c ****     }while ((counter != AESBUSY_TIMEOUT) && (busystatus != RESET));
 131              		.loc 1 186 12 is_stmt 1 discriminator 2 view .LVU35
 132              		.loc 1 186 22 is_stmt 0 discriminator 2 view .LVU36
 133 0062 019B     		ldr	r3, [sp, #4]
 134              		.loc 1 186 5 discriminator 2 view .LVU37
 135 0064 B3F5803F 		cmp	r3, #65536
 136 0068 01D0     		beq	.L6
 137              		.loc 1 186 42 discriminator 1 view .LVU38
 138 006a 0028     		cmp	r0, #0
 139 006c F3D1     		bne	.L7
 140              	.L6:
 187:Libraries/STM32F4xx_StdPeriph_Driver/src/stm32f4xx_cryp_aes.c **** 
 188:Libraries/STM32F4xx_StdPeriph_Driver/src/stm32f4xx_cryp_aes.c ****     if (busystatus != RESET)
 141              		.loc 1 188 5 is_stmt 1 view .LVU39
 142              		.loc 1 188 8 is_stmt 0 view .LVU40
 143 006e 0028     		cmp	r0, #0
 144 0070 4AD1     		bne	.L8
 189:Libraries/STM32F4xx_StdPeriph_Driver/src/stm32f4xx_cryp_aes.c ****    {
 190:Libraries/STM32F4xx_StdPeriph_Driver/src/stm32f4xx_cryp_aes.c ****        status = ERROR;
 191:Libraries/STM32F4xx_StdPeriph_Driver/src/stm32f4xx_cryp_aes.c ****     }
 192:Libraries/STM32F4xx_StdPeriph_Driver/src/stm32f4xx_cryp_aes.c ****     else
 193:Libraries/STM32F4xx_StdPeriph_Driver/src/stm32f4xx_cryp_aes.c ****     {
 194:Libraries/STM32F4xx_StdPeriph_Driver/src/stm32f4xx_cryp_aes.c ****       /* Crypto Init for decryption process */  
 195:Libraries/STM32F4xx_StdPeriph_Driver/src/stm32f4xx_cryp_aes.c ****       AES_CRYP_InitStructure.CRYP_AlgoDir = CRYP_AlgoDir_Decrypt;
 145              		.loc 1 195 7 is_stmt 1 view .LVU41
 146              		.loc 1 195 43 is_stmt 0 view .LVU42
 147 0072 0423     		movs	r3, #4
 148 0074 0A93     		str	r3, [sp, #40]
ARM GAS  /tmp/ccklj7FS.s 			page 7


 106:Libraries/STM32F4xx_StdPeriph_Driver/src/stm32f4xx_cryp_aes.c ****   uint32_t keyaddr    = (uint32_t)Key;
 149              		.loc 1 106 15 view .LVU43
 150 0076 0126     		movs	r6, #1
 151 0078 46E0     		b	.L8
 152              	.LVL13:
 153              	.L18:
 118:Libraries/STM32F4xx_StdPeriph_Driver/src/stm32f4xx_cryp_aes.c ****     AES_CRYP_KeyInitStructure.CRYP_Key2Left = __REV(*(uint32_t*)(keyaddr));
 154              		.loc 1 118 5 is_stmt 1 view .LVU44
 118:Libraries/STM32F4xx_StdPeriph_Driver/src/stm32f4xx_cryp_aes.c ****     AES_CRYP_KeyInitStructure.CRYP_Key2Left = __REV(*(uint32_t*)(keyaddr));
 155              		.loc 1 118 41 is_stmt 0 view .LVU45
 156 007a 0023     		movs	r3, #0
 157 007c 0D93     		str	r3, [sp, #52]
 119:Libraries/STM32F4xx_StdPeriph_Driver/src/stm32f4xx_cryp_aes.c ****     keyaddr+=4;
 158              		.loc 1 119 5 is_stmt 1 view .LVU46
 119:Libraries/STM32F4xx_StdPeriph_Driver/src/stm32f4xx_cryp_aes.c ****     keyaddr+=4;
 159              		.loc 1 119 47 is_stmt 0 view .LVU47
 160 007e 2B68     		ldr	r3, [r5]
 161              	.LVL14:
 162              	.LBB230:
 163              	.LBI230:
 164              		.file 2 "Libraries/CMSIS/Include/core_cmInstr.h"
   1:Libraries/CMSIS/Include/core_cmInstr.h **** /**************************************************************************//**
   2:Libraries/CMSIS/Include/core_cmInstr.h ****  * @file     core_cmInstr.h
   3:Libraries/CMSIS/Include/core_cmInstr.h ****  * @brief    CMSIS Cortex-M Core Instruction Access Header File
   4:Libraries/CMSIS/Include/core_cmInstr.h ****  * @version  V4.10
   5:Libraries/CMSIS/Include/core_cmInstr.h ****  * @date     18. March 2015
   6:Libraries/CMSIS/Include/core_cmInstr.h ****  *
   7:Libraries/CMSIS/Include/core_cmInstr.h ****  * @note
   8:Libraries/CMSIS/Include/core_cmInstr.h ****  *
   9:Libraries/CMSIS/Include/core_cmInstr.h ****  ******************************************************************************/
  10:Libraries/CMSIS/Include/core_cmInstr.h **** /* Copyright (c) 2009 - 2014 ARM LIMITED
  11:Libraries/CMSIS/Include/core_cmInstr.h **** 
  12:Libraries/CMSIS/Include/core_cmInstr.h ****    All rights reserved.
  13:Libraries/CMSIS/Include/core_cmInstr.h ****    Redistribution and use in source and binary forms, with or without
  14:Libraries/CMSIS/Include/core_cmInstr.h ****    modification, are permitted provided that the following conditions are met:
  15:Libraries/CMSIS/Include/core_cmInstr.h ****    - Redistributions of source code must retain the above copyright
  16:Libraries/CMSIS/Include/core_cmInstr.h ****      notice, this list of conditions and the following disclaimer.
  17:Libraries/CMSIS/Include/core_cmInstr.h ****    - Redistributions in binary form must reproduce the above copyright
  18:Libraries/CMSIS/Include/core_cmInstr.h ****      notice, this list of conditions and the following disclaimer in the
  19:Libraries/CMSIS/Include/core_cmInstr.h ****      documentation and/or other materials provided with the distribution.
  20:Libraries/CMSIS/Include/core_cmInstr.h ****    - Neither the name of ARM nor the names of its contributors may be used
  21:Libraries/CMSIS/Include/core_cmInstr.h ****      to endorse or promote products derived from this software without
  22:Libraries/CMSIS/Include/core_cmInstr.h ****      specific prior written permission.
  23:Libraries/CMSIS/Include/core_cmInstr.h ****    *
  24:Libraries/CMSIS/Include/core_cmInstr.h ****    THIS SOFTWARE IS PROVIDED BY THE COPYRIGHT HOLDERS AND CONTRIBUTORS "AS IS"
  25:Libraries/CMSIS/Include/core_cmInstr.h ****    AND ANY EXPRESS OR IMPLIED WARRANTIES, INCLUDING, BUT NOT LIMITED TO, THE
  26:Libraries/CMSIS/Include/core_cmInstr.h ****    IMPLIED WARRANTIES OF MERCHANTABILITY AND FITNESS FOR A PARTICULAR PURPOSE
  27:Libraries/CMSIS/Include/core_cmInstr.h ****    ARE DISCLAIMED. IN NO EVENT SHALL COPYRIGHT HOLDERS AND CONTRIBUTORS BE
  28:Libraries/CMSIS/Include/core_cmInstr.h ****    LIABLE FOR ANY DIRECT, INDIRECT, INCIDENTAL, SPECIAL, EXEMPLARY, OR
  29:Libraries/CMSIS/Include/core_cmInstr.h ****    CONSEQUENTIAL DAMAGES (INCLUDING, BUT NOT LIMITED TO, PROCUREMENT OF
  30:Libraries/CMSIS/Include/core_cmInstr.h ****    SUBSTITUTE GOODS OR SERVICES; LOSS OF USE, DATA, OR PROFITS; OR BUSINESS
  31:Libraries/CMSIS/Include/core_cmInstr.h ****    INTERRUPTION) HOWEVER CAUSED AND ON ANY THEORY OF LIABILITY, WHETHER IN
  32:Libraries/CMSIS/Include/core_cmInstr.h ****    CONTRACT, STRICT LIABILITY, OR TORT (INCLUDING NEGLIGENCE OR OTHERWISE)
  33:Libraries/CMSIS/Include/core_cmInstr.h ****    ARISING IN ANY WAY OUT OF THE USE OF THIS SOFTWARE, EVEN IF ADVISED OF THE
  34:Libraries/CMSIS/Include/core_cmInstr.h ****    POSSIBILITY OF SUCH DAMAGE.
  35:Libraries/CMSIS/Include/core_cmInstr.h ****    ---------------------------------------------------------------------------*/
  36:Libraries/CMSIS/Include/core_cmInstr.h **** 
ARM GAS  /tmp/ccklj7FS.s 			page 8


  37:Libraries/CMSIS/Include/core_cmInstr.h **** 
  38:Libraries/CMSIS/Include/core_cmInstr.h **** #ifndef __CORE_CMINSTR_H
  39:Libraries/CMSIS/Include/core_cmInstr.h **** #define __CORE_CMINSTR_H
  40:Libraries/CMSIS/Include/core_cmInstr.h **** 
  41:Libraries/CMSIS/Include/core_cmInstr.h **** 
  42:Libraries/CMSIS/Include/core_cmInstr.h **** /* ##########################  Core Instruction Access  ######################### */
  43:Libraries/CMSIS/Include/core_cmInstr.h **** /** \defgroup CMSIS_Core_InstructionInterface CMSIS Core Instruction Interface
  44:Libraries/CMSIS/Include/core_cmInstr.h ****   Access to dedicated instructions
  45:Libraries/CMSIS/Include/core_cmInstr.h ****   @{
  46:Libraries/CMSIS/Include/core_cmInstr.h **** */
  47:Libraries/CMSIS/Include/core_cmInstr.h **** 
  48:Libraries/CMSIS/Include/core_cmInstr.h **** #if   defined ( __CC_ARM ) /*------------------RealView Compiler -----------------*/
  49:Libraries/CMSIS/Include/core_cmInstr.h **** /* ARM armcc specific functions */
  50:Libraries/CMSIS/Include/core_cmInstr.h **** 
  51:Libraries/CMSIS/Include/core_cmInstr.h **** #if (__ARMCC_VERSION < 400677)
  52:Libraries/CMSIS/Include/core_cmInstr.h ****   #error "Please use ARM Compiler Toolchain V4.0.677 or later!"
  53:Libraries/CMSIS/Include/core_cmInstr.h **** #endif
  54:Libraries/CMSIS/Include/core_cmInstr.h **** 
  55:Libraries/CMSIS/Include/core_cmInstr.h **** 
  56:Libraries/CMSIS/Include/core_cmInstr.h **** /** \brief  No Operation
  57:Libraries/CMSIS/Include/core_cmInstr.h **** 
  58:Libraries/CMSIS/Include/core_cmInstr.h ****     No Operation does nothing. This instruction can be used for code alignment purposes.
  59:Libraries/CMSIS/Include/core_cmInstr.h ****  */
  60:Libraries/CMSIS/Include/core_cmInstr.h **** #define __NOP                             __nop
  61:Libraries/CMSIS/Include/core_cmInstr.h **** 
  62:Libraries/CMSIS/Include/core_cmInstr.h **** 
  63:Libraries/CMSIS/Include/core_cmInstr.h **** /** \brief  Wait For Interrupt
  64:Libraries/CMSIS/Include/core_cmInstr.h **** 
  65:Libraries/CMSIS/Include/core_cmInstr.h ****     Wait For Interrupt is a hint instruction that suspends execution
  66:Libraries/CMSIS/Include/core_cmInstr.h ****     until one of a number of events occurs.
  67:Libraries/CMSIS/Include/core_cmInstr.h ****  */
  68:Libraries/CMSIS/Include/core_cmInstr.h **** #define __WFI                             __wfi
  69:Libraries/CMSIS/Include/core_cmInstr.h **** 
  70:Libraries/CMSIS/Include/core_cmInstr.h **** 
  71:Libraries/CMSIS/Include/core_cmInstr.h **** /** \brief  Wait For Event
  72:Libraries/CMSIS/Include/core_cmInstr.h **** 
  73:Libraries/CMSIS/Include/core_cmInstr.h ****     Wait For Event is a hint instruction that permits the processor to enter
  74:Libraries/CMSIS/Include/core_cmInstr.h ****     a low-power state until one of a number of events occurs.
  75:Libraries/CMSIS/Include/core_cmInstr.h ****  */
  76:Libraries/CMSIS/Include/core_cmInstr.h **** #define __WFE                             __wfe
  77:Libraries/CMSIS/Include/core_cmInstr.h **** 
  78:Libraries/CMSIS/Include/core_cmInstr.h **** 
  79:Libraries/CMSIS/Include/core_cmInstr.h **** /** \brief  Send Event
  80:Libraries/CMSIS/Include/core_cmInstr.h **** 
  81:Libraries/CMSIS/Include/core_cmInstr.h ****     Send Event is a hint instruction. It causes an event to be signaled to the CPU.
  82:Libraries/CMSIS/Include/core_cmInstr.h ****  */
  83:Libraries/CMSIS/Include/core_cmInstr.h **** #define __SEV                             __sev
  84:Libraries/CMSIS/Include/core_cmInstr.h **** 
  85:Libraries/CMSIS/Include/core_cmInstr.h **** 
  86:Libraries/CMSIS/Include/core_cmInstr.h **** /** \brief  Instruction Synchronization Barrier
  87:Libraries/CMSIS/Include/core_cmInstr.h **** 
  88:Libraries/CMSIS/Include/core_cmInstr.h ****     Instruction Synchronization Barrier flushes the pipeline in the processor,
  89:Libraries/CMSIS/Include/core_cmInstr.h ****     so that all instructions following the ISB are fetched from cache or
  90:Libraries/CMSIS/Include/core_cmInstr.h ****     memory, after the instruction has been completed.
  91:Libraries/CMSIS/Include/core_cmInstr.h ****  */
  92:Libraries/CMSIS/Include/core_cmInstr.h **** #define __ISB() do {\
  93:Libraries/CMSIS/Include/core_cmInstr.h ****                    __schedule_barrier();\
ARM GAS  /tmp/ccklj7FS.s 			page 9


  94:Libraries/CMSIS/Include/core_cmInstr.h ****                    __isb(0xF);\
  95:Libraries/CMSIS/Include/core_cmInstr.h ****                    __schedule_barrier();\
  96:Libraries/CMSIS/Include/core_cmInstr.h ****                 } while (0)
  97:Libraries/CMSIS/Include/core_cmInstr.h **** 
  98:Libraries/CMSIS/Include/core_cmInstr.h **** /** \brief  Data Synchronization Barrier
  99:Libraries/CMSIS/Include/core_cmInstr.h **** 
 100:Libraries/CMSIS/Include/core_cmInstr.h ****     This function acts as a special kind of Data Memory Barrier.
 101:Libraries/CMSIS/Include/core_cmInstr.h ****     It completes when all explicit memory accesses before this instruction complete.
 102:Libraries/CMSIS/Include/core_cmInstr.h ****  */
 103:Libraries/CMSIS/Include/core_cmInstr.h **** #define __DSB() do {\
 104:Libraries/CMSIS/Include/core_cmInstr.h ****                    __schedule_barrier();\
 105:Libraries/CMSIS/Include/core_cmInstr.h ****                    __dsb(0xF);\
 106:Libraries/CMSIS/Include/core_cmInstr.h ****                    __schedule_barrier();\
 107:Libraries/CMSIS/Include/core_cmInstr.h ****                 } while (0)
 108:Libraries/CMSIS/Include/core_cmInstr.h **** 
 109:Libraries/CMSIS/Include/core_cmInstr.h **** /** \brief  Data Memory Barrier
 110:Libraries/CMSIS/Include/core_cmInstr.h **** 
 111:Libraries/CMSIS/Include/core_cmInstr.h ****     This function ensures the apparent order of the explicit memory operations before
 112:Libraries/CMSIS/Include/core_cmInstr.h ****     and after the instruction, without ensuring their completion.
 113:Libraries/CMSIS/Include/core_cmInstr.h ****  */
 114:Libraries/CMSIS/Include/core_cmInstr.h **** #define __DMB() do {\
 115:Libraries/CMSIS/Include/core_cmInstr.h ****                    __schedule_barrier();\
 116:Libraries/CMSIS/Include/core_cmInstr.h ****                    __dmb(0xF);\
 117:Libraries/CMSIS/Include/core_cmInstr.h ****                    __schedule_barrier();\
 118:Libraries/CMSIS/Include/core_cmInstr.h ****                 } while (0)
 119:Libraries/CMSIS/Include/core_cmInstr.h **** 
 120:Libraries/CMSIS/Include/core_cmInstr.h **** /** \brief  Reverse byte order (32 bit)
 121:Libraries/CMSIS/Include/core_cmInstr.h **** 
 122:Libraries/CMSIS/Include/core_cmInstr.h ****     This function reverses the byte order in integer value.
 123:Libraries/CMSIS/Include/core_cmInstr.h **** 
 124:Libraries/CMSIS/Include/core_cmInstr.h ****     \param [in]    value  Value to reverse
 125:Libraries/CMSIS/Include/core_cmInstr.h ****     \return               Reversed value
 126:Libraries/CMSIS/Include/core_cmInstr.h ****  */
 127:Libraries/CMSIS/Include/core_cmInstr.h **** #define __REV                             __rev
 128:Libraries/CMSIS/Include/core_cmInstr.h **** 
 129:Libraries/CMSIS/Include/core_cmInstr.h **** 
 130:Libraries/CMSIS/Include/core_cmInstr.h **** /** \brief  Reverse byte order (16 bit)
 131:Libraries/CMSIS/Include/core_cmInstr.h **** 
 132:Libraries/CMSIS/Include/core_cmInstr.h ****     This function reverses the byte order in two unsigned short values.
 133:Libraries/CMSIS/Include/core_cmInstr.h **** 
 134:Libraries/CMSIS/Include/core_cmInstr.h ****     \param [in]    value  Value to reverse
 135:Libraries/CMSIS/Include/core_cmInstr.h ****     \return               Reversed value
 136:Libraries/CMSIS/Include/core_cmInstr.h ****  */
 137:Libraries/CMSIS/Include/core_cmInstr.h **** #ifndef __NO_EMBEDDED_ASM
 138:Libraries/CMSIS/Include/core_cmInstr.h **** __attribute__((section(".rev16_text"))) __STATIC_INLINE __ASM uint32_t __REV16(uint32_t value)
 139:Libraries/CMSIS/Include/core_cmInstr.h **** {
 140:Libraries/CMSIS/Include/core_cmInstr.h ****   rev16 r0, r0
 141:Libraries/CMSIS/Include/core_cmInstr.h ****   bx lr
 142:Libraries/CMSIS/Include/core_cmInstr.h **** }
 143:Libraries/CMSIS/Include/core_cmInstr.h **** #endif
 144:Libraries/CMSIS/Include/core_cmInstr.h **** 
 145:Libraries/CMSIS/Include/core_cmInstr.h **** /** \brief  Reverse byte order in signed short value
 146:Libraries/CMSIS/Include/core_cmInstr.h **** 
 147:Libraries/CMSIS/Include/core_cmInstr.h ****     This function reverses the byte order in a signed short value with sign extension to integer.
 148:Libraries/CMSIS/Include/core_cmInstr.h **** 
 149:Libraries/CMSIS/Include/core_cmInstr.h ****     \param [in]    value  Value to reverse
 150:Libraries/CMSIS/Include/core_cmInstr.h ****     \return               Reversed value
ARM GAS  /tmp/ccklj7FS.s 			page 10


 151:Libraries/CMSIS/Include/core_cmInstr.h ****  */
 152:Libraries/CMSIS/Include/core_cmInstr.h **** #ifndef __NO_EMBEDDED_ASM
 153:Libraries/CMSIS/Include/core_cmInstr.h **** __attribute__((section(".revsh_text"))) __STATIC_INLINE __ASM int32_t __REVSH(int32_t value)
 154:Libraries/CMSIS/Include/core_cmInstr.h **** {
 155:Libraries/CMSIS/Include/core_cmInstr.h ****   revsh r0, r0
 156:Libraries/CMSIS/Include/core_cmInstr.h ****   bx lr
 157:Libraries/CMSIS/Include/core_cmInstr.h **** }
 158:Libraries/CMSIS/Include/core_cmInstr.h **** #endif
 159:Libraries/CMSIS/Include/core_cmInstr.h **** 
 160:Libraries/CMSIS/Include/core_cmInstr.h **** 
 161:Libraries/CMSIS/Include/core_cmInstr.h **** /** \brief  Rotate Right in unsigned value (32 bit)
 162:Libraries/CMSIS/Include/core_cmInstr.h **** 
 163:Libraries/CMSIS/Include/core_cmInstr.h ****     This function Rotate Right (immediate) provides the value of the contents of a register rotated
 164:Libraries/CMSIS/Include/core_cmInstr.h **** 
 165:Libraries/CMSIS/Include/core_cmInstr.h ****     \param [in]    value  Value to rotate
 166:Libraries/CMSIS/Include/core_cmInstr.h ****     \param [in]    value  Number of Bits to rotate
 167:Libraries/CMSIS/Include/core_cmInstr.h ****     \return               Rotated value
 168:Libraries/CMSIS/Include/core_cmInstr.h ****  */
 169:Libraries/CMSIS/Include/core_cmInstr.h **** #define __ROR                             __ror
 170:Libraries/CMSIS/Include/core_cmInstr.h **** 
 171:Libraries/CMSIS/Include/core_cmInstr.h **** 
 172:Libraries/CMSIS/Include/core_cmInstr.h **** /** \brief  Breakpoint
 173:Libraries/CMSIS/Include/core_cmInstr.h **** 
 174:Libraries/CMSIS/Include/core_cmInstr.h ****     This function causes the processor to enter Debug state.
 175:Libraries/CMSIS/Include/core_cmInstr.h ****     Debug tools can use this to investigate system state when the instruction at a particular addre
 176:Libraries/CMSIS/Include/core_cmInstr.h **** 
 177:Libraries/CMSIS/Include/core_cmInstr.h ****     \param [in]    value  is ignored by the processor.
 178:Libraries/CMSIS/Include/core_cmInstr.h ****                    If required, a debugger can use it to store additional information about the bre
 179:Libraries/CMSIS/Include/core_cmInstr.h ****  */
 180:Libraries/CMSIS/Include/core_cmInstr.h **** #define __BKPT(value)                       __breakpoint(value)
 181:Libraries/CMSIS/Include/core_cmInstr.h **** 
 182:Libraries/CMSIS/Include/core_cmInstr.h **** 
 183:Libraries/CMSIS/Include/core_cmInstr.h **** /** \brief  Reverse bit order of value
 184:Libraries/CMSIS/Include/core_cmInstr.h **** 
 185:Libraries/CMSIS/Include/core_cmInstr.h ****     This function reverses the bit order of the given value.
 186:Libraries/CMSIS/Include/core_cmInstr.h **** 
 187:Libraries/CMSIS/Include/core_cmInstr.h ****     \param [in]    value  Value to reverse
 188:Libraries/CMSIS/Include/core_cmInstr.h ****     \return               Reversed value
 189:Libraries/CMSIS/Include/core_cmInstr.h ****  */
 190:Libraries/CMSIS/Include/core_cmInstr.h **** #if       (__CORTEX_M >= 0x03) || (__CORTEX_SC >= 300)
 191:Libraries/CMSIS/Include/core_cmInstr.h ****   #define __RBIT                          __rbit
 192:Libraries/CMSIS/Include/core_cmInstr.h **** #else
 193:Libraries/CMSIS/Include/core_cmInstr.h **** __attribute__((always_inline)) __STATIC_INLINE uint32_t __RBIT(uint32_t value)
 194:Libraries/CMSIS/Include/core_cmInstr.h **** {
 195:Libraries/CMSIS/Include/core_cmInstr.h ****   uint32_t result;
 196:Libraries/CMSIS/Include/core_cmInstr.h ****   int32_t s = 4 /*sizeof(v)*/ * 8 - 1; // extra shift needed at end
 197:Libraries/CMSIS/Include/core_cmInstr.h **** 
 198:Libraries/CMSIS/Include/core_cmInstr.h ****   result = value;                      // r will be reversed bits of v; first get LSB of v
 199:Libraries/CMSIS/Include/core_cmInstr.h ****   for (value >>= 1; value; value >>= 1)
 200:Libraries/CMSIS/Include/core_cmInstr.h ****   {
 201:Libraries/CMSIS/Include/core_cmInstr.h ****     result <<= 1;
 202:Libraries/CMSIS/Include/core_cmInstr.h ****     result |= value & 1;
 203:Libraries/CMSIS/Include/core_cmInstr.h ****     s--;
 204:Libraries/CMSIS/Include/core_cmInstr.h ****   }
 205:Libraries/CMSIS/Include/core_cmInstr.h ****   result <<= s;                       // shift when v's highest bits are zero
 206:Libraries/CMSIS/Include/core_cmInstr.h ****   return(result);
 207:Libraries/CMSIS/Include/core_cmInstr.h **** }
ARM GAS  /tmp/ccklj7FS.s 			page 11


 208:Libraries/CMSIS/Include/core_cmInstr.h **** #endif
 209:Libraries/CMSIS/Include/core_cmInstr.h **** 
 210:Libraries/CMSIS/Include/core_cmInstr.h **** 
 211:Libraries/CMSIS/Include/core_cmInstr.h **** /** \brief  Count leading zeros
 212:Libraries/CMSIS/Include/core_cmInstr.h **** 
 213:Libraries/CMSIS/Include/core_cmInstr.h ****     This function counts the number of leading zeros of a data value.
 214:Libraries/CMSIS/Include/core_cmInstr.h **** 
 215:Libraries/CMSIS/Include/core_cmInstr.h ****     \param [in]  value  Value to count the leading zeros
 216:Libraries/CMSIS/Include/core_cmInstr.h ****     \return             number of leading zeros in value
 217:Libraries/CMSIS/Include/core_cmInstr.h ****  */
 218:Libraries/CMSIS/Include/core_cmInstr.h **** #define __CLZ                             __clz
 219:Libraries/CMSIS/Include/core_cmInstr.h **** 
 220:Libraries/CMSIS/Include/core_cmInstr.h **** 
 221:Libraries/CMSIS/Include/core_cmInstr.h **** #if       (__CORTEX_M >= 0x03) || (__CORTEX_SC >= 300)
 222:Libraries/CMSIS/Include/core_cmInstr.h **** 
 223:Libraries/CMSIS/Include/core_cmInstr.h **** /** \brief  LDR Exclusive (8 bit)
 224:Libraries/CMSIS/Include/core_cmInstr.h **** 
 225:Libraries/CMSIS/Include/core_cmInstr.h ****     This function executes a exclusive LDR instruction for 8 bit value.
 226:Libraries/CMSIS/Include/core_cmInstr.h **** 
 227:Libraries/CMSIS/Include/core_cmInstr.h ****     \param [in]    ptr  Pointer to data
 228:Libraries/CMSIS/Include/core_cmInstr.h ****     \return             value of type uint8_t at (*ptr)
 229:Libraries/CMSIS/Include/core_cmInstr.h ****  */
 230:Libraries/CMSIS/Include/core_cmInstr.h **** #define __LDREXB(ptr)                     ((uint8_t ) __ldrex(ptr))
 231:Libraries/CMSIS/Include/core_cmInstr.h **** 
 232:Libraries/CMSIS/Include/core_cmInstr.h **** 
 233:Libraries/CMSIS/Include/core_cmInstr.h **** /** \brief  LDR Exclusive (16 bit)
 234:Libraries/CMSIS/Include/core_cmInstr.h **** 
 235:Libraries/CMSIS/Include/core_cmInstr.h ****     This function executes a exclusive LDR instruction for 16 bit values.
 236:Libraries/CMSIS/Include/core_cmInstr.h **** 
 237:Libraries/CMSIS/Include/core_cmInstr.h ****     \param [in]    ptr  Pointer to data
 238:Libraries/CMSIS/Include/core_cmInstr.h ****     \return        value of type uint16_t at (*ptr)
 239:Libraries/CMSIS/Include/core_cmInstr.h ****  */
 240:Libraries/CMSIS/Include/core_cmInstr.h **** #define __LDREXH(ptr)                     ((uint16_t) __ldrex(ptr))
 241:Libraries/CMSIS/Include/core_cmInstr.h **** 
 242:Libraries/CMSIS/Include/core_cmInstr.h **** 
 243:Libraries/CMSIS/Include/core_cmInstr.h **** /** \brief  LDR Exclusive (32 bit)
 244:Libraries/CMSIS/Include/core_cmInstr.h **** 
 245:Libraries/CMSIS/Include/core_cmInstr.h ****     This function executes a exclusive LDR instruction for 32 bit values.
 246:Libraries/CMSIS/Include/core_cmInstr.h **** 
 247:Libraries/CMSIS/Include/core_cmInstr.h ****     \param [in]    ptr  Pointer to data
 248:Libraries/CMSIS/Include/core_cmInstr.h ****     \return        value of type uint32_t at (*ptr)
 249:Libraries/CMSIS/Include/core_cmInstr.h ****  */
 250:Libraries/CMSIS/Include/core_cmInstr.h **** #define __LDREXW(ptr)                     ((uint32_t ) __ldrex(ptr))
 251:Libraries/CMSIS/Include/core_cmInstr.h **** 
 252:Libraries/CMSIS/Include/core_cmInstr.h **** 
 253:Libraries/CMSIS/Include/core_cmInstr.h **** /** \brief  STR Exclusive (8 bit)
 254:Libraries/CMSIS/Include/core_cmInstr.h **** 
 255:Libraries/CMSIS/Include/core_cmInstr.h ****     This function executes a exclusive STR instruction for 8 bit values.
 256:Libraries/CMSIS/Include/core_cmInstr.h **** 
 257:Libraries/CMSIS/Include/core_cmInstr.h ****     \param [in]  value  Value to store
 258:Libraries/CMSIS/Include/core_cmInstr.h ****     \param [in]    ptr  Pointer to location
 259:Libraries/CMSIS/Include/core_cmInstr.h ****     \return          0  Function succeeded
 260:Libraries/CMSIS/Include/core_cmInstr.h ****     \return          1  Function failed
 261:Libraries/CMSIS/Include/core_cmInstr.h ****  */
 262:Libraries/CMSIS/Include/core_cmInstr.h **** #define __STREXB(value, ptr)              __strex(value, ptr)
 263:Libraries/CMSIS/Include/core_cmInstr.h **** 
 264:Libraries/CMSIS/Include/core_cmInstr.h **** 
ARM GAS  /tmp/ccklj7FS.s 			page 12


 265:Libraries/CMSIS/Include/core_cmInstr.h **** /** \brief  STR Exclusive (16 bit)
 266:Libraries/CMSIS/Include/core_cmInstr.h **** 
 267:Libraries/CMSIS/Include/core_cmInstr.h ****     This function executes a exclusive STR instruction for 16 bit values.
 268:Libraries/CMSIS/Include/core_cmInstr.h **** 
 269:Libraries/CMSIS/Include/core_cmInstr.h ****     \param [in]  value  Value to store
 270:Libraries/CMSIS/Include/core_cmInstr.h ****     \param [in]    ptr  Pointer to location
 271:Libraries/CMSIS/Include/core_cmInstr.h ****     \return          0  Function succeeded
 272:Libraries/CMSIS/Include/core_cmInstr.h ****     \return          1  Function failed
 273:Libraries/CMSIS/Include/core_cmInstr.h ****  */
 274:Libraries/CMSIS/Include/core_cmInstr.h **** #define __STREXH(value, ptr)              __strex(value, ptr)
 275:Libraries/CMSIS/Include/core_cmInstr.h **** 
 276:Libraries/CMSIS/Include/core_cmInstr.h **** 
 277:Libraries/CMSIS/Include/core_cmInstr.h **** /** \brief  STR Exclusive (32 bit)
 278:Libraries/CMSIS/Include/core_cmInstr.h **** 
 279:Libraries/CMSIS/Include/core_cmInstr.h ****     This function executes a exclusive STR instruction for 32 bit values.
 280:Libraries/CMSIS/Include/core_cmInstr.h **** 
 281:Libraries/CMSIS/Include/core_cmInstr.h ****     \param [in]  value  Value to store
 282:Libraries/CMSIS/Include/core_cmInstr.h ****     \param [in]    ptr  Pointer to location
 283:Libraries/CMSIS/Include/core_cmInstr.h ****     \return          0  Function succeeded
 284:Libraries/CMSIS/Include/core_cmInstr.h ****     \return          1  Function failed
 285:Libraries/CMSIS/Include/core_cmInstr.h ****  */
 286:Libraries/CMSIS/Include/core_cmInstr.h **** #define __STREXW(value, ptr)              __strex(value, ptr)
 287:Libraries/CMSIS/Include/core_cmInstr.h **** 
 288:Libraries/CMSIS/Include/core_cmInstr.h **** 
 289:Libraries/CMSIS/Include/core_cmInstr.h **** /** \brief  Remove the exclusive lock
 290:Libraries/CMSIS/Include/core_cmInstr.h **** 
 291:Libraries/CMSIS/Include/core_cmInstr.h ****     This function removes the exclusive lock which is created by LDREX.
 292:Libraries/CMSIS/Include/core_cmInstr.h **** 
 293:Libraries/CMSIS/Include/core_cmInstr.h ****  */
 294:Libraries/CMSIS/Include/core_cmInstr.h **** #define __CLREX                           __clrex
 295:Libraries/CMSIS/Include/core_cmInstr.h **** 
 296:Libraries/CMSIS/Include/core_cmInstr.h **** 
 297:Libraries/CMSIS/Include/core_cmInstr.h **** /** \brief  Signed Saturate
 298:Libraries/CMSIS/Include/core_cmInstr.h **** 
 299:Libraries/CMSIS/Include/core_cmInstr.h ****     This function saturates a signed value.
 300:Libraries/CMSIS/Include/core_cmInstr.h **** 
 301:Libraries/CMSIS/Include/core_cmInstr.h ****     \param [in]  value  Value to be saturated
 302:Libraries/CMSIS/Include/core_cmInstr.h ****     \param [in]    sat  Bit position to saturate to (1..32)
 303:Libraries/CMSIS/Include/core_cmInstr.h ****     \return             Saturated value
 304:Libraries/CMSIS/Include/core_cmInstr.h ****  */
 305:Libraries/CMSIS/Include/core_cmInstr.h **** #define __SSAT                            __ssat
 306:Libraries/CMSIS/Include/core_cmInstr.h **** 
 307:Libraries/CMSIS/Include/core_cmInstr.h **** 
 308:Libraries/CMSIS/Include/core_cmInstr.h **** /** \brief  Unsigned Saturate
 309:Libraries/CMSIS/Include/core_cmInstr.h **** 
 310:Libraries/CMSIS/Include/core_cmInstr.h ****     This function saturates an unsigned value.
 311:Libraries/CMSIS/Include/core_cmInstr.h **** 
 312:Libraries/CMSIS/Include/core_cmInstr.h ****     \param [in]  value  Value to be saturated
 313:Libraries/CMSIS/Include/core_cmInstr.h ****     \param [in]    sat  Bit position to saturate to (0..31)
 314:Libraries/CMSIS/Include/core_cmInstr.h ****     \return             Saturated value
 315:Libraries/CMSIS/Include/core_cmInstr.h ****  */
 316:Libraries/CMSIS/Include/core_cmInstr.h **** #define __USAT                            __usat
 317:Libraries/CMSIS/Include/core_cmInstr.h **** 
 318:Libraries/CMSIS/Include/core_cmInstr.h **** 
 319:Libraries/CMSIS/Include/core_cmInstr.h **** /** \brief  Rotate Right with Extend (32 bit)
 320:Libraries/CMSIS/Include/core_cmInstr.h **** 
 321:Libraries/CMSIS/Include/core_cmInstr.h ****     This function moves each bit of a bitstring right by one bit.
ARM GAS  /tmp/ccklj7FS.s 			page 13


 322:Libraries/CMSIS/Include/core_cmInstr.h ****     The carry input is shifted in at the left end of the bitstring.
 323:Libraries/CMSIS/Include/core_cmInstr.h **** 
 324:Libraries/CMSIS/Include/core_cmInstr.h ****     \param [in]    value  Value to rotate
 325:Libraries/CMSIS/Include/core_cmInstr.h ****     \return               Rotated value
 326:Libraries/CMSIS/Include/core_cmInstr.h ****  */
 327:Libraries/CMSIS/Include/core_cmInstr.h **** #ifndef __NO_EMBEDDED_ASM
 328:Libraries/CMSIS/Include/core_cmInstr.h **** __attribute__((section(".rrx_text"))) __STATIC_INLINE __ASM uint32_t __RRX(uint32_t value)
 329:Libraries/CMSIS/Include/core_cmInstr.h **** {
 330:Libraries/CMSIS/Include/core_cmInstr.h ****   rrx r0, r0
 331:Libraries/CMSIS/Include/core_cmInstr.h ****   bx lr
 332:Libraries/CMSIS/Include/core_cmInstr.h **** }
 333:Libraries/CMSIS/Include/core_cmInstr.h **** #endif
 334:Libraries/CMSIS/Include/core_cmInstr.h **** 
 335:Libraries/CMSIS/Include/core_cmInstr.h **** 
 336:Libraries/CMSIS/Include/core_cmInstr.h **** /** \brief  LDRT Unprivileged (8 bit)
 337:Libraries/CMSIS/Include/core_cmInstr.h **** 
 338:Libraries/CMSIS/Include/core_cmInstr.h ****     This function executes a Unprivileged LDRT instruction for 8 bit value.
 339:Libraries/CMSIS/Include/core_cmInstr.h **** 
 340:Libraries/CMSIS/Include/core_cmInstr.h ****     \param [in]    ptr  Pointer to data
 341:Libraries/CMSIS/Include/core_cmInstr.h ****     \return             value of type uint8_t at (*ptr)
 342:Libraries/CMSIS/Include/core_cmInstr.h ****  */
 343:Libraries/CMSIS/Include/core_cmInstr.h **** #define __LDRBT(ptr)                      ((uint8_t )  __ldrt(ptr))
 344:Libraries/CMSIS/Include/core_cmInstr.h **** 
 345:Libraries/CMSIS/Include/core_cmInstr.h **** 
 346:Libraries/CMSIS/Include/core_cmInstr.h **** /** \brief  LDRT Unprivileged (16 bit)
 347:Libraries/CMSIS/Include/core_cmInstr.h **** 
 348:Libraries/CMSIS/Include/core_cmInstr.h ****     This function executes a Unprivileged LDRT instruction for 16 bit values.
 349:Libraries/CMSIS/Include/core_cmInstr.h **** 
 350:Libraries/CMSIS/Include/core_cmInstr.h ****     \param [in]    ptr  Pointer to data
 351:Libraries/CMSIS/Include/core_cmInstr.h ****     \return        value of type uint16_t at (*ptr)
 352:Libraries/CMSIS/Include/core_cmInstr.h ****  */
 353:Libraries/CMSIS/Include/core_cmInstr.h **** #define __LDRHT(ptr)                      ((uint16_t)  __ldrt(ptr))
 354:Libraries/CMSIS/Include/core_cmInstr.h **** 
 355:Libraries/CMSIS/Include/core_cmInstr.h **** 
 356:Libraries/CMSIS/Include/core_cmInstr.h **** /** \brief  LDRT Unprivileged (32 bit)
 357:Libraries/CMSIS/Include/core_cmInstr.h **** 
 358:Libraries/CMSIS/Include/core_cmInstr.h ****     This function executes a Unprivileged LDRT instruction for 32 bit values.
 359:Libraries/CMSIS/Include/core_cmInstr.h **** 
 360:Libraries/CMSIS/Include/core_cmInstr.h ****     \param [in]    ptr  Pointer to data
 361:Libraries/CMSIS/Include/core_cmInstr.h ****     \return        value of type uint32_t at (*ptr)
 362:Libraries/CMSIS/Include/core_cmInstr.h ****  */
 363:Libraries/CMSIS/Include/core_cmInstr.h **** #define __LDRT(ptr)                       ((uint32_t ) __ldrt(ptr))
 364:Libraries/CMSIS/Include/core_cmInstr.h **** 
 365:Libraries/CMSIS/Include/core_cmInstr.h **** 
 366:Libraries/CMSIS/Include/core_cmInstr.h **** /** \brief  STRT Unprivileged (8 bit)
 367:Libraries/CMSIS/Include/core_cmInstr.h **** 
 368:Libraries/CMSIS/Include/core_cmInstr.h ****     This function executes a Unprivileged STRT instruction for 8 bit values.
 369:Libraries/CMSIS/Include/core_cmInstr.h **** 
 370:Libraries/CMSIS/Include/core_cmInstr.h ****     \param [in]  value  Value to store
 371:Libraries/CMSIS/Include/core_cmInstr.h ****     \param [in]    ptr  Pointer to location
 372:Libraries/CMSIS/Include/core_cmInstr.h ****  */
 373:Libraries/CMSIS/Include/core_cmInstr.h **** #define __STRBT(value, ptr)               __strt(value, ptr)
 374:Libraries/CMSIS/Include/core_cmInstr.h **** 
 375:Libraries/CMSIS/Include/core_cmInstr.h **** 
 376:Libraries/CMSIS/Include/core_cmInstr.h **** /** \brief  STRT Unprivileged (16 bit)
 377:Libraries/CMSIS/Include/core_cmInstr.h **** 
 378:Libraries/CMSIS/Include/core_cmInstr.h ****     This function executes a Unprivileged STRT instruction for 16 bit values.
ARM GAS  /tmp/ccklj7FS.s 			page 14


 379:Libraries/CMSIS/Include/core_cmInstr.h **** 
 380:Libraries/CMSIS/Include/core_cmInstr.h ****     \param [in]  value  Value to store
 381:Libraries/CMSIS/Include/core_cmInstr.h ****     \param [in]    ptr  Pointer to location
 382:Libraries/CMSIS/Include/core_cmInstr.h ****  */
 383:Libraries/CMSIS/Include/core_cmInstr.h **** #define __STRHT(value, ptr)               __strt(value, ptr)
 384:Libraries/CMSIS/Include/core_cmInstr.h **** 
 385:Libraries/CMSIS/Include/core_cmInstr.h **** 
 386:Libraries/CMSIS/Include/core_cmInstr.h **** /** \brief  STRT Unprivileged (32 bit)
 387:Libraries/CMSIS/Include/core_cmInstr.h **** 
 388:Libraries/CMSIS/Include/core_cmInstr.h ****     This function executes a Unprivileged STRT instruction for 32 bit values.
 389:Libraries/CMSIS/Include/core_cmInstr.h **** 
 390:Libraries/CMSIS/Include/core_cmInstr.h ****     \param [in]  value  Value to store
 391:Libraries/CMSIS/Include/core_cmInstr.h ****     \param [in]    ptr  Pointer to location
 392:Libraries/CMSIS/Include/core_cmInstr.h ****  */
 393:Libraries/CMSIS/Include/core_cmInstr.h **** #define __STRT(value, ptr)                __strt(value, ptr)
 394:Libraries/CMSIS/Include/core_cmInstr.h **** 
 395:Libraries/CMSIS/Include/core_cmInstr.h **** #endif /* (__CORTEX_M >= 0x03) || (__CORTEX_SC >= 300) */
 396:Libraries/CMSIS/Include/core_cmInstr.h **** 
 397:Libraries/CMSIS/Include/core_cmInstr.h **** 
 398:Libraries/CMSIS/Include/core_cmInstr.h **** #elif defined ( __GNUC__ ) /*------------------ GNU Compiler ---------------------*/
 399:Libraries/CMSIS/Include/core_cmInstr.h **** /* GNU gcc specific functions */
 400:Libraries/CMSIS/Include/core_cmInstr.h **** 
 401:Libraries/CMSIS/Include/core_cmInstr.h **** /* Define macros for porting to both thumb1 and thumb2.
 402:Libraries/CMSIS/Include/core_cmInstr.h ****  * For thumb1, use low register (r0-r7), specified by constrant "l"
 403:Libraries/CMSIS/Include/core_cmInstr.h ****  * Otherwise, use general registers, specified by constrant "r" */
 404:Libraries/CMSIS/Include/core_cmInstr.h **** #if defined (__thumb__) && !defined (__thumb2__)
 405:Libraries/CMSIS/Include/core_cmInstr.h **** #define __CMSIS_GCC_OUT_REG(r) "=l" (r)
 406:Libraries/CMSIS/Include/core_cmInstr.h **** #define __CMSIS_GCC_USE_REG(r) "l" (r)
 407:Libraries/CMSIS/Include/core_cmInstr.h **** #else
 408:Libraries/CMSIS/Include/core_cmInstr.h **** #define __CMSIS_GCC_OUT_REG(r) "=r" (r)
 409:Libraries/CMSIS/Include/core_cmInstr.h **** #define __CMSIS_GCC_USE_REG(r) "r" (r)
 410:Libraries/CMSIS/Include/core_cmInstr.h **** #endif
 411:Libraries/CMSIS/Include/core_cmInstr.h **** 
 412:Libraries/CMSIS/Include/core_cmInstr.h **** /** \brief  No Operation
 413:Libraries/CMSIS/Include/core_cmInstr.h **** 
 414:Libraries/CMSIS/Include/core_cmInstr.h ****     No Operation does nothing. This instruction can be used for code alignment purposes.
 415:Libraries/CMSIS/Include/core_cmInstr.h ****  */
 416:Libraries/CMSIS/Include/core_cmInstr.h **** __attribute__((always_inline)) __STATIC_INLINE void __NOP(void)
 417:Libraries/CMSIS/Include/core_cmInstr.h **** {
 418:Libraries/CMSIS/Include/core_cmInstr.h ****   __ASM volatile ("nop");
 419:Libraries/CMSIS/Include/core_cmInstr.h **** }
 420:Libraries/CMSIS/Include/core_cmInstr.h **** 
 421:Libraries/CMSIS/Include/core_cmInstr.h **** 
 422:Libraries/CMSIS/Include/core_cmInstr.h **** /** \brief  Wait For Interrupt
 423:Libraries/CMSIS/Include/core_cmInstr.h **** 
 424:Libraries/CMSIS/Include/core_cmInstr.h ****     Wait For Interrupt is a hint instruction that suspends execution
 425:Libraries/CMSIS/Include/core_cmInstr.h ****     until one of a number of events occurs.
 426:Libraries/CMSIS/Include/core_cmInstr.h ****  */
 427:Libraries/CMSIS/Include/core_cmInstr.h **** __attribute__((always_inline)) __STATIC_INLINE void __WFI(void)
 428:Libraries/CMSIS/Include/core_cmInstr.h **** {
 429:Libraries/CMSIS/Include/core_cmInstr.h ****   __ASM volatile ("wfi");
 430:Libraries/CMSIS/Include/core_cmInstr.h **** }
 431:Libraries/CMSIS/Include/core_cmInstr.h **** 
 432:Libraries/CMSIS/Include/core_cmInstr.h **** 
 433:Libraries/CMSIS/Include/core_cmInstr.h **** /** \brief  Wait For Event
 434:Libraries/CMSIS/Include/core_cmInstr.h **** 
 435:Libraries/CMSIS/Include/core_cmInstr.h ****     Wait For Event is a hint instruction that permits the processor to enter
ARM GAS  /tmp/ccklj7FS.s 			page 15


 436:Libraries/CMSIS/Include/core_cmInstr.h ****     a low-power state until one of a number of events occurs.
 437:Libraries/CMSIS/Include/core_cmInstr.h ****  */
 438:Libraries/CMSIS/Include/core_cmInstr.h **** __attribute__((always_inline)) __STATIC_INLINE void __WFE(void)
 439:Libraries/CMSIS/Include/core_cmInstr.h **** {
 440:Libraries/CMSIS/Include/core_cmInstr.h ****   __ASM volatile ("wfe");
 441:Libraries/CMSIS/Include/core_cmInstr.h **** }
 442:Libraries/CMSIS/Include/core_cmInstr.h **** 
 443:Libraries/CMSIS/Include/core_cmInstr.h **** 
 444:Libraries/CMSIS/Include/core_cmInstr.h **** /** \brief  Send Event
 445:Libraries/CMSIS/Include/core_cmInstr.h **** 
 446:Libraries/CMSIS/Include/core_cmInstr.h ****     Send Event is a hint instruction. It causes an event to be signaled to the CPU.
 447:Libraries/CMSIS/Include/core_cmInstr.h ****  */
 448:Libraries/CMSIS/Include/core_cmInstr.h **** __attribute__((always_inline)) __STATIC_INLINE void __SEV(void)
 449:Libraries/CMSIS/Include/core_cmInstr.h **** {
 450:Libraries/CMSIS/Include/core_cmInstr.h ****   __ASM volatile ("sev");
 451:Libraries/CMSIS/Include/core_cmInstr.h **** }
 452:Libraries/CMSIS/Include/core_cmInstr.h **** 
 453:Libraries/CMSIS/Include/core_cmInstr.h **** 
 454:Libraries/CMSIS/Include/core_cmInstr.h **** /** \brief  Instruction Synchronization Barrier
 455:Libraries/CMSIS/Include/core_cmInstr.h **** 
 456:Libraries/CMSIS/Include/core_cmInstr.h ****     Instruction Synchronization Barrier flushes the pipeline in the processor,
 457:Libraries/CMSIS/Include/core_cmInstr.h ****     so that all instructions following the ISB are fetched from cache or
 458:Libraries/CMSIS/Include/core_cmInstr.h ****     memory, after the instruction has been completed.
 459:Libraries/CMSIS/Include/core_cmInstr.h ****  */
 460:Libraries/CMSIS/Include/core_cmInstr.h **** __attribute__((always_inline)) __STATIC_INLINE void __ISB(void)
 461:Libraries/CMSIS/Include/core_cmInstr.h **** {
 462:Libraries/CMSIS/Include/core_cmInstr.h ****   __ASM volatile ("isb 0xF":::"memory");
 463:Libraries/CMSIS/Include/core_cmInstr.h **** }
 464:Libraries/CMSIS/Include/core_cmInstr.h **** 
 465:Libraries/CMSIS/Include/core_cmInstr.h **** 
 466:Libraries/CMSIS/Include/core_cmInstr.h **** /** \brief  Data Synchronization Barrier
 467:Libraries/CMSIS/Include/core_cmInstr.h **** 
 468:Libraries/CMSIS/Include/core_cmInstr.h ****     This function acts as a special kind of Data Memory Barrier.
 469:Libraries/CMSIS/Include/core_cmInstr.h ****     It completes when all explicit memory accesses before this instruction complete.
 470:Libraries/CMSIS/Include/core_cmInstr.h ****  */
 471:Libraries/CMSIS/Include/core_cmInstr.h **** __attribute__((always_inline)) __STATIC_INLINE void __DSB(void)
 472:Libraries/CMSIS/Include/core_cmInstr.h **** {
 473:Libraries/CMSIS/Include/core_cmInstr.h ****   __ASM volatile ("dsb 0xF":::"memory");
 474:Libraries/CMSIS/Include/core_cmInstr.h **** }
 475:Libraries/CMSIS/Include/core_cmInstr.h **** 
 476:Libraries/CMSIS/Include/core_cmInstr.h **** 
 477:Libraries/CMSIS/Include/core_cmInstr.h **** /** \brief  Data Memory Barrier
 478:Libraries/CMSIS/Include/core_cmInstr.h **** 
 479:Libraries/CMSIS/Include/core_cmInstr.h ****     This function ensures the apparent order of the explicit memory operations before
 480:Libraries/CMSIS/Include/core_cmInstr.h ****     and after the instruction, without ensuring their completion.
 481:Libraries/CMSIS/Include/core_cmInstr.h ****  */
 482:Libraries/CMSIS/Include/core_cmInstr.h **** __attribute__((always_inline)) __STATIC_INLINE void __DMB(void)
 483:Libraries/CMSIS/Include/core_cmInstr.h **** {
 484:Libraries/CMSIS/Include/core_cmInstr.h ****   __ASM volatile ("dmb 0xF":::"memory");
 485:Libraries/CMSIS/Include/core_cmInstr.h **** }
 486:Libraries/CMSIS/Include/core_cmInstr.h **** 
 487:Libraries/CMSIS/Include/core_cmInstr.h **** 
 488:Libraries/CMSIS/Include/core_cmInstr.h **** /** \brief  Reverse byte order (32 bit)
 489:Libraries/CMSIS/Include/core_cmInstr.h **** 
 490:Libraries/CMSIS/Include/core_cmInstr.h ****     This function reverses the byte order in integer value.
 491:Libraries/CMSIS/Include/core_cmInstr.h **** 
 492:Libraries/CMSIS/Include/core_cmInstr.h ****     \param [in]    value  Value to reverse
ARM GAS  /tmp/ccklj7FS.s 			page 16


 493:Libraries/CMSIS/Include/core_cmInstr.h ****     \return               Reversed value
 494:Libraries/CMSIS/Include/core_cmInstr.h ****  */
 495:Libraries/CMSIS/Include/core_cmInstr.h **** __attribute__((always_inline)) __STATIC_INLINE uint32_t __REV(uint32_t value)
 165              		.loc 2 495 57 is_stmt 1 view .LVU48
 166              	.LBB231:
 496:Libraries/CMSIS/Include/core_cmInstr.h **** {
 497:Libraries/CMSIS/Include/core_cmInstr.h **** #if (__GNUC__ > 4) || (__GNUC__ == 4 && __GNUC_MINOR__ >= 5)
 498:Libraries/CMSIS/Include/core_cmInstr.h ****   return __builtin_bswap32(value);
 167              		.loc 2 498 3 view .LVU49
 168              		.loc 2 498 10 is_stmt 0 view .LVU50
 169 0080 1BBA     		rev	r3, r3
 170              	.LVL15:
 171              		.loc 2 498 10 view .LVU51
 172              	.LBE231:
 173              	.LBE230:
 119:Libraries/STM32F4xx_StdPeriph_Driver/src/stm32f4xx_cryp_aes.c ****     keyaddr+=4;
 174              		.loc 1 119 45 view .LVU52
 175 0082 0693     		str	r3, [sp, #24]
 120:Libraries/STM32F4xx_StdPeriph_Driver/src/stm32f4xx_cryp_aes.c ****     AES_CRYP_KeyInitStructure.CRYP_Key2Right= __REV(*(uint32_t*)(keyaddr));
 176              		.loc 1 120 5 is_stmt 1 view .LVU53
 177              	.LVL16:
 121:Libraries/STM32F4xx_StdPeriph_Driver/src/stm32f4xx_cryp_aes.c ****     keyaddr+=4;
 178              		.loc 1 121 5 view .LVU54
 121:Libraries/STM32F4xx_StdPeriph_Driver/src/stm32f4xx_cryp_aes.c ****     keyaddr+=4;
 179              		.loc 1 121 47 is_stmt 0 view .LVU55
 180 0084 6B68     		ldr	r3, [r5, #4]
 181              	.LVL17:
 182              	.LBB232:
 183              	.LBI232:
 495:Libraries/CMSIS/Include/core_cmInstr.h **** {
 184              		.loc 2 495 57 is_stmt 1 view .LVU56
 185              	.LBB233:
 186              		.loc 2 498 3 view .LVU57
 187              		.loc 2 498 10 is_stmt 0 view .LVU58
 188 0086 1BBA     		rev	r3, r3
 189              	.LVL18:
 190              		.loc 2 498 10 view .LVU59
 191              	.LBE233:
 192              	.LBE232:
 121:Libraries/STM32F4xx_StdPeriph_Driver/src/stm32f4xx_cryp_aes.c ****     keyaddr+=4;
 193              		.loc 1 121 45 view .LVU60
 194 0088 0793     		str	r3, [sp, #28]
 122:Libraries/STM32F4xx_StdPeriph_Driver/src/stm32f4xx_cryp_aes.c ****     AES_CRYP_KeyInitStructure.CRYP_Key3Left = __REV(*(uint32_t*)(keyaddr));
 195              		.loc 1 122 5 is_stmt 1 view .LVU61
 196              	.LVL19:
 123:Libraries/STM32F4xx_StdPeriph_Driver/src/stm32f4xx_cryp_aes.c ****     keyaddr+=4;
 197              		.loc 1 123 5 view .LVU62
 123:Libraries/STM32F4xx_StdPeriph_Driver/src/stm32f4xx_cryp_aes.c ****     keyaddr+=4;
 198              		.loc 1 123 47 is_stmt 0 view .LVU63
 199 008a AB68     		ldr	r3, [r5, #8]
 200              	.LVL20:
 201              	.LBB234:
 202              	.LBI234:
 495:Libraries/CMSIS/Include/core_cmInstr.h **** {
 203              		.loc 2 495 57 is_stmt 1 view .LVU64
 204              	.LBB235:
 205              		.loc 2 498 3 view .LVU65
ARM GAS  /tmp/ccklj7FS.s 			page 17


 206              		.loc 2 498 10 is_stmt 0 view .LVU66
 207 008c 1BBA     		rev	r3, r3
 208              	.LVL21:
 209              		.loc 2 498 10 view .LVU67
 210              	.LBE235:
 211              	.LBE234:
 123:Libraries/STM32F4xx_StdPeriph_Driver/src/stm32f4xx_cryp_aes.c ****     keyaddr+=4;
 212              		.loc 1 123 45 view .LVU68
 213 008e 0893     		str	r3, [sp, #32]
 124:Libraries/STM32F4xx_StdPeriph_Driver/src/stm32f4xx_cryp_aes.c ****     AES_CRYP_KeyInitStructure.CRYP_Key3Right= __REV(*(uint32_t*)(keyaddr));
 214              		.loc 1 124 5 is_stmt 1 view .LVU69
 215              	.LVL22:
 125:Libraries/STM32F4xx_StdPeriph_Driver/src/stm32f4xx_cryp_aes.c ****     break;
 216              		.loc 1 125 5 view .LVU70
 125:Libraries/STM32F4xx_StdPeriph_Driver/src/stm32f4xx_cryp_aes.c ****     break;
 217              		.loc 1 125 47 is_stmt 0 view .LVU71
 218 0090 EB68     		ldr	r3, [r5, #12]
 219              	.LVL23:
 220              	.LBB236:
 221              	.LBI236:
 495:Libraries/CMSIS/Include/core_cmInstr.h **** {
 222              		.loc 2 495 57 is_stmt 1 view .LVU72
 223              	.LBB237:
 224              		.loc 2 498 3 view .LVU73
 225              		.loc 2 498 10 is_stmt 0 view .LVU74
 226 0092 1BBA     		rev	r3, r3
 227              	.LVL24:
 228              		.loc 2 498 10 view .LVU75
 229              	.LBE237:
 230              	.LBE236:
 125:Libraries/STM32F4xx_StdPeriph_Driver/src/stm32f4xx_cryp_aes.c ****     break;
 231              		.loc 1 125 45 view .LVU76
 232 0094 0993     		str	r3, [sp, #36]
 126:Libraries/STM32F4xx_StdPeriph_Driver/src/stm32f4xx_cryp_aes.c ****     case 192:
 233              		.loc 1 126 5 is_stmt 1 view .LVU77
 234 0096 CBE7     		b	.L4
 235              	.LVL25:
 236              	.L2:
 128:Libraries/STM32F4xx_StdPeriph_Driver/src/stm32f4xx_cryp_aes.c ****     AES_CRYP_KeyInitStructure.CRYP_Key1Left = __REV(*(uint32_t*)(keyaddr));
 237              		.loc 1 128 5 view .LVU78
 128:Libraries/STM32F4xx_StdPeriph_Driver/src/stm32f4xx_cryp_aes.c ****     AES_CRYP_KeyInitStructure.CRYP_Key1Left = __REV(*(uint32_t*)(keyaddr));
 238              		.loc 1 128 42 is_stmt 0 view .LVU79
 239 0098 4FF48073 		mov	r3, #256
 240 009c 0D93     		str	r3, [sp, #52]
 129:Libraries/STM32F4xx_StdPeriph_Driver/src/stm32f4xx_cryp_aes.c ****     keyaddr+=4;
 241              		.loc 1 129 5 is_stmt 1 view .LVU80
 129:Libraries/STM32F4xx_StdPeriph_Driver/src/stm32f4xx_cryp_aes.c ****     keyaddr+=4;
 242              		.loc 1 129 47 is_stmt 0 view .LVU81
 243 009e 2B68     		ldr	r3, [r5]
 244              	.LVL26:
 245              	.LBB238:
 246              	.LBI238:
 495:Libraries/CMSIS/Include/core_cmInstr.h **** {
 247              		.loc 2 495 57 is_stmt 1 view .LVU82
 248              	.LBB239:
 249              		.loc 2 498 3 view .LVU83
 250              		.loc 2 498 10 is_stmt 0 view .LVU84
ARM GAS  /tmp/ccklj7FS.s 			page 18


 251 00a0 1BBA     		rev	r3, r3
 252              	.LVL27:
 253              		.loc 2 498 10 view .LVU85
 254              	.LBE239:
 255              	.LBE238:
 129:Libraries/STM32F4xx_StdPeriph_Driver/src/stm32f4xx_cryp_aes.c ****     keyaddr+=4;
 256              		.loc 1 129 45 view .LVU86
 257 00a2 0493     		str	r3, [sp, #16]
 130:Libraries/STM32F4xx_StdPeriph_Driver/src/stm32f4xx_cryp_aes.c ****     AES_CRYP_KeyInitStructure.CRYP_Key1Right= __REV(*(uint32_t*)(keyaddr));
 258              		.loc 1 130 5 is_stmt 1 view .LVU87
 259              	.LVL28:
 131:Libraries/STM32F4xx_StdPeriph_Driver/src/stm32f4xx_cryp_aes.c ****     keyaddr+=4;
 260              		.loc 1 131 5 view .LVU88
 131:Libraries/STM32F4xx_StdPeriph_Driver/src/stm32f4xx_cryp_aes.c ****     keyaddr+=4;
 261              		.loc 1 131 47 is_stmt 0 view .LVU89
 262 00a4 6B68     		ldr	r3, [r5, #4]
 263              	.LVL29:
 264              	.LBB240:
 265              	.LBI240:
 495:Libraries/CMSIS/Include/core_cmInstr.h **** {
 266              		.loc 2 495 57 is_stmt 1 view .LVU90
 267              	.LBB241:
 268              		.loc 2 498 3 view .LVU91
 269              		.loc 2 498 10 is_stmt 0 view .LVU92
 270 00a6 1BBA     		rev	r3, r3
 271              	.LVL30:
 272              		.loc 2 498 10 view .LVU93
 273              	.LBE241:
 274              	.LBE240:
 131:Libraries/STM32F4xx_StdPeriph_Driver/src/stm32f4xx_cryp_aes.c ****     keyaddr+=4;
 275              		.loc 1 131 45 view .LVU94
 276 00a8 0593     		str	r3, [sp, #20]
 132:Libraries/STM32F4xx_StdPeriph_Driver/src/stm32f4xx_cryp_aes.c ****     AES_CRYP_KeyInitStructure.CRYP_Key2Left = __REV(*(uint32_t*)(keyaddr));
 277              		.loc 1 132 5 is_stmt 1 view .LVU95
 278              	.LVL31:
 133:Libraries/STM32F4xx_StdPeriph_Driver/src/stm32f4xx_cryp_aes.c ****     keyaddr+=4;
 279              		.loc 1 133 5 view .LVU96
 133:Libraries/STM32F4xx_StdPeriph_Driver/src/stm32f4xx_cryp_aes.c ****     keyaddr+=4;
 280              		.loc 1 133 47 is_stmt 0 view .LVU97
 281 00aa AB68     		ldr	r3, [r5, #8]
 282              	.LVL32:
 283              	.LBB242:
 284              	.LBI242:
 495:Libraries/CMSIS/Include/core_cmInstr.h **** {
 285              		.loc 2 495 57 is_stmt 1 view .LVU98
 286              	.LBB243:
 287              		.loc 2 498 3 view .LVU99
 288              		.loc 2 498 10 is_stmt 0 view .LVU100
 289 00ac 1BBA     		rev	r3, r3
 290              	.LVL33:
 291              		.loc 2 498 10 view .LVU101
 292              	.LBE243:
 293              	.LBE242:
 133:Libraries/STM32F4xx_StdPeriph_Driver/src/stm32f4xx_cryp_aes.c ****     keyaddr+=4;
 294              		.loc 1 133 45 view .LVU102
 295 00ae 0693     		str	r3, [sp, #24]
 134:Libraries/STM32F4xx_StdPeriph_Driver/src/stm32f4xx_cryp_aes.c ****     AES_CRYP_KeyInitStructure.CRYP_Key2Right= __REV(*(uint32_t*)(keyaddr));
ARM GAS  /tmp/ccklj7FS.s 			page 19


 296              		.loc 1 134 5 is_stmt 1 view .LVU103
 297              	.LVL34:
 135:Libraries/STM32F4xx_StdPeriph_Driver/src/stm32f4xx_cryp_aes.c ****     keyaddr+=4;
 298              		.loc 1 135 5 view .LVU104
 135:Libraries/STM32F4xx_StdPeriph_Driver/src/stm32f4xx_cryp_aes.c ****     keyaddr+=4;
 299              		.loc 1 135 47 is_stmt 0 view .LVU105
 300 00b0 EB68     		ldr	r3, [r5, #12]
 301              	.LVL35:
 302              	.LBB244:
 303              	.LBI244:
 495:Libraries/CMSIS/Include/core_cmInstr.h **** {
 304              		.loc 2 495 57 is_stmt 1 view .LVU106
 305              	.LBB245:
 306              		.loc 2 498 3 view .LVU107
 307              		.loc 2 498 10 is_stmt 0 view .LVU108
 308 00b2 1BBA     		rev	r3, r3
 309              	.LVL36:
 310              		.loc 2 498 10 view .LVU109
 311              	.LBE245:
 312              	.LBE244:
 135:Libraries/STM32F4xx_StdPeriph_Driver/src/stm32f4xx_cryp_aes.c ****     keyaddr+=4;
 313              		.loc 1 135 45 view .LVU110
 314 00b4 0793     		str	r3, [sp, #28]
 136:Libraries/STM32F4xx_StdPeriph_Driver/src/stm32f4xx_cryp_aes.c ****     AES_CRYP_KeyInitStructure.CRYP_Key3Left = __REV(*(uint32_t*)(keyaddr));
 315              		.loc 1 136 5 is_stmt 1 view .LVU111
 316              	.LVL37:
 137:Libraries/STM32F4xx_StdPeriph_Driver/src/stm32f4xx_cryp_aes.c ****     keyaddr+=4;
 317              		.loc 1 137 5 view .LVU112
 137:Libraries/STM32F4xx_StdPeriph_Driver/src/stm32f4xx_cryp_aes.c ****     keyaddr+=4;
 318              		.loc 1 137 47 is_stmt 0 view .LVU113
 319 00b6 2B69     		ldr	r3, [r5, #16]
 320              	.LVL38:
 321              	.LBB246:
 322              	.LBI246:
 495:Libraries/CMSIS/Include/core_cmInstr.h **** {
 323              		.loc 2 495 57 is_stmt 1 view .LVU114
 324              	.LBB247:
 325              		.loc 2 498 3 view .LVU115
 326              		.loc 2 498 10 is_stmt 0 view .LVU116
 327 00b8 1BBA     		rev	r3, r3
 328              	.LVL39:
 329              		.loc 2 498 10 view .LVU117
 330              	.LBE247:
 331              	.LBE246:
 137:Libraries/STM32F4xx_StdPeriph_Driver/src/stm32f4xx_cryp_aes.c ****     keyaddr+=4;
 332              		.loc 1 137 45 view .LVU118
 333 00ba 0893     		str	r3, [sp, #32]
 138:Libraries/STM32F4xx_StdPeriph_Driver/src/stm32f4xx_cryp_aes.c ****     AES_CRYP_KeyInitStructure.CRYP_Key3Right= __REV(*(uint32_t*)(keyaddr));
 334              		.loc 1 138 5 is_stmt 1 view .LVU119
 335              	.LVL40:
 139:Libraries/STM32F4xx_StdPeriph_Driver/src/stm32f4xx_cryp_aes.c ****     break;
 336              		.loc 1 139 5 view .LVU120
 139:Libraries/STM32F4xx_StdPeriph_Driver/src/stm32f4xx_cryp_aes.c ****     break;
 337              		.loc 1 139 47 is_stmt 0 view .LVU121
 338 00bc 6B69     		ldr	r3, [r5, #20]
 339              	.LVL41:
 340              	.LBB248:
ARM GAS  /tmp/ccklj7FS.s 			page 20


 341              	.LBI248:
 495:Libraries/CMSIS/Include/core_cmInstr.h **** {
 342              		.loc 2 495 57 is_stmt 1 view .LVU122
 343              	.LBB249:
 344              		.loc 2 498 3 view .LVU123
 345              		.loc 2 498 10 is_stmt 0 view .LVU124
 346 00be 1BBA     		rev	r3, r3
 347              	.LVL42:
 348              		.loc 2 498 10 view .LVU125
 349              	.LBE249:
 350              	.LBE248:
 139:Libraries/STM32F4xx_StdPeriph_Driver/src/stm32f4xx_cryp_aes.c ****     break;
 351              		.loc 1 139 45 view .LVU126
 352 00c0 0993     		str	r3, [sp, #36]
 140:Libraries/STM32F4xx_StdPeriph_Driver/src/stm32f4xx_cryp_aes.c ****     case 256:
 353              		.loc 1 140 5 is_stmt 1 view .LVU127
 354 00c2 B5E7     		b	.L4
 355              	.LVL43:
 356              	.L3:
 142:Libraries/STM32F4xx_StdPeriph_Driver/src/stm32f4xx_cryp_aes.c ****     AES_CRYP_KeyInitStructure.CRYP_Key0Left = __REV(*(uint32_t*)(keyaddr));
 357              		.loc 1 142 5 view .LVU128
 142:Libraries/STM32F4xx_StdPeriph_Driver/src/stm32f4xx_cryp_aes.c ****     AES_CRYP_KeyInitStructure.CRYP_Key0Left = __REV(*(uint32_t*)(keyaddr));
 358              		.loc 1 142 42 is_stmt 0 view .LVU129
 359 00c4 4FF40073 		mov	r3, #512
 360 00c8 0D93     		str	r3, [sp, #52]
 143:Libraries/STM32F4xx_StdPeriph_Driver/src/stm32f4xx_cryp_aes.c ****     keyaddr+=4;
 361              		.loc 1 143 5 is_stmt 1 view .LVU130
 143:Libraries/STM32F4xx_StdPeriph_Driver/src/stm32f4xx_cryp_aes.c ****     keyaddr+=4;
 362              		.loc 1 143 47 is_stmt 0 view .LVU131
 363 00ca 2B68     		ldr	r3, [r5]
 364              	.LVL44:
 365              	.LBB250:
 366              	.LBI250:
 495:Libraries/CMSIS/Include/core_cmInstr.h **** {
 367              		.loc 2 495 57 is_stmt 1 view .LVU132
 368              	.LBB251:
 369              		.loc 2 498 3 view .LVU133
 370              		.loc 2 498 10 is_stmt 0 view .LVU134
 371 00cc 1BBA     		rev	r3, r3
 372              	.LVL45:
 373              		.loc 2 498 10 view .LVU135
 374              	.LBE251:
 375              	.LBE250:
 143:Libraries/STM32F4xx_StdPeriph_Driver/src/stm32f4xx_cryp_aes.c ****     keyaddr+=4;
 376              		.loc 1 143 45 view .LVU136
 377 00ce 0293     		str	r3, [sp, #8]
 144:Libraries/STM32F4xx_StdPeriph_Driver/src/stm32f4xx_cryp_aes.c ****     AES_CRYP_KeyInitStructure.CRYP_Key0Right= __REV(*(uint32_t*)(keyaddr));
 378              		.loc 1 144 5 is_stmt 1 view .LVU137
 379              	.LVL46:
 145:Libraries/STM32F4xx_StdPeriph_Driver/src/stm32f4xx_cryp_aes.c ****     keyaddr+=4;
 380              		.loc 1 145 5 view .LVU138
 145:Libraries/STM32F4xx_StdPeriph_Driver/src/stm32f4xx_cryp_aes.c ****     keyaddr+=4;
 381              		.loc 1 145 47 is_stmt 0 view .LVU139
 382 00d0 6B68     		ldr	r3, [r5, #4]
 383              	.LVL47:
 384              	.LBB252:
 385              	.LBI252:
ARM GAS  /tmp/ccklj7FS.s 			page 21


 495:Libraries/CMSIS/Include/core_cmInstr.h **** {
 386              		.loc 2 495 57 is_stmt 1 view .LVU140
 387              	.LBB253:
 388              		.loc 2 498 3 view .LVU141
 389              		.loc 2 498 10 is_stmt 0 view .LVU142
 390 00d2 1BBA     		rev	r3, r3
 391              	.LVL48:
 392              		.loc 2 498 10 view .LVU143
 393              	.LBE253:
 394              	.LBE252:
 145:Libraries/STM32F4xx_StdPeriph_Driver/src/stm32f4xx_cryp_aes.c ****     keyaddr+=4;
 395              		.loc 1 145 45 view .LVU144
 396 00d4 0393     		str	r3, [sp, #12]
 146:Libraries/STM32F4xx_StdPeriph_Driver/src/stm32f4xx_cryp_aes.c ****     AES_CRYP_KeyInitStructure.CRYP_Key1Left = __REV(*(uint32_t*)(keyaddr));
 397              		.loc 1 146 5 is_stmt 1 view .LVU145
 398              	.LVL49:
 147:Libraries/STM32F4xx_StdPeriph_Driver/src/stm32f4xx_cryp_aes.c ****     keyaddr+=4;
 399              		.loc 1 147 5 view .LVU146
 147:Libraries/STM32F4xx_StdPeriph_Driver/src/stm32f4xx_cryp_aes.c ****     keyaddr+=4;
 400              		.loc 1 147 47 is_stmt 0 view .LVU147
 401 00d6 AB68     		ldr	r3, [r5, #8]
 402              	.LVL50:
 403              	.LBB254:
 404              	.LBI254:
 495:Libraries/CMSIS/Include/core_cmInstr.h **** {
 405              		.loc 2 495 57 is_stmt 1 view .LVU148
 406              	.LBB255:
 407              		.loc 2 498 3 view .LVU149
 408              		.loc 2 498 10 is_stmt 0 view .LVU150
 409 00d8 1BBA     		rev	r3, r3
 410              	.LVL51:
 411              		.loc 2 498 10 view .LVU151
 412              	.LBE255:
 413              	.LBE254:
 147:Libraries/STM32F4xx_StdPeriph_Driver/src/stm32f4xx_cryp_aes.c ****     keyaddr+=4;
 414              		.loc 1 147 45 view .LVU152
 415 00da 0493     		str	r3, [sp, #16]
 148:Libraries/STM32F4xx_StdPeriph_Driver/src/stm32f4xx_cryp_aes.c ****     AES_CRYP_KeyInitStructure.CRYP_Key1Right= __REV(*(uint32_t*)(keyaddr));
 416              		.loc 1 148 5 is_stmt 1 view .LVU153
 417              	.LVL52:
 149:Libraries/STM32F4xx_StdPeriph_Driver/src/stm32f4xx_cryp_aes.c ****     keyaddr+=4;
 418              		.loc 1 149 5 view .LVU154
 149:Libraries/STM32F4xx_StdPeriph_Driver/src/stm32f4xx_cryp_aes.c ****     keyaddr+=4;
 419              		.loc 1 149 47 is_stmt 0 view .LVU155
 420 00dc EB68     		ldr	r3, [r5, #12]
 421              	.LVL53:
 422              	.LBB256:
 423              	.LBI256:
 495:Libraries/CMSIS/Include/core_cmInstr.h **** {
 424              		.loc 2 495 57 is_stmt 1 view .LVU156
 425              	.LBB257:
 426              		.loc 2 498 3 view .LVU157
 427              		.loc 2 498 10 is_stmt 0 view .LVU158
 428 00de 1BBA     		rev	r3, r3
 429              	.LVL54:
 430              		.loc 2 498 10 view .LVU159
 431              	.LBE257:
ARM GAS  /tmp/ccklj7FS.s 			page 22


 432              	.LBE256:
 149:Libraries/STM32F4xx_StdPeriph_Driver/src/stm32f4xx_cryp_aes.c ****     keyaddr+=4;
 433              		.loc 1 149 45 view .LVU160
 434 00e0 0593     		str	r3, [sp, #20]
 150:Libraries/STM32F4xx_StdPeriph_Driver/src/stm32f4xx_cryp_aes.c ****     AES_CRYP_KeyInitStructure.CRYP_Key2Left = __REV(*(uint32_t*)(keyaddr));
 435              		.loc 1 150 5 is_stmt 1 view .LVU161
 436              	.LVL55:
 151:Libraries/STM32F4xx_StdPeriph_Driver/src/stm32f4xx_cryp_aes.c ****     keyaddr+=4;
 437              		.loc 1 151 5 view .LVU162
 151:Libraries/STM32F4xx_StdPeriph_Driver/src/stm32f4xx_cryp_aes.c ****     keyaddr+=4;
 438              		.loc 1 151 47 is_stmt 0 view .LVU163
 439 00e2 2B69     		ldr	r3, [r5, #16]
 440              	.LVL56:
 441              	.LBB258:
 442              	.LBI258:
 495:Libraries/CMSIS/Include/core_cmInstr.h **** {
 443              		.loc 2 495 57 is_stmt 1 view .LVU164
 444              	.LBB259:
 445              		.loc 2 498 3 view .LVU165
 446              		.loc 2 498 10 is_stmt 0 view .LVU166
 447 00e4 1BBA     		rev	r3, r3
 448              	.LVL57:
 449              		.loc 2 498 10 view .LVU167
 450              	.LBE259:
 451              	.LBE258:
 151:Libraries/STM32F4xx_StdPeriph_Driver/src/stm32f4xx_cryp_aes.c ****     keyaddr+=4;
 452              		.loc 1 151 45 view .LVU168
 453 00e6 0693     		str	r3, [sp, #24]
 152:Libraries/STM32F4xx_StdPeriph_Driver/src/stm32f4xx_cryp_aes.c ****     AES_CRYP_KeyInitStructure.CRYP_Key2Right= __REV(*(uint32_t*)(keyaddr));
 454              		.loc 1 152 5 is_stmt 1 view .LVU169
 455              	.LVL58:
 153:Libraries/STM32F4xx_StdPeriph_Driver/src/stm32f4xx_cryp_aes.c ****     keyaddr+=4;
 456              		.loc 1 153 5 view .LVU170
 153:Libraries/STM32F4xx_StdPeriph_Driver/src/stm32f4xx_cryp_aes.c ****     keyaddr+=4;
 457              		.loc 1 153 47 is_stmt 0 view .LVU171
 458 00e8 6B69     		ldr	r3, [r5, #20]
 459              	.LVL59:
 460              	.LBB260:
 461              	.LBI260:
 495:Libraries/CMSIS/Include/core_cmInstr.h **** {
 462              		.loc 2 495 57 is_stmt 1 view .LVU172
 463              	.LBB261:
 464              		.loc 2 498 3 view .LVU173
 465              		.loc 2 498 10 is_stmt 0 view .LVU174
 466 00ea 1BBA     		rev	r3, r3
 467              	.LVL60:
 468              		.loc 2 498 10 view .LVU175
 469              	.LBE261:
 470              	.LBE260:
 153:Libraries/STM32F4xx_StdPeriph_Driver/src/stm32f4xx_cryp_aes.c ****     keyaddr+=4;
 471              		.loc 1 153 45 view .LVU176
 472 00ec 0793     		str	r3, [sp, #28]
 154:Libraries/STM32F4xx_StdPeriph_Driver/src/stm32f4xx_cryp_aes.c ****     AES_CRYP_KeyInitStructure.CRYP_Key3Left = __REV(*(uint32_t*)(keyaddr));
 473              		.loc 1 154 5 is_stmt 1 view .LVU177
 474              	.LVL61:
 155:Libraries/STM32F4xx_StdPeriph_Driver/src/stm32f4xx_cryp_aes.c ****     keyaddr+=4;
 475              		.loc 1 155 5 view .LVU178
ARM GAS  /tmp/ccklj7FS.s 			page 23


 155:Libraries/STM32F4xx_StdPeriph_Driver/src/stm32f4xx_cryp_aes.c ****     keyaddr+=4;
 476              		.loc 1 155 47 is_stmt 0 view .LVU179
 477 00ee AB69     		ldr	r3, [r5, #24]
 478              	.LVL62:
 479              	.LBB262:
 480              	.LBI262:
 495:Libraries/CMSIS/Include/core_cmInstr.h **** {
 481              		.loc 2 495 57 is_stmt 1 view .LVU180
 482              	.LBB263:
 483              		.loc 2 498 3 view .LVU181
 484              		.loc 2 498 10 is_stmt 0 view .LVU182
 485 00f0 1BBA     		rev	r3, r3
 486              	.LVL63:
 487              		.loc 2 498 10 view .LVU183
 488              	.LBE263:
 489              	.LBE262:
 155:Libraries/STM32F4xx_StdPeriph_Driver/src/stm32f4xx_cryp_aes.c ****     keyaddr+=4;
 490              		.loc 1 155 45 view .LVU184
 491 00f2 0893     		str	r3, [sp, #32]
 156:Libraries/STM32F4xx_StdPeriph_Driver/src/stm32f4xx_cryp_aes.c ****     AES_CRYP_KeyInitStructure.CRYP_Key3Right= __REV(*(uint32_t*)(keyaddr));
 492              		.loc 1 156 5 is_stmt 1 view .LVU185
 493              	.LVL64:
 157:Libraries/STM32F4xx_StdPeriph_Driver/src/stm32f4xx_cryp_aes.c ****     break;
 494              		.loc 1 157 5 view .LVU186
 157:Libraries/STM32F4xx_StdPeriph_Driver/src/stm32f4xx_cryp_aes.c ****     break;
 495              		.loc 1 157 47 is_stmt 0 view .LVU187
 496 00f4 EB69     		ldr	r3, [r5, #28]
 497              	.LVL65:
 498              	.LBB264:
 499              	.LBI264:
 495:Libraries/CMSIS/Include/core_cmInstr.h **** {
 500              		.loc 2 495 57 is_stmt 1 view .LVU188
 501              	.LBB265:
 502              		.loc 2 498 3 view .LVU189
 503              		.loc 2 498 10 is_stmt 0 view .LVU190
 504 00f6 1BBA     		rev	r3, r3
 505              	.LVL66:
 506              		.loc 2 498 10 view .LVU191
 507              	.LBE265:
 508              	.LBE264:
 157:Libraries/STM32F4xx_StdPeriph_Driver/src/stm32f4xx_cryp_aes.c ****     break;
 509              		.loc 1 157 45 view .LVU192
 510 00f8 0993     		str	r3, [sp, #36]
 158:Libraries/STM32F4xx_StdPeriph_Driver/src/stm32f4xx_cryp_aes.c ****     default:
 511              		.loc 1 158 5 is_stmt 1 view .LVU193
 512 00fa 99E7     		b	.L4
 513              	.LVL67:
 514              	.L5:
 196:Libraries/STM32F4xx_StdPeriph_Driver/src/stm32f4xx_cryp_aes.c ****     }
 197:Libraries/STM32F4xx_StdPeriph_Driver/src/stm32f4xx_cryp_aes.c ****   }
 198:Libraries/STM32F4xx_StdPeriph_Driver/src/stm32f4xx_cryp_aes.c ****   /*------------------ AES Encryption ------------------*/
 199:Libraries/STM32F4xx_StdPeriph_Driver/src/stm32f4xx_cryp_aes.c ****   else /* AES encryption */
 200:Libraries/STM32F4xx_StdPeriph_Driver/src/stm32f4xx_cryp_aes.c ****   {
 201:Libraries/STM32F4xx_StdPeriph_Driver/src/stm32f4xx_cryp_aes.c **** 
 202:Libraries/STM32F4xx_StdPeriph_Driver/src/stm32f4xx_cryp_aes.c ****     CRYP_KeyInit(&AES_CRYP_KeyInitStructure);
 515              		.loc 1 202 5 view .LVU194
 516 00fc 02A8     		add	r0, sp, #8
ARM GAS  /tmp/ccklj7FS.s 			page 24


 517 00fe FFF7FEFF 		bl	CRYP_KeyInit
 518              	.LVL68:
 203:Libraries/STM32F4xx_StdPeriph_Driver/src/stm32f4xx_cryp_aes.c **** 
 204:Libraries/STM32F4xx_StdPeriph_Driver/src/stm32f4xx_cryp_aes.c ****     /* Crypto Init for Encryption process */
 205:Libraries/STM32F4xx_StdPeriph_Driver/src/stm32f4xx_cryp_aes.c ****     AES_CRYP_InitStructure.CRYP_AlgoDir  = CRYP_AlgoDir_Encrypt;
 519              		.loc 1 205 5 view .LVU195
 520              		.loc 1 205 42 is_stmt 0 view .LVU196
 521 0102 0023     		movs	r3, #0
 522 0104 0A93     		str	r3, [sp, #40]
 106:Libraries/STM32F4xx_StdPeriph_Driver/src/stm32f4xx_cryp_aes.c ****   uint32_t keyaddr    = (uint32_t)Key;
 523              		.loc 1 106 15 view .LVU197
 524 0106 0126     		movs	r6, #1
 525              	.LVL69:
 526              	.L8:
 206:Libraries/STM32F4xx_StdPeriph_Driver/src/stm32f4xx_cryp_aes.c ****   }
 207:Libraries/STM32F4xx_StdPeriph_Driver/src/stm32f4xx_cryp_aes.c **** 
 208:Libraries/STM32F4xx_StdPeriph_Driver/src/stm32f4xx_cryp_aes.c ****   AES_CRYP_InitStructure.CRYP_AlgoMode = CRYP_AlgoMode_AES_ECB;
 527              		.loc 1 208 3 is_stmt 1 view .LVU198
 528              		.loc 1 208 40 is_stmt 0 view .LVU199
 529 0108 2023     		movs	r3, #32
 530 010a 0B93     		str	r3, [sp, #44]
 209:Libraries/STM32F4xx_StdPeriph_Driver/src/stm32f4xx_cryp_aes.c ****   AES_CRYP_InitStructure.CRYP_DataType = CRYP_DataType_8b;
 531              		.loc 1 209 3 is_stmt 1 view .LVU200
 532              		.loc 1 209 40 is_stmt 0 view .LVU201
 533 010c 8023     		movs	r3, #128
 534 010e 0C93     		str	r3, [sp, #48]
 210:Libraries/STM32F4xx_StdPeriph_Driver/src/stm32f4xx_cryp_aes.c ****   CRYP_Init(&AES_CRYP_InitStructure);
 535              		.loc 1 210 3 is_stmt 1 view .LVU202
 536 0110 0AA8     		add	r0, sp, #40
 537 0112 FFF7FEFF 		bl	CRYP_Init
 538              	.LVL70:
 211:Libraries/STM32F4xx_StdPeriph_Driver/src/stm32f4xx_cryp_aes.c **** 
 212:Libraries/STM32F4xx_StdPeriph_Driver/src/stm32f4xx_cryp_aes.c ****   /* Flush IN/OUT FIFOs */
 213:Libraries/STM32F4xx_StdPeriph_Driver/src/stm32f4xx_cryp_aes.c ****   CRYP_FIFOFlush();
 539              		.loc 1 213 3 view .LVU203
 540 0116 FFF7FEFF 		bl	CRYP_FIFOFlush
 541              	.LVL71:
 214:Libraries/STM32F4xx_StdPeriph_Driver/src/stm32f4xx_cryp_aes.c **** 
 215:Libraries/STM32F4xx_StdPeriph_Driver/src/stm32f4xx_cryp_aes.c ****   /* Enable Crypto processor */
 216:Libraries/STM32F4xx_StdPeriph_Driver/src/stm32f4xx_cryp_aes.c ****   CRYP_Cmd(ENABLE);
 542              		.loc 1 216 3 view .LVU204
 543 011a 0120     		movs	r0, #1
 544 011c FFF7FEFF 		bl	CRYP_Cmd
 545              	.LVL72:
 217:Libraries/STM32F4xx_StdPeriph_Driver/src/stm32f4xx_cryp_aes.c **** 
 218:Libraries/STM32F4xx_StdPeriph_Driver/src/stm32f4xx_cryp_aes.c ****   if(CRYP_GetCmdStatus() == DISABLE)
 546              		.loc 1 218 3 view .LVU205
 547              		.loc 1 218 6 is_stmt 0 view .LVU206
 548 0120 FFF7FEFF 		bl	CRYP_GetCmdStatus
 549              	.LVL73:
 550              		.loc 1 218 5 view .LVU207
 551 0124 0028     		cmp	r0, #0
 552 0126 35D0     		beq	.L9
 219:Libraries/STM32F4xx_StdPeriph_Driver/src/stm32f4xx_cryp_aes.c ****   {
 220:Libraries/STM32F4xx_StdPeriph_Driver/src/stm32f4xx_cryp_aes.c ****     /* The CRYP peripheral clock is not enabled or the device doesn't embed 
 221:Libraries/STM32F4xx_StdPeriph_Driver/src/stm32f4xx_cryp_aes.c ****        the CRYP peripheral (please check the device sales type. */
 222:Libraries/STM32F4xx_StdPeriph_Driver/src/stm32f4xx_cryp_aes.c ****     return(ERROR);
ARM GAS  /tmp/ccklj7FS.s 			page 25


 223:Libraries/STM32F4xx_StdPeriph_Driver/src/stm32f4xx_cryp_aes.c ****   }
 224:Libraries/STM32F4xx_StdPeriph_Driver/src/stm32f4xx_cryp_aes.c ****   
 225:Libraries/STM32F4xx_StdPeriph_Driver/src/stm32f4xx_cryp_aes.c ****   for(i=0; ((i<Ilength) && (status != ERROR)); i+=16)
 553              		.loc 1 225 8 view .LVU208
 554 0128 0025     		movs	r5, #0
 555              	.LVL74:
 556              		.loc 1 225 8 view .LVU209
 557 012a 02E0     		b	.L10
 558              	.LVL75:
 559              	.L11:
 226:Libraries/STM32F4xx_StdPeriph_Driver/src/stm32f4xx_cryp_aes.c ****   {
 227:Libraries/STM32F4xx_StdPeriph_Driver/src/stm32f4xx_cryp_aes.c **** 
 228:Libraries/STM32F4xx_StdPeriph_Driver/src/stm32f4xx_cryp_aes.c ****     /* Write the Input block in the IN FIFO */
 229:Libraries/STM32F4xx_StdPeriph_Driver/src/stm32f4xx_cryp_aes.c ****     CRYP_DataIn(*(uint32_t*)(inputaddr));
 230:Libraries/STM32F4xx_StdPeriph_Driver/src/stm32f4xx_cryp_aes.c ****     inputaddr+=4;
 231:Libraries/STM32F4xx_StdPeriph_Driver/src/stm32f4xx_cryp_aes.c ****     CRYP_DataIn(*(uint32_t*)(inputaddr));
 232:Libraries/STM32F4xx_StdPeriph_Driver/src/stm32f4xx_cryp_aes.c ****     inputaddr+=4;
 233:Libraries/STM32F4xx_StdPeriph_Driver/src/stm32f4xx_cryp_aes.c ****     CRYP_DataIn(*(uint32_t*)(inputaddr));
 234:Libraries/STM32F4xx_StdPeriph_Driver/src/stm32f4xx_cryp_aes.c ****     inputaddr+=4;
 235:Libraries/STM32F4xx_StdPeriph_Driver/src/stm32f4xx_cryp_aes.c ****     CRYP_DataIn(*(uint32_t*)(inputaddr));
 236:Libraries/STM32F4xx_StdPeriph_Driver/src/stm32f4xx_cryp_aes.c ****     inputaddr+=4;
 237:Libraries/STM32F4xx_StdPeriph_Driver/src/stm32f4xx_cryp_aes.c **** 
 238:Libraries/STM32F4xx_StdPeriph_Driver/src/stm32f4xx_cryp_aes.c ****     /* Wait until the complete message has been processed */
 239:Libraries/STM32F4xx_StdPeriph_Driver/src/stm32f4xx_cryp_aes.c ****     counter = 0;
 240:Libraries/STM32F4xx_StdPeriph_Driver/src/stm32f4xx_cryp_aes.c ****     do
 241:Libraries/STM32F4xx_StdPeriph_Driver/src/stm32f4xx_cryp_aes.c ****     {
 242:Libraries/STM32F4xx_StdPeriph_Driver/src/stm32f4xx_cryp_aes.c ****       busystatus = CRYP_GetFlagStatus(CRYP_FLAG_BUSY);
 243:Libraries/STM32F4xx_StdPeriph_Driver/src/stm32f4xx_cryp_aes.c ****       counter++;
 244:Libraries/STM32F4xx_StdPeriph_Driver/src/stm32f4xx_cryp_aes.c ****     }while ((counter != AESBUSY_TIMEOUT) && (busystatus != RESET));
 245:Libraries/STM32F4xx_StdPeriph_Driver/src/stm32f4xx_cryp_aes.c **** 
 246:Libraries/STM32F4xx_StdPeriph_Driver/src/stm32f4xx_cryp_aes.c ****     if (busystatus != RESET)
 560              		.loc 1 246 5 is_stmt 1 view .LVU210
 561              		.loc 1 246 8 is_stmt 0 view .LVU211
 562 012c 00B3     		cbz	r0, .L19
 247:Libraries/STM32F4xx_StdPeriph_Driver/src/stm32f4xx_cryp_aes.c ****    {
 248:Libraries/STM32F4xx_StdPeriph_Driver/src/stm32f4xx_cryp_aes.c ****        status = ERROR;
 563              		.loc 1 248 15 view .LVU212
 564 012e 0026     		movs	r6, #0
 565              	.LVL76:
 566              	.L13:
 225:Libraries/STM32F4xx_StdPeriph_Driver/src/stm32f4xx_cryp_aes.c ****   {
 567              		.loc 1 225 48 is_stmt 1 discriminator 2 view .LVU213
 225:Libraries/STM32F4xx_StdPeriph_Driver/src/stm32f4xx_cryp_aes.c ****   {
 568              		.loc 1 225 49 is_stmt 0 discriminator 2 view .LVU214
 569 0130 1035     		adds	r5, r5, #16
 570              	.LVL77:
 571              	.L10:
 225:Libraries/STM32F4xx_StdPeriph_Driver/src/stm32f4xx_cryp_aes.c ****   {
 572              		.loc 1 225 12 is_stmt 1 discriminator 1 view .LVU215
 225:Libraries/STM32F4xx_StdPeriph_Driver/src/stm32f4xx_cryp_aes.c ****   {
 573              		.loc 1 225 3 is_stmt 0 discriminator 1 view .LVU216
 574 0132 4545     		cmp	r5, r8
 575 0134 2AD2     		bcs	.L14
 225:Libraries/STM32F4xx_StdPeriph_Driver/src/stm32f4xx_cryp_aes.c ****   {
 576              		.loc 1 225 25 discriminator 3 view .LVU217
 577 0136 4EB3     		cbz	r6, .L14
 229:Libraries/STM32F4xx_StdPeriph_Driver/src/stm32f4xx_cryp_aes.c ****     inputaddr+=4;
ARM GAS  /tmp/ccklj7FS.s 			page 26


 578              		.loc 1 229 5 is_stmt 1 view .LVU218
 579 0138 2068     		ldr	r0, [r4]
 580 013a FFF7FEFF 		bl	CRYP_DataIn
 581              	.LVL78:
 230:Libraries/STM32F4xx_StdPeriph_Driver/src/stm32f4xx_cryp_aes.c ****     CRYP_DataIn(*(uint32_t*)(inputaddr));
 582              		.loc 1 230 5 view .LVU219
 231:Libraries/STM32F4xx_StdPeriph_Driver/src/stm32f4xx_cryp_aes.c ****     inputaddr+=4;
 583              		.loc 1 231 5 view .LVU220
 584 013e 6068     		ldr	r0, [r4, #4]
 585 0140 FFF7FEFF 		bl	CRYP_DataIn
 586              	.LVL79:
 232:Libraries/STM32F4xx_StdPeriph_Driver/src/stm32f4xx_cryp_aes.c ****     CRYP_DataIn(*(uint32_t*)(inputaddr));
 587              		.loc 1 232 5 view .LVU221
 233:Libraries/STM32F4xx_StdPeriph_Driver/src/stm32f4xx_cryp_aes.c ****     inputaddr+=4;
 588              		.loc 1 233 5 view .LVU222
 589 0144 A068     		ldr	r0, [r4, #8]
 590 0146 FFF7FEFF 		bl	CRYP_DataIn
 591              	.LVL80:
 234:Libraries/STM32F4xx_StdPeriph_Driver/src/stm32f4xx_cryp_aes.c ****     CRYP_DataIn(*(uint32_t*)(inputaddr));
 592              		.loc 1 234 5 view .LVU223
 235:Libraries/STM32F4xx_StdPeriph_Driver/src/stm32f4xx_cryp_aes.c ****     inputaddr+=4;
 593              		.loc 1 235 5 view .LVU224
 594 014a E068     		ldr	r0, [r4, #12]
 595 014c FFF7FEFF 		bl	CRYP_DataIn
 596              	.LVL81:
 236:Libraries/STM32F4xx_StdPeriph_Driver/src/stm32f4xx_cryp_aes.c **** 
 597              		.loc 1 236 5 view .LVU225
 236:Libraries/STM32F4xx_StdPeriph_Driver/src/stm32f4xx_cryp_aes.c **** 
 598              		.loc 1 236 14 is_stmt 0 view .LVU226
 599 0150 1034     		adds	r4, r4, #16
 600              	.LVL82:
 239:Libraries/STM32F4xx_StdPeriph_Driver/src/stm32f4xx_cryp_aes.c ****     do
 601              		.loc 1 239 5 is_stmt 1 view .LVU227
 239:Libraries/STM32F4xx_StdPeriph_Driver/src/stm32f4xx_cryp_aes.c ****     do
 602              		.loc 1 239 13 is_stmt 0 view .LVU228
 603 0152 0023     		movs	r3, #0
 604 0154 0193     		str	r3, [sp, #4]
 605              	.L12:
 240:Libraries/STM32F4xx_StdPeriph_Driver/src/stm32f4xx_cryp_aes.c ****     {
 606              		.loc 1 240 5 is_stmt 1 discriminator 2 view .LVU229
 242:Libraries/STM32F4xx_StdPeriph_Driver/src/stm32f4xx_cryp_aes.c ****       counter++;
 607              		.loc 1 242 7 discriminator 2 view .LVU230
 242:Libraries/STM32F4xx_StdPeriph_Driver/src/stm32f4xx_cryp_aes.c ****       counter++;
 608              		.loc 1 242 20 is_stmt 0 discriminator 2 view .LVU231
 609 0156 1020     		movs	r0, #16
 610 0158 FFF7FEFF 		bl	CRYP_GetFlagStatus
 611              	.LVL83:
 243:Libraries/STM32F4xx_StdPeriph_Driver/src/stm32f4xx_cryp_aes.c ****     }while ((counter != AESBUSY_TIMEOUT) && (busystatus != RESET));
 612              		.loc 1 243 7 is_stmt 1 discriminator 2 view .LVU232
 243:Libraries/STM32F4xx_StdPeriph_Driver/src/stm32f4xx_cryp_aes.c ****     }while ((counter != AESBUSY_TIMEOUT) && (busystatus != RESET));
 613              		.loc 1 243 14 is_stmt 0 discriminator 2 view .LVU233
 614 015c 019A     		ldr	r2, [sp, #4]
 615 015e 0132     		adds	r2, r2, #1
 616 0160 0192     		str	r2, [sp, #4]
 244:Libraries/STM32F4xx_StdPeriph_Driver/src/stm32f4xx_cryp_aes.c **** 
 617              		.loc 1 244 12 is_stmt 1 discriminator 2 view .LVU234
 244:Libraries/STM32F4xx_StdPeriph_Driver/src/stm32f4xx_cryp_aes.c **** 
ARM GAS  /tmp/ccklj7FS.s 			page 27


 618              		.loc 1 244 22 is_stmt 0 discriminator 2 view .LVU235
 619 0162 019B     		ldr	r3, [sp, #4]
 244:Libraries/STM32F4xx_StdPeriph_Driver/src/stm32f4xx_cryp_aes.c **** 
 620              		.loc 1 244 5 discriminator 2 view .LVU236
 621 0164 B3F5803F 		cmp	r3, #65536
 622 0168 E0D0     		beq	.L11
 244:Libraries/STM32F4xx_StdPeriph_Driver/src/stm32f4xx_cryp_aes.c **** 
 623              		.loc 1 244 42 discriminator 1 view .LVU237
 624 016a 0028     		cmp	r0, #0
 625 016c F3D1     		bne	.L12
 626 016e DDE7     		b	.L11
 627              	.L19:
 249:Libraries/STM32F4xx_StdPeriph_Driver/src/stm32f4xx_cryp_aes.c ****     }
 250:Libraries/STM32F4xx_StdPeriph_Driver/src/stm32f4xx_cryp_aes.c ****     else
 251:Libraries/STM32F4xx_StdPeriph_Driver/src/stm32f4xx_cryp_aes.c ****     {
 252:Libraries/STM32F4xx_StdPeriph_Driver/src/stm32f4xx_cryp_aes.c **** 
 253:Libraries/STM32F4xx_StdPeriph_Driver/src/stm32f4xx_cryp_aes.c ****       /* Read the Output block from the Output FIFO */
 254:Libraries/STM32F4xx_StdPeriph_Driver/src/stm32f4xx_cryp_aes.c ****       *(uint32_t*)(outputaddr) = CRYP_DataOut();
 628              		.loc 1 254 7 is_stmt 1 view .LVU238
 629              		.loc 1 254 34 is_stmt 0 view .LVU239
 630 0170 FFF7FEFF 		bl	CRYP_DataOut
 631              	.LVL84:
 632              		.loc 1 254 32 view .LVU240
 633 0174 3860     		str	r0, [r7]
 255:Libraries/STM32F4xx_StdPeriph_Driver/src/stm32f4xx_cryp_aes.c ****       outputaddr+=4;
 634              		.loc 1 255 7 is_stmt 1 view .LVU241
 635              	.LVL85:
 256:Libraries/STM32F4xx_StdPeriph_Driver/src/stm32f4xx_cryp_aes.c ****       *(uint32_t*)(outputaddr) = CRYP_DataOut();
 636              		.loc 1 256 7 view .LVU242
 637              		.loc 1 256 34 is_stmt 0 view .LVU243
 638 0176 FFF7FEFF 		bl	CRYP_DataOut
 639              	.LVL86:
 640              		.loc 1 256 32 view .LVU244
 641 017a 7860     		str	r0, [r7, #4]
 257:Libraries/STM32F4xx_StdPeriph_Driver/src/stm32f4xx_cryp_aes.c ****       outputaddr+=4;
 642              		.loc 1 257 7 is_stmt 1 view .LVU245
 643              	.LVL87:
 258:Libraries/STM32F4xx_StdPeriph_Driver/src/stm32f4xx_cryp_aes.c ****       *(uint32_t*)(outputaddr) = CRYP_DataOut();
 644              		.loc 1 258 7 view .LVU246
 645              		.loc 1 258 34 is_stmt 0 view .LVU247
 646 017c FFF7FEFF 		bl	CRYP_DataOut
 647              	.LVL88:
 648              		.loc 1 258 32 view .LVU248
 649 0180 B860     		str	r0, [r7, #8]
 259:Libraries/STM32F4xx_StdPeriph_Driver/src/stm32f4xx_cryp_aes.c ****       outputaddr+=4;
 650              		.loc 1 259 7 is_stmt 1 view .LVU249
 651              	.LVL89:
 260:Libraries/STM32F4xx_StdPeriph_Driver/src/stm32f4xx_cryp_aes.c ****       *(uint32_t*)(outputaddr) = CRYP_DataOut(); 
 652              		.loc 1 260 7 view .LVU250
 653              		.loc 1 260 34 is_stmt 0 view .LVU251
 654 0182 FFF7FEFF 		bl	CRYP_DataOut
 655              	.LVL90:
 656              		.loc 1 260 32 view .LVU252
 657 0186 F860     		str	r0, [r7, #12]
 261:Libraries/STM32F4xx_StdPeriph_Driver/src/stm32f4xx_cryp_aes.c ****       outputaddr+=4;
 658              		.loc 1 261 7 is_stmt 1 view .LVU253
 659              		.loc 1 261 17 is_stmt 0 view .LVU254
ARM GAS  /tmp/ccklj7FS.s 			page 28


 660 0188 1037     		adds	r7, r7, #16
 661              	.LVL91:
 662              		.loc 1 261 17 view .LVU255
 663 018a D1E7     		b	.L13
 664              	.L14:
 262:Libraries/STM32F4xx_StdPeriph_Driver/src/stm32f4xx_cryp_aes.c ****     }
 263:Libraries/STM32F4xx_StdPeriph_Driver/src/stm32f4xx_cryp_aes.c ****   }
 264:Libraries/STM32F4xx_StdPeriph_Driver/src/stm32f4xx_cryp_aes.c **** 
 265:Libraries/STM32F4xx_StdPeriph_Driver/src/stm32f4xx_cryp_aes.c ****   /* Disable Crypto */
 266:Libraries/STM32F4xx_StdPeriph_Driver/src/stm32f4xx_cryp_aes.c ****   CRYP_Cmd(DISABLE);
 665              		.loc 1 266 3 is_stmt 1 view .LVU256
 666 018c 0020     		movs	r0, #0
 667 018e FFF7FEFF 		bl	CRYP_Cmd
 668              	.LVL92:
 267:Libraries/STM32F4xx_StdPeriph_Driver/src/stm32f4xx_cryp_aes.c **** 
 268:Libraries/STM32F4xx_StdPeriph_Driver/src/stm32f4xx_cryp_aes.c ****   return status; 
 669              		.loc 1 268 3 view .LVU257
 670              		.loc 1 268 10 is_stmt 0 view .LVU258
 671 0192 3046     		mov	r0, r6
 672              	.LVL93:
 673              	.L9:
 269:Libraries/STM32F4xx_StdPeriph_Driver/src/stm32f4xx_cryp_aes.c **** }
 674              		.loc 1 269 1 view .LVU259
 675 0194 0FB0     		add	sp, sp, #60
 676              	.LCFI2:
 677              		.cfi_def_cfa_offset 28
 678              		@ sp needed
 679 0196 BDE8F083 		pop	{r4, r5, r6, r7, r8, r9, pc}
 680              		.loc 1 269 1 view .LVU260
 681              		.cfi_endproc
 682              	.LFE123:
 684              		.section	.text.CRYP_AES_CBC,"ax",%progbits
 685              		.align	1
 686              		.global	CRYP_AES_CBC
 687              		.syntax unified
 688              		.thumb
 689              		.thumb_func
 690              		.fpu fpv4-sp-d16
 692              	CRYP_AES_CBC:
 693              	.LVL94:
 694              	.LFB124:
 270:Libraries/STM32F4xx_StdPeriph_Driver/src/stm32f4xx_cryp_aes.c **** 
 271:Libraries/STM32F4xx_StdPeriph_Driver/src/stm32f4xx_cryp_aes.c **** /**
 272:Libraries/STM32F4xx_StdPeriph_Driver/src/stm32f4xx_cryp_aes.c ****   * @brief  Encrypt and decrypt using AES in CBC Mode
 273:Libraries/STM32F4xx_StdPeriph_Driver/src/stm32f4xx_cryp_aes.c ****   * @param  Mode: encryption or decryption Mode.
 274:Libraries/STM32F4xx_StdPeriph_Driver/src/stm32f4xx_cryp_aes.c ****   *          This parameter can be one of the following values:
 275:Libraries/STM32F4xx_StdPeriph_Driver/src/stm32f4xx_cryp_aes.c ****   *            @arg MODE_ENCRYPT: Encryption
 276:Libraries/STM32F4xx_StdPeriph_Driver/src/stm32f4xx_cryp_aes.c ****   *            @arg MODE_DECRYPT: Decryption
 277:Libraries/STM32F4xx_StdPeriph_Driver/src/stm32f4xx_cryp_aes.c ****   * @param  InitVectors: Initialisation Vectors used for AES algorithm.
 278:Libraries/STM32F4xx_StdPeriph_Driver/src/stm32f4xx_cryp_aes.c ****   * @param  Key: Key used for AES algorithm.
 279:Libraries/STM32F4xx_StdPeriph_Driver/src/stm32f4xx_cryp_aes.c ****   * @param  Keysize: length of the Key, must be a 128, 192 or 256.
 280:Libraries/STM32F4xx_StdPeriph_Driver/src/stm32f4xx_cryp_aes.c ****   * @param  Input: pointer to the Input buffer.
 281:Libraries/STM32F4xx_StdPeriph_Driver/src/stm32f4xx_cryp_aes.c ****   * @param  Ilength: length of the Input buffer, must be a multiple of 16.
 282:Libraries/STM32F4xx_StdPeriph_Driver/src/stm32f4xx_cryp_aes.c ****   * @param  Output: pointer to the returned buffer.
 283:Libraries/STM32F4xx_StdPeriph_Driver/src/stm32f4xx_cryp_aes.c ****   * @retval An ErrorStatus enumeration value:
 284:Libraries/STM32F4xx_StdPeriph_Driver/src/stm32f4xx_cryp_aes.c ****   *          - SUCCESS: Operation done
 285:Libraries/STM32F4xx_StdPeriph_Driver/src/stm32f4xx_cryp_aes.c ****   *          - ERROR: Operation failed
ARM GAS  /tmp/ccklj7FS.s 			page 29


 286:Libraries/STM32F4xx_StdPeriph_Driver/src/stm32f4xx_cryp_aes.c ****   */
 287:Libraries/STM32F4xx_StdPeriph_Driver/src/stm32f4xx_cryp_aes.c **** ErrorStatus CRYP_AES_CBC(uint8_t Mode, uint8_t InitVectors[16], uint8_t *Key,
 288:Libraries/STM32F4xx_StdPeriph_Driver/src/stm32f4xx_cryp_aes.c ****                          uint16_t Keysize, uint8_t *Input, uint32_t Ilength,
 289:Libraries/STM32F4xx_StdPeriph_Driver/src/stm32f4xx_cryp_aes.c ****                          uint8_t *Output)
 290:Libraries/STM32F4xx_StdPeriph_Driver/src/stm32f4xx_cryp_aes.c **** {
 695              		.loc 1 290 1 is_stmt 1 view -0
 696              		.cfi_startproc
 697              		@ args = 12, pretend = 0, frame = 72
 698              		@ frame_needed = 0, uses_anonymous_args = 0
 699              		.loc 1 290 1 is_stmt 0 view .LVU262
 700 0000 2DE9F047 		push	{r4, r5, r6, r7, r8, r9, r10, lr}
 701              	.LCFI3:
 702              		.cfi_def_cfa_offset 32
 703              		.cfi_offset 4, -32
 704              		.cfi_offset 5, -28
 705              		.cfi_offset 6, -24
 706              		.cfi_offset 7, -20
 707              		.cfi_offset 8, -16
 708              		.cfi_offset 9, -12
 709              		.cfi_offset 10, -8
 710              		.cfi_offset 14, -4
 711 0004 92B0     		sub	sp, sp, #72
 712              	.LCFI4:
 713              		.cfi_def_cfa_offset 104
 714 0006 0646     		mov	r6, r0
 715 0008 0D46     		mov	r5, r1
 716 000a 9146     		mov	r9, r2
 717 000c 9A46     		mov	r10, r3
 718 000e DDF86C80 		ldr	r8, [sp, #108]
 291:Libraries/STM32F4xx_StdPeriph_Driver/src/stm32f4xx_cryp_aes.c ****   CRYP_InitTypeDef AES_CRYP_InitStructure;
 719              		.loc 1 291 3 is_stmt 1 view .LVU263
 292:Libraries/STM32F4xx_StdPeriph_Driver/src/stm32f4xx_cryp_aes.c ****   CRYP_KeyInitTypeDef AES_CRYP_KeyInitStructure;
 720              		.loc 1 292 3 view .LVU264
 293:Libraries/STM32F4xx_StdPeriph_Driver/src/stm32f4xx_cryp_aes.c ****   CRYP_IVInitTypeDef AES_CRYP_IVInitStructure;
 721              		.loc 1 293 3 view .LVU265
 294:Libraries/STM32F4xx_StdPeriph_Driver/src/stm32f4xx_cryp_aes.c ****   __IO uint32_t counter = 0;
 722              		.loc 1 294 3 view .LVU266
 723              		.loc 1 294 17 is_stmt 0 view .LVU267
 724 0012 0023     		movs	r3, #0
 725              	.LVL95:
 726              		.loc 1 294 17 view .LVU268
 727 0014 0193     		str	r3, [sp, #4]
 295:Libraries/STM32F4xx_StdPeriph_Driver/src/stm32f4xx_cryp_aes.c ****   uint32_t busystatus = 0;
 728              		.loc 1 295 3 is_stmt 1 view .LVU269
 729              	.LVL96:
 296:Libraries/STM32F4xx_StdPeriph_Driver/src/stm32f4xx_cryp_aes.c ****   ErrorStatus status = SUCCESS;
 730              		.loc 1 296 3 view .LVU270
 297:Libraries/STM32F4xx_StdPeriph_Driver/src/stm32f4xx_cryp_aes.c ****   uint32_t keyaddr    = (uint32_t)Key;
 731              		.loc 1 297 3 view .LVU271
 298:Libraries/STM32F4xx_StdPeriph_Driver/src/stm32f4xx_cryp_aes.c ****   uint32_t inputaddr  = (uint32_t)Input;
 732              		.loc 1 298 3 view .LVU272
 733              		.loc 1 298 12 is_stmt 0 view .LVU273
 734 0016 1A9C     		ldr	r4, [sp, #104]
 735              	.LVL97:
 299:Libraries/STM32F4xx_StdPeriph_Driver/src/stm32f4xx_cryp_aes.c ****   uint32_t outputaddr = (uint32_t)Output;
 736              		.loc 1 299 3 is_stmt 1 view .LVU274
 737              		.loc 1 299 12 is_stmt 0 view .LVU275
ARM GAS  /tmp/ccklj7FS.s 			page 30


 738 0018 1C9F     		ldr	r7, [sp, #112]
 739              	.LVL98:
 300:Libraries/STM32F4xx_StdPeriph_Driver/src/stm32f4xx_cryp_aes.c ****   uint32_t ivaddr = (uint32_t)InitVectors;
 740              		.loc 1 300 3 is_stmt 1 view .LVU276
 301:Libraries/STM32F4xx_StdPeriph_Driver/src/stm32f4xx_cryp_aes.c ****   uint32_t i = 0;
 741              		.loc 1 301 3 view .LVU277
 302:Libraries/STM32F4xx_StdPeriph_Driver/src/stm32f4xx_cryp_aes.c **** 
 303:Libraries/STM32F4xx_StdPeriph_Driver/src/stm32f4xx_cryp_aes.c ****   /* Crypto structures initialisation*/
 304:Libraries/STM32F4xx_StdPeriph_Driver/src/stm32f4xx_cryp_aes.c ****   CRYP_KeyStructInit(&AES_CRYP_KeyInitStructure);
 742              		.loc 1 304 3 view .LVU278
 743 001a 06A8     		add	r0, sp, #24
 744              	.LVL99:
 745              		.loc 1 304 3 is_stmt 0 view .LVU279
 746 001c FFF7FEFF 		bl	CRYP_KeyStructInit
 747              	.LVL100:
 305:Libraries/STM32F4xx_StdPeriph_Driver/src/stm32f4xx_cryp_aes.c **** 
 306:Libraries/STM32F4xx_StdPeriph_Driver/src/stm32f4xx_cryp_aes.c ****   switch(Keysize)
 748              		.loc 1 306 3 is_stmt 1 view .LVU280
 749 0020 BAF1C00F 		cmp	r10, #192
 750 0024 49D0     		beq	.L21
 751 0026 BAF5807F 		cmp	r10, #256
 752 002a 62D0     		beq	.L22
 753 002c BAF1800F 		cmp	r10, #128
 754 0030 30D0     		beq	.L37
 755              	.LVL101:
 756              	.L23:
 307:Libraries/STM32F4xx_StdPeriph_Driver/src/stm32f4xx_cryp_aes.c ****   {
 308:Libraries/STM32F4xx_StdPeriph_Driver/src/stm32f4xx_cryp_aes.c ****     case 128:
 309:Libraries/STM32F4xx_StdPeriph_Driver/src/stm32f4xx_cryp_aes.c ****     AES_CRYP_InitStructure.CRYP_KeySize = CRYP_KeySize_128b;
 310:Libraries/STM32F4xx_StdPeriph_Driver/src/stm32f4xx_cryp_aes.c ****     AES_CRYP_KeyInitStructure.CRYP_Key2Left = __REV(*(uint32_t*)(keyaddr));
 311:Libraries/STM32F4xx_StdPeriph_Driver/src/stm32f4xx_cryp_aes.c ****     keyaddr+=4;
 312:Libraries/STM32F4xx_StdPeriph_Driver/src/stm32f4xx_cryp_aes.c ****     AES_CRYP_KeyInitStructure.CRYP_Key2Right= __REV(*(uint32_t*)(keyaddr));
 313:Libraries/STM32F4xx_StdPeriph_Driver/src/stm32f4xx_cryp_aes.c ****     keyaddr+=4;
 314:Libraries/STM32F4xx_StdPeriph_Driver/src/stm32f4xx_cryp_aes.c ****     AES_CRYP_KeyInitStructure.CRYP_Key3Left = __REV(*(uint32_t*)(keyaddr));
 315:Libraries/STM32F4xx_StdPeriph_Driver/src/stm32f4xx_cryp_aes.c ****     keyaddr+=4;
 316:Libraries/STM32F4xx_StdPeriph_Driver/src/stm32f4xx_cryp_aes.c ****     AES_CRYP_KeyInitStructure.CRYP_Key3Right= __REV(*(uint32_t*)(keyaddr));
 317:Libraries/STM32F4xx_StdPeriph_Driver/src/stm32f4xx_cryp_aes.c ****     break;
 318:Libraries/STM32F4xx_StdPeriph_Driver/src/stm32f4xx_cryp_aes.c ****     case 192:
 319:Libraries/STM32F4xx_StdPeriph_Driver/src/stm32f4xx_cryp_aes.c ****     AES_CRYP_InitStructure.CRYP_KeySize  = CRYP_KeySize_192b;
 320:Libraries/STM32F4xx_StdPeriph_Driver/src/stm32f4xx_cryp_aes.c ****     AES_CRYP_KeyInitStructure.CRYP_Key1Left = __REV(*(uint32_t*)(keyaddr));
 321:Libraries/STM32F4xx_StdPeriph_Driver/src/stm32f4xx_cryp_aes.c ****     keyaddr+=4;
 322:Libraries/STM32F4xx_StdPeriph_Driver/src/stm32f4xx_cryp_aes.c ****     AES_CRYP_KeyInitStructure.CRYP_Key1Right= __REV(*(uint32_t*)(keyaddr));
 323:Libraries/STM32F4xx_StdPeriph_Driver/src/stm32f4xx_cryp_aes.c ****     keyaddr+=4;
 324:Libraries/STM32F4xx_StdPeriph_Driver/src/stm32f4xx_cryp_aes.c ****     AES_CRYP_KeyInitStructure.CRYP_Key2Left = __REV(*(uint32_t*)(keyaddr));
 325:Libraries/STM32F4xx_StdPeriph_Driver/src/stm32f4xx_cryp_aes.c ****     keyaddr+=4;
 326:Libraries/STM32F4xx_StdPeriph_Driver/src/stm32f4xx_cryp_aes.c ****     AES_CRYP_KeyInitStructure.CRYP_Key2Right= __REV(*(uint32_t*)(keyaddr));
 327:Libraries/STM32F4xx_StdPeriph_Driver/src/stm32f4xx_cryp_aes.c ****     keyaddr+=4;
 328:Libraries/STM32F4xx_StdPeriph_Driver/src/stm32f4xx_cryp_aes.c ****     AES_CRYP_KeyInitStructure.CRYP_Key3Left = __REV(*(uint32_t*)(keyaddr));
 329:Libraries/STM32F4xx_StdPeriph_Driver/src/stm32f4xx_cryp_aes.c ****     keyaddr+=4;
 330:Libraries/STM32F4xx_StdPeriph_Driver/src/stm32f4xx_cryp_aes.c ****     AES_CRYP_KeyInitStructure.CRYP_Key3Right= __REV(*(uint32_t*)(keyaddr));
 331:Libraries/STM32F4xx_StdPeriph_Driver/src/stm32f4xx_cryp_aes.c ****     break;
 332:Libraries/STM32F4xx_StdPeriph_Driver/src/stm32f4xx_cryp_aes.c ****     case 256:
 333:Libraries/STM32F4xx_StdPeriph_Driver/src/stm32f4xx_cryp_aes.c ****     AES_CRYP_InitStructure.CRYP_KeySize  = CRYP_KeySize_256b;
 334:Libraries/STM32F4xx_StdPeriph_Driver/src/stm32f4xx_cryp_aes.c ****     AES_CRYP_KeyInitStructure.CRYP_Key0Left = __REV(*(uint32_t*)(keyaddr));
 335:Libraries/STM32F4xx_StdPeriph_Driver/src/stm32f4xx_cryp_aes.c ****     keyaddr+=4;
 336:Libraries/STM32F4xx_StdPeriph_Driver/src/stm32f4xx_cryp_aes.c ****     AES_CRYP_KeyInitStructure.CRYP_Key0Right= __REV(*(uint32_t*)(keyaddr));
 337:Libraries/STM32F4xx_StdPeriph_Driver/src/stm32f4xx_cryp_aes.c ****     keyaddr+=4;
ARM GAS  /tmp/ccklj7FS.s 			page 31


 338:Libraries/STM32F4xx_StdPeriph_Driver/src/stm32f4xx_cryp_aes.c ****     AES_CRYP_KeyInitStructure.CRYP_Key1Left = __REV(*(uint32_t*)(keyaddr));
 339:Libraries/STM32F4xx_StdPeriph_Driver/src/stm32f4xx_cryp_aes.c ****     keyaddr+=4;
 340:Libraries/STM32F4xx_StdPeriph_Driver/src/stm32f4xx_cryp_aes.c ****     AES_CRYP_KeyInitStructure.CRYP_Key1Right= __REV(*(uint32_t*)(keyaddr));
 341:Libraries/STM32F4xx_StdPeriph_Driver/src/stm32f4xx_cryp_aes.c ****     keyaddr+=4;
 342:Libraries/STM32F4xx_StdPeriph_Driver/src/stm32f4xx_cryp_aes.c ****     AES_CRYP_KeyInitStructure.CRYP_Key2Left = __REV(*(uint32_t*)(keyaddr));
 343:Libraries/STM32F4xx_StdPeriph_Driver/src/stm32f4xx_cryp_aes.c ****     keyaddr+=4;
 344:Libraries/STM32F4xx_StdPeriph_Driver/src/stm32f4xx_cryp_aes.c ****     AES_CRYP_KeyInitStructure.CRYP_Key2Right= __REV(*(uint32_t*)(keyaddr));
 345:Libraries/STM32F4xx_StdPeriph_Driver/src/stm32f4xx_cryp_aes.c ****     keyaddr+=4;
 346:Libraries/STM32F4xx_StdPeriph_Driver/src/stm32f4xx_cryp_aes.c ****     AES_CRYP_KeyInitStructure.CRYP_Key3Left = __REV(*(uint32_t*)(keyaddr));
 347:Libraries/STM32F4xx_StdPeriph_Driver/src/stm32f4xx_cryp_aes.c ****     keyaddr+=4;
 348:Libraries/STM32F4xx_StdPeriph_Driver/src/stm32f4xx_cryp_aes.c ****     AES_CRYP_KeyInitStructure.CRYP_Key3Right= __REV(*(uint32_t*)(keyaddr));
 349:Libraries/STM32F4xx_StdPeriph_Driver/src/stm32f4xx_cryp_aes.c ****     break;
 350:Libraries/STM32F4xx_StdPeriph_Driver/src/stm32f4xx_cryp_aes.c ****     default:
 351:Libraries/STM32F4xx_StdPeriph_Driver/src/stm32f4xx_cryp_aes.c ****     break;
 352:Libraries/STM32F4xx_StdPeriph_Driver/src/stm32f4xx_cryp_aes.c ****   }
 353:Libraries/STM32F4xx_StdPeriph_Driver/src/stm32f4xx_cryp_aes.c **** 
 354:Libraries/STM32F4xx_StdPeriph_Driver/src/stm32f4xx_cryp_aes.c ****   /* CRYP Initialization Vectors */
 355:Libraries/STM32F4xx_StdPeriph_Driver/src/stm32f4xx_cryp_aes.c ****   AES_CRYP_IVInitStructure.CRYP_IV0Left = __REV(*(uint32_t*)(ivaddr));
 757              		.loc 1 355 3 view .LVU281
 758              		.loc 1 355 43 is_stmt 0 view .LVU282
 759 0032 2B68     		ldr	r3, [r5]
 760              	.LVL102:
 761              	.LBB266:
 762              	.LBI266:
 495:Libraries/CMSIS/Include/core_cmInstr.h **** {
 763              		.loc 2 495 57 is_stmt 1 view .LVU283
 764              	.LBB267:
 765              		.loc 2 498 3 view .LVU284
 766              		.loc 2 498 10 is_stmt 0 view .LVU285
 767 0034 1BBA     		rev	r3, r3
 768              	.LVL103:
 769              		.loc 2 498 10 view .LVU286
 770              	.LBE267:
 771              	.LBE266:
 772              		.loc 1 355 41 view .LVU287
 773 0036 0293     		str	r3, [sp, #8]
 356:Libraries/STM32F4xx_StdPeriph_Driver/src/stm32f4xx_cryp_aes.c ****   ivaddr+=4;
 774              		.loc 1 356 3 is_stmt 1 view .LVU288
 775              	.LVL104:
 357:Libraries/STM32F4xx_StdPeriph_Driver/src/stm32f4xx_cryp_aes.c ****   AES_CRYP_IVInitStructure.CRYP_IV0Right= __REV(*(uint32_t*)(ivaddr));
 776              		.loc 1 357 3 view .LVU289
 777              		.loc 1 357 43 is_stmt 0 view .LVU290
 778 0038 6B68     		ldr	r3, [r5, #4]
 779              	.LVL105:
 780              	.LBB268:
 781              	.LBI268:
 495:Libraries/CMSIS/Include/core_cmInstr.h **** {
 782              		.loc 2 495 57 is_stmt 1 view .LVU291
 783              	.LBB269:
 784              		.loc 2 498 3 view .LVU292
 785              		.loc 2 498 10 is_stmt 0 view .LVU293
 786 003a 1BBA     		rev	r3, r3
 787              	.LVL106:
 788              		.loc 2 498 10 view .LVU294
 789              	.LBE269:
 790              	.LBE268:
 791              		.loc 1 357 41 view .LVU295
ARM GAS  /tmp/ccklj7FS.s 			page 32


 792 003c 0393     		str	r3, [sp, #12]
 358:Libraries/STM32F4xx_StdPeriph_Driver/src/stm32f4xx_cryp_aes.c ****   ivaddr+=4;
 793              		.loc 1 358 3 is_stmt 1 view .LVU296
 794              	.LVL107:
 359:Libraries/STM32F4xx_StdPeriph_Driver/src/stm32f4xx_cryp_aes.c ****   AES_CRYP_IVInitStructure.CRYP_IV1Left = __REV(*(uint32_t*)(ivaddr));
 795              		.loc 1 359 3 view .LVU297
 796              		.loc 1 359 43 is_stmt 0 view .LVU298
 797 003e AB68     		ldr	r3, [r5, #8]
 798              	.LVL108:
 799              	.LBB270:
 800              	.LBI270:
 495:Libraries/CMSIS/Include/core_cmInstr.h **** {
 801              		.loc 2 495 57 is_stmt 1 view .LVU299
 802              	.LBB271:
 803              		.loc 2 498 3 view .LVU300
 804              		.loc 2 498 10 is_stmt 0 view .LVU301
 805 0040 1BBA     		rev	r3, r3
 806              	.LVL109:
 807              		.loc 2 498 10 view .LVU302
 808              	.LBE271:
 809              	.LBE270:
 810              		.loc 1 359 41 view .LVU303
 811 0042 0493     		str	r3, [sp, #16]
 360:Libraries/STM32F4xx_StdPeriph_Driver/src/stm32f4xx_cryp_aes.c ****   ivaddr+=4;
 812              		.loc 1 360 3 is_stmt 1 view .LVU304
 813              	.LVL110:
 361:Libraries/STM32F4xx_StdPeriph_Driver/src/stm32f4xx_cryp_aes.c ****   AES_CRYP_IVInitStructure.CRYP_IV1Right= __REV(*(uint32_t*)(ivaddr));
 814              		.loc 1 361 3 view .LVU305
 815              		.loc 1 361 43 is_stmt 0 view .LVU306
 816 0044 EB68     		ldr	r3, [r5, #12]
 817              	.LVL111:
 818              	.LBB272:
 819              	.LBI272:
 495:Libraries/CMSIS/Include/core_cmInstr.h **** {
 820              		.loc 2 495 57 is_stmt 1 view .LVU307
 821              	.LBB273:
 822              		.loc 2 498 3 view .LVU308
 823              		.loc 2 498 10 is_stmt 0 view .LVU309
 824 0046 1BBA     		rev	r3, r3
 825              	.LVL112:
 826              		.loc 2 498 10 view .LVU310
 827              	.LBE273:
 828              	.LBE272:
 829              		.loc 1 361 41 view .LVU311
 830 0048 0593     		str	r3, [sp, #20]
 362:Libraries/STM32F4xx_StdPeriph_Driver/src/stm32f4xx_cryp_aes.c **** 
 363:Libraries/STM32F4xx_StdPeriph_Driver/src/stm32f4xx_cryp_aes.c **** 
 364:Libraries/STM32F4xx_StdPeriph_Driver/src/stm32f4xx_cryp_aes.c ****   /*------------------ AES Decryption ------------------*/
 365:Libraries/STM32F4xx_StdPeriph_Driver/src/stm32f4xx_cryp_aes.c ****   if(Mode == MODE_DECRYPT) /* AES decryption */
 831              		.loc 1 365 3 is_stmt 1 view .LVU312
 832              		.loc 1 365 5 is_stmt 0 view .LVU313
 833 004a 002E     		cmp	r6, #0
 834 004c 75D1     		bne	.L24
 366:Libraries/STM32F4xx_StdPeriph_Driver/src/stm32f4xx_cryp_aes.c ****   {
 367:Libraries/STM32F4xx_StdPeriph_Driver/src/stm32f4xx_cryp_aes.c ****     /* Flush IN/OUT FIFOs */
 368:Libraries/STM32F4xx_StdPeriph_Driver/src/stm32f4xx_cryp_aes.c ****     CRYP_FIFOFlush();
 835              		.loc 1 368 5 is_stmt 1 view .LVU314
ARM GAS  /tmp/ccklj7FS.s 			page 33


 836 004e FFF7FEFF 		bl	CRYP_FIFOFlush
 837              	.LVL113:
 369:Libraries/STM32F4xx_StdPeriph_Driver/src/stm32f4xx_cryp_aes.c **** 
 370:Libraries/STM32F4xx_StdPeriph_Driver/src/stm32f4xx_cryp_aes.c ****     /* Crypto Init for Key preparation for decryption process */
 371:Libraries/STM32F4xx_StdPeriph_Driver/src/stm32f4xx_cryp_aes.c ****     AES_CRYP_InitStructure.CRYP_AlgoDir = CRYP_AlgoDir_Decrypt;
 838              		.loc 1 371 5 view .LVU315
 839              		.loc 1 371 41 is_stmt 0 view .LVU316
 840 0052 0423     		movs	r3, #4
 841 0054 0E93     		str	r3, [sp, #56]
 372:Libraries/STM32F4xx_StdPeriph_Driver/src/stm32f4xx_cryp_aes.c ****     AES_CRYP_InitStructure.CRYP_AlgoMode = CRYP_AlgoMode_AES_Key;
 842              		.loc 1 372 5 is_stmt 1 view .LVU317
 843              		.loc 1 372 42 is_stmt 0 view .LVU318
 844 0056 3823     		movs	r3, #56
 845 0058 0F93     		str	r3, [sp, #60]
 373:Libraries/STM32F4xx_StdPeriph_Driver/src/stm32f4xx_cryp_aes.c ****     AES_CRYP_InitStructure.CRYP_DataType = CRYP_DataType_32b;
 846              		.loc 1 373 5 is_stmt 1 view .LVU319
 847              		.loc 1 373 42 is_stmt 0 view .LVU320
 848 005a 0023     		movs	r3, #0
 849 005c 1093     		str	r3, [sp, #64]
 374:Libraries/STM32F4xx_StdPeriph_Driver/src/stm32f4xx_cryp_aes.c **** 
 375:Libraries/STM32F4xx_StdPeriph_Driver/src/stm32f4xx_cryp_aes.c ****     CRYP_Init(&AES_CRYP_InitStructure);
 850              		.loc 1 375 5 is_stmt 1 view .LVU321
 851 005e 0EA8     		add	r0, sp, #56
 852 0060 FFF7FEFF 		bl	CRYP_Init
 853              	.LVL114:
 376:Libraries/STM32F4xx_StdPeriph_Driver/src/stm32f4xx_cryp_aes.c **** 
 377:Libraries/STM32F4xx_StdPeriph_Driver/src/stm32f4xx_cryp_aes.c ****     /* Key Initialisation */
 378:Libraries/STM32F4xx_StdPeriph_Driver/src/stm32f4xx_cryp_aes.c ****     CRYP_KeyInit(&AES_CRYP_KeyInitStructure);
 854              		.loc 1 378 5 view .LVU322
 855 0064 06A8     		add	r0, sp, #24
 856 0066 FFF7FEFF 		bl	CRYP_KeyInit
 857              	.LVL115:
 379:Libraries/STM32F4xx_StdPeriph_Driver/src/stm32f4xx_cryp_aes.c **** 
 380:Libraries/STM32F4xx_StdPeriph_Driver/src/stm32f4xx_cryp_aes.c ****     /* Enable Crypto processor */
 381:Libraries/STM32F4xx_StdPeriph_Driver/src/stm32f4xx_cryp_aes.c ****     CRYP_Cmd(ENABLE);
 858              		.loc 1 381 5 view .LVU323
 859 006a 0120     		movs	r0, #1
 860 006c FFF7FEFF 		bl	CRYP_Cmd
 861              	.LVL116:
 862              	.L26:
 382:Libraries/STM32F4xx_StdPeriph_Driver/src/stm32f4xx_cryp_aes.c **** 
 383:Libraries/STM32F4xx_StdPeriph_Driver/src/stm32f4xx_cryp_aes.c ****     /* wait until the Busy flag is RESET */
 384:Libraries/STM32F4xx_StdPeriph_Driver/src/stm32f4xx_cryp_aes.c ****     do
 863              		.loc 1 384 5 discriminator 2 view .LVU324
 385:Libraries/STM32F4xx_StdPeriph_Driver/src/stm32f4xx_cryp_aes.c ****     {
 386:Libraries/STM32F4xx_StdPeriph_Driver/src/stm32f4xx_cryp_aes.c ****       busystatus = CRYP_GetFlagStatus(CRYP_FLAG_BUSY);
 864              		.loc 1 386 7 discriminator 2 view .LVU325
 865              		.loc 1 386 20 is_stmt 0 discriminator 2 view .LVU326
 866 0070 1020     		movs	r0, #16
 867 0072 FFF7FEFF 		bl	CRYP_GetFlagStatus
 868              	.LVL117:
 387:Libraries/STM32F4xx_StdPeriph_Driver/src/stm32f4xx_cryp_aes.c ****       counter++;
 869              		.loc 1 387 7 is_stmt 1 discriminator 2 view .LVU327
 870              		.loc 1 387 14 is_stmt 0 discriminator 2 view .LVU328
 871 0076 019B     		ldr	r3, [sp, #4]
 872 0078 0133     		adds	r3, r3, #1
 873 007a 0193     		str	r3, [sp, #4]
ARM GAS  /tmp/ccklj7FS.s 			page 34


 388:Libraries/STM32F4xx_StdPeriph_Driver/src/stm32f4xx_cryp_aes.c ****     }while ((counter != AESBUSY_TIMEOUT) && (busystatus != RESET));
 874              		.loc 1 388 12 is_stmt 1 discriminator 2 view .LVU329
 875              		.loc 1 388 22 is_stmt 0 discriminator 2 view .LVU330
 876 007c 019B     		ldr	r3, [sp, #4]
 877              		.loc 1 388 5 discriminator 2 view .LVU331
 878 007e B3F5803F 		cmp	r3, #65536
 879 0082 01D0     		beq	.L25
 880              		.loc 1 388 42 discriminator 1 view .LVU332
 881 0084 0028     		cmp	r0, #0
 882 0086 F3D1     		bne	.L26
 883              	.L25:
 389:Libraries/STM32F4xx_StdPeriph_Driver/src/stm32f4xx_cryp_aes.c **** 
 390:Libraries/STM32F4xx_StdPeriph_Driver/src/stm32f4xx_cryp_aes.c ****     if (busystatus != RESET)
 884              		.loc 1 390 5 is_stmt 1 view .LVU333
 885              		.loc 1 390 8 is_stmt 0 view .LVU334
 886 0088 0028     		cmp	r0, #0
 887 008a 5CD1     		bne	.L27
 391:Libraries/STM32F4xx_StdPeriph_Driver/src/stm32f4xx_cryp_aes.c ****    {
 392:Libraries/STM32F4xx_StdPeriph_Driver/src/stm32f4xx_cryp_aes.c ****        status = ERROR;
 393:Libraries/STM32F4xx_StdPeriph_Driver/src/stm32f4xx_cryp_aes.c ****     }
 394:Libraries/STM32F4xx_StdPeriph_Driver/src/stm32f4xx_cryp_aes.c ****     else
 395:Libraries/STM32F4xx_StdPeriph_Driver/src/stm32f4xx_cryp_aes.c ****     {
 396:Libraries/STM32F4xx_StdPeriph_Driver/src/stm32f4xx_cryp_aes.c ****       /* Crypto Init for decryption process */  
 397:Libraries/STM32F4xx_StdPeriph_Driver/src/stm32f4xx_cryp_aes.c ****       AES_CRYP_InitStructure.CRYP_AlgoDir = CRYP_AlgoDir_Decrypt;
 888              		.loc 1 397 7 is_stmt 1 view .LVU335
 889              		.loc 1 397 43 is_stmt 0 view .LVU336
 890 008c 0423     		movs	r3, #4
 891 008e 0E93     		str	r3, [sp, #56]
 296:Libraries/STM32F4xx_StdPeriph_Driver/src/stm32f4xx_cryp_aes.c ****   uint32_t keyaddr    = (uint32_t)Key;
 892              		.loc 1 296 15 view .LVU337
 893 0090 0126     		movs	r6, #1
 894 0092 58E0     		b	.L27
 895              	.LVL118:
 896              	.L37:
 309:Libraries/STM32F4xx_StdPeriph_Driver/src/stm32f4xx_cryp_aes.c ****     AES_CRYP_KeyInitStructure.CRYP_Key2Left = __REV(*(uint32_t*)(keyaddr));
 897              		.loc 1 309 5 is_stmt 1 view .LVU338
 309:Libraries/STM32F4xx_StdPeriph_Driver/src/stm32f4xx_cryp_aes.c ****     AES_CRYP_KeyInitStructure.CRYP_Key2Left = __REV(*(uint32_t*)(keyaddr));
 898              		.loc 1 309 41 is_stmt 0 view .LVU339
 899 0094 0023     		movs	r3, #0
 900 0096 1193     		str	r3, [sp, #68]
 310:Libraries/STM32F4xx_StdPeriph_Driver/src/stm32f4xx_cryp_aes.c ****     keyaddr+=4;
 901              		.loc 1 310 5 is_stmt 1 view .LVU340
 310:Libraries/STM32F4xx_StdPeriph_Driver/src/stm32f4xx_cryp_aes.c ****     keyaddr+=4;
 902              		.loc 1 310 47 is_stmt 0 view .LVU341
 903 0098 D9F80030 		ldr	r3, [r9]
 904              	.LVL119:
 905              	.LBB274:
 906              	.LBI274:
 495:Libraries/CMSIS/Include/core_cmInstr.h **** {
 907              		.loc 2 495 57 is_stmt 1 view .LVU342
 908              	.LBB275:
 909              		.loc 2 498 3 view .LVU343
 910              		.loc 2 498 10 is_stmt 0 view .LVU344
 911 009c 1BBA     		rev	r3, r3
 912              	.LVL120:
 913              		.loc 2 498 10 view .LVU345
 914              	.LBE275:
ARM GAS  /tmp/ccklj7FS.s 			page 35


 915              	.LBE274:
 310:Libraries/STM32F4xx_StdPeriph_Driver/src/stm32f4xx_cryp_aes.c ****     keyaddr+=4;
 916              		.loc 1 310 45 view .LVU346
 917 009e 0A93     		str	r3, [sp, #40]
 311:Libraries/STM32F4xx_StdPeriph_Driver/src/stm32f4xx_cryp_aes.c ****     AES_CRYP_KeyInitStructure.CRYP_Key2Right= __REV(*(uint32_t*)(keyaddr));
 918              		.loc 1 311 5 is_stmt 1 view .LVU347
 919              	.LVL121:
 312:Libraries/STM32F4xx_StdPeriph_Driver/src/stm32f4xx_cryp_aes.c ****     keyaddr+=4;
 920              		.loc 1 312 5 view .LVU348
 312:Libraries/STM32F4xx_StdPeriph_Driver/src/stm32f4xx_cryp_aes.c ****     keyaddr+=4;
 921              		.loc 1 312 47 is_stmt 0 view .LVU349
 922 00a0 D9F80430 		ldr	r3, [r9, #4]
 923              	.LVL122:
 924              	.LBB276:
 925              	.LBI276:
 495:Libraries/CMSIS/Include/core_cmInstr.h **** {
 926              		.loc 2 495 57 is_stmt 1 view .LVU350
 927              	.LBB277:
 928              		.loc 2 498 3 view .LVU351
 929              		.loc 2 498 10 is_stmt 0 view .LVU352
 930 00a4 1BBA     		rev	r3, r3
 931              	.LVL123:
 932              		.loc 2 498 10 view .LVU353
 933              	.LBE277:
 934              	.LBE276:
 312:Libraries/STM32F4xx_StdPeriph_Driver/src/stm32f4xx_cryp_aes.c ****     keyaddr+=4;
 935              		.loc 1 312 45 view .LVU354
 936 00a6 0B93     		str	r3, [sp, #44]
 313:Libraries/STM32F4xx_StdPeriph_Driver/src/stm32f4xx_cryp_aes.c ****     AES_CRYP_KeyInitStructure.CRYP_Key3Left = __REV(*(uint32_t*)(keyaddr));
 937              		.loc 1 313 5 is_stmt 1 view .LVU355
 938              	.LVL124:
 314:Libraries/STM32F4xx_StdPeriph_Driver/src/stm32f4xx_cryp_aes.c ****     keyaddr+=4;
 939              		.loc 1 314 5 view .LVU356
 314:Libraries/STM32F4xx_StdPeriph_Driver/src/stm32f4xx_cryp_aes.c ****     keyaddr+=4;
 940              		.loc 1 314 47 is_stmt 0 view .LVU357
 941 00a8 D9F80830 		ldr	r3, [r9, #8]
 942              	.LVL125:
 943              	.LBB278:
 944              	.LBI278:
 495:Libraries/CMSIS/Include/core_cmInstr.h **** {
 945              		.loc 2 495 57 is_stmt 1 view .LVU358
 946              	.LBB279:
 947              		.loc 2 498 3 view .LVU359
 948              		.loc 2 498 10 is_stmt 0 view .LVU360
 949 00ac 1BBA     		rev	r3, r3
 950              	.LVL126:
 951              		.loc 2 498 10 view .LVU361
 952              	.LBE279:
 953              	.LBE278:
 314:Libraries/STM32F4xx_StdPeriph_Driver/src/stm32f4xx_cryp_aes.c ****     keyaddr+=4;
 954              		.loc 1 314 45 view .LVU362
 955 00ae 0C93     		str	r3, [sp, #48]
 315:Libraries/STM32F4xx_StdPeriph_Driver/src/stm32f4xx_cryp_aes.c ****     AES_CRYP_KeyInitStructure.CRYP_Key3Right= __REV(*(uint32_t*)(keyaddr));
 956              		.loc 1 315 5 is_stmt 1 view .LVU363
 957              	.LVL127:
 316:Libraries/STM32F4xx_StdPeriph_Driver/src/stm32f4xx_cryp_aes.c ****     break;
 958              		.loc 1 316 5 view .LVU364
ARM GAS  /tmp/ccklj7FS.s 			page 36


 316:Libraries/STM32F4xx_StdPeriph_Driver/src/stm32f4xx_cryp_aes.c ****     break;
 959              		.loc 1 316 47 is_stmt 0 view .LVU365
 960 00b0 D9F80C30 		ldr	r3, [r9, #12]
 961              	.LVL128:
 962              	.LBB280:
 963              	.LBI280:
 495:Libraries/CMSIS/Include/core_cmInstr.h **** {
 964              		.loc 2 495 57 is_stmt 1 view .LVU366
 965              	.LBB281:
 966              		.loc 2 498 3 view .LVU367
 967              		.loc 2 498 10 is_stmt 0 view .LVU368
 968 00b4 1BBA     		rev	r3, r3
 969              	.LVL129:
 970              		.loc 2 498 10 view .LVU369
 971              	.LBE281:
 972              	.LBE280:
 316:Libraries/STM32F4xx_StdPeriph_Driver/src/stm32f4xx_cryp_aes.c ****     break;
 973              		.loc 1 316 45 view .LVU370
 974 00b6 0D93     		str	r3, [sp, #52]
 317:Libraries/STM32F4xx_StdPeriph_Driver/src/stm32f4xx_cryp_aes.c ****     case 192:
 975              		.loc 1 317 5 is_stmt 1 view .LVU371
 976 00b8 BBE7     		b	.L23
 977              	.LVL130:
 978              	.L21:
 319:Libraries/STM32F4xx_StdPeriph_Driver/src/stm32f4xx_cryp_aes.c ****     AES_CRYP_KeyInitStructure.CRYP_Key1Left = __REV(*(uint32_t*)(keyaddr));
 979              		.loc 1 319 5 view .LVU372
 319:Libraries/STM32F4xx_StdPeriph_Driver/src/stm32f4xx_cryp_aes.c ****     AES_CRYP_KeyInitStructure.CRYP_Key1Left = __REV(*(uint32_t*)(keyaddr));
 980              		.loc 1 319 42 is_stmt 0 view .LVU373
 981 00ba 4FF48073 		mov	r3, #256
 982 00be 1193     		str	r3, [sp, #68]
 320:Libraries/STM32F4xx_StdPeriph_Driver/src/stm32f4xx_cryp_aes.c ****     keyaddr+=4;
 983              		.loc 1 320 5 is_stmt 1 view .LVU374
 320:Libraries/STM32F4xx_StdPeriph_Driver/src/stm32f4xx_cryp_aes.c ****     keyaddr+=4;
 984              		.loc 1 320 47 is_stmt 0 view .LVU375
 985 00c0 D9F80030 		ldr	r3, [r9]
 986              	.LVL131:
 987              	.LBB282:
 988              	.LBI282:
 495:Libraries/CMSIS/Include/core_cmInstr.h **** {
 989              		.loc 2 495 57 is_stmt 1 view .LVU376
 990              	.LBB283:
 991              		.loc 2 498 3 view .LVU377
 992              		.loc 2 498 10 is_stmt 0 view .LVU378
 993 00c4 1BBA     		rev	r3, r3
 994              	.LVL132:
 995              		.loc 2 498 10 view .LVU379
 996              	.LBE283:
 997              	.LBE282:
 320:Libraries/STM32F4xx_StdPeriph_Driver/src/stm32f4xx_cryp_aes.c ****     keyaddr+=4;
 998              		.loc 1 320 45 view .LVU380
 999 00c6 0893     		str	r3, [sp, #32]
 321:Libraries/STM32F4xx_StdPeriph_Driver/src/stm32f4xx_cryp_aes.c ****     AES_CRYP_KeyInitStructure.CRYP_Key1Right= __REV(*(uint32_t*)(keyaddr));
 1000              		.loc 1 321 5 is_stmt 1 view .LVU381
 1001              	.LVL133:
 322:Libraries/STM32F4xx_StdPeriph_Driver/src/stm32f4xx_cryp_aes.c ****     keyaddr+=4;
 1002              		.loc 1 322 5 view .LVU382
 322:Libraries/STM32F4xx_StdPeriph_Driver/src/stm32f4xx_cryp_aes.c ****     keyaddr+=4;
ARM GAS  /tmp/ccklj7FS.s 			page 37


 1003              		.loc 1 322 47 is_stmt 0 view .LVU383
 1004 00c8 D9F80430 		ldr	r3, [r9, #4]
 1005              	.LVL134:
 1006              	.LBB284:
 1007              	.LBI284:
 495:Libraries/CMSIS/Include/core_cmInstr.h **** {
 1008              		.loc 2 495 57 is_stmt 1 view .LVU384
 1009              	.LBB285:
 1010              		.loc 2 498 3 view .LVU385
 1011              		.loc 2 498 10 is_stmt 0 view .LVU386
 1012 00cc 1BBA     		rev	r3, r3
 1013              	.LVL135:
 1014              		.loc 2 498 10 view .LVU387
 1015              	.LBE285:
 1016              	.LBE284:
 322:Libraries/STM32F4xx_StdPeriph_Driver/src/stm32f4xx_cryp_aes.c ****     keyaddr+=4;
 1017              		.loc 1 322 45 view .LVU388
 1018 00ce 0993     		str	r3, [sp, #36]
 323:Libraries/STM32F4xx_StdPeriph_Driver/src/stm32f4xx_cryp_aes.c ****     AES_CRYP_KeyInitStructure.CRYP_Key2Left = __REV(*(uint32_t*)(keyaddr));
 1019              		.loc 1 323 5 is_stmt 1 view .LVU389
 1020              	.LVL136:
 324:Libraries/STM32F4xx_StdPeriph_Driver/src/stm32f4xx_cryp_aes.c ****     keyaddr+=4;
 1021              		.loc 1 324 5 view .LVU390
 324:Libraries/STM32F4xx_StdPeriph_Driver/src/stm32f4xx_cryp_aes.c ****     keyaddr+=4;
 1022              		.loc 1 324 47 is_stmt 0 view .LVU391
 1023 00d0 D9F80830 		ldr	r3, [r9, #8]
 1024              	.LVL137:
 1025              	.LBB286:
 1026              	.LBI286:
 495:Libraries/CMSIS/Include/core_cmInstr.h **** {
 1027              		.loc 2 495 57 is_stmt 1 view .LVU392
 1028              	.LBB287:
 1029              		.loc 2 498 3 view .LVU393
 1030              		.loc 2 498 10 is_stmt 0 view .LVU394
 1031 00d4 1BBA     		rev	r3, r3
 1032              	.LVL138:
 1033              		.loc 2 498 10 view .LVU395
 1034              	.LBE287:
 1035              	.LBE286:
 324:Libraries/STM32F4xx_StdPeriph_Driver/src/stm32f4xx_cryp_aes.c ****     keyaddr+=4;
 1036              		.loc 1 324 45 view .LVU396
 1037 00d6 0A93     		str	r3, [sp, #40]
 325:Libraries/STM32F4xx_StdPeriph_Driver/src/stm32f4xx_cryp_aes.c ****     AES_CRYP_KeyInitStructure.CRYP_Key2Right= __REV(*(uint32_t*)(keyaddr));
 1038              		.loc 1 325 5 is_stmt 1 view .LVU397
 1039              	.LVL139:
 326:Libraries/STM32F4xx_StdPeriph_Driver/src/stm32f4xx_cryp_aes.c ****     keyaddr+=4;
 1040              		.loc 1 326 5 view .LVU398
 326:Libraries/STM32F4xx_StdPeriph_Driver/src/stm32f4xx_cryp_aes.c ****     keyaddr+=4;
 1041              		.loc 1 326 47 is_stmt 0 view .LVU399
 1042 00d8 D9F80C30 		ldr	r3, [r9, #12]
 1043              	.LVL140:
 1044              	.LBB288:
 1045              	.LBI288:
 495:Libraries/CMSIS/Include/core_cmInstr.h **** {
 1046              		.loc 2 495 57 is_stmt 1 view .LVU400
 1047              	.LBB289:
 1048              		.loc 2 498 3 view .LVU401
ARM GAS  /tmp/ccklj7FS.s 			page 38


 1049              		.loc 2 498 10 is_stmt 0 view .LVU402
 1050 00dc 1BBA     		rev	r3, r3
 1051              	.LVL141:
 1052              		.loc 2 498 10 view .LVU403
 1053              	.LBE289:
 1054              	.LBE288:
 326:Libraries/STM32F4xx_StdPeriph_Driver/src/stm32f4xx_cryp_aes.c ****     keyaddr+=4;
 1055              		.loc 1 326 45 view .LVU404
 1056 00de 0B93     		str	r3, [sp, #44]
 327:Libraries/STM32F4xx_StdPeriph_Driver/src/stm32f4xx_cryp_aes.c ****     AES_CRYP_KeyInitStructure.CRYP_Key3Left = __REV(*(uint32_t*)(keyaddr));
 1057              		.loc 1 327 5 is_stmt 1 view .LVU405
 1058              	.LVL142:
 328:Libraries/STM32F4xx_StdPeriph_Driver/src/stm32f4xx_cryp_aes.c ****     keyaddr+=4;
 1059              		.loc 1 328 5 view .LVU406
 328:Libraries/STM32F4xx_StdPeriph_Driver/src/stm32f4xx_cryp_aes.c ****     keyaddr+=4;
 1060              		.loc 1 328 47 is_stmt 0 view .LVU407
 1061 00e0 D9F81030 		ldr	r3, [r9, #16]
 1062              	.LVL143:
 1063              	.LBB290:
 1064              	.LBI290:
 495:Libraries/CMSIS/Include/core_cmInstr.h **** {
 1065              		.loc 2 495 57 is_stmt 1 view .LVU408
 1066              	.LBB291:
 1067              		.loc 2 498 3 view .LVU409
 1068              		.loc 2 498 10 is_stmt 0 view .LVU410
 1069 00e4 1BBA     		rev	r3, r3
 1070              	.LVL144:
 1071              		.loc 2 498 10 view .LVU411
 1072              	.LBE291:
 1073              	.LBE290:
 328:Libraries/STM32F4xx_StdPeriph_Driver/src/stm32f4xx_cryp_aes.c ****     keyaddr+=4;
 1074              		.loc 1 328 45 view .LVU412
 1075 00e6 0C93     		str	r3, [sp, #48]
 329:Libraries/STM32F4xx_StdPeriph_Driver/src/stm32f4xx_cryp_aes.c ****     AES_CRYP_KeyInitStructure.CRYP_Key3Right= __REV(*(uint32_t*)(keyaddr));
 1076              		.loc 1 329 5 is_stmt 1 view .LVU413
 1077              	.LVL145:
 330:Libraries/STM32F4xx_StdPeriph_Driver/src/stm32f4xx_cryp_aes.c ****     break;
 1078              		.loc 1 330 5 view .LVU414
 330:Libraries/STM32F4xx_StdPeriph_Driver/src/stm32f4xx_cryp_aes.c ****     break;
 1079              		.loc 1 330 47 is_stmt 0 view .LVU415
 1080 00e8 D9F81430 		ldr	r3, [r9, #20]
 1081              	.LVL146:
 1082              	.LBB292:
 1083              	.LBI292:
 495:Libraries/CMSIS/Include/core_cmInstr.h **** {
 1084              		.loc 2 495 57 is_stmt 1 view .LVU416
 1085              	.LBB293:
 1086              		.loc 2 498 3 view .LVU417
 1087              		.loc 2 498 10 is_stmt 0 view .LVU418
 1088 00ec 1BBA     		rev	r3, r3
 1089              	.LVL147:
 1090              		.loc 2 498 10 view .LVU419
 1091              	.LBE293:
 1092              	.LBE292:
 330:Libraries/STM32F4xx_StdPeriph_Driver/src/stm32f4xx_cryp_aes.c ****     break;
 1093              		.loc 1 330 45 view .LVU420
 1094 00ee 0D93     		str	r3, [sp, #52]
ARM GAS  /tmp/ccklj7FS.s 			page 39


 331:Libraries/STM32F4xx_StdPeriph_Driver/src/stm32f4xx_cryp_aes.c ****     case 256:
 1095              		.loc 1 331 5 is_stmt 1 view .LVU421
 1096 00f0 9FE7     		b	.L23
 1097              	.LVL148:
 1098              	.L22:
 333:Libraries/STM32F4xx_StdPeriph_Driver/src/stm32f4xx_cryp_aes.c ****     AES_CRYP_KeyInitStructure.CRYP_Key0Left = __REV(*(uint32_t*)(keyaddr));
 1099              		.loc 1 333 5 view .LVU422
 333:Libraries/STM32F4xx_StdPeriph_Driver/src/stm32f4xx_cryp_aes.c ****     AES_CRYP_KeyInitStructure.CRYP_Key0Left = __REV(*(uint32_t*)(keyaddr));
 1100              		.loc 1 333 42 is_stmt 0 view .LVU423
 1101 00f2 4FF40073 		mov	r3, #512
 1102 00f6 1193     		str	r3, [sp, #68]
 334:Libraries/STM32F4xx_StdPeriph_Driver/src/stm32f4xx_cryp_aes.c ****     keyaddr+=4;
 1103              		.loc 1 334 5 is_stmt 1 view .LVU424
 334:Libraries/STM32F4xx_StdPeriph_Driver/src/stm32f4xx_cryp_aes.c ****     keyaddr+=4;
 1104              		.loc 1 334 47 is_stmt 0 view .LVU425
 1105 00f8 D9F80030 		ldr	r3, [r9]
 1106              	.LVL149:
 1107              	.LBB294:
 1108              	.LBI294:
 495:Libraries/CMSIS/Include/core_cmInstr.h **** {
 1109              		.loc 2 495 57 is_stmt 1 view .LVU426
 1110              	.LBB295:
 1111              		.loc 2 498 3 view .LVU427
 1112              		.loc 2 498 10 is_stmt 0 view .LVU428
 1113 00fc 1BBA     		rev	r3, r3
 1114              	.LVL150:
 1115              		.loc 2 498 10 view .LVU429
 1116              	.LBE295:
 1117              	.LBE294:
 334:Libraries/STM32F4xx_StdPeriph_Driver/src/stm32f4xx_cryp_aes.c ****     keyaddr+=4;
 1118              		.loc 1 334 45 view .LVU430
 1119 00fe 0693     		str	r3, [sp, #24]
 335:Libraries/STM32F4xx_StdPeriph_Driver/src/stm32f4xx_cryp_aes.c ****     AES_CRYP_KeyInitStructure.CRYP_Key0Right= __REV(*(uint32_t*)(keyaddr));
 1120              		.loc 1 335 5 is_stmt 1 view .LVU431
 1121              	.LVL151:
 336:Libraries/STM32F4xx_StdPeriph_Driver/src/stm32f4xx_cryp_aes.c ****     keyaddr+=4;
 1122              		.loc 1 336 5 view .LVU432
 336:Libraries/STM32F4xx_StdPeriph_Driver/src/stm32f4xx_cryp_aes.c ****     keyaddr+=4;
 1123              		.loc 1 336 47 is_stmt 0 view .LVU433
 1124 0100 D9F80430 		ldr	r3, [r9, #4]
 1125              	.LVL152:
 1126              	.LBB296:
 1127              	.LBI296:
 495:Libraries/CMSIS/Include/core_cmInstr.h **** {
 1128              		.loc 2 495 57 is_stmt 1 view .LVU434
 1129              	.LBB297:
 1130              		.loc 2 498 3 view .LVU435
 1131              		.loc 2 498 10 is_stmt 0 view .LVU436
 1132 0104 1BBA     		rev	r3, r3
 1133              	.LVL153:
 1134              		.loc 2 498 10 view .LVU437
 1135              	.LBE297:
 1136              	.LBE296:
 336:Libraries/STM32F4xx_StdPeriph_Driver/src/stm32f4xx_cryp_aes.c ****     keyaddr+=4;
 1137              		.loc 1 336 45 view .LVU438
 1138 0106 0793     		str	r3, [sp, #28]
 337:Libraries/STM32F4xx_StdPeriph_Driver/src/stm32f4xx_cryp_aes.c ****     AES_CRYP_KeyInitStructure.CRYP_Key1Left = __REV(*(uint32_t*)(keyaddr));
ARM GAS  /tmp/ccklj7FS.s 			page 40


 1139              		.loc 1 337 5 is_stmt 1 view .LVU439
 1140              	.LVL154:
 338:Libraries/STM32F4xx_StdPeriph_Driver/src/stm32f4xx_cryp_aes.c ****     keyaddr+=4;
 1141              		.loc 1 338 5 view .LVU440
 338:Libraries/STM32F4xx_StdPeriph_Driver/src/stm32f4xx_cryp_aes.c ****     keyaddr+=4;
 1142              		.loc 1 338 47 is_stmt 0 view .LVU441
 1143 0108 D9F80830 		ldr	r3, [r9, #8]
 1144              	.LVL155:
 1145              	.LBB298:
 1146              	.LBI298:
 495:Libraries/CMSIS/Include/core_cmInstr.h **** {
 1147              		.loc 2 495 57 is_stmt 1 view .LVU442
 1148              	.LBB299:
 1149              		.loc 2 498 3 view .LVU443
 1150              		.loc 2 498 10 is_stmt 0 view .LVU444
 1151 010c 1BBA     		rev	r3, r3
 1152              	.LVL156:
 1153              		.loc 2 498 10 view .LVU445
 1154              	.LBE299:
 1155              	.LBE298:
 338:Libraries/STM32F4xx_StdPeriph_Driver/src/stm32f4xx_cryp_aes.c ****     keyaddr+=4;
 1156              		.loc 1 338 45 view .LVU446
 1157 010e 0893     		str	r3, [sp, #32]
 339:Libraries/STM32F4xx_StdPeriph_Driver/src/stm32f4xx_cryp_aes.c ****     AES_CRYP_KeyInitStructure.CRYP_Key1Right= __REV(*(uint32_t*)(keyaddr));
 1158              		.loc 1 339 5 is_stmt 1 view .LVU447
 1159              	.LVL157:
 340:Libraries/STM32F4xx_StdPeriph_Driver/src/stm32f4xx_cryp_aes.c ****     keyaddr+=4;
 1160              		.loc 1 340 5 view .LVU448
 340:Libraries/STM32F4xx_StdPeriph_Driver/src/stm32f4xx_cryp_aes.c ****     keyaddr+=4;
 1161              		.loc 1 340 47 is_stmt 0 view .LVU449
 1162 0110 D9F80C30 		ldr	r3, [r9, #12]
 1163              	.LVL158:
 1164              	.LBB300:
 1165              	.LBI300:
 495:Libraries/CMSIS/Include/core_cmInstr.h **** {
 1166              		.loc 2 495 57 is_stmt 1 view .LVU450
 1167              	.LBB301:
 1168              		.loc 2 498 3 view .LVU451
 1169              		.loc 2 498 10 is_stmt 0 view .LVU452
 1170 0114 1BBA     		rev	r3, r3
 1171              	.LVL159:
 1172              		.loc 2 498 10 view .LVU453
 1173              	.LBE301:
 1174              	.LBE300:
 340:Libraries/STM32F4xx_StdPeriph_Driver/src/stm32f4xx_cryp_aes.c ****     keyaddr+=4;
 1175              		.loc 1 340 45 view .LVU454
 1176 0116 0993     		str	r3, [sp, #36]
 341:Libraries/STM32F4xx_StdPeriph_Driver/src/stm32f4xx_cryp_aes.c ****     AES_CRYP_KeyInitStructure.CRYP_Key2Left = __REV(*(uint32_t*)(keyaddr));
 1177              		.loc 1 341 5 is_stmt 1 view .LVU455
 1178              	.LVL160:
 342:Libraries/STM32F4xx_StdPeriph_Driver/src/stm32f4xx_cryp_aes.c ****     keyaddr+=4;
 1179              		.loc 1 342 5 view .LVU456
 342:Libraries/STM32F4xx_StdPeriph_Driver/src/stm32f4xx_cryp_aes.c ****     keyaddr+=4;
 1180              		.loc 1 342 47 is_stmt 0 view .LVU457
 1181 0118 D9F81030 		ldr	r3, [r9, #16]
 1182              	.LVL161:
 1183              	.LBB302:
ARM GAS  /tmp/ccklj7FS.s 			page 41


 1184              	.LBI302:
 495:Libraries/CMSIS/Include/core_cmInstr.h **** {
 1185              		.loc 2 495 57 is_stmt 1 view .LVU458
 1186              	.LBB303:
 1187              		.loc 2 498 3 view .LVU459
 1188              		.loc 2 498 10 is_stmt 0 view .LVU460
 1189 011c 1BBA     		rev	r3, r3
 1190              	.LVL162:
 1191              		.loc 2 498 10 view .LVU461
 1192              	.LBE303:
 1193              	.LBE302:
 342:Libraries/STM32F4xx_StdPeriph_Driver/src/stm32f4xx_cryp_aes.c ****     keyaddr+=4;
 1194              		.loc 1 342 45 view .LVU462
 1195 011e 0A93     		str	r3, [sp, #40]
 343:Libraries/STM32F4xx_StdPeriph_Driver/src/stm32f4xx_cryp_aes.c ****     AES_CRYP_KeyInitStructure.CRYP_Key2Right= __REV(*(uint32_t*)(keyaddr));
 1196              		.loc 1 343 5 is_stmt 1 view .LVU463
 1197              	.LVL163:
 344:Libraries/STM32F4xx_StdPeriph_Driver/src/stm32f4xx_cryp_aes.c ****     keyaddr+=4;
 1198              		.loc 1 344 5 view .LVU464
 344:Libraries/STM32F4xx_StdPeriph_Driver/src/stm32f4xx_cryp_aes.c ****     keyaddr+=4;
 1199              		.loc 1 344 47 is_stmt 0 view .LVU465
 1200 0120 D9F81430 		ldr	r3, [r9, #20]
 1201              	.LVL164:
 1202              	.LBB304:
 1203              	.LBI304:
 495:Libraries/CMSIS/Include/core_cmInstr.h **** {
 1204              		.loc 2 495 57 is_stmt 1 view .LVU466
 1205              	.LBB305:
 1206              		.loc 2 498 3 view .LVU467
 1207              		.loc 2 498 10 is_stmt 0 view .LVU468
 1208 0124 1BBA     		rev	r3, r3
 1209              	.LVL165:
 1210              		.loc 2 498 10 view .LVU469
 1211              	.LBE305:
 1212              	.LBE304:
 344:Libraries/STM32F4xx_StdPeriph_Driver/src/stm32f4xx_cryp_aes.c ****     keyaddr+=4;
 1213              		.loc 1 344 45 view .LVU470
 1214 0126 0B93     		str	r3, [sp, #44]
 345:Libraries/STM32F4xx_StdPeriph_Driver/src/stm32f4xx_cryp_aes.c ****     AES_CRYP_KeyInitStructure.CRYP_Key3Left = __REV(*(uint32_t*)(keyaddr));
 1215              		.loc 1 345 5 is_stmt 1 view .LVU471
 1216              	.LVL166:
 346:Libraries/STM32F4xx_StdPeriph_Driver/src/stm32f4xx_cryp_aes.c ****     keyaddr+=4;
 1217              		.loc 1 346 5 view .LVU472
 346:Libraries/STM32F4xx_StdPeriph_Driver/src/stm32f4xx_cryp_aes.c ****     keyaddr+=4;
 1218              		.loc 1 346 47 is_stmt 0 view .LVU473
 1219 0128 D9F81830 		ldr	r3, [r9, #24]
 1220              	.LVL167:
 1221              	.LBB306:
 1222              	.LBI306:
 495:Libraries/CMSIS/Include/core_cmInstr.h **** {
 1223              		.loc 2 495 57 is_stmt 1 view .LVU474
 1224              	.LBB307:
 1225              		.loc 2 498 3 view .LVU475
 1226              		.loc 2 498 10 is_stmt 0 view .LVU476
 1227 012c 1BBA     		rev	r3, r3
 1228              	.LVL168:
 1229              		.loc 2 498 10 view .LVU477
ARM GAS  /tmp/ccklj7FS.s 			page 42


 1230              	.LBE307:
 1231              	.LBE306:
 346:Libraries/STM32F4xx_StdPeriph_Driver/src/stm32f4xx_cryp_aes.c ****     keyaddr+=4;
 1232              		.loc 1 346 45 view .LVU478
 1233 012e 0C93     		str	r3, [sp, #48]
 347:Libraries/STM32F4xx_StdPeriph_Driver/src/stm32f4xx_cryp_aes.c ****     AES_CRYP_KeyInitStructure.CRYP_Key3Right= __REV(*(uint32_t*)(keyaddr));
 1234              		.loc 1 347 5 is_stmt 1 view .LVU479
 1235              	.LVL169:
 348:Libraries/STM32F4xx_StdPeriph_Driver/src/stm32f4xx_cryp_aes.c ****     break;
 1236              		.loc 1 348 5 view .LVU480
 348:Libraries/STM32F4xx_StdPeriph_Driver/src/stm32f4xx_cryp_aes.c ****     break;
 1237              		.loc 1 348 47 is_stmt 0 view .LVU481
 1238 0130 D9F81C30 		ldr	r3, [r9, #28]
 1239              	.LVL170:
 1240              	.LBB308:
 1241              	.LBI308:
 495:Libraries/CMSIS/Include/core_cmInstr.h **** {
 1242              		.loc 2 495 57 is_stmt 1 view .LVU482
 1243              	.LBB309:
 1244              		.loc 2 498 3 view .LVU483
 1245              		.loc 2 498 10 is_stmt 0 view .LVU484
 1246 0134 1BBA     		rev	r3, r3
 1247              	.LVL171:
 1248              		.loc 2 498 10 view .LVU485
 1249              	.LBE309:
 1250              	.LBE308:
 348:Libraries/STM32F4xx_StdPeriph_Driver/src/stm32f4xx_cryp_aes.c ****     break;
 1251              		.loc 1 348 45 view .LVU486
 1252 0136 0D93     		str	r3, [sp, #52]
 349:Libraries/STM32F4xx_StdPeriph_Driver/src/stm32f4xx_cryp_aes.c ****     default:
 1253              		.loc 1 349 5 is_stmt 1 view .LVU487
 1254 0138 7BE7     		b	.L23
 1255              	.LVL172:
 1256              	.L24:
 398:Libraries/STM32F4xx_StdPeriph_Driver/src/stm32f4xx_cryp_aes.c ****     }
 399:Libraries/STM32F4xx_StdPeriph_Driver/src/stm32f4xx_cryp_aes.c ****   }
 400:Libraries/STM32F4xx_StdPeriph_Driver/src/stm32f4xx_cryp_aes.c ****   /*------------------ AES Encryption ------------------*/
 401:Libraries/STM32F4xx_StdPeriph_Driver/src/stm32f4xx_cryp_aes.c ****   else /* AES encryption */
 402:Libraries/STM32F4xx_StdPeriph_Driver/src/stm32f4xx_cryp_aes.c ****   {
 403:Libraries/STM32F4xx_StdPeriph_Driver/src/stm32f4xx_cryp_aes.c ****     CRYP_KeyInit(&AES_CRYP_KeyInitStructure);
 1257              		.loc 1 403 5 view .LVU488
 1258 013a 06A8     		add	r0, sp, #24
 1259 013c FFF7FEFF 		bl	CRYP_KeyInit
 1260              	.LVL173:
 404:Libraries/STM32F4xx_StdPeriph_Driver/src/stm32f4xx_cryp_aes.c **** 
 405:Libraries/STM32F4xx_StdPeriph_Driver/src/stm32f4xx_cryp_aes.c ****     /* Crypto Init for Encryption process */
 406:Libraries/STM32F4xx_StdPeriph_Driver/src/stm32f4xx_cryp_aes.c ****     AES_CRYP_InitStructure.CRYP_AlgoDir  = CRYP_AlgoDir_Encrypt;
 1261              		.loc 1 406 5 view .LVU489
 1262              		.loc 1 406 42 is_stmt 0 view .LVU490
 1263 0140 0023     		movs	r3, #0
 1264 0142 0E93     		str	r3, [sp, #56]
 296:Libraries/STM32F4xx_StdPeriph_Driver/src/stm32f4xx_cryp_aes.c ****   uint32_t keyaddr    = (uint32_t)Key;
 1265              		.loc 1 296 15 view .LVU491
 1266 0144 0126     		movs	r6, #1
 1267              	.LVL174:
 1268              	.L27:
 407:Libraries/STM32F4xx_StdPeriph_Driver/src/stm32f4xx_cryp_aes.c ****   }
ARM GAS  /tmp/ccklj7FS.s 			page 43


 408:Libraries/STM32F4xx_StdPeriph_Driver/src/stm32f4xx_cryp_aes.c ****   AES_CRYP_InitStructure.CRYP_AlgoMode = CRYP_AlgoMode_AES_CBC;
 1269              		.loc 1 408 3 is_stmt 1 view .LVU492
 1270              		.loc 1 408 40 is_stmt 0 view .LVU493
 1271 0146 2823     		movs	r3, #40
 1272 0148 0F93     		str	r3, [sp, #60]
 409:Libraries/STM32F4xx_StdPeriph_Driver/src/stm32f4xx_cryp_aes.c ****   AES_CRYP_InitStructure.CRYP_DataType = CRYP_DataType_8b;
 1273              		.loc 1 409 3 is_stmt 1 view .LVU494
 1274              		.loc 1 409 40 is_stmt 0 view .LVU495
 1275 014a 8023     		movs	r3, #128
 1276 014c 1093     		str	r3, [sp, #64]
 410:Libraries/STM32F4xx_StdPeriph_Driver/src/stm32f4xx_cryp_aes.c ****   CRYP_Init(&AES_CRYP_InitStructure);
 1277              		.loc 1 410 3 is_stmt 1 view .LVU496
 1278 014e 0EA8     		add	r0, sp, #56
 1279 0150 FFF7FEFF 		bl	CRYP_Init
 1280              	.LVL175:
 411:Libraries/STM32F4xx_StdPeriph_Driver/src/stm32f4xx_cryp_aes.c **** 
 412:Libraries/STM32F4xx_StdPeriph_Driver/src/stm32f4xx_cryp_aes.c ****   /* CRYP Initialization Vectors */
 413:Libraries/STM32F4xx_StdPeriph_Driver/src/stm32f4xx_cryp_aes.c ****   CRYP_IVInit(&AES_CRYP_IVInitStructure);
 1281              		.loc 1 413 3 view .LVU497
 1282 0154 02A8     		add	r0, sp, #8
 1283 0156 FFF7FEFF 		bl	CRYP_IVInit
 1284              	.LVL176:
 414:Libraries/STM32F4xx_StdPeriph_Driver/src/stm32f4xx_cryp_aes.c **** 
 415:Libraries/STM32F4xx_StdPeriph_Driver/src/stm32f4xx_cryp_aes.c ****   /* Flush IN/OUT FIFOs */
 416:Libraries/STM32F4xx_StdPeriph_Driver/src/stm32f4xx_cryp_aes.c ****   CRYP_FIFOFlush();
 1285              		.loc 1 416 3 view .LVU498
 1286 015a FFF7FEFF 		bl	CRYP_FIFOFlush
 1287              	.LVL177:
 417:Libraries/STM32F4xx_StdPeriph_Driver/src/stm32f4xx_cryp_aes.c **** 
 418:Libraries/STM32F4xx_StdPeriph_Driver/src/stm32f4xx_cryp_aes.c ****   /* Enable Crypto processor */
 419:Libraries/STM32F4xx_StdPeriph_Driver/src/stm32f4xx_cryp_aes.c ****   CRYP_Cmd(ENABLE);
 1288              		.loc 1 419 3 view .LVU499
 1289 015e 0120     		movs	r0, #1
 1290 0160 FFF7FEFF 		bl	CRYP_Cmd
 1291              	.LVL178:
 420:Libraries/STM32F4xx_StdPeriph_Driver/src/stm32f4xx_cryp_aes.c **** 
 421:Libraries/STM32F4xx_StdPeriph_Driver/src/stm32f4xx_cryp_aes.c ****   if(CRYP_GetCmdStatus() == DISABLE)
 1292              		.loc 1 421 3 view .LVU500
 1293              		.loc 1 421 6 is_stmt 0 view .LVU501
 1294 0164 FFF7FEFF 		bl	CRYP_GetCmdStatus
 1295              	.LVL179:
 1296              		.loc 1 421 5 view .LVU502
 1297 0168 0028     		cmp	r0, #0
 1298 016a 35D0     		beq	.L28
 422:Libraries/STM32F4xx_StdPeriph_Driver/src/stm32f4xx_cryp_aes.c ****   {
 423:Libraries/STM32F4xx_StdPeriph_Driver/src/stm32f4xx_cryp_aes.c ****     /* The CRYP peripheral clock is not enabled or the device doesn't embed 
 424:Libraries/STM32F4xx_StdPeriph_Driver/src/stm32f4xx_cryp_aes.c ****        the CRYP peripheral (please check the device sales type. */
 425:Libraries/STM32F4xx_StdPeriph_Driver/src/stm32f4xx_cryp_aes.c ****     return(ERROR);
 426:Libraries/STM32F4xx_StdPeriph_Driver/src/stm32f4xx_cryp_aes.c ****   }
 427:Libraries/STM32F4xx_StdPeriph_Driver/src/stm32f4xx_cryp_aes.c ****   
 428:Libraries/STM32F4xx_StdPeriph_Driver/src/stm32f4xx_cryp_aes.c ****   for(i=0; ((i<Ilength) && (status != ERROR)); i+=16)
 1299              		.loc 1 428 8 view .LVU503
 1300 016c 0025     		movs	r5, #0
 1301              	.LVL180:
 1302              		.loc 1 428 8 view .LVU504
 1303 016e 02E0     		b	.L29
 1304              	.LVL181:
ARM GAS  /tmp/ccklj7FS.s 			page 44


 1305              	.L30:
 429:Libraries/STM32F4xx_StdPeriph_Driver/src/stm32f4xx_cryp_aes.c ****   {
 430:Libraries/STM32F4xx_StdPeriph_Driver/src/stm32f4xx_cryp_aes.c **** 
 431:Libraries/STM32F4xx_StdPeriph_Driver/src/stm32f4xx_cryp_aes.c ****     /* Write the Input block in the IN FIFO */
 432:Libraries/STM32F4xx_StdPeriph_Driver/src/stm32f4xx_cryp_aes.c ****     CRYP_DataIn(*(uint32_t*)(inputaddr));
 433:Libraries/STM32F4xx_StdPeriph_Driver/src/stm32f4xx_cryp_aes.c ****     inputaddr+=4;
 434:Libraries/STM32F4xx_StdPeriph_Driver/src/stm32f4xx_cryp_aes.c ****     CRYP_DataIn(*(uint32_t*)(inputaddr));
 435:Libraries/STM32F4xx_StdPeriph_Driver/src/stm32f4xx_cryp_aes.c ****     inputaddr+=4;
 436:Libraries/STM32F4xx_StdPeriph_Driver/src/stm32f4xx_cryp_aes.c ****     CRYP_DataIn(*(uint32_t*)(inputaddr));
 437:Libraries/STM32F4xx_StdPeriph_Driver/src/stm32f4xx_cryp_aes.c ****     inputaddr+=4;
 438:Libraries/STM32F4xx_StdPeriph_Driver/src/stm32f4xx_cryp_aes.c ****     CRYP_DataIn(*(uint32_t*)(inputaddr));
 439:Libraries/STM32F4xx_StdPeriph_Driver/src/stm32f4xx_cryp_aes.c ****     inputaddr+=4;
 440:Libraries/STM32F4xx_StdPeriph_Driver/src/stm32f4xx_cryp_aes.c ****     /* Wait until the complete message has been processed */
 441:Libraries/STM32F4xx_StdPeriph_Driver/src/stm32f4xx_cryp_aes.c ****     counter = 0;
 442:Libraries/STM32F4xx_StdPeriph_Driver/src/stm32f4xx_cryp_aes.c ****     do
 443:Libraries/STM32F4xx_StdPeriph_Driver/src/stm32f4xx_cryp_aes.c ****     {
 444:Libraries/STM32F4xx_StdPeriph_Driver/src/stm32f4xx_cryp_aes.c ****       busystatus = CRYP_GetFlagStatus(CRYP_FLAG_BUSY);
 445:Libraries/STM32F4xx_StdPeriph_Driver/src/stm32f4xx_cryp_aes.c ****       counter++;
 446:Libraries/STM32F4xx_StdPeriph_Driver/src/stm32f4xx_cryp_aes.c ****     }while ((counter != AESBUSY_TIMEOUT) && (busystatus != RESET));
 447:Libraries/STM32F4xx_StdPeriph_Driver/src/stm32f4xx_cryp_aes.c **** 
 448:Libraries/STM32F4xx_StdPeriph_Driver/src/stm32f4xx_cryp_aes.c ****     if (busystatus != RESET)
 1306              		.loc 1 448 5 is_stmt 1 view .LVU505
 1307              		.loc 1 448 8 is_stmt 0 view .LVU506
 1308 0170 00B3     		cbz	r0, .L38
 449:Libraries/STM32F4xx_StdPeriph_Driver/src/stm32f4xx_cryp_aes.c ****    {
 450:Libraries/STM32F4xx_StdPeriph_Driver/src/stm32f4xx_cryp_aes.c ****        status = ERROR;
 1309              		.loc 1 450 15 view .LVU507
 1310 0172 0026     		movs	r6, #0
 1311              	.LVL182:
 1312              	.L32:
 428:Libraries/STM32F4xx_StdPeriph_Driver/src/stm32f4xx_cryp_aes.c ****   {
 1313              		.loc 1 428 48 is_stmt 1 discriminator 2 view .LVU508
 428:Libraries/STM32F4xx_StdPeriph_Driver/src/stm32f4xx_cryp_aes.c ****   {
 1314              		.loc 1 428 49 is_stmt 0 discriminator 2 view .LVU509
 1315 0174 1035     		adds	r5, r5, #16
 1316              	.LVL183:
 1317              	.L29:
 428:Libraries/STM32F4xx_StdPeriph_Driver/src/stm32f4xx_cryp_aes.c ****   {
 1318              		.loc 1 428 12 is_stmt 1 discriminator 1 view .LVU510
 428:Libraries/STM32F4xx_StdPeriph_Driver/src/stm32f4xx_cryp_aes.c ****   {
 1319              		.loc 1 428 3 is_stmt 0 discriminator 1 view .LVU511
 1320 0176 4545     		cmp	r5, r8
 1321 0178 2AD2     		bcs	.L33
 428:Libraries/STM32F4xx_StdPeriph_Driver/src/stm32f4xx_cryp_aes.c ****   {
 1322              		.loc 1 428 25 discriminator 3 view .LVU512
 1323 017a 4EB3     		cbz	r6, .L33
 432:Libraries/STM32F4xx_StdPeriph_Driver/src/stm32f4xx_cryp_aes.c ****     inputaddr+=4;
 1324              		.loc 1 432 5 is_stmt 1 view .LVU513
 1325 017c 2068     		ldr	r0, [r4]
 1326 017e FFF7FEFF 		bl	CRYP_DataIn
 1327              	.LVL184:
 433:Libraries/STM32F4xx_StdPeriph_Driver/src/stm32f4xx_cryp_aes.c ****     CRYP_DataIn(*(uint32_t*)(inputaddr));
 1328              		.loc 1 433 5 view .LVU514
 434:Libraries/STM32F4xx_StdPeriph_Driver/src/stm32f4xx_cryp_aes.c ****     inputaddr+=4;
 1329              		.loc 1 434 5 view .LVU515
 1330 0182 6068     		ldr	r0, [r4, #4]
 1331 0184 FFF7FEFF 		bl	CRYP_DataIn
ARM GAS  /tmp/ccklj7FS.s 			page 45


 1332              	.LVL185:
 435:Libraries/STM32F4xx_StdPeriph_Driver/src/stm32f4xx_cryp_aes.c ****     CRYP_DataIn(*(uint32_t*)(inputaddr));
 1333              		.loc 1 435 5 view .LVU516
 436:Libraries/STM32F4xx_StdPeriph_Driver/src/stm32f4xx_cryp_aes.c ****     inputaddr+=4;
 1334              		.loc 1 436 5 view .LVU517
 1335 0188 A068     		ldr	r0, [r4, #8]
 1336 018a FFF7FEFF 		bl	CRYP_DataIn
 1337              	.LVL186:
 437:Libraries/STM32F4xx_StdPeriph_Driver/src/stm32f4xx_cryp_aes.c ****     CRYP_DataIn(*(uint32_t*)(inputaddr));
 1338              		.loc 1 437 5 view .LVU518
 438:Libraries/STM32F4xx_StdPeriph_Driver/src/stm32f4xx_cryp_aes.c ****     inputaddr+=4;
 1339              		.loc 1 438 5 view .LVU519
 1340 018e E068     		ldr	r0, [r4, #12]
 1341 0190 FFF7FEFF 		bl	CRYP_DataIn
 1342              	.LVL187:
 439:Libraries/STM32F4xx_StdPeriph_Driver/src/stm32f4xx_cryp_aes.c ****     /* Wait until the complete message has been processed */
 1343              		.loc 1 439 5 view .LVU520
 439:Libraries/STM32F4xx_StdPeriph_Driver/src/stm32f4xx_cryp_aes.c ****     /* Wait until the complete message has been processed */
 1344              		.loc 1 439 14 is_stmt 0 view .LVU521
 1345 0194 1034     		adds	r4, r4, #16
 1346              	.LVL188:
 441:Libraries/STM32F4xx_StdPeriph_Driver/src/stm32f4xx_cryp_aes.c ****     do
 1347              		.loc 1 441 5 is_stmt 1 view .LVU522
 441:Libraries/STM32F4xx_StdPeriph_Driver/src/stm32f4xx_cryp_aes.c ****     do
 1348              		.loc 1 441 13 is_stmt 0 view .LVU523
 1349 0196 0023     		movs	r3, #0
 1350 0198 0193     		str	r3, [sp, #4]
 1351              	.L31:
 442:Libraries/STM32F4xx_StdPeriph_Driver/src/stm32f4xx_cryp_aes.c ****     {
 1352              		.loc 1 442 5 is_stmt 1 discriminator 2 view .LVU524
 444:Libraries/STM32F4xx_StdPeriph_Driver/src/stm32f4xx_cryp_aes.c ****       counter++;
 1353              		.loc 1 444 7 discriminator 2 view .LVU525
 444:Libraries/STM32F4xx_StdPeriph_Driver/src/stm32f4xx_cryp_aes.c ****       counter++;
 1354              		.loc 1 444 20 is_stmt 0 discriminator 2 view .LVU526
 1355 019a 1020     		movs	r0, #16
 1356 019c FFF7FEFF 		bl	CRYP_GetFlagStatus
 1357              	.LVL189:
 445:Libraries/STM32F4xx_StdPeriph_Driver/src/stm32f4xx_cryp_aes.c ****     }while ((counter != AESBUSY_TIMEOUT) && (busystatus != RESET));
 1358              		.loc 1 445 7 is_stmt 1 discriminator 2 view .LVU527
 445:Libraries/STM32F4xx_StdPeriph_Driver/src/stm32f4xx_cryp_aes.c ****     }while ((counter != AESBUSY_TIMEOUT) && (busystatus != RESET));
 1359              		.loc 1 445 14 is_stmt 0 discriminator 2 view .LVU528
 1360 01a0 019B     		ldr	r3, [sp, #4]
 1361 01a2 0133     		adds	r3, r3, #1
 1362 01a4 0193     		str	r3, [sp, #4]
 446:Libraries/STM32F4xx_StdPeriph_Driver/src/stm32f4xx_cryp_aes.c **** 
 1363              		.loc 1 446 12 is_stmt 1 discriminator 2 view .LVU529
 446:Libraries/STM32F4xx_StdPeriph_Driver/src/stm32f4xx_cryp_aes.c **** 
 1364              		.loc 1 446 22 is_stmt 0 discriminator 2 view .LVU530
 1365 01a6 019B     		ldr	r3, [sp, #4]
 446:Libraries/STM32F4xx_StdPeriph_Driver/src/stm32f4xx_cryp_aes.c **** 
 1366              		.loc 1 446 5 discriminator 2 view .LVU531
 1367 01a8 B3F5803F 		cmp	r3, #65536
 1368 01ac E0D0     		beq	.L30
 446:Libraries/STM32F4xx_StdPeriph_Driver/src/stm32f4xx_cryp_aes.c **** 
 1369              		.loc 1 446 42 discriminator 1 view .LVU532
 1370 01ae 0028     		cmp	r0, #0
 1371 01b0 F3D1     		bne	.L31
ARM GAS  /tmp/ccklj7FS.s 			page 46


 1372 01b2 DDE7     		b	.L30
 1373              	.L38:
 451:Libraries/STM32F4xx_StdPeriph_Driver/src/stm32f4xx_cryp_aes.c ****     }
 452:Libraries/STM32F4xx_StdPeriph_Driver/src/stm32f4xx_cryp_aes.c ****     else
 453:Libraries/STM32F4xx_StdPeriph_Driver/src/stm32f4xx_cryp_aes.c ****     {
 454:Libraries/STM32F4xx_StdPeriph_Driver/src/stm32f4xx_cryp_aes.c **** 
 455:Libraries/STM32F4xx_StdPeriph_Driver/src/stm32f4xx_cryp_aes.c ****       /* Read the Output block from the Output FIFO */
 456:Libraries/STM32F4xx_StdPeriph_Driver/src/stm32f4xx_cryp_aes.c ****       *(uint32_t*)(outputaddr) = CRYP_DataOut();
 1374              		.loc 1 456 7 is_stmt 1 view .LVU533
 1375              		.loc 1 456 34 is_stmt 0 view .LVU534
 1376 01b4 FFF7FEFF 		bl	CRYP_DataOut
 1377              	.LVL190:
 1378              		.loc 1 456 32 view .LVU535
 1379 01b8 3860     		str	r0, [r7]
 457:Libraries/STM32F4xx_StdPeriph_Driver/src/stm32f4xx_cryp_aes.c ****       outputaddr+=4;
 1380              		.loc 1 457 7 is_stmt 1 view .LVU536
 1381              	.LVL191:
 458:Libraries/STM32F4xx_StdPeriph_Driver/src/stm32f4xx_cryp_aes.c ****       *(uint32_t*)(outputaddr) = CRYP_DataOut();
 1382              		.loc 1 458 7 view .LVU537
 1383              		.loc 1 458 34 is_stmt 0 view .LVU538
 1384 01ba FFF7FEFF 		bl	CRYP_DataOut
 1385              	.LVL192:
 1386              		.loc 1 458 32 view .LVU539
 1387 01be 7860     		str	r0, [r7, #4]
 459:Libraries/STM32F4xx_StdPeriph_Driver/src/stm32f4xx_cryp_aes.c ****       outputaddr+=4;
 1388              		.loc 1 459 7 is_stmt 1 view .LVU540
 1389              	.LVL193:
 460:Libraries/STM32F4xx_StdPeriph_Driver/src/stm32f4xx_cryp_aes.c ****       *(uint32_t*)(outputaddr) = CRYP_DataOut();
 1390              		.loc 1 460 7 view .LVU541
 1391              		.loc 1 460 34 is_stmt 0 view .LVU542
 1392 01c0 FFF7FEFF 		bl	CRYP_DataOut
 1393              	.LVL194:
 1394              		.loc 1 460 32 view .LVU543
 1395 01c4 B860     		str	r0, [r7, #8]
 461:Libraries/STM32F4xx_StdPeriph_Driver/src/stm32f4xx_cryp_aes.c ****       outputaddr+=4;
 1396              		.loc 1 461 7 is_stmt 1 view .LVU544
 1397              	.LVL195:
 462:Libraries/STM32F4xx_StdPeriph_Driver/src/stm32f4xx_cryp_aes.c ****       *(uint32_t*)(outputaddr) = CRYP_DataOut();
 1398              		.loc 1 462 7 view .LVU545
 1399              		.loc 1 462 34 is_stmt 0 view .LVU546
 1400 01c6 FFF7FEFF 		bl	CRYP_DataOut
 1401              	.LVL196:
 1402              		.loc 1 462 32 view .LVU547
 1403 01ca F860     		str	r0, [r7, #12]
 463:Libraries/STM32F4xx_StdPeriph_Driver/src/stm32f4xx_cryp_aes.c ****       outputaddr+=4;
 1404              		.loc 1 463 7 is_stmt 1 view .LVU548
 1405              		.loc 1 463 17 is_stmt 0 view .LVU549
 1406 01cc 1037     		adds	r7, r7, #16
 1407              	.LVL197:
 1408              		.loc 1 463 17 view .LVU550
 1409 01ce D1E7     		b	.L32
 1410              	.L33:
 464:Libraries/STM32F4xx_StdPeriph_Driver/src/stm32f4xx_cryp_aes.c ****     }
 465:Libraries/STM32F4xx_StdPeriph_Driver/src/stm32f4xx_cryp_aes.c ****   }
 466:Libraries/STM32F4xx_StdPeriph_Driver/src/stm32f4xx_cryp_aes.c **** 
 467:Libraries/STM32F4xx_StdPeriph_Driver/src/stm32f4xx_cryp_aes.c ****   /* Disable Crypto */
 468:Libraries/STM32F4xx_StdPeriph_Driver/src/stm32f4xx_cryp_aes.c ****   CRYP_Cmd(DISABLE);
ARM GAS  /tmp/ccklj7FS.s 			page 47


 1411              		.loc 1 468 3 is_stmt 1 view .LVU551
 1412 01d0 0020     		movs	r0, #0
 1413 01d2 FFF7FEFF 		bl	CRYP_Cmd
 1414              	.LVL198:
 469:Libraries/STM32F4xx_StdPeriph_Driver/src/stm32f4xx_cryp_aes.c **** 
 470:Libraries/STM32F4xx_StdPeriph_Driver/src/stm32f4xx_cryp_aes.c ****   return status;
 1415              		.loc 1 470 3 view .LVU552
 1416              		.loc 1 470 10 is_stmt 0 view .LVU553
 1417 01d6 3046     		mov	r0, r6
 1418              	.LVL199:
 1419              	.L28:
 471:Libraries/STM32F4xx_StdPeriph_Driver/src/stm32f4xx_cryp_aes.c **** }
 1420              		.loc 1 471 1 view .LVU554
 1421 01d8 12B0     		add	sp, sp, #72
 1422              	.LCFI5:
 1423              		.cfi_def_cfa_offset 32
 1424              		@ sp needed
 1425 01da BDE8F087 		pop	{r4, r5, r6, r7, r8, r9, r10, pc}
 1426              		.loc 1 471 1 view .LVU555
 1427              		.cfi_endproc
 1428              	.LFE124:
 1430              		.section	.text.CRYP_AES_CTR,"ax",%progbits
 1431              		.align	1
 1432              		.global	CRYP_AES_CTR
 1433              		.syntax unified
 1434              		.thumb
 1435              		.thumb_func
 1436              		.fpu fpv4-sp-d16
 1438              	CRYP_AES_CTR:
 1439              	.LVL200:
 1440              	.LFB125:
 472:Libraries/STM32F4xx_StdPeriph_Driver/src/stm32f4xx_cryp_aes.c **** 
 473:Libraries/STM32F4xx_StdPeriph_Driver/src/stm32f4xx_cryp_aes.c **** /**
 474:Libraries/STM32F4xx_StdPeriph_Driver/src/stm32f4xx_cryp_aes.c ****   * @brief  Encrypt and decrypt using AES in CTR Mode
 475:Libraries/STM32F4xx_StdPeriph_Driver/src/stm32f4xx_cryp_aes.c ****   * @param  Mode: encryption or decryption Mode.
 476:Libraries/STM32F4xx_StdPeriph_Driver/src/stm32f4xx_cryp_aes.c ****   *           This parameter can be one of the following values:
 477:Libraries/STM32F4xx_StdPeriph_Driver/src/stm32f4xx_cryp_aes.c ****   *            @arg MODE_ENCRYPT: Encryption
 478:Libraries/STM32F4xx_StdPeriph_Driver/src/stm32f4xx_cryp_aes.c ****   *            @arg MODE_DECRYPT: Decryption
 479:Libraries/STM32F4xx_StdPeriph_Driver/src/stm32f4xx_cryp_aes.c ****   * @param  InitVectors: Initialisation Vectors used for AES algorithm.
 480:Libraries/STM32F4xx_StdPeriph_Driver/src/stm32f4xx_cryp_aes.c ****   * @param  Key: Key used for AES algorithm.
 481:Libraries/STM32F4xx_StdPeriph_Driver/src/stm32f4xx_cryp_aes.c ****   * @param  Keysize: length of the Key, must be a 128, 192 or 256.
 482:Libraries/STM32F4xx_StdPeriph_Driver/src/stm32f4xx_cryp_aes.c ****   * @param  Input: pointer to the Input buffer.
 483:Libraries/STM32F4xx_StdPeriph_Driver/src/stm32f4xx_cryp_aes.c ****   * @param  Ilength: length of the Input buffer, must be a multiple of 16.
 484:Libraries/STM32F4xx_StdPeriph_Driver/src/stm32f4xx_cryp_aes.c ****   * @param  Output: pointer to the returned buffer.
 485:Libraries/STM32F4xx_StdPeriph_Driver/src/stm32f4xx_cryp_aes.c ****   * @retval An ErrorStatus enumeration value:
 486:Libraries/STM32F4xx_StdPeriph_Driver/src/stm32f4xx_cryp_aes.c ****   *          - SUCCESS: Operation done
 487:Libraries/STM32F4xx_StdPeriph_Driver/src/stm32f4xx_cryp_aes.c ****   *          - ERROR: Operation failed
 488:Libraries/STM32F4xx_StdPeriph_Driver/src/stm32f4xx_cryp_aes.c ****   */
 489:Libraries/STM32F4xx_StdPeriph_Driver/src/stm32f4xx_cryp_aes.c **** ErrorStatus CRYP_AES_CTR(uint8_t Mode, uint8_t InitVectors[16], uint8_t *Key, 
 490:Libraries/STM32F4xx_StdPeriph_Driver/src/stm32f4xx_cryp_aes.c ****                          uint16_t Keysize, uint8_t *Input, uint32_t Ilength,
 491:Libraries/STM32F4xx_StdPeriph_Driver/src/stm32f4xx_cryp_aes.c ****                          uint8_t *Output)
 492:Libraries/STM32F4xx_StdPeriph_Driver/src/stm32f4xx_cryp_aes.c **** {
 1441              		.loc 1 492 1 is_stmt 1 view -0
 1442              		.cfi_startproc
 1443              		@ args = 12, pretend = 0, frame = 72
 1444              		@ frame_needed = 0, uses_anonymous_args = 0
 1445              		.loc 1 492 1 is_stmt 0 view .LVU557
ARM GAS  /tmp/ccklj7FS.s 			page 48


 1446 0000 2DE9F047 		push	{r4, r5, r6, r7, r8, r9, r10, lr}
 1447              	.LCFI6:
 1448              		.cfi_def_cfa_offset 32
 1449              		.cfi_offset 4, -32
 1450              		.cfi_offset 5, -28
 1451              		.cfi_offset 6, -24
 1452              		.cfi_offset 7, -20
 1453              		.cfi_offset 8, -16
 1454              		.cfi_offset 9, -12
 1455              		.cfi_offset 10, -8
 1456              		.cfi_offset 14, -4
 1457 0004 92B0     		sub	sp, sp, #72
 1458              	.LCFI7:
 1459              		.cfi_def_cfa_offset 104
 1460 0006 8246     		mov	r10, r0
 1461 0008 0D46     		mov	r5, r1
 1462 000a 1646     		mov	r6, r2
 1463 000c 9946     		mov	r9, r3
 1464 000e DDF86C80 		ldr	r8, [sp, #108]
 493:Libraries/STM32F4xx_StdPeriph_Driver/src/stm32f4xx_cryp_aes.c ****   CRYP_InitTypeDef AES_CRYP_InitStructure;
 1465              		.loc 1 493 3 is_stmt 1 view .LVU558
 494:Libraries/STM32F4xx_StdPeriph_Driver/src/stm32f4xx_cryp_aes.c ****   CRYP_KeyInitTypeDef AES_CRYP_KeyInitStructure;
 1466              		.loc 1 494 3 view .LVU559
 495:Libraries/STM32F4xx_StdPeriph_Driver/src/stm32f4xx_cryp_aes.c ****   CRYP_IVInitTypeDef AES_CRYP_IVInitStructure;
 1467              		.loc 1 495 3 view .LVU560
 496:Libraries/STM32F4xx_StdPeriph_Driver/src/stm32f4xx_cryp_aes.c ****   __IO uint32_t counter = 0;
 1468              		.loc 1 496 3 view .LVU561
 1469              		.loc 1 496 17 is_stmt 0 view .LVU562
 1470 0012 0023     		movs	r3, #0
 1471              	.LVL201:
 1472              		.loc 1 496 17 view .LVU563
 1473 0014 0193     		str	r3, [sp, #4]
 497:Libraries/STM32F4xx_StdPeriph_Driver/src/stm32f4xx_cryp_aes.c ****   uint32_t busystatus = 0;
 1474              		.loc 1 497 3 is_stmt 1 view .LVU564
 1475              	.LVL202:
 498:Libraries/STM32F4xx_StdPeriph_Driver/src/stm32f4xx_cryp_aes.c ****   ErrorStatus status = SUCCESS;
 1476              		.loc 1 498 3 view .LVU565
 499:Libraries/STM32F4xx_StdPeriph_Driver/src/stm32f4xx_cryp_aes.c ****   uint32_t keyaddr    = (uint32_t)Key;
 1477              		.loc 1 499 3 view .LVU566
 500:Libraries/STM32F4xx_StdPeriph_Driver/src/stm32f4xx_cryp_aes.c ****   uint32_t inputaddr  = (uint32_t)Input;
 1478              		.loc 1 500 3 view .LVU567
 1479              		.loc 1 500 12 is_stmt 0 view .LVU568
 1480 0016 1A9C     		ldr	r4, [sp, #104]
 1481              	.LVL203:
 501:Libraries/STM32F4xx_StdPeriph_Driver/src/stm32f4xx_cryp_aes.c ****   uint32_t outputaddr = (uint32_t)Output;
 1482              		.loc 1 501 3 is_stmt 1 view .LVU569
 1483              		.loc 1 501 12 is_stmt 0 view .LVU570
 1484 0018 1C9F     		ldr	r7, [sp, #112]
 1485              	.LVL204:
 502:Libraries/STM32F4xx_StdPeriph_Driver/src/stm32f4xx_cryp_aes.c ****   uint32_t ivaddr     = (uint32_t)InitVectors;
 1486              		.loc 1 502 3 is_stmt 1 view .LVU571
 503:Libraries/STM32F4xx_StdPeriph_Driver/src/stm32f4xx_cryp_aes.c ****   uint32_t i = 0;
 1487              		.loc 1 503 3 view .LVU572
 504:Libraries/STM32F4xx_StdPeriph_Driver/src/stm32f4xx_cryp_aes.c **** 
 505:Libraries/STM32F4xx_StdPeriph_Driver/src/stm32f4xx_cryp_aes.c ****   /* Crypto structures initialisation*/
 506:Libraries/STM32F4xx_StdPeriph_Driver/src/stm32f4xx_cryp_aes.c ****   CRYP_KeyStructInit(&AES_CRYP_KeyInitStructure);
 1488              		.loc 1 506 3 view .LVU573
ARM GAS  /tmp/ccklj7FS.s 			page 49


 1489 001a 06A8     		add	r0, sp, #24
 1490              	.LVL205:
 1491              		.loc 1 506 3 is_stmt 0 view .LVU574
 1492 001c FFF7FEFF 		bl	CRYP_KeyStructInit
 1493              	.LVL206:
 507:Libraries/STM32F4xx_StdPeriph_Driver/src/stm32f4xx_cryp_aes.c **** 
 508:Libraries/STM32F4xx_StdPeriph_Driver/src/stm32f4xx_cryp_aes.c ****   switch(Keysize)
 1494              		.loc 1 508 3 is_stmt 1 view .LVU575
 1495 0020 B9F1C00F 		cmp	r9, #192
 1496 0024 3FD0     		beq	.L40
 1497 0026 B9F5807F 		cmp	r9, #256
 1498 002a 52D0     		beq	.L41
 1499 002c B9F1800F 		cmp	r9, #128
 1500 0030 2AD0     		beq	.L54
 1501              	.LVL207:
 1502              	.L42:
 509:Libraries/STM32F4xx_StdPeriph_Driver/src/stm32f4xx_cryp_aes.c ****   {
 510:Libraries/STM32F4xx_StdPeriph_Driver/src/stm32f4xx_cryp_aes.c ****     case 128:
 511:Libraries/STM32F4xx_StdPeriph_Driver/src/stm32f4xx_cryp_aes.c ****     AES_CRYP_InitStructure.CRYP_KeySize = CRYP_KeySize_128b;
 512:Libraries/STM32F4xx_StdPeriph_Driver/src/stm32f4xx_cryp_aes.c ****     AES_CRYP_KeyInitStructure.CRYP_Key2Left = __REV(*(uint32_t*)(keyaddr));
 513:Libraries/STM32F4xx_StdPeriph_Driver/src/stm32f4xx_cryp_aes.c ****     keyaddr+=4;
 514:Libraries/STM32F4xx_StdPeriph_Driver/src/stm32f4xx_cryp_aes.c ****     AES_CRYP_KeyInitStructure.CRYP_Key2Right= __REV(*(uint32_t*)(keyaddr));
 515:Libraries/STM32F4xx_StdPeriph_Driver/src/stm32f4xx_cryp_aes.c ****     keyaddr+=4;
 516:Libraries/STM32F4xx_StdPeriph_Driver/src/stm32f4xx_cryp_aes.c ****     AES_CRYP_KeyInitStructure.CRYP_Key3Left = __REV(*(uint32_t*)(keyaddr));
 517:Libraries/STM32F4xx_StdPeriph_Driver/src/stm32f4xx_cryp_aes.c ****     keyaddr+=4;
 518:Libraries/STM32F4xx_StdPeriph_Driver/src/stm32f4xx_cryp_aes.c ****     AES_CRYP_KeyInitStructure.CRYP_Key3Right= __REV(*(uint32_t*)(keyaddr));
 519:Libraries/STM32F4xx_StdPeriph_Driver/src/stm32f4xx_cryp_aes.c ****     break;
 520:Libraries/STM32F4xx_StdPeriph_Driver/src/stm32f4xx_cryp_aes.c ****     case 192:
 521:Libraries/STM32F4xx_StdPeriph_Driver/src/stm32f4xx_cryp_aes.c ****     AES_CRYP_InitStructure.CRYP_KeySize  = CRYP_KeySize_192b;
 522:Libraries/STM32F4xx_StdPeriph_Driver/src/stm32f4xx_cryp_aes.c ****     AES_CRYP_KeyInitStructure.CRYP_Key1Left = __REV(*(uint32_t*)(keyaddr));
 523:Libraries/STM32F4xx_StdPeriph_Driver/src/stm32f4xx_cryp_aes.c ****     keyaddr+=4;
 524:Libraries/STM32F4xx_StdPeriph_Driver/src/stm32f4xx_cryp_aes.c ****     AES_CRYP_KeyInitStructure.CRYP_Key1Right= __REV(*(uint32_t*)(keyaddr));
 525:Libraries/STM32F4xx_StdPeriph_Driver/src/stm32f4xx_cryp_aes.c ****     keyaddr+=4;
 526:Libraries/STM32F4xx_StdPeriph_Driver/src/stm32f4xx_cryp_aes.c ****     AES_CRYP_KeyInitStructure.CRYP_Key2Left = __REV(*(uint32_t*)(keyaddr));
 527:Libraries/STM32F4xx_StdPeriph_Driver/src/stm32f4xx_cryp_aes.c ****     keyaddr+=4;
 528:Libraries/STM32F4xx_StdPeriph_Driver/src/stm32f4xx_cryp_aes.c ****     AES_CRYP_KeyInitStructure.CRYP_Key2Right= __REV(*(uint32_t*)(keyaddr));
 529:Libraries/STM32F4xx_StdPeriph_Driver/src/stm32f4xx_cryp_aes.c ****     keyaddr+=4;
 530:Libraries/STM32F4xx_StdPeriph_Driver/src/stm32f4xx_cryp_aes.c ****     AES_CRYP_KeyInitStructure.CRYP_Key3Left = __REV(*(uint32_t*)(keyaddr));
 531:Libraries/STM32F4xx_StdPeriph_Driver/src/stm32f4xx_cryp_aes.c ****     keyaddr+=4;
 532:Libraries/STM32F4xx_StdPeriph_Driver/src/stm32f4xx_cryp_aes.c ****     AES_CRYP_KeyInitStructure.CRYP_Key3Right= __REV(*(uint32_t*)(keyaddr));
 533:Libraries/STM32F4xx_StdPeriph_Driver/src/stm32f4xx_cryp_aes.c ****     break;
 534:Libraries/STM32F4xx_StdPeriph_Driver/src/stm32f4xx_cryp_aes.c ****     case 256:
 535:Libraries/STM32F4xx_StdPeriph_Driver/src/stm32f4xx_cryp_aes.c ****     AES_CRYP_InitStructure.CRYP_KeySize  = CRYP_KeySize_256b;
 536:Libraries/STM32F4xx_StdPeriph_Driver/src/stm32f4xx_cryp_aes.c ****     AES_CRYP_KeyInitStructure.CRYP_Key0Left = __REV(*(uint32_t*)(keyaddr));
 537:Libraries/STM32F4xx_StdPeriph_Driver/src/stm32f4xx_cryp_aes.c ****     keyaddr+=4;
 538:Libraries/STM32F4xx_StdPeriph_Driver/src/stm32f4xx_cryp_aes.c ****     AES_CRYP_KeyInitStructure.CRYP_Key0Right= __REV(*(uint32_t*)(keyaddr));
 539:Libraries/STM32F4xx_StdPeriph_Driver/src/stm32f4xx_cryp_aes.c ****     keyaddr+=4;
 540:Libraries/STM32F4xx_StdPeriph_Driver/src/stm32f4xx_cryp_aes.c ****     AES_CRYP_KeyInitStructure.CRYP_Key1Left = __REV(*(uint32_t*)(keyaddr));
 541:Libraries/STM32F4xx_StdPeriph_Driver/src/stm32f4xx_cryp_aes.c ****     keyaddr+=4;
 542:Libraries/STM32F4xx_StdPeriph_Driver/src/stm32f4xx_cryp_aes.c ****     AES_CRYP_KeyInitStructure.CRYP_Key1Right= __REV(*(uint32_t*)(keyaddr));
 543:Libraries/STM32F4xx_StdPeriph_Driver/src/stm32f4xx_cryp_aes.c ****     keyaddr+=4;
 544:Libraries/STM32F4xx_StdPeriph_Driver/src/stm32f4xx_cryp_aes.c ****     AES_CRYP_KeyInitStructure.CRYP_Key2Left = __REV(*(uint32_t*)(keyaddr));
 545:Libraries/STM32F4xx_StdPeriph_Driver/src/stm32f4xx_cryp_aes.c ****     keyaddr+=4;
 546:Libraries/STM32F4xx_StdPeriph_Driver/src/stm32f4xx_cryp_aes.c ****     AES_CRYP_KeyInitStructure.CRYP_Key2Right= __REV(*(uint32_t*)(keyaddr));
 547:Libraries/STM32F4xx_StdPeriph_Driver/src/stm32f4xx_cryp_aes.c ****     keyaddr+=4;
 548:Libraries/STM32F4xx_StdPeriph_Driver/src/stm32f4xx_cryp_aes.c ****     AES_CRYP_KeyInitStructure.CRYP_Key3Left = __REV(*(uint32_t*)(keyaddr));
 549:Libraries/STM32F4xx_StdPeriph_Driver/src/stm32f4xx_cryp_aes.c ****     keyaddr+=4;
ARM GAS  /tmp/ccklj7FS.s 			page 50


 550:Libraries/STM32F4xx_StdPeriph_Driver/src/stm32f4xx_cryp_aes.c ****     AES_CRYP_KeyInitStructure.CRYP_Key3Right= __REV(*(uint32_t*)(keyaddr));
 551:Libraries/STM32F4xx_StdPeriph_Driver/src/stm32f4xx_cryp_aes.c ****     break;
 552:Libraries/STM32F4xx_StdPeriph_Driver/src/stm32f4xx_cryp_aes.c ****     default:
 553:Libraries/STM32F4xx_StdPeriph_Driver/src/stm32f4xx_cryp_aes.c ****     break;
 554:Libraries/STM32F4xx_StdPeriph_Driver/src/stm32f4xx_cryp_aes.c ****   }
 555:Libraries/STM32F4xx_StdPeriph_Driver/src/stm32f4xx_cryp_aes.c ****   /* CRYP Initialization Vectors */
 556:Libraries/STM32F4xx_StdPeriph_Driver/src/stm32f4xx_cryp_aes.c ****   AES_CRYP_IVInitStructure.CRYP_IV0Left = __REV(*(uint32_t*)(ivaddr));
 1503              		.loc 1 556 3 view .LVU576
 1504              		.loc 1 556 43 is_stmt 0 view .LVU577
 1505 0032 2B68     		ldr	r3, [r5]
 1506              	.LVL208:
 1507              	.LBB310:
 1508              	.LBI310:
 495:Libraries/CMSIS/Include/core_cmInstr.h **** {
 1509              		.loc 2 495 57 is_stmt 1 view .LVU578
 1510              	.LBB311:
 1511              		.loc 2 498 3 view .LVU579
 1512              		.loc 2 498 10 is_stmt 0 view .LVU580
 1513 0034 1BBA     		rev	r3, r3
 1514              	.LVL209:
 1515              		.loc 2 498 10 view .LVU581
 1516              	.LBE311:
 1517              	.LBE310:
 1518              		.loc 1 556 41 view .LVU582
 1519 0036 0293     		str	r3, [sp, #8]
 557:Libraries/STM32F4xx_StdPeriph_Driver/src/stm32f4xx_cryp_aes.c ****   ivaddr+=4;
 1520              		.loc 1 557 3 is_stmt 1 view .LVU583
 1521              	.LVL210:
 558:Libraries/STM32F4xx_StdPeriph_Driver/src/stm32f4xx_cryp_aes.c ****   AES_CRYP_IVInitStructure.CRYP_IV0Right= __REV(*(uint32_t*)(ivaddr));
 1522              		.loc 1 558 3 view .LVU584
 1523              		.loc 1 558 43 is_stmt 0 view .LVU585
 1524 0038 6B68     		ldr	r3, [r5, #4]
 1525              	.LVL211:
 1526              	.LBB312:
 1527              	.LBI312:
 495:Libraries/CMSIS/Include/core_cmInstr.h **** {
 1528              		.loc 2 495 57 is_stmt 1 view .LVU586
 1529              	.LBB313:
 1530              		.loc 2 498 3 view .LVU587
 1531              		.loc 2 498 10 is_stmt 0 view .LVU588
 1532 003a 1BBA     		rev	r3, r3
 1533              	.LVL212:
 1534              		.loc 2 498 10 view .LVU589
 1535              	.LBE313:
 1536              	.LBE312:
 1537              		.loc 1 558 41 view .LVU590
 1538 003c 0393     		str	r3, [sp, #12]
 559:Libraries/STM32F4xx_StdPeriph_Driver/src/stm32f4xx_cryp_aes.c ****   ivaddr+=4;
 1539              		.loc 1 559 3 is_stmt 1 view .LVU591
 1540              	.LVL213:
 560:Libraries/STM32F4xx_StdPeriph_Driver/src/stm32f4xx_cryp_aes.c ****   AES_CRYP_IVInitStructure.CRYP_IV1Left = __REV(*(uint32_t*)(ivaddr));
 1541              		.loc 1 560 3 view .LVU592
 1542              		.loc 1 560 43 is_stmt 0 view .LVU593
 1543 003e AB68     		ldr	r3, [r5, #8]
 1544              	.LVL214:
 1545              	.LBB314:
 1546              	.LBI314:
ARM GAS  /tmp/ccklj7FS.s 			page 51


 495:Libraries/CMSIS/Include/core_cmInstr.h **** {
 1547              		.loc 2 495 57 is_stmt 1 view .LVU594
 1548              	.LBB315:
 1549              		.loc 2 498 3 view .LVU595
 1550              		.loc 2 498 10 is_stmt 0 view .LVU596
 1551 0040 1BBA     		rev	r3, r3
 1552              	.LVL215:
 1553              		.loc 2 498 10 view .LVU597
 1554              	.LBE315:
 1555              	.LBE314:
 1556              		.loc 1 560 41 view .LVU598
 1557 0042 0493     		str	r3, [sp, #16]
 561:Libraries/STM32F4xx_StdPeriph_Driver/src/stm32f4xx_cryp_aes.c ****   ivaddr+=4;
 1558              		.loc 1 561 3 is_stmt 1 view .LVU599
 1559              	.LVL216:
 562:Libraries/STM32F4xx_StdPeriph_Driver/src/stm32f4xx_cryp_aes.c ****   AES_CRYP_IVInitStructure.CRYP_IV1Right= __REV(*(uint32_t*)(ivaddr));
 1560              		.loc 1 562 3 view .LVU600
 1561              		.loc 1 562 43 is_stmt 0 view .LVU601
 1562 0044 EB68     		ldr	r3, [r5, #12]
 1563              	.LVL217:
 1564              	.LBB316:
 1565              	.LBI316:
 495:Libraries/CMSIS/Include/core_cmInstr.h **** {
 1566              		.loc 2 495 57 is_stmt 1 view .LVU602
 1567              	.LBB317:
 1568              		.loc 2 498 3 view .LVU603
 1569              		.loc 2 498 10 is_stmt 0 view .LVU604
 1570 0046 1BBA     		rev	r3, r3
 1571              	.LVL218:
 1572              		.loc 2 498 10 view .LVU605
 1573              	.LBE317:
 1574              	.LBE316:
 1575              		.loc 1 562 41 view .LVU606
 1576 0048 0593     		str	r3, [sp, #20]
 563:Libraries/STM32F4xx_StdPeriph_Driver/src/stm32f4xx_cryp_aes.c **** 
 564:Libraries/STM32F4xx_StdPeriph_Driver/src/stm32f4xx_cryp_aes.c ****   /* Key Initialisation */
 565:Libraries/STM32F4xx_StdPeriph_Driver/src/stm32f4xx_cryp_aes.c ****   CRYP_KeyInit(&AES_CRYP_KeyInitStructure);
 1577              		.loc 1 565 3 is_stmt 1 view .LVU607
 1578 004a 06A8     		add	r0, sp, #24
 1579 004c FFF7FEFF 		bl	CRYP_KeyInit
 1580              	.LVL219:
 566:Libraries/STM32F4xx_StdPeriph_Driver/src/stm32f4xx_cryp_aes.c **** 
 567:Libraries/STM32F4xx_StdPeriph_Driver/src/stm32f4xx_cryp_aes.c ****   /*------------------ AES Decryption ------------------*/
 568:Libraries/STM32F4xx_StdPeriph_Driver/src/stm32f4xx_cryp_aes.c ****   if(Mode == MODE_DECRYPT) /* AES decryption */
 1581              		.loc 1 568 3 view .LVU608
 1582              		.loc 1 568 5 is_stmt 0 view .LVU609
 1583 0050 BAF1000F 		cmp	r10, #0
 1584 0054 59D1     		bne	.L43
 569:Libraries/STM32F4xx_StdPeriph_Driver/src/stm32f4xx_cryp_aes.c ****   {
 570:Libraries/STM32F4xx_StdPeriph_Driver/src/stm32f4xx_cryp_aes.c ****     /* Crypto Init for decryption process */
 571:Libraries/STM32F4xx_StdPeriph_Driver/src/stm32f4xx_cryp_aes.c ****     AES_CRYP_InitStructure.CRYP_AlgoDir = CRYP_AlgoDir_Decrypt;
 1585              		.loc 1 571 5 is_stmt 1 view .LVU610
 1586              		.loc 1 571 41 is_stmt 0 view .LVU611
 1587 0056 0423     		movs	r3, #4
 1588 0058 0E93     		str	r3, [sp, #56]
 1589              	.L44:
 572:Libraries/STM32F4xx_StdPeriph_Driver/src/stm32f4xx_cryp_aes.c ****   }
ARM GAS  /tmp/ccklj7FS.s 			page 52


 573:Libraries/STM32F4xx_StdPeriph_Driver/src/stm32f4xx_cryp_aes.c ****   /*------------------ AES Encryption ------------------*/
 574:Libraries/STM32F4xx_StdPeriph_Driver/src/stm32f4xx_cryp_aes.c ****   else /* AES encryption */
 575:Libraries/STM32F4xx_StdPeriph_Driver/src/stm32f4xx_cryp_aes.c ****   {
 576:Libraries/STM32F4xx_StdPeriph_Driver/src/stm32f4xx_cryp_aes.c ****     /* Crypto Init for Encryption process */
 577:Libraries/STM32F4xx_StdPeriph_Driver/src/stm32f4xx_cryp_aes.c ****     AES_CRYP_InitStructure.CRYP_AlgoDir = CRYP_AlgoDir_Encrypt;
 578:Libraries/STM32F4xx_StdPeriph_Driver/src/stm32f4xx_cryp_aes.c ****   }
 579:Libraries/STM32F4xx_StdPeriph_Driver/src/stm32f4xx_cryp_aes.c ****   AES_CRYP_InitStructure.CRYP_AlgoMode = CRYP_AlgoMode_AES_CTR;
 1590              		.loc 1 579 3 is_stmt 1 view .LVU612
 1591              		.loc 1 579 40 is_stmt 0 view .LVU613
 1592 005a 3023     		movs	r3, #48
 1593 005c 0F93     		str	r3, [sp, #60]
 580:Libraries/STM32F4xx_StdPeriph_Driver/src/stm32f4xx_cryp_aes.c ****   AES_CRYP_InitStructure.CRYP_DataType = CRYP_DataType_8b;
 1594              		.loc 1 580 3 is_stmt 1 view .LVU614
 1595              		.loc 1 580 40 is_stmt 0 view .LVU615
 1596 005e 8023     		movs	r3, #128
 1597 0060 1093     		str	r3, [sp, #64]
 581:Libraries/STM32F4xx_StdPeriph_Driver/src/stm32f4xx_cryp_aes.c ****   CRYP_Init(&AES_CRYP_InitStructure);
 1598              		.loc 1 581 3 is_stmt 1 view .LVU616
 1599 0062 0EA8     		add	r0, sp, #56
 1600 0064 FFF7FEFF 		bl	CRYP_Init
 1601              	.LVL220:
 582:Libraries/STM32F4xx_StdPeriph_Driver/src/stm32f4xx_cryp_aes.c **** 
 583:Libraries/STM32F4xx_StdPeriph_Driver/src/stm32f4xx_cryp_aes.c ****   /* CRYP Initialization Vectors */
 584:Libraries/STM32F4xx_StdPeriph_Driver/src/stm32f4xx_cryp_aes.c ****   CRYP_IVInit(&AES_CRYP_IVInitStructure);
 1602              		.loc 1 584 3 view .LVU617
 1603 0068 02A8     		add	r0, sp, #8
 1604 006a FFF7FEFF 		bl	CRYP_IVInit
 1605              	.LVL221:
 585:Libraries/STM32F4xx_StdPeriph_Driver/src/stm32f4xx_cryp_aes.c **** 
 586:Libraries/STM32F4xx_StdPeriph_Driver/src/stm32f4xx_cryp_aes.c ****   /* Flush IN/OUT FIFOs */
 587:Libraries/STM32F4xx_StdPeriph_Driver/src/stm32f4xx_cryp_aes.c ****   CRYP_FIFOFlush();
 1606              		.loc 1 587 3 view .LVU618
 1607 006e FFF7FEFF 		bl	CRYP_FIFOFlush
 1608              	.LVL222:
 588:Libraries/STM32F4xx_StdPeriph_Driver/src/stm32f4xx_cryp_aes.c **** 
 589:Libraries/STM32F4xx_StdPeriph_Driver/src/stm32f4xx_cryp_aes.c ****   /* Enable Crypto processor */
 590:Libraries/STM32F4xx_StdPeriph_Driver/src/stm32f4xx_cryp_aes.c ****   CRYP_Cmd(ENABLE);
 1609              		.loc 1 590 3 view .LVU619
 1610 0072 0120     		movs	r0, #1
 1611 0074 FFF7FEFF 		bl	CRYP_Cmd
 1612              	.LVL223:
 591:Libraries/STM32F4xx_StdPeriph_Driver/src/stm32f4xx_cryp_aes.c **** 
 592:Libraries/STM32F4xx_StdPeriph_Driver/src/stm32f4xx_cryp_aes.c ****   if(CRYP_GetCmdStatus() == DISABLE)
 1613              		.loc 1 592 3 view .LVU620
 1614              		.loc 1 592 6 is_stmt 0 view .LVU621
 1615 0078 FFF7FEFF 		bl	CRYP_GetCmdStatus
 1616              	.LVL224:
 1617              		.loc 1 592 5 view .LVU622
 1618 007c 0646     		mov	r6, r0
 1619              	.LVL225:
 1620              		.loc 1 592 5 view .LVU623
 1621 007e 0028     		cmp	r0, #0
 1622 0080 79D0     		beq	.L45
 593:Libraries/STM32F4xx_StdPeriph_Driver/src/stm32f4xx_cryp_aes.c ****   {
 594:Libraries/STM32F4xx_StdPeriph_Driver/src/stm32f4xx_cryp_aes.c ****     /* The CRYP peripheral clock is not enabled or the device doesn't embed 
 595:Libraries/STM32F4xx_StdPeriph_Driver/src/stm32f4xx_cryp_aes.c ****        the CRYP peripheral (please check the device sales type. */
 596:Libraries/STM32F4xx_StdPeriph_Driver/src/stm32f4xx_cryp_aes.c ****     return(ERROR);
ARM GAS  /tmp/ccklj7FS.s 			page 53


 597:Libraries/STM32F4xx_StdPeriph_Driver/src/stm32f4xx_cryp_aes.c ****   }
 598:Libraries/STM32F4xx_StdPeriph_Driver/src/stm32f4xx_cryp_aes.c ****   
 599:Libraries/STM32F4xx_StdPeriph_Driver/src/stm32f4xx_cryp_aes.c ****   for(i=0; ((i<Ilength) && (status != ERROR)); i+=16)
 1623              		.loc 1 599 8 view .LVU624
 1624 0082 0025     		movs	r5, #0
 1625              	.LVL226:
 498:Libraries/STM32F4xx_StdPeriph_Driver/src/stm32f4xx_cryp_aes.c ****   uint32_t keyaddr    = (uint32_t)Key;
 1626              		.loc 1 498 15 view .LVU625
 1627 0084 0126     		movs	r6, #1
 1628 0086 46E0     		b	.L46
 1629              	.LVL227:
 1630              	.L54:
 511:Libraries/STM32F4xx_StdPeriph_Driver/src/stm32f4xx_cryp_aes.c ****     AES_CRYP_KeyInitStructure.CRYP_Key2Left = __REV(*(uint32_t*)(keyaddr));
 1631              		.loc 1 511 5 is_stmt 1 view .LVU626
 511:Libraries/STM32F4xx_StdPeriph_Driver/src/stm32f4xx_cryp_aes.c ****     AES_CRYP_KeyInitStructure.CRYP_Key2Left = __REV(*(uint32_t*)(keyaddr));
 1632              		.loc 1 511 41 is_stmt 0 view .LVU627
 1633 0088 0023     		movs	r3, #0
 1634 008a 1193     		str	r3, [sp, #68]
 512:Libraries/STM32F4xx_StdPeriph_Driver/src/stm32f4xx_cryp_aes.c ****     keyaddr+=4;
 1635              		.loc 1 512 5 is_stmt 1 view .LVU628
 512:Libraries/STM32F4xx_StdPeriph_Driver/src/stm32f4xx_cryp_aes.c ****     keyaddr+=4;
 1636              		.loc 1 512 47 is_stmt 0 view .LVU629
 1637 008c 3368     		ldr	r3, [r6]
 1638              	.LVL228:
 1639              	.LBB318:
 1640              	.LBI318:
 495:Libraries/CMSIS/Include/core_cmInstr.h **** {
 1641              		.loc 2 495 57 is_stmt 1 view .LVU630
 1642              	.LBB319:
 1643              		.loc 2 498 3 view .LVU631
 1644              		.loc 2 498 10 is_stmt 0 view .LVU632
 1645 008e 1BBA     		rev	r3, r3
 1646              	.LVL229:
 1647              		.loc 2 498 10 view .LVU633
 1648              	.LBE319:
 1649              	.LBE318:
 512:Libraries/STM32F4xx_StdPeriph_Driver/src/stm32f4xx_cryp_aes.c ****     keyaddr+=4;
 1650              		.loc 1 512 45 view .LVU634
 1651 0090 0A93     		str	r3, [sp, #40]
 513:Libraries/STM32F4xx_StdPeriph_Driver/src/stm32f4xx_cryp_aes.c ****     AES_CRYP_KeyInitStructure.CRYP_Key2Right= __REV(*(uint32_t*)(keyaddr));
 1652              		.loc 1 513 5 is_stmt 1 view .LVU635
 1653              	.LVL230:
 514:Libraries/STM32F4xx_StdPeriph_Driver/src/stm32f4xx_cryp_aes.c ****     keyaddr+=4;
 1654              		.loc 1 514 5 view .LVU636
 514:Libraries/STM32F4xx_StdPeriph_Driver/src/stm32f4xx_cryp_aes.c ****     keyaddr+=4;
 1655              		.loc 1 514 47 is_stmt 0 view .LVU637
 1656 0092 7368     		ldr	r3, [r6, #4]
 1657              	.LVL231:
 1658              	.LBB320:
 1659              	.LBI320:
 495:Libraries/CMSIS/Include/core_cmInstr.h **** {
 1660              		.loc 2 495 57 is_stmt 1 view .LVU638
 1661              	.LBB321:
 1662              		.loc 2 498 3 view .LVU639
 1663              		.loc 2 498 10 is_stmt 0 view .LVU640
 1664 0094 1BBA     		rev	r3, r3
 1665              	.LVL232:
ARM GAS  /tmp/ccklj7FS.s 			page 54


 1666              		.loc 2 498 10 view .LVU641
 1667              	.LBE321:
 1668              	.LBE320:
 514:Libraries/STM32F4xx_StdPeriph_Driver/src/stm32f4xx_cryp_aes.c ****     keyaddr+=4;
 1669              		.loc 1 514 45 view .LVU642
 1670 0096 0B93     		str	r3, [sp, #44]
 515:Libraries/STM32F4xx_StdPeriph_Driver/src/stm32f4xx_cryp_aes.c ****     AES_CRYP_KeyInitStructure.CRYP_Key3Left = __REV(*(uint32_t*)(keyaddr));
 1671              		.loc 1 515 5 is_stmt 1 view .LVU643
 1672              	.LVL233:
 516:Libraries/STM32F4xx_StdPeriph_Driver/src/stm32f4xx_cryp_aes.c ****     keyaddr+=4;
 1673              		.loc 1 516 5 view .LVU644
 516:Libraries/STM32F4xx_StdPeriph_Driver/src/stm32f4xx_cryp_aes.c ****     keyaddr+=4;
 1674              		.loc 1 516 47 is_stmt 0 view .LVU645
 1675 0098 B368     		ldr	r3, [r6, #8]
 1676              	.LVL234:
 1677              	.LBB322:
 1678              	.LBI322:
 495:Libraries/CMSIS/Include/core_cmInstr.h **** {
 1679              		.loc 2 495 57 is_stmt 1 view .LVU646
 1680              	.LBB323:
 1681              		.loc 2 498 3 view .LVU647
 1682              		.loc 2 498 10 is_stmt 0 view .LVU648
 1683 009a 1BBA     		rev	r3, r3
 1684              	.LVL235:
 1685              		.loc 2 498 10 view .LVU649
 1686              	.LBE323:
 1687              	.LBE322:
 516:Libraries/STM32F4xx_StdPeriph_Driver/src/stm32f4xx_cryp_aes.c ****     keyaddr+=4;
 1688              		.loc 1 516 45 view .LVU650
 1689 009c 0C93     		str	r3, [sp, #48]
 517:Libraries/STM32F4xx_StdPeriph_Driver/src/stm32f4xx_cryp_aes.c ****     AES_CRYP_KeyInitStructure.CRYP_Key3Right= __REV(*(uint32_t*)(keyaddr));
 1690              		.loc 1 517 5 is_stmt 1 view .LVU651
 1691              	.LVL236:
 518:Libraries/STM32F4xx_StdPeriph_Driver/src/stm32f4xx_cryp_aes.c ****     break;
 1692              		.loc 1 518 5 view .LVU652
 518:Libraries/STM32F4xx_StdPeriph_Driver/src/stm32f4xx_cryp_aes.c ****     break;
 1693              		.loc 1 518 47 is_stmt 0 view .LVU653
 1694 009e F368     		ldr	r3, [r6, #12]
 1695              	.LVL237:
 1696              	.LBB324:
 1697              	.LBI324:
 495:Libraries/CMSIS/Include/core_cmInstr.h **** {
 1698              		.loc 2 495 57 is_stmt 1 view .LVU654
 1699              	.LBB325:
 1700              		.loc 2 498 3 view .LVU655
 1701              		.loc 2 498 10 is_stmt 0 view .LVU656
 1702 00a0 1BBA     		rev	r3, r3
 1703              	.LVL238:
 1704              		.loc 2 498 10 view .LVU657
 1705              	.LBE325:
 1706              	.LBE324:
 518:Libraries/STM32F4xx_StdPeriph_Driver/src/stm32f4xx_cryp_aes.c ****     break;
 1707              		.loc 1 518 45 view .LVU658
 1708 00a2 0D93     		str	r3, [sp, #52]
 519:Libraries/STM32F4xx_StdPeriph_Driver/src/stm32f4xx_cryp_aes.c ****     case 192:
 1709              		.loc 1 519 5 is_stmt 1 view .LVU659
 1710 00a4 C5E7     		b	.L42
ARM GAS  /tmp/ccklj7FS.s 			page 55


 1711              	.LVL239:
 1712              	.L40:
 521:Libraries/STM32F4xx_StdPeriph_Driver/src/stm32f4xx_cryp_aes.c ****     AES_CRYP_KeyInitStructure.CRYP_Key1Left = __REV(*(uint32_t*)(keyaddr));
 1713              		.loc 1 521 5 view .LVU660
 521:Libraries/STM32F4xx_StdPeriph_Driver/src/stm32f4xx_cryp_aes.c ****     AES_CRYP_KeyInitStructure.CRYP_Key1Left = __REV(*(uint32_t*)(keyaddr));
 1714              		.loc 1 521 42 is_stmt 0 view .LVU661
 1715 00a6 4FF48073 		mov	r3, #256
 1716 00aa 1193     		str	r3, [sp, #68]
 522:Libraries/STM32F4xx_StdPeriph_Driver/src/stm32f4xx_cryp_aes.c ****     keyaddr+=4;
 1717              		.loc 1 522 5 is_stmt 1 view .LVU662
 522:Libraries/STM32F4xx_StdPeriph_Driver/src/stm32f4xx_cryp_aes.c ****     keyaddr+=4;
 1718              		.loc 1 522 47 is_stmt 0 view .LVU663
 1719 00ac 3368     		ldr	r3, [r6]
 1720              	.LVL240:
 1721              	.LBB326:
 1722              	.LBI326:
 495:Libraries/CMSIS/Include/core_cmInstr.h **** {
 1723              		.loc 2 495 57 is_stmt 1 view .LVU664
 1724              	.LBB327:
 1725              		.loc 2 498 3 view .LVU665
 1726              		.loc 2 498 10 is_stmt 0 view .LVU666
 1727 00ae 1BBA     		rev	r3, r3
 1728              	.LVL241:
 1729              		.loc 2 498 10 view .LVU667
 1730              	.LBE327:
 1731              	.LBE326:
 522:Libraries/STM32F4xx_StdPeriph_Driver/src/stm32f4xx_cryp_aes.c ****     keyaddr+=4;
 1732              		.loc 1 522 45 view .LVU668
 1733 00b0 0893     		str	r3, [sp, #32]
 523:Libraries/STM32F4xx_StdPeriph_Driver/src/stm32f4xx_cryp_aes.c ****     AES_CRYP_KeyInitStructure.CRYP_Key1Right= __REV(*(uint32_t*)(keyaddr));
 1734              		.loc 1 523 5 is_stmt 1 view .LVU669
 1735              	.LVL242:
 524:Libraries/STM32F4xx_StdPeriph_Driver/src/stm32f4xx_cryp_aes.c ****     keyaddr+=4;
 1736              		.loc 1 524 5 view .LVU670
 524:Libraries/STM32F4xx_StdPeriph_Driver/src/stm32f4xx_cryp_aes.c ****     keyaddr+=4;
 1737              		.loc 1 524 47 is_stmt 0 view .LVU671
 1738 00b2 7368     		ldr	r3, [r6, #4]
 1739              	.LVL243:
 1740              	.LBB328:
 1741              	.LBI328:
 495:Libraries/CMSIS/Include/core_cmInstr.h **** {
 1742              		.loc 2 495 57 is_stmt 1 view .LVU672
 1743              	.LBB329:
 1744              		.loc 2 498 3 view .LVU673
 1745              		.loc 2 498 10 is_stmt 0 view .LVU674
 1746 00b4 1BBA     		rev	r3, r3
 1747              	.LVL244:
 1748              		.loc 2 498 10 view .LVU675
 1749              	.LBE329:
 1750              	.LBE328:
 524:Libraries/STM32F4xx_StdPeriph_Driver/src/stm32f4xx_cryp_aes.c ****     keyaddr+=4;
 1751              		.loc 1 524 45 view .LVU676
 1752 00b6 0993     		str	r3, [sp, #36]
 525:Libraries/STM32F4xx_StdPeriph_Driver/src/stm32f4xx_cryp_aes.c ****     AES_CRYP_KeyInitStructure.CRYP_Key2Left = __REV(*(uint32_t*)(keyaddr));
 1753              		.loc 1 525 5 is_stmt 1 view .LVU677
 1754              	.LVL245:
 526:Libraries/STM32F4xx_StdPeriph_Driver/src/stm32f4xx_cryp_aes.c ****     keyaddr+=4;
ARM GAS  /tmp/ccklj7FS.s 			page 56


 1755              		.loc 1 526 5 view .LVU678
 526:Libraries/STM32F4xx_StdPeriph_Driver/src/stm32f4xx_cryp_aes.c ****     keyaddr+=4;
 1756              		.loc 1 526 47 is_stmt 0 view .LVU679
 1757 00b8 B368     		ldr	r3, [r6, #8]
 1758              	.LVL246:
 1759              	.LBB330:
 1760              	.LBI330:
 495:Libraries/CMSIS/Include/core_cmInstr.h **** {
 1761              		.loc 2 495 57 is_stmt 1 view .LVU680
 1762              	.LBB331:
 1763              		.loc 2 498 3 view .LVU681
 1764              		.loc 2 498 10 is_stmt 0 view .LVU682
 1765 00ba 1BBA     		rev	r3, r3
 1766              	.LVL247:
 1767              		.loc 2 498 10 view .LVU683
 1768              	.LBE331:
 1769              	.LBE330:
 526:Libraries/STM32F4xx_StdPeriph_Driver/src/stm32f4xx_cryp_aes.c ****     keyaddr+=4;
 1770              		.loc 1 526 45 view .LVU684
 1771 00bc 0A93     		str	r3, [sp, #40]
 527:Libraries/STM32F4xx_StdPeriph_Driver/src/stm32f4xx_cryp_aes.c ****     AES_CRYP_KeyInitStructure.CRYP_Key2Right= __REV(*(uint32_t*)(keyaddr));
 1772              		.loc 1 527 5 is_stmt 1 view .LVU685
 1773              	.LVL248:
 528:Libraries/STM32F4xx_StdPeriph_Driver/src/stm32f4xx_cryp_aes.c ****     keyaddr+=4;
 1774              		.loc 1 528 5 view .LVU686
 528:Libraries/STM32F4xx_StdPeriph_Driver/src/stm32f4xx_cryp_aes.c ****     keyaddr+=4;
 1775              		.loc 1 528 47 is_stmt 0 view .LVU687
 1776 00be F368     		ldr	r3, [r6, #12]
 1777              	.LVL249:
 1778              	.LBB332:
 1779              	.LBI332:
 495:Libraries/CMSIS/Include/core_cmInstr.h **** {
 1780              		.loc 2 495 57 is_stmt 1 view .LVU688
 1781              	.LBB333:
 1782              		.loc 2 498 3 view .LVU689
 1783              		.loc 2 498 10 is_stmt 0 view .LVU690
 1784 00c0 1BBA     		rev	r3, r3
 1785              	.LVL250:
 1786              		.loc 2 498 10 view .LVU691
 1787              	.LBE333:
 1788              	.LBE332:
 528:Libraries/STM32F4xx_StdPeriph_Driver/src/stm32f4xx_cryp_aes.c ****     keyaddr+=4;
 1789              		.loc 1 528 45 view .LVU692
 1790 00c2 0B93     		str	r3, [sp, #44]
 529:Libraries/STM32F4xx_StdPeriph_Driver/src/stm32f4xx_cryp_aes.c ****     AES_CRYP_KeyInitStructure.CRYP_Key3Left = __REV(*(uint32_t*)(keyaddr));
 1791              		.loc 1 529 5 is_stmt 1 view .LVU693
 1792              	.LVL251:
 530:Libraries/STM32F4xx_StdPeriph_Driver/src/stm32f4xx_cryp_aes.c ****     keyaddr+=4;
 1793              		.loc 1 530 5 view .LVU694
 530:Libraries/STM32F4xx_StdPeriph_Driver/src/stm32f4xx_cryp_aes.c ****     keyaddr+=4;
 1794              		.loc 1 530 47 is_stmt 0 view .LVU695
 1795 00c4 3369     		ldr	r3, [r6, #16]
 1796              	.LVL252:
 1797              	.LBB334:
 1798              	.LBI334:
 495:Libraries/CMSIS/Include/core_cmInstr.h **** {
 1799              		.loc 2 495 57 is_stmt 1 view .LVU696
ARM GAS  /tmp/ccklj7FS.s 			page 57


 1800              	.LBB335:
 1801              		.loc 2 498 3 view .LVU697
 1802              		.loc 2 498 10 is_stmt 0 view .LVU698
 1803 00c6 1BBA     		rev	r3, r3
 1804              	.LVL253:
 1805              		.loc 2 498 10 view .LVU699
 1806              	.LBE335:
 1807              	.LBE334:
 530:Libraries/STM32F4xx_StdPeriph_Driver/src/stm32f4xx_cryp_aes.c ****     keyaddr+=4;
 1808              		.loc 1 530 45 view .LVU700
 1809 00c8 0C93     		str	r3, [sp, #48]
 531:Libraries/STM32F4xx_StdPeriph_Driver/src/stm32f4xx_cryp_aes.c ****     AES_CRYP_KeyInitStructure.CRYP_Key3Right= __REV(*(uint32_t*)(keyaddr));
 1810              		.loc 1 531 5 is_stmt 1 view .LVU701
 1811              	.LVL254:
 532:Libraries/STM32F4xx_StdPeriph_Driver/src/stm32f4xx_cryp_aes.c ****     break;
 1812              		.loc 1 532 5 view .LVU702
 532:Libraries/STM32F4xx_StdPeriph_Driver/src/stm32f4xx_cryp_aes.c ****     break;
 1813              		.loc 1 532 47 is_stmt 0 view .LVU703
 1814 00ca 7369     		ldr	r3, [r6, #20]
 1815              	.LVL255:
 1816              	.LBB336:
 1817              	.LBI336:
 495:Libraries/CMSIS/Include/core_cmInstr.h **** {
 1818              		.loc 2 495 57 is_stmt 1 view .LVU704
 1819              	.LBB337:
 1820              		.loc 2 498 3 view .LVU705
 1821              		.loc 2 498 10 is_stmt 0 view .LVU706
 1822 00cc 1BBA     		rev	r3, r3
 1823              	.LVL256:
 1824              		.loc 2 498 10 view .LVU707
 1825              	.LBE337:
 1826              	.LBE336:
 532:Libraries/STM32F4xx_StdPeriph_Driver/src/stm32f4xx_cryp_aes.c ****     break;
 1827              		.loc 1 532 45 view .LVU708
 1828 00ce 0D93     		str	r3, [sp, #52]
 533:Libraries/STM32F4xx_StdPeriph_Driver/src/stm32f4xx_cryp_aes.c ****     case 256:
 1829              		.loc 1 533 5 is_stmt 1 view .LVU709
 1830 00d0 AFE7     		b	.L42
 1831              	.LVL257:
 1832              	.L41:
 535:Libraries/STM32F4xx_StdPeriph_Driver/src/stm32f4xx_cryp_aes.c ****     AES_CRYP_KeyInitStructure.CRYP_Key0Left = __REV(*(uint32_t*)(keyaddr));
 1833              		.loc 1 535 5 view .LVU710
 535:Libraries/STM32F4xx_StdPeriph_Driver/src/stm32f4xx_cryp_aes.c ****     AES_CRYP_KeyInitStructure.CRYP_Key0Left = __REV(*(uint32_t*)(keyaddr));
 1834              		.loc 1 535 42 is_stmt 0 view .LVU711
 1835 00d2 4FF40073 		mov	r3, #512
 1836 00d6 1193     		str	r3, [sp, #68]
 536:Libraries/STM32F4xx_StdPeriph_Driver/src/stm32f4xx_cryp_aes.c ****     keyaddr+=4;
 1837              		.loc 1 536 5 is_stmt 1 view .LVU712
 536:Libraries/STM32F4xx_StdPeriph_Driver/src/stm32f4xx_cryp_aes.c ****     keyaddr+=4;
 1838              		.loc 1 536 47 is_stmt 0 view .LVU713
 1839 00d8 3368     		ldr	r3, [r6]
 1840              	.LVL258:
 1841              	.LBB338:
 1842              	.LBI338:
 495:Libraries/CMSIS/Include/core_cmInstr.h **** {
 1843              		.loc 2 495 57 is_stmt 1 view .LVU714
 1844              	.LBB339:
ARM GAS  /tmp/ccklj7FS.s 			page 58


 1845              		.loc 2 498 3 view .LVU715
 1846              		.loc 2 498 10 is_stmt 0 view .LVU716
 1847 00da 1BBA     		rev	r3, r3
 1848              	.LVL259:
 1849              		.loc 2 498 10 view .LVU717
 1850              	.LBE339:
 1851              	.LBE338:
 536:Libraries/STM32F4xx_StdPeriph_Driver/src/stm32f4xx_cryp_aes.c ****     keyaddr+=4;
 1852              		.loc 1 536 45 view .LVU718
 1853 00dc 0693     		str	r3, [sp, #24]
 537:Libraries/STM32F4xx_StdPeriph_Driver/src/stm32f4xx_cryp_aes.c ****     AES_CRYP_KeyInitStructure.CRYP_Key0Right= __REV(*(uint32_t*)(keyaddr));
 1854              		.loc 1 537 5 is_stmt 1 view .LVU719
 1855              	.LVL260:
 538:Libraries/STM32F4xx_StdPeriph_Driver/src/stm32f4xx_cryp_aes.c ****     keyaddr+=4;
 1856              		.loc 1 538 5 view .LVU720
 538:Libraries/STM32F4xx_StdPeriph_Driver/src/stm32f4xx_cryp_aes.c ****     keyaddr+=4;
 1857              		.loc 1 538 47 is_stmt 0 view .LVU721
 1858 00de 7368     		ldr	r3, [r6, #4]
 1859              	.LVL261:
 1860              	.LBB340:
 1861              	.LBI340:
 495:Libraries/CMSIS/Include/core_cmInstr.h **** {
 1862              		.loc 2 495 57 is_stmt 1 view .LVU722
 1863              	.LBB341:
 1864              		.loc 2 498 3 view .LVU723
 1865              		.loc 2 498 10 is_stmt 0 view .LVU724
 1866 00e0 1BBA     		rev	r3, r3
 1867              	.LVL262:
 1868              		.loc 2 498 10 view .LVU725
 1869              	.LBE341:
 1870              	.LBE340:
 538:Libraries/STM32F4xx_StdPeriph_Driver/src/stm32f4xx_cryp_aes.c ****     keyaddr+=4;
 1871              		.loc 1 538 45 view .LVU726
 1872 00e2 0793     		str	r3, [sp, #28]
 539:Libraries/STM32F4xx_StdPeriph_Driver/src/stm32f4xx_cryp_aes.c ****     AES_CRYP_KeyInitStructure.CRYP_Key1Left = __REV(*(uint32_t*)(keyaddr));
 1873              		.loc 1 539 5 is_stmt 1 view .LVU727
 1874              	.LVL263:
 540:Libraries/STM32F4xx_StdPeriph_Driver/src/stm32f4xx_cryp_aes.c ****     keyaddr+=4;
 1875              		.loc 1 540 5 view .LVU728
 540:Libraries/STM32F4xx_StdPeriph_Driver/src/stm32f4xx_cryp_aes.c ****     keyaddr+=4;
 1876              		.loc 1 540 47 is_stmt 0 view .LVU729
 1877 00e4 B368     		ldr	r3, [r6, #8]
 1878              	.LVL264:
 1879              	.LBB342:
 1880              	.LBI342:
 495:Libraries/CMSIS/Include/core_cmInstr.h **** {
 1881              		.loc 2 495 57 is_stmt 1 view .LVU730
 1882              	.LBB343:
 1883              		.loc 2 498 3 view .LVU731
 1884              		.loc 2 498 10 is_stmt 0 view .LVU732
 1885 00e6 1BBA     		rev	r3, r3
 1886              	.LVL265:
 1887              		.loc 2 498 10 view .LVU733
 1888              	.LBE343:
 1889              	.LBE342:
 540:Libraries/STM32F4xx_StdPeriph_Driver/src/stm32f4xx_cryp_aes.c ****     keyaddr+=4;
 1890              		.loc 1 540 45 view .LVU734
ARM GAS  /tmp/ccklj7FS.s 			page 59


 1891 00e8 0893     		str	r3, [sp, #32]
 541:Libraries/STM32F4xx_StdPeriph_Driver/src/stm32f4xx_cryp_aes.c ****     AES_CRYP_KeyInitStructure.CRYP_Key1Right= __REV(*(uint32_t*)(keyaddr));
 1892              		.loc 1 541 5 is_stmt 1 view .LVU735
 1893              	.LVL266:
 542:Libraries/STM32F4xx_StdPeriph_Driver/src/stm32f4xx_cryp_aes.c ****     keyaddr+=4;
 1894              		.loc 1 542 5 view .LVU736
 542:Libraries/STM32F4xx_StdPeriph_Driver/src/stm32f4xx_cryp_aes.c ****     keyaddr+=4;
 1895              		.loc 1 542 47 is_stmt 0 view .LVU737
 1896 00ea F368     		ldr	r3, [r6, #12]
 1897              	.LVL267:
 1898              	.LBB344:
 1899              	.LBI344:
 495:Libraries/CMSIS/Include/core_cmInstr.h **** {
 1900              		.loc 2 495 57 is_stmt 1 view .LVU738
 1901              	.LBB345:
 1902              		.loc 2 498 3 view .LVU739
 1903              		.loc 2 498 10 is_stmt 0 view .LVU740
 1904 00ec 1BBA     		rev	r3, r3
 1905              	.LVL268:
 1906              		.loc 2 498 10 view .LVU741
 1907              	.LBE345:
 1908              	.LBE344:
 542:Libraries/STM32F4xx_StdPeriph_Driver/src/stm32f4xx_cryp_aes.c ****     keyaddr+=4;
 1909              		.loc 1 542 45 view .LVU742
 1910 00ee 0993     		str	r3, [sp, #36]
 543:Libraries/STM32F4xx_StdPeriph_Driver/src/stm32f4xx_cryp_aes.c ****     AES_CRYP_KeyInitStructure.CRYP_Key2Left = __REV(*(uint32_t*)(keyaddr));
 1911              		.loc 1 543 5 is_stmt 1 view .LVU743
 1912              	.LVL269:
 544:Libraries/STM32F4xx_StdPeriph_Driver/src/stm32f4xx_cryp_aes.c ****     keyaddr+=4;
 1913              		.loc 1 544 5 view .LVU744
 544:Libraries/STM32F4xx_StdPeriph_Driver/src/stm32f4xx_cryp_aes.c ****     keyaddr+=4;
 1914              		.loc 1 544 47 is_stmt 0 view .LVU745
 1915 00f0 3369     		ldr	r3, [r6, #16]
 1916              	.LVL270:
 1917              	.LBB346:
 1918              	.LBI346:
 495:Libraries/CMSIS/Include/core_cmInstr.h **** {
 1919              		.loc 2 495 57 is_stmt 1 view .LVU746
 1920              	.LBB347:
 1921              		.loc 2 498 3 view .LVU747
 1922              		.loc 2 498 10 is_stmt 0 view .LVU748
 1923 00f2 1BBA     		rev	r3, r3
 1924              	.LVL271:
 1925              		.loc 2 498 10 view .LVU749
 1926              	.LBE347:
 1927              	.LBE346:
 544:Libraries/STM32F4xx_StdPeriph_Driver/src/stm32f4xx_cryp_aes.c ****     keyaddr+=4;
 1928              		.loc 1 544 45 view .LVU750
 1929 00f4 0A93     		str	r3, [sp, #40]
 545:Libraries/STM32F4xx_StdPeriph_Driver/src/stm32f4xx_cryp_aes.c ****     AES_CRYP_KeyInitStructure.CRYP_Key2Right= __REV(*(uint32_t*)(keyaddr));
 1930              		.loc 1 545 5 is_stmt 1 view .LVU751
 1931              	.LVL272:
 546:Libraries/STM32F4xx_StdPeriph_Driver/src/stm32f4xx_cryp_aes.c ****     keyaddr+=4;
 1932              		.loc 1 546 5 view .LVU752
 546:Libraries/STM32F4xx_StdPeriph_Driver/src/stm32f4xx_cryp_aes.c ****     keyaddr+=4;
 1933              		.loc 1 546 47 is_stmt 0 view .LVU753
 1934 00f6 7369     		ldr	r3, [r6, #20]
ARM GAS  /tmp/ccklj7FS.s 			page 60


 1935              	.LVL273:
 1936              	.LBB348:
 1937              	.LBI348:
 495:Libraries/CMSIS/Include/core_cmInstr.h **** {
 1938              		.loc 2 495 57 is_stmt 1 view .LVU754
 1939              	.LBB349:
 1940              		.loc 2 498 3 view .LVU755
 1941              		.loc 2 498 10 is_stmt 0 view .LVU756
 1942 00f8 1BBA     		rev	r3, r3
 1943              	.LVL274:
 1944              		.loc 2 498 10 view .LVU757
 1945              	.LBE349:
 1946              	.LBE348:
 546:Libraries/STM32F4xx_StdPeriph_Driver/src/stm32f4xx_cryp_aes.c ****     keyaddr+=4;
 1947              		.loc 1 546 45 view .LVU758
 1948 00fa 0B93     		str	r3, [sp, #44]
 547:Libraries/STM32F4xx_StdPeriph_Driver/src/stm32f4xx_cryp_aes.c ****     AES_CRYP_KeyInitStructure.CRYP_Key3Left = __REV(*(uint32_t*)(keyaddr));
 1949              		.loc 1 547 5 is_stmt 1 view .LVU759
 1950              	.LVL275:
 548:Libraries/STM32F4xx_StdPeriph_Driver/src/stm32f4xx_cryp_aes.c ****     keyaddr+=4;
 1951              		.loc 1 548 5 view .LVU760
 548:Libraries/STM32F4xx_StdPeriph_Driver/src/stm32f4xx_cryp_aes.c ****     keyaddr+=4;
 1952              		.loc 1 548 47 is_stmt 0 view .LVU761
 1953 00fc B369     		ldr	r3, [r6, #24]
 1954              	.LVL276:
 1955              	.LBB350:
 1956              	.LBI350:
 495:Libraries/CMSIS/Include/core_cmInstr.h **** {
 1957              		.loc 2 495 57 is_stmt 1 view .LVU762
 1958              	.LBB351:
 1959              		.loc 2 498 3 view .LVU763
 1960              		.loc 2 498 10 is_stmt 0 view .LVU764
 1961 00fe 1BBA     		rev	r3, r3
 1962              	.LVL277:
 1963              		.loc 2 498 10 view .LVU765
 1964              	.LBE351:
 1965              	.LBE350:
 548:Libraries/STM32F4xx_StdPeriph_Driver/src/stm32f4xx_cryp_aes.c ****     keyaddr+=4;
 1966              		.loc 1 548 45 view .LVU766
 1967 0100 0C93     		str	r3, [sp, #48]
 549:Libraries/STM32F4xx_StdPeriph_Driver/src/stm32f4xx_cryp_aes.c ****     AES_CRYP_KeyInitStructure.CRYP_Key3Right= __REV(*(uint32_t*)(keyaddr));
 1968              		.loc 1 549 5 is_stmt 1 view .LVU767
 1969              	.LVL278:
 550:Libraries/STM32F4xx_StdPeriph_Driver/src/stm32f4xx_cryp_aes.c ****     break;
 1970              		.loc 1 550 5 view .LVU768
 550:Libraries/STM32F4xx_StdPeriph_Driver/src/stm32f4xx_cryp_aes.c ****     break;
 1971              		.loc 1 550 47 is_stmt 0 view .LVU769
 1972 0102 F369     		ldr	r3, [r6, #28]
 1973              	.LVL279:
 1974              	.LBB352:
 1975              	.LBI352:
 495:Libraries/CMSIS/Include/core_cmInstr.h **** {
 1976              		.loc 2 495 57 is_stmt 1 view .LVU770
 1977              	.LBB353:
 1978              		.loc 2 498 3 view .LVU771
 1979              		.loc 2 498 10 is_stmt 0 view .LVU772
 1980 0104 1BBA     		rev	r3, r3
ARM GAS  /tmp/ccklj7FS.s 			page 61


 1981              	.LVL280:
 1982              		.loc 2 498 10 view .LVU773
 1983              	.LBE353:
 1984              	.LBE352:
 550:Libraries/STM32F4xx_StdPeriph_Driver/src/stm32f4xx_cryp_aes.c ****     break;
 1985              		.loc 1 550 45 view .LVU774
 1986 0106 0D93     		str	r3, [sp, #52]
 551:Libraries/STM32F4xx_StdPeriph_Driver/src/stm32f4xx_cryp_aes.c ****     default:
 1987              		.loc 1 551 5 is_stmt 1 view .LVU775
 1988 0108 93E7     		b	.L42
 1989              	.LVL281:
 1990              	.L43:
 577:Libraries/STM32F4xx_StdPeriph_Driver/src/stm32f4xx_cryp_aes.c ****   }
 1991              		.loc 1 577 5 view .LVU776
 577:Libraries/STM32F4xx_StdPeriph_Driver/src/stm32f4xx_cryp_aes.c ****   }
 1992              		.loc 1 577 41 is_stmt 0 view .LVU777
 1993 010a 0023     		movs	r3, #0
 1994 010c 0E93     		str	r3, [sp, #56]
 1995 010e A4E7     		b	.L44
 1996              	.LVL282:
 1997              	.L47:
 600:Libraries/STM32F4xx_StdPeriph_Driver/src/stm32f4xx_cryp_aes.c ****   {
 601:Libraries/STM32F4xx_StdPeriph_Driver/src/stm32f4xx_cryp_aes.c **** 
 602:Libraries/STM32F4xx_StdPeriph_Driver/src/stm32f4xx_cryp_aes.c ****     /* Write the Input block in the IN FIFO */
 603:Libraries/STM32F4xx_StdPeriph_Driver/src/stm32f4xx_cryp_aes.c ****     CRYP_DataIn(*(uint32_t*)(inputaddr));
 604:Libraries/STM32F4xx_StdPeriph_Driver/src/stm32f4xx_cryp_aes.c ****     inputaddr+=4;
 605:Libraries/STM32F4xx_StdPeriph_Driver/src/stm32f4xx_cryp_aes.c ****     CRYP_DataIn(*(uint32_t*)(inputaddr));
 606:Libraries/STM32F4xx_StdPeriph_Driver/src/stm32f4xx_cryp_aes.c ****     inputaddr+=4;
 607:Libraries/STM32F4xx_StdPeriph_Driver/src/stm32f4xx_cryp_aes.c ****     CRYP_DataIn(*(uint32_t*)(inputaddr));
 608:Libraries/STM32F4xx_StdPeriph_Driver/src/stm32f4xx_cryp_aes.c ****     inputaddr+=4;
 609:Libraries/STM32F4xx_StdPeriph_Driver/src/stm32f4xx_cryp_aes.c ****     CRYP_DataIn(*(uint32_t*)(inputaddr));
 610:Libraries/STM32F4xx_StdPeriph_Driver/src/stm32f4xx_cryp_aes.c ****     inputaddr+=4;
 611:Libraries/STM32F4xx_StdPeriph_Driver/src/stm32f4xx_cryp_aes.c ****     /* Wait until the complete message has been processed */
 612:Libraries/STM32F4xx_StdPeriph_Driver/src/stm32f4xx_cryp_aes.c ****     counter = 0;
 613:Libraries/STM32F4xx_StdPeriph_Driver/src/stm32f4xx_cryp_aes.c ****     do
 614:Libraries/STM32F4xx_StdPeriph_Driver/src/stm32f4xx_cryp_aes.c ****     {
 615:Libraries/STM32F4xx_StdPeriph_Driver/src/stm32f4xx_cryp_aes.c ****       busystatus = CRYP_GetFlagStatus(CRYP_FLAG_BUSY);
 616:Libraries/STM32F4xx_StdPeriph_Driver/src/stm32f4xx_cryp_aes.c ****       counter++;
 617:Libraries/STM32F4xx_StdPeriph_Driver/src/stm32f4xx_cryp_aes.c ****     }while ((counter != AESBUSY_TIMEOUT) && (busystatus != RESET));
 618:Libraries/STM32F4xx_StdPeriph_Driver/src/stm32f4xx_cryp_aes.c **** 
 619:Libraries/STM32F4xx_StdPeriph_Driver/src/stm32f4xx_cryp_aes.c ****     if (busystatus != RESET)
 1998              		.loc 1 619 5 is_stmt 1 view .LVU778
 1999              		.loc 1 619 8 is_stmt 0 view .LVU779
 2000 0110 00B3     		cbz	r0, .L55
 620:Libraries/STM32F4xx_StdPeriph_Driver/src/stm32f4xx_cryp_aes.c ****    {
 621:Libraries/STM32F4xx_StdPeriph_Driver/src/stm32f4xx_cryp_aes.c ****        status = ERROR;
 2001              		.loc 1 621 15 view .LVU780
 2002 0112 0026     		movs	r6, #0
 2003              	.LVL283:
 2004              	.L49:
 599:Libraries/STM32F4xx_StdPeriph_Driver/src/stm32f4xx_cryp_aes.c ****   {
 2005              		.loc 1 599 48 is_stmt 1 discriminator 2 view .LVU781
 599:Libraries/STM32F4xx_StdPeriph_Driver/src/stm32f4xx_cryp_aes.c ****   {
 2006              		.loc 1 599 49 is_stmt 0 discriminator 2 view .LVU782
 2007 0114 1035     		adds	r5, r5, #16
 2008              	.LVL284:
 2009              	.L46:
ARM GAS  /tmp/ccklj7FS.s 			page 62


 599:Libraries/STM32F4xx_StdPeriph_Driver/src/stm32f4xx_cryp_aes.c ****   {
 2010              		.loc 1 599 12 is_stmt 1 discriminator 1 view .LVU783
 599:Libraries/STM32F4xx_StdPeriph_Driver/src/stm32f4xx_cryp_aes.c ****   {
 2011              		.loc 1 599 3 is_stmt 0 discriminator 1 view .LVU784
 2012 0116 4545     		cmp	r5, r8
 2013 0118 2AD2     		bcs	.L50
 599:Libraries/STM32F4xx_StdPeriph_Driver/src/stm32f4xx_cryp_aes.c ****   {
 2014              		.loc 1 599 25 discriminator 3 view .LVU785
 2015 011a 4EB3     		cbz	r6, .L50
 603:Libraries/STM32F4xx_StdPeriph_Driver/src/stm32f4xx_cryp_aes.c ****     inputaddr+=4;
 2016              		.loc 1 603 5 is_stmt 1 view .LVU786
 2017 011c 2068     		ldr	r0, [r4]
 2018 011e FFF7FEFF 		bl	CRYP_DataIn
 2019              	.LVL285:
 604:Libraries/STM32F4xx_StdPeriph_Driver/src/stm32f4xx_cryp_aes.c ****     CRYP_DataIn(*(uint32_t*)(inputaddr));
 2020              		.loc 1 604 5 view .LVU787
 605:Libraries/STM32F4xx_StdPeriph_Driver/src/stm32f4xx_cryp_aes.c ****     inputaddr+=4;
 2021              		.loc 1 605 5 view .LVU788
 2022 0122 6068     		ldr	r0, [r4, #4]
 2023 0124 FFF7FEFF 		bl	CRYP_DataIn
 2024              	.LVL286:
 606:Libraries/STM32F4xx_StdPeriph_Driver/src/stm32f4xx_cryp_aes.c ****     CRYP_DataIn(*(uint32_t*)(inputaddr));
 2025              		.loc 1 606 5 view .LVU789
 607:Libraries/STM32F4xx_StdPeriph_Driver/src/stm32f4xx_cryp_aes.c ****     inputaddr+=4;
 2026              		.loc 1 607 5 view .LVU790
 2027 0128 A068     		ldr	r0, [r4, #8]
 2028 012a FFF7FEFF 		bl	CRYP_DataIn
 2029              	.LVL287:
 608:Libraries/STM32F4xx_StdPeriph_Driver/src/stm32f4xx_cryp_aes.c ****     CRYP_DataIn(*(uint32_t*)(inputaddr));
 2030              		.loc 1 608 5 view .LVU791
 609:Libraries/STM32F4xx_StdPeriph_Driver/src/stm32f4xx_cryp_aes.c ****     inputaddr+=4;
 2031              		.loc 1 609 5 view .LVU792
 2032 012e E068     		ldr	r0, [r4, #12]
 2033 0130 FFF7FEFF 		bl	CRYP_DataIn
 2034              	.LVL288:
 610:Libraries/STM32F4xx_StdPeriph_Driver/src/stm32f4xx_cryp_aes.c ****     /* Wait until the complete message has been processed */
 2035              		.loc 1 610 5 view .LVU793
 610:Libraries/STM32F4xx_StdPeriph_Driver/src/stm32f4xx_cryp_aes.c ****     /* Wait until the complete message has been processed */
 2036              		.loc 1 610 14 is_stmt 0 view .LVU794
 2037 0134 1034     		adds	r4, r4, #16
 2038              	.LVL289:
 612:Libraries/STM32F4xx_StdPeriph_Driver/src/stm32f4xx_cryp_aes.c ****     do
 2039              		.loc 1 612 5 is_stmt 1 view .LVU795
 612:Libraries/STM32F4xx_StdPeriph_Driver/src/stm32f4xx_cryp_aes.c ****     do
 2040              		.loc 1 612 13 is_stmt 0 view .LVU796
 2041 0136 0023     		movs	r3, #0
 2042 0138 0193     		str	r3, [sp, #4]
 2043              	.L48:
 613:Libraries/STM32F4xx_StdPeriph_Driver/src/stm32f4xx_cryp_aes.c ****     {
 2044              		.loc 1 613 5 is_stmt 1 discriminator 2 view .LVU797
 615:Libraries/STM32F4xx_StdPeriph_Driver/src/stm32f4xx_cryp_aes.c ****       counter++;
 2045              		.loc 1 615 7 discriminator 2 view .LVU798
 615:Libraries/STM32F4xx_StdPeriph_Driver/src/stm32f4xx_cryp_aes.c ****       counter++;
 2046              		.loc 1 615 20 is_stmt 0 discriminator 2 view .LVU799
 2047 013a 1020     		movs	r0, #16
 2048 013c FFF7FEFF 		bl	CRYP_GetFlagStatus
 2049              	.LVL290:
ARM GAS  /tmp/ccklj7FS.s 			page 63


 616:Libraries/STM32F4xx_StdPeriph_Driver/src/stm32f4xx_cryp_aes.c ****     }while ((counter != AESBUSY_TIMEOUT) && (busystatus != RESET));
 2050              		.loc 1 616 7 is_stmt 1 discriminator 2 view .LVU800
 616:Libraries/STM32F4xx_StdPeriph_Driver/src/stm32f4xx_cryp_aes.c ****     }while ((counter != AESBUSY_TIMEOUT) && (busystatus != RESET));
 2051              		.loc 1 616 14 is_stmt 0 discriminator 2 view .LVU801
 2052 0140 019B     		ldr	r3, [sp, #4]
 2053 0142 0133     		adds	r3, r3, #1
 2054 0144 0193     		str	r3, [sp, #4]
 617:Libraries/STM32F4xx_StdPeriph_Driver/src/stm32f4xx_cryp_aes.c **** 
 2055              		.loc 1 617 12 is_stmt 1 discriminator 2 view .LVU802
 617:Libraries/STM32F4xx_StdPeriph_Driver/src/stm32f4xx_cryp_aes.c **** 
 2056              		.loc 1 617 22 is_stmt 0 discriminator 2 view .LVU803
 2057 0146 019B     		ldr	r3, [sp, #4]
 617:Libraries/STM32F4xx_StdPeriph_Driver/src/stm32f4xx_cryp_aes.c **** 
 2058              		.loc 1 617 5 discriminator 2 view .LVU804
 2059 0148 B3F5803F 		cmp	r3, #65536
 2060 014c E0D0     		beq	.L47
 617:Libraries/STM32F4xx_StdPeriph_Driver/src/stm32f4xx_cryp_aes.c **** 
 2061              		.loc 1 617 42 discriminator 1 view .LVU805
 2062 014e 0028     		cmp	r0, #0
 2063 0150 F3D1     		bne	.L48
 2064 0152 DDE7     		b	.L47
 2065              	.L55:
 622:Libraries/STM32F4xx_StdPeriph_Driver/src/stm32f4xx_cryp_aes.c ****     }
 623:Libraries/STM32F4xx_StdPeriph_Driver/src/stm32f4xx_cryp_aes.c ****     else
 624:Libraries/STM32F4xx_StdPeriph_Driver/src/stm32f4xx_cryp_aes.c ****     {
 625:Libraries/STM32F4xx_StdPeriph_Driver/src/stm32f4xx_cryp_aes.c **** 
 626:Libraries/STM32F4xx_StdPeriph_Driver/src/stm32f4xx_cryp_aes.c ****       /* Read the Output block from the Output FIFO */
 627:Libraries/STM32F4xx_StdPeriph_Driver/src/stm32f4xx_cryp_aes.c ****       *(uint32_t*)(outputaddr) = CRYP_DataOut();
 2066              		.loc 1 627 7 is_stmt 1 view .LVU806
 2067              		.loc 1 627 34 is_stmt 0 view .LVU807
 2068 0154 FFF7FEFF 		bl	CRYP_DataOut
 2069              	.LVL291:
 2070              		.loc 1 627 32 view .LVU808
 2071 0158 3860     		str	r0, [r7]
 628:Libraries/STM32F4xx_StdPeriph_Driver/src/stm32f4xx_cryp_aes.c ****       outputaddr+=4;
 2072              		.loc 1 628 7 is_stmt 1 view .LVU809
 2073              	.LVL292:
 629:Libraries/STM32F4xx_StdPeriph_Driver/src/stm32f4xx_cryp_aes.c ****       *(uint32_t*)(outputaddr) = CRYP_DataOut();
 2074              		.loc 1 629 7 view .LVU810
 2075              		.loc 1 629 34 is_stmt 0 view .LVU811
 2076 015a FFF7FEFF 		bl	CRYP_DataOut
 2077              	.LVL293:
 2078              		.loc 1 629 32 view .LVU812
 2079 015e 7860     		str	r0, [r7, #4]
 630:Libraries/STM32F4xx_StdPeriph_Driver/src/stm32f4xx_cryp_aes.c ****       outputaddr+=4;
 2080              		.loc 1 630 7 is_stmt 1 view .LVU813
 2081              	.LVL294:
 631:Libraries/STM32F4xx_StdPeriph_Driver/src/stm32f4xx_cryp_aes.c ****       *(uint32_t*)(outputaddr) = CRYP_DataOut();
 2082              		.loc 1 631 7 view .LVU814
 2083              		.loc 1 631 34 is_stmt 0 view .LVU815
 2084 0160 FFF7FEFF 		bl	CRYP_DataOut
 2085              	.LVL295:
 2086              		.loc 1 631 32 view .LVU816
 2087 0164 B860     		str	r0, [r7, #8]
 632:Libraries/STM32F4xx_StdPeriph_Driver/src/stm32f4xx_cryp_aes.c ****       outputaddr+=4;
 2088              		.loc 1 632 7 is_stmt 1 view .LVU817
 2089              	.LVL296:
ARM GAS  /tmp/ccklj7FS.s 			page 64


 633:Libraries/STM32F4xx_StdPeriph_Driver/src/stm32f4xx_cryp_aes.c ****       *(uint32_t*)(outputaddr) = CRYP_DataOut();
 2090              		.loc 1 633 7 view .LVU818
 2091              		.loc 1 633 34 is_stmt 0 view .LVU819
 2092 0166 FFF7FEFF 		bl	CRYP_DataOut
 2093              	.LVL297:
 2094              		.loc 1 633 32 view .LVU820
 2095 016a F860     		str	r0, [r7, #12]
 634:Libraries/STM32F4xx_StdPeriph_Driver/src/stm32f4xx_cryp_aes.c ****       outputaddr+=4;
 2096              		.loc 1 634 7 is_stmt 1 view .LVU821
 2097              		.loc 1 634 17 is_stmt 0 view .LVU822
 2098 016c 1037     		adds	r7, r7, #16
 2099              	.LVL298:
 2100              		.loc 1 634 17 view .LVU823
 2101 016e D1E7     		b	.L49
 2102              	.L50:
 635:Libraries/STM32F4xx_StdPeriph_Driver/src/stm32f4xx_cryp_aes.c ****     }
 636:Libraries/STM32F4xx_StdPeriph_Driver/src/stm32f4xx_cryp_aes.c ****   }
 637:Libraries/STM32F4xx_StdPeriph_Driver/src/stm32f4xx_cryp_aes.c ****   /* Disable Crypto */
 638:Libraries/STM32F4xx_StdPeriph_Driver/src/stm32f4xx_cryp_aes.c ****   CRYP_Cmd(DISABLE);
 2103              		.loc 1 638 3 is_stmt 1 view .LVU824
 2104 0170 0020     		movs	r0, #0
 2105 0172 FFF7FEFF 		bl	CRYP_Cmd
 2106              	.LVL299:
 639:Libraries/STM32F4xx_StdPeriph_Driver/src/stm32f4xx_cryp_aes.c **** 
 640:Libraries/STM32F4xx_StdPeriph_Driver/src/stm32f4xx_cryp_aes.c ****   return status;
 2107              		.loc 1 640 3 view .LVU825
 2108              	.L45:
 641:Libraries/STM32F4xx_StdPeriph_Driver/src/stm32f4xx_cryp_aes.c **** }
 2109              		.loc 1 641 1 is_stmt 0 view .LVU826
 2110 0176 3046     		mov	r0, r6
 2111 0178 12B0     		add	sp, sp, #72
 2112              	.LCFI8:
 2113              		.cfi_def_cfa_offset 32
 2114              		@ sp needed
 2115 017a BDE8F087 		pop	{r4, r5, r6, r7, r8, r9, r10, pc}
 2116              		.loc 1 641 1 view .LVU827
 2117              		.cfi_endproc
 2118              	.LFE125:
 2120              		.section	.text.CRYP_AES_GCM,"ax",%progbits
 2121              		.align	1
 2122              		.global	CRYP_AES_GCM
 2123              		.syntax unified
 2124              		.thumb
 2125              		.thumb_func
 2126              		.fpu fpv4-sp-d16
 2128              	CRYP_AES_GCM:
 2129              	.LVL300:
 2130              	.LFB126:
 642:Libraries/STM32F4xx_StdPeriph_Driver/src/stm32f4xx_cryp_aes.c **** 
 643:Libraries/STM32F4xx_StdPeriph_Driver/src/stm32f4xx_cryp_aes.c **** /**
 644:Libraries/STM32F4xx_StdPeriph_Driver/src/stm32f4xx_cryp_aes.c ****   * @brief  Encrypt and decrypt using AES in GCM Mode. The GCM and CCM modes
 645:Libraries/STM32F4xx_StdPeriph_Driver/src/stm32f4xx_cryp_aes.c ****   *         are available only on STM32F437x Devices.
 646:Libraries/STM32F4xx_StdPeriph_Driver/src/stm32f4xx_cryp_aes.c ****   * @param  Mode: encryption or decryption Mode.
 647:Libraries/STM32F4xx_StdPeriph_Driver/src/stm32f4xx_cryp_aes.c ****   *          This parameter can be one of the following values:
 648:Libraries/STM32F4xx_StdPeriph_Driver/src/stm32f4xx_cryp_aes.c ****   *            @arg MODE_ENCRYPT: Encryption
 649:Libraries/STM32F4xx_StdPeriph_Driver/src/stm32f4xx_cryp_aes.c ****   *            @arg MODE_DECRYPT: Decryption
 650:Libraries/STM32F4xx_StdPeriph_Driver/src/stm32f4xx_cryp_aes.c ****   * @param  InitVectors: Initialisation Vectors used for AES algorithm.
ARM GAS  /tmp/ccklj7FS.s 			page 65


 651:Libraries/STM32F4xx_StdPeriph_Driver/src/stm32f4xx_cryp_aes.c ****   * @param  Key: Key used for AES algorithm.
 652:Libraries/STM32F4xx_StdPeriph_Driver/src/stm32f4xx_cryp_aes.c ****   * @param  Keysize: length of the Key, must be a 128, 192 or 256.
 653:Libraries/STM32F4xx_StdPeriph_Driver/src/stm32f4xx_cryp_aes.c ****   * @param  Input: pointer to the Input buffer.
 654:Libraries/STM32F4xx_StdPeriph_Driver/src/stm32f4xx_cryp_aes.c ****   * @param  Ilength: length of the Input buffer in bytes, must be a multiple of 16.
 655:Libraries/STM32F4xx_StdPeriph_Driver/src/stm32f4xx_cryp_aes.c ****   * @param  Header: pointer to the header buffer.
 656:Libraries/STM32F4xx_StdPeriph_Driver/src/stm32f4xx_cryp_aes.c ****   * @param  Hlength: length of the header buffer in bytes, must be a multiple of 16.  
 657:Libraries/STM32F4xx_StdPeriph_Driver/src/stm32f4xx_cryp_aes.c ****   * @param  Output: pointer to the returned buffer.
 658:Libraries/STM32F4xx_StdPeriph_Driver/src/stm32f4xx_cryp_aes.c ****   * @param  AuthTAG: pointer to the authentication TAG buffer.
 659:Libraries/STM32F4xx_StdPeriph_Driver/src/stm32f4xx_cryp_aes.c ****   * @retval An ErrorStatus enumeration value:
 660:Libraries/STM32F4xx_StdPeriph_Driver/src/stm32f4xx_cryp_aes.c ****   *          - SUCCESS: Operation done
 661:Libraries/STM32F4xx_StdPeriph_Driver/src/stm32f4xx_cryp_aes.c ****   *          - ERROR: Operation failed
 662:Libraries/STM32F4xx_StdPeriph_Driver/src/stm32f4xx_cryp_aes.c ****   */
 663:Libraries/STM32F4xx_StdPeriph_Driver/src/stm32f4xx_cryp_aes.c **** ErrorStatus CRYP_AES_GCM(uint8_t Mode, uint8_t InitVectors[16],
 664:Libraries/STM32F4xx_StdPeriph_Driver/src/stm32f4xx_cryp_aes.c ****                          uint8_t *Key, uint16_t Keysize,
 665:Libraries/STM32F4xx_StdPeriph_Driver/src/stm32f4xx_cryp_aes.c ****                          uint8_t *Input, uint32_t ILength,
 666:Libraries/STM32F4xx_StdPeriph_Driver/src/stm32f4xx_cryp_aes.c ****                          uint8_t *Header, uint32_t HLength,
 667:Libraries/STM32F4xx_StdPeriph_Driver/src/stm32f4xx_cryp_aes.c ****                          uint8_t *Output, uint8_t *AuthTAG)
 668:Libraries/STM32F4xx_StdPeriph_Driver/src/stm32f4xx_cryp_aes.c **** {
 2131              		.loc 1 668 1 is_stmt 1 view -0
 2132              		.cfi_startproc
 2133              		@ args = 24, pretend = 0, frame = 88
 2134              		@ frame_needed = 0, uses_anonymous_args = 0
 2135              		.loc 1 668 1 is_stmt 0 view .LVU829
 2136 0000 2DE9F04F 		push	{r4, r5, r6, r7, r8, r9, r10, fp, lr}
 2137              	.LCFI9:
 2138              		.cfi_def_cfa_offset 36
 2139              		.cfi_offset 4, -36
 2140              		.cfi_offset 5, -32
 2141              		.cfi_offset 6, -28
 2142              		.cfi_offset 7, -24
 2143              		.cfi_offset 8, -20
 2144              		.cfi_offset 9, -16
 2145              		.cfi_offset 10, -12
 2146              		.cfi_offset 11, -8
 2147              		.cfi_offset 14, -4
 2148 0004 97B0     		sub	sp, sp, #92
 2149              	.LCFI10:
 2150              		.cfi_def_cfa_offset 128
 2151 0006 0190     		str	r0, [sp, #4]
 2152 0008 0F46     		mov	r7, r1
 2153 000a 1646     		mov	r6, r2
 2154 000c 9846     		mov	r8, r3
 2155 000e DDF88490 		ldr	r9, [sp, #132]
 2156 0012 DDF88CA0 		ldr	r10, [sp, #140]
 669:Libraries/STM32F4xx_StdPeriph_Driver/src/stm32f4xx_cryp_aes.c ****   CRYP_InitTypeDef AES_CRYP_InitStructure;
 2157              		.loc 1 669 3 is_stmt 1 view .LVU830
 670:Libraries/STM32F4xx_StdPeriph_Driver/src/stm32f4xx_cryp_aes.c ****   CRYP_KeyInitTypeDef AES_CRYP_KeyInitStructure;
 2158              		.loc 1 670 3 view .LVU831
 671:Libraries/STM32F4xx_StdPeriph_Driver/src/stm32f4xx_cryp_aes.c ****   CRYP_IVInitTypeDef AES_CRYP_IVInitStructure;
 2159              		.loc 1 671 3 view .LVU832
 672:Libraries/STM32F4xx_StdPeriph_Driver/src/stm32f4xx_cryp_aes.c ****   __IO uint32_t counter = 0;
 2160              		.loc 1 672 3 view .LVU833
 2161              		.loc 1 672 17 is_stmt 0 view .LVU834
 2162 0016 0023     		movs	r3, #0
 2163              	.LVL301:
 2164              		.loc 1 672 17 view .LVU835
 2165 0018 0593     		str	r3, [sp, #20]
ARM GAS  /tmp/ccklj7FS.s 			page 66


 673:Libraries/STM32F4xx_StdPeriph_Driver/src/stm32f4xx_cryp_aes.c ****   uint32_t busystatus = 0;
 2166              		.loc 1 673 3 is_stmt 1 view .LVU836
 2167              	.LVL302:
 674:Libraries/STM32F4xx_StdPeriph_Driver/src/stm32f4xx_cryp_aes.c ****   ErrorStatus status = SUCCESS;
 2168              		.loc 1 674 3 view .LVU837
 675:Libraries/STM32F4xx_StdPeriph_Driver/src/stm32f4xx_cryp_aes.c ****   uint32_t keyaddr    = (uint32_t)Key;
 2169              		.loc 1 675 3 view .LVU838
 676:Libraries/STM32F4xx_StdPeriph_Driver/src/stm32f4xx_cryp_aes.c ****   uint32_t inputaddr  = (uint32_t)Input;
 2170              		.loc 1 676 3 view .LVU839
 2171              		.loc 1 676 12 is_stmt 0 view .LVU840
 2172 001a 209C     		ldr	r4, [sp, #128]
 2173              	.LVL303:
 677:Libraries/STM32F4xx_StdPeriph_Driver/src/stm32f4xx_cryp_aes.c ****   uint32_t outputaddr = (uint32_t)Output;
 2174              		.loc 1 677 3 is_stmt 1 view .LVU841
 2175              		.loc 1 677 12 is_stmt 0 view .LVU842
 2176 001c DDF890B0 		ldr	fp, [sp, #144]
 2177              	.LVL304:
 678:Libraries/STM32F4xx_StdPeriph_Driver/src/stm32f4xx_cryp_aes.c ****   uint32_t ivaddr     = (uint32_t)InitVectors;
 2178              		.loc 1 678 3 is_stmt 1 view .LVU843
 679:Libraries/STM32F4xx_StdPeriph_Driver/src/stm32f4xx_cryp_aes.c ****   uint32_t headeraddr = (uint32_t)Header;
 2179              		.loc 1 679 3 view .LVU844
 2180              		.loc 1 679 12 is_stmt 0 view .LVU845
 2181 0020 229D     		ldr	r5, [sp, #136]
 2182              	.LVL305:
 680:Libraries/STM32F4xx_StdPeriph_Driver/src/stm32f4xx_cryp_aes.c ****   uint32_t tagaddr = (uint32_t)AuthTAG;
 2183              		.loc 1 680 3 is_stmt 1 view .LVU846
 681:Libraries/STM32F4xx_StdPeriph_Driver/src/stm32f4xx_cryp_aes.c ****   uint64_t headerlength = HLength * 8;/* header length in bits */
 2184              		.loc 1 681 3 view .LVU847
 2185              		.loc 1 681 35 is_stmt 0 view .LVU848
 2186 0022 4FEACA03 		lsl	r3, r10, #3
 2187 0026 0293     		str	r3, [sp, #8]
 2188              	.LVL306:
 682:Libraries/STM32F4xx_StdPeriph_Driver/src/stm32f4xx_cryp_aes.c ****   uint64_t inputlength = ILength * 8;/* input length in bits */
 2189              		.loc 1 682 3 is_stmt 1 view .LVU849
 2190              		.loc 1 682 34 is_stmt 0 view .LVU850
 2191 0028 4FEAC903 		lsl	r3, r9, #3
 2192              	.LVL307:
 2193              		.loc 1 682 34 view .LVU851
 2194 002c 0393     		str	r3, [sp, #12]
 2195              	.LVL308:
 683:Libraries/STM32F4xx_StdPeriph_Driver/src/stm32f4xx_cryp_aes.c ****   uint32_t loopcounter = 0;
 2196              		.loc 1 683 3 is_stmt 1 view .LVU852
 684:Libraries/STM32F4xx_StdPeriph_Driver/src/stm32f4xx_cryp_aes.c **** 
 685:Libraries/STM32F4xx_StdPeriph_Driver/src/stm32f4xx_cryp_aes.c ****   /* Crypto structures initialisation*/
 686:Libraries/STM32F4xx_StdPeriph_Driver/src/stm32f4xx_cryp_aes.c ****   CRYP_KeyStructInit(&AES_CRYP_KeyInitStructure);
 2197              		.loc 1 686 3 view .LVU853
 2198 002e 0AA8     		add	r0, sp, #40
 2199              	.LVL309:
 2200              		.loc 1 686 3 is_stmt 0 view .LVU854
 2201 0030 FFF7FEFF 		bl	CRYP_KeyStructInit
 2202              	.LVL310:
 687:Libraries/STM32F4xx_StdPeriph_Driver/src/stm32f4xx_cryp_aes.c **** 
 688:Libraries/STM32F4xx_StdPeriph_Driver/src/stm32f4xx_cryp_aes.c ****   switch(Keysize)
 2203              		.loc 1 688 3 is_stmt 1 view .LVU855
 2204 0034 B8F1C00F 		cmp	r8, #192
 2205 0038 57D0     		beq	.L57
 2206 003a B8F5807F 		cmp	r8, #256
ARM GAS  /tmp/ccklj7FS.s 			page 67


 2207 003e 6AD0     		beq	.L58
 2208 0040 B8F1800F 		cmp	r8, #128
 2209 0044 42D0     		beq	.L99
 2210              	.LVL311:
 2211              	.L59:
 689:Libraries/STM32F4xx_StdPeriph_Driver/src/stm32f4xx_cryp_aes.c ****   {
 690:Libraries/STM32F4xx_StdPeriph_Driver/src/stm32f4xx_cryp_aes.c ****     case 128:
 691:Libraries/STM32F4xx_StdPeriph_Driver/src/stm32f4xx_cryp_aes.c ****     AES_CRYP_InitStructure.CRYP_KeySize = CRYP_KeySize_128b;
 692:Libraries/STM32F4xx_StdPeriph_Driver/src/stm32f4xx_cryp_aes.c ****     AES_CRYP_KeyInitStructure.CRYP_Key2Left = __REV(*(uint32_t*)(keyaddr));
 693:Libraries/STM32F4xx_StdPeriph_Driver/src/stm32f4xx_cryp_aes.c ****     keyaddr+=4;
 694:Libraries/STM32F4xx_StdPeriph_Driver/src/stm32f4xx_cryp_aes.c ****     AES_CRYP_KeyInitStructure.CRYP_Key2Right= __REV(*(uint32_t*)(keyaddr));
 695:Libraries/STM32F4xx_StdPeriph_Driver/src/stm32f4xx_cryp_aes.c ****     keyaddr+=4;
 696:Libraries/STM32F4xx_StdPeriph_Driver/src/stm32f4xx_cryp_aes.c ****     AES_CRYP_KeyInitStructure.CRYP_Key3Left = __REV(*(uint32_t*)(keyaddr));
 697:Libraries/STM32F4xx_StdPeriph_Driver/src/stm32f4xx_cryp_aes.c ****     keyaddr+=4;
 698:Libraries/STM32F4xx_StdPeriph_Driver/src/stm32f4xx_cryp_aes.c ****     AES_CRYP_KeyInitStructure.CRYP_Key3Right= __REV(*(uint32_t*)(keyaddr));
 699:Libraries/STM32F4xx_StdPeriph_Driver/src/stm32f4xx_cryp_aes.c ****     break;
 700:Libraries/STM32F4xx_StdPeriph_Driver/src/stm32f4xx_cryp_aes.c ****     case 192:
 701:Libraries/STM32F4xx_StdPeriph_Driver/src/stm32f4xx_cryp_aes.c ****     AES_CRYP_InitStructure.CRYP_KeySize  = CRYP_KeySize_192b;
 702:Libraries/STM32F4xx_StdPeriph_Driver/src/stm32f4xx_cryp_aes.c ****     AES_CRYP_KeyInitStructure.CRYP_Key1Left = __REV(*(uint32_t*)(keyaddr));
 703:Libraries/STM32F4xx_StdPeriph_Driver/src/stm32f4xx_cryp_aes.c ****     keyaddr+=4;
 704:Libraries/STM32F4xx_StdPeriph_Driver/src/stm32f4xx_cryp_aes.c ****     AES_CRYP_KeyInitStructure.CRYP_Key1Right= __REV(*(uint32_t*)(keyaddr));
 705:Libraries/STM32F4xx_StdPeriph_Driver/src/stm32f4xx_cryp_aes.c ****     keyaddr+=4;
 706:Libraries/STM32F4xx_StdPeriph_Driver/src/stm32f4xx_cryp_aes.c ****     AES_CRYP_KeyInitStructure.CRYP_Key2Left = __REV(*(uint32_t*)(keyaddr));
 707:Libraries/STM32F4xx_StdPeriph_Driver/src/stm32f4xx_cryp_aes.c ****     keyaddr+=4;
 708:Libraries/STM32F4xx_StdPeriph_Driver/src/stm32f4xx_cryp_aes.c ****     AES_CRYP_KeyInitStructure.CRYP_Key2Right= __REV(*(uint32_t*)(keyaddr));
 709:Libraries/STM32F4xx_StdPeriph_Driver/src/stm32f4xx_cryp_aes.c ****     keyaddr+=4;
 710:Libraries/STM32F4xx_StdPeriph_Driver/src/stm32f4xx_cryp_aes.c ****     AES_CRYP_KeyInitStructure.CRYP_Key3Left = __REV(*(uint32_t*)(keyaddr));
 711:Libraries/STM32F4xx_StdPeriph_Driver/src/stm32f4xx_cryp_aes.c ****     keyaddr+=4;
 712:Libraries/STM32F4xx_StdPeriph_Driver/src/stm32f4xx_cryp_aes.c ****     AES_CRYP_KeyInitStructure.CRYP_Key3Right= __REV(*(uint32_t*)(keyaddr));
 713:Libraries/STM32F4xx_StdPeriph_Driver/src/stm32f4xx_cryp_aes.c ****     break;
 714:Libraries/STM32F4xx_StdPeriph_Driver/src/stm32f4xx_cryp_aes.c ****     case 256:
 715:Libraries/STM32F4xx_StdPeriph_Driver/src/stm32f4xx_cryp_aes.c ****     AES_CRYP_InitStructure.CRYP_KeySize  = CRYP_KeySize_256b;
 716:Libraries/STM32F4xx_StdPeriph_Driver/src/stm32f4xx_cryp_aes.c ****     AES_CRYP_KeyInitStructure.CRYP_Key0Left = __REV(*(uint32_t*)(keyaddr));
 717:Libraries/STM32F4xx_StdPeriph_Driver/src/stm32f4xx_cryp_aes.c ****     keyaddr+=4;
 718:Libraries/STM32F4xx_StdPeriph_Driver/src/stm32f4xx_cryp_aes.c ****     AES_CRYP_KeyInitStructure.CRYP_Key0Right= __REV(*(uint32_t*)(keyaddr));
 719:Libraries/STM32F4xx_StdPeriph_Driver/src/stm32f4xx_cryp_aes.c ****     keyaddr+=4;
 720:Libraries/STM32F4xx_StdPeriph_Driver/src/stm32f4xx_cryp_aes.c ****     AES_CRYP_KeyInitStructure.CRYP_Key1Left = __REV(*(uint32_t*)(keyaddr));
 721:Libraries/STM32F4xx_StdPeriph_Driver/src/stm32f4xx_cryp_aes.c ****     keyaddr+=4;
 722:Libraries/STM32F4xx_StdPeriph_Driver/src/stm32f4xx_cryp_aes.c ****     AES_CRYP_KeyInitStructure.CRYP_Key1Right= __REV(*(uint32_t*)(keyaddr));
 723:Libraries/STM32F4xx_StdPeriph_Driver/src/stm32f4xx_cryp_aes.c ****     keyaddr+=4;
 724:Libraries/STM32F4xx_StdPeriph_Driver/src/stm32f4xx_cryp_aes.c ****     AES_CRYP_KeyInitStructure.CRYP_Key2Left = __REV(*(uint32_t*)(keyaddr));
 725:Libraries/STM32F4xx_StdPeriph_Driver/src/stm32f4xx_cryp_aes.c ****     keyaddr+=4;
 726:Libraries/STM32F4xx_StdPeriph_Driver/src/stm32f4xx_cryp_aes.c ****     AES_CRYP_KeyInitStructure.CRYP_Key2Right= __REV(*(uint32_t*)(keyaddr));
 727:Libraries/STM32F4xx_StdPeriph_Driver/src/stm32f4xx_cryp_aes.c ****     keyaddr+=4;
 728:Libraries/STM32F4xx_StdPeriph_Driver/src/stm32f4xx_cryp_aes.c ****     AES_CRYP_KeyInitStructure.CRYP_Key3Left = __REV(*(uint32_t*)(keyaddr));
 729:Libraries/STM32F4xx_StdPeriph_Driver/src/stm32f4xx_cryp_aes.c ****     keyaddr+=4;
 730:Libraries/STM32F4xx_StdPeriph_Driver/src/stm32f4xx_cryp_aes.c ****     AES_CRYP_KeyInitStructure.CRYP_Key3Right= __REV(*(uint32_t*)(keyaddr));
 731:Libraries/STM32F4xx_StdPeriph_Driver/src/stm32f4xx_cryp_aes.c ****     break;
 732:Libraries/STM32F4xx_StdPeriph_Driver/src/stm32f4xx_cryp_aes.c ****     default:
 733:Libraries/STM32F4xx_StdPeriph_Driver/src/stm32f4xx_cryp_aes.c ****     break;
 734:Libraries/STM32F4xx_StdPeriph_Driver/src/stm32f4xx_cryp_aes.c ****   }
 735:Libraries/STM32F4xx_StdPeriph_Driver/src/stm32f4xx_cryp_aes.c ****   
 736:Libraries/STM32F4xx_StdPeriph_Driver/src/stm32f4xx_cryp_aes.c ****   /* CRYP Initialization Vectors */
 737:Libraries/STM32F4xx_StdPeriph_Driver/src/stm32f4xx_cryp_aes.c ****   AES_CRYP_IVInitStructure.CRYP_IV0Left = __REV(*(uint32_t*)(ivaddr));
 2212              		.loc 1 737 3 view .LVU856
 2213              		.loc 1 737 43 is_stmt 0 view .LVU857
 2214 0046 3B68     		ldr	r3, [r7]
ARM GAS  /tmp/ccklj7FS.s 			page 68


 2215              	.LVL312:
 2216              	.LBB354:
 2217              	.LBI354:
 495:Libraries/CMSIS/Include/core_cmInstr.h **** {
 2218              		.loc 2 495 57 is_stmt 1 view .LVU858
 2219              	.LBB355:
 2220              		.loc 2 498 3 view .LVU859
 2221              		.loc 2 498 10 is_stmt 0 view .LVU860
 2222 0048 1BBA     		rev	r3, r3
 2223              	.LVL313:
 2224              		.loc 2 498 10 view .LVU861
 2225              	.LBE355:
 2226              	.LBE354:
 2227              		.loc 1 737 41 view .LVU862
 2228 004a 0693     		str	r3, [sp, #24]
 738:Libraries/STM32F4xx_StdPeriph_Driver/src/stm32f4xx_cryp_aes.c ****   ivaddr+=4;
 2229              		.loc 1 738 3 is_stmt 1 view .LVU863
 2230              	.LVL314:
 739:Libraries/STM32F4xx_StdPeriph_Driver/src/stm32f4xx_cryp_aes.c ****   AES_CRYP_IVInitStructure.CRYP_IV0Right= __REV(*(uint32_t*)(ivaddr));
 2231              		.loc 1 739 3 view .LVU864
 2232              		.loc 1 739 43 is_stmt 0 view .LVU865
 2233 004c 7B68     		ldr	r3, [r7, #4]
 2234              	.LVL315:
 2235              	.LBB356:
 2236              	.LBI356:
 495:Libraries/CMSIS/Include/core_cmInstr.h **** {
 2237              		.loc 2 495 57 is_stmt 1 view .LVU866
 2238              	.LBB357:
 2239              		.loc 2 498 3 view .LVU867
 2240              		.loc 2 498 10 is_stmt 0 view .LVU868
 2241 004e 1BBA     		rev	r3, r3
 2242              	.LVL316:
 2243              		.loc 2 498 10 view .LVU869
 2244              	.LBE357:
 2245              	.LBE356:
 2246              		.loc 1 739 41 view .LVU870
 2247 0050 0793     		str	r3, [sp, #28]
 740:Libraries/STM32F4xx_StdPeriph_Driver/src/stm32f4xx_cryp_aes.c ****   ivaddr+=4;
 2248              		.loc 1 740 3 is_stmt 1 view .LVU871
 2249              	.LVL317:
 741:Libraries/STM32F4xx_StdPeriph_Driver/src/stm32f4xx_cryp_aes.c ****   AES_CRYP_IVInitStructure.CRYP_IV1Left = __REV(*(uint32_t*)(ivaddr));
 2250              		.loc 1 741 3 view .LVU872
 2251              		.loc 1 741 43 is_stmt 0 view .LVU873
 2252 0052 BB68     		ldr	r3, [r7, #8]
 2253              	.LVL318:
 2254              	.LBB358:
 2255              	.LBI358:
 495:Libraries/CMSIS/Include/core_cmInstr.h **** {
 2256              		.loc 2 495 57 is_stmt 1 view .LVU874
 2257              	.LBB359:
 2258              		.loc 2 498 3 view .LVU875
 2259              		.loc 2 498 10 is_stmt 0 view .LVU876
 2260 0054 1BBA     		rev	r3, r3
 2261              	.LVL319:
 2262              		.loc 2 498 10 view .LVU877
 2263              	.LBE359:
 2264              	.LBE358:
ARM GAS  /tmp/ccklj7FS.s 			page 69


 2265              		.loc 1 741 41 view .LVU878
 2266 0056 0893     		str	r3, [sp, #32]
 742:Libraries/STM32F4xx_StdPeriph_Driver/src/stm32f4xx_cryp_aes.c ****   ivaddr+=4;
 2267              		.loc 1 742 3 is_stmt 1 view .LVU879
 2268              	.LVL320:
 743:Libraries/STM32F4xx_StdPeriph_Driver/src/stm32f4xx_cryp_aes.c ****   AES_CRYP_IVInitStructure.CRYP_IV1Right= __REV(*(uint32_t*)(ivaddr));
 2269              		.loc 1 743 3 view .LVU880
 2270              		.loc 1 743 43 is_stmt 0 view .LVU881
 2271 0058 FB68     		ldr	r3, [r7, #12]
 2272              	.LVL321:
 2273              	.LBB360:
 2274              	.LBI360:
 495:Libraries/CMSIS/Include/core_cmInstr.h **** {
 2275              		.loc 2 495 57 is_stmt 1 view .LVU882
 2276              	.LBB361:
 2277              		.loc 2 498 3 view .LVU883
 2278              		.loc 2 498 10 is_stmt 0 view .LVU884
 2279 005a 1BBA     		rev	r3, r3
 2280              	.LVL322:
 2281              		.loc 2 498 10 view .LVU885
 2282              	.LBE361:
 2283              	.LBE360:
 2284              		.loc 1 743 41 view .LVU886
 2285 005c 0993     		str	r3, [sp, #36]
 744:Libraries/STM32F4xx_StdPeriph_Driver/src/stm32f4xx_cryp_aes.c ****   
 745:Libraries/STM32F4xx_StdPeriph_Driver/src/stm32f4xx_cryp_aes.c ****   /*------------------ AES Encryption ------------------*/
 746:Libraries/STM32F4xx_StdPeriph_Driver/src/stm32f4xx_cryp_aes.c ****   if(Mode == MODE_ENCRYPT) /* AES encryption */
 2286              		.loc 1 746 3 is_stmt 1 view .LVU887
 2287              		.loc 1 746 5 is_stmt 0 view .LVU888
 2288 005e 019B     		ldr	r3, [sp, #4]
 2289 0060 012B     		cmp	r3, #1
 2290 0062 74D0     		beq	.L100
 747:Libraries/STM32F4xx_StdPeriph_Driver/src/stm32f4xx_cryp_aes.c ****   {
 748:Libraries/STM32F4xx_StdPeriph_Driver/src/stm32f4xx_cryp_aes.c ****     /* Flush IN/OUT FIFOs */
 749:Libraries/STM32F4xx_StdPeriph_Driver/src/stm32f4xx_cryp_aes.c ****     CRYP_FIFOFlush();
 750:Libraries/STM32F4xx_StdPeriph_Driver/src/stm32f4xx_cryp_aes.c ****     
 751:Libraries/STM32F4xx_StdPeriph_Driver/src/stm32f4xx_cryp_aes.c ****     /* Key Initialisation */
 752:Libraries/STM32F4xx_StdPeriph_Driver/src/stm32f4xx_cryp_aes.c ****     CRYP_KeyInit(&AES_CRYP_KeyInitStructure);
 753:Libraries/STM32F4xx_StdPeriph_Driver/src/stm32f4xx_cryp_aes.c ****     
