ARM GAS  /tmp/ccyYSkJU.s 			page 1


   1              		.cpu cortex-m4
   2              		.eabi_attribute 27, 1
   3              		.eabi_attribute 28, 1
   4              		.eabi_attribute 20, 1
   5              		.eabi_attribute 21, 1
   6              		.eabi_attribute 23, 3
   7              		.eabi_attribute 24, 1
   8              		.eabi_attribute 25, 1
   9              		.eabi_attribute 26, 1
  10              		.eabi_attribute 30, 1
  11              		.eabi_attribute 34, 1
  12              		.eabi_attribute 18, 4
  13              		.file	"stm32f4xx_dcmi.c"
  14              		.text
  15              	.Ltext0:
  16              		.cfi_sections	.debug_frame
  17              		.section	.text.DCMI_DeInit,"ax",%progbits
  18              		.align	1
  19              		.global	DCMI_DeInit
  20              		.arch armv7e-m
  21              		.syntax unified
  22              		.thumb
  23              		.thumb_func
  24              		.fpu fpv4-sp-d16
  26              	DCMI_DeInit:
  27              	.LFB123:
  28              		.file 1 "Libraries/STM32F4xx_StdPeriph_Driver/src/stm32f4xx_dcmi.c"
   1:Libraries/STM32F4xx_StdPeriph_Driver/src/stm32f4xx_dcmi.c **** /**
   2:Libraries/STM32F4xx_StdPeriph_Driver/src/stm32f4xx_dcmi.c ****   ******************************************************************************
   3:Libraries/STM32F4xx_StdPeriph_Driver/src/stm32f4xx_dcmi.c ****   * @file    stm32f4xx_dcmi.c
   4:Libraries/STM32F4xx_StdPeriph_Driver/src/stm32f4xx_dcmi.c ****   * @author  MCD Application Team
   5:Libraries/STM32F4xx_StdPeriph_Driver/src/stm32f4xx_dcmi.c ****   * @version V1.8.1
   6:Libraries/STM32F4xx_StdPeriph_Driver/src/stm32f4xx_dcmi.c ****   * @date    27-January-2022
   7:Libraries/STM32F4xx_StdPeriph_Driver/src/stm32f4xx_dcmi.c ****   * @brief   This file provides firmware functions to manage the following 
   8:Libraries/STM32F4xx_StdPeriph_Driver/src/stm32f4xx_dcmi.c ****   *          functionalities of the DCMI peripheral:           
   9:Libraries/STM32F4xx_StdPeriph_Driver/src/stm32f4xx_dcmi.c ****   *           + Initialization and Configuration
  10:Libraries/STM32F4xx_StdPeriph_Driver/src/stm32f4xx_dcmi.c ****   *           + Image capture functions  
  11:Libraries/STM32F4xx_StdPeriph_Driver/src/stm32f4xx_dcmi.c ****   *           + Interrupts and flags management
  12:Libraries/STM32F4xx_StdPeriph_Driver/src/stm32f4xx_dcmi.c ****   *
  13:Libraries/STM32F4xx_StdPeriph_Driver/src/stm32f4xx_dcmi.c ****  @verbatim          
  14:Libraries/STM32F4xx_StdPeriph_Driver/src/stm32f4xx_dcmi.c ****  ===============================================================================
  15:Libraries/STM32F4xx_StdPeriph_Driver/src/stm32f4xx_dcmi.c ****                         ##### How to use this driver #####
  16:Libraries/STM32F4xx_StdPeriph_Driver/src/stm32f4xx_dcmi.c ****  ===============================================================================  
  17:Libraries/STM32F4xx_StdPeriph_Driver/src/stm32f4xx_dcmi.c ****     [..]       
  18:Libraries/STM32F4xx_StdPeriph_Driver/src/stm32f4xx_dcmi.c ****       The sequence below describes how to use this driver to capture image
  19:Libraries/STM32F4xx_StdPeriph_Driver/src/stm32f4xx_dcmi.c ****       from a camera module connected to the DCMI Interface.
  20:Libraries/STM32F4xx_StdPeriph_Driver/src/stm32f4xx_dcmi.c ****       This sequence does not take into account the configuration of the  
  21:Libraries/STM32F4xx_StdPeriph_Driver/src/stm32f4xx_dcmi.c ****       camera module, which should be made before to configure and enable
  22:Libraries/STM32F4xx_StdPeriph_Driver/src/stm32f4xx_dcmi.c ****       the DCMI to capture images.
  23:Libraries/STM32F4xx_StdPeriph_Driver/src/stm32f4xx_dcmi.c ****              
  24:Libraries/STM32F4xx_StdPeriph_Driver/src/stm32f4xx_dcmi.c ****       (#) Enable the clock for the DCMI and associated GPIOs using the following 
  25:Libraries/STM32F4xx_StdPeriph_Driver/src/stm32f4xx_dcmi.c ****           functions:
  26:Libraries/STM32F4xx_StdPeriph_Driver/src/stm32f4xx_dcmi.c ****           RCC_AHB2PeriphClockCmd(RCC_AHB2Periph_DCMI, ENABLE);
  27:Libraries/STM32F4xx_StdPeriph_Driver/src/stm32f4xx_dcmi.c ****           RCC_AHB1PeriphClockCmd(RCC_AHB1Periph_GPIOx, ENABLE);
  28:Libraries/STM32F4xx_StdPeriph_Driver/src/stm32f4xx_dcmi.c ****   
  29:Libraries/STM32F4xx_StdPeriph_Driver/src/stm32f4xx_dcmi.c ****       (#) DCMI pins configuration 
  30:Libraries/STM32F4xx_StdPeriph_Driver/src/stm32f4xx_dcmi.c ****         (++) Connect the involved DCMI pins to AF13 using the following function 
ARM GAS  /tmp/ccyYSkJU.s 			page 2


  31:Libraries/STM32F4xx_StdPeriph_Driver/src/stm32f4xx_dcmi.c ****             GPIO_PinAFConfig(GPIOx, GPIO_PinSourcex, GPIO_AF_DCMI); 
  32:Libraries/STM32F4xx_StdPeriph_Driver/src/stm32f4xx_dcmi.c ****         (++) Configure these DCMI pins in alternate function mode by calling 
  33:Libraries/STM32F4xx_StdPeriph_Driver/src/stm32f4xx_dcmi.c ****             the function GPIO_Init();
  34:Libraries/STM32F4xx_StdPeriph_Driver/src/stm32f4xx_dcmi.c ****       
  35:Libraries/STM32F4xx_StdPeriph_Driver/src/stm32f4xx_dcmi.c ****       (#) Declare a DCMI_InitTypeDef structure, for example:
  36:Libraries/STM32F4xx_StdPeriph_Driver/src/stm32f4xx_dcmi.c ****           DCMI_InitTypeDef  DCMI_InitStructure;
  37:Libraries/STM32F4xx_StdPeriph_Driver/src/stm32f4xx_dcmi.c ****           and fill the DCMI_InitStructure variable with the allowed values
  38:Libraries/STM32F4xx_StdPeriph_Driver/src/stm32f4xx_dcmi.c ****           of the structure member.
  39:Libraries/STM32F4xx_StdPeriph_Driver/src/stm32f4xx_dcmi.c ****     
  40:Libraries/STM32F4xx_StdPeriph_Driver/src/stm32f4xx_dcmi.c ****       (#) Initialize the DCMI interface by calling the function
  41:Libraries/STM32F4xx_StdPeriph_Driver/src/stm32f4xx_dcmi.c ****           DCMI_Init(&DCMI_InitStructure); 
  42:Libraries/STM32F4xx_StdPeriph_Driver/src/stm32f4xx_dcmi.c ****     
  43:Libraries/STM32F4xx_StdPeriph_Driver/src/stm32f4xx_dcmi.c ****       (#) Configure the DMA2_Stream1 channel1 to transfer Data from DCMI DR
  44:Libraries/STM32F4xx_StdPeriph_Driver/src/stm32f4xx_dcmi.c ****           register to the destination memory buffer.
  45:Libraries/STM32F4xx_StdPeriph_Driver/src/stm32f4xx_dcmi.c ****     
  46:Libraries/STM32F4xx_StdPeriph_Driver/src/stm32f4xx_dcmi.c ****       (#) Enable DCMI interface using the function
  47:Libraries/STM32F4xx_StdPeriph_Driver/src/stm32f4xx_dcmi.c ****           DCMI_Cmd(ENABLE);
  48:Libraries/STM32F4xx_StdPeriph_Driver/src/stm32f4xx_dcmi.c ****                    
  49:Libraries/STM32F4xx_StdPeriph_Driver/src/stm32f4xx_dcmi.c ****       (#) Start the image capture using the function
  50:Libraries/STM32F4xx_StdPeriph_Driver/src/stm32f4xx_dcmi.c ****           DCMI_CaptureCmd(ENABLE);
  51:Libraries/STM32F4xx_StdPeriph_Driver/src/stm32f4xx_dcmi.c ****                    
  52:Libraries/STM32F4xx_StdPeriph_Driver/src/stm32f4xx_dcmi.c ****       (#) At this stage the DCMI interface waits for the first start of frame,
  53:Libraries/STM32F4xx_StdPeriph_Driver/src/stm32f4xx_dcmi.c ****           then a DMA request is generated continuously/once (depending on the
  54:Libraries/STM32F4xx_StdPeriph_Driver/src/stm32f4xx_dcmi.c ****           mode used, Continuous/Snapshot) to transfer the received data into
  55:Libraries/STM32F4xx_StdPeriph_Driver/src/stm32f4xx_dcmi.c ****           the destination memory. 
  56:Libraries/STM32F4xx_StdPeriph_Driver/src/stm32f4xx_dcmi.c ****      
  57:Libraries/STM32F4xx_StdPeriph_Driver/src/stm32f4xx_dcmi.c ****       -@-  If you need to capture only a rectangular window from the received
  58:Libraries/STM32F4xx_StdPeriph_Driver/src/stm32f4xx_dcmi.c ****            image, you have to use the DCMI_CROPConfig() function to configure 
  59:Libraries/STM32F4xx_StdPeriph_Driver/src/stm32f4xx_dcmi.c ****            the coordinates and size of the window to be captured, then enable 
  60:Libraries/STM32F4xx_StdPeriph_Driver/src/stm32f4xx_dcmi.c ****            the Crop feature using DCMI_CROPCmd(ENABLE);  
  61:Libraries/STM32F4xx_StdPeriph_Driver/src/stm32f4xx_dcmi.c ****            In this case, the Crop configuration should be made before to enable
  62:Libraries/STM32F4xx_StdPeriph_Driver/src/stm32f4xx_dcmi.c ****            and start the DCMI interface. 
  63:Libraries/STM32F4xx_StdPeriph_Driver/src/stm32f4xx_dcmi.c **** 
  64:Libraries/STM32F4xx_StdPeriph_Driver/src/stm32f4xx_dcmi.c ****  @endverbatim     
  65:Libraries/STM32F4xx_StdPeriph_Driver/src/stm32f4xx_dcmi.c ****   ******************************************************************************
  66:Libraries/STM32F4xx_StdPeriph_Driver/src/stm32f4xx_dcmi.c ****   * @attention
  67:Libraries/STM32F4xx_StdPeriph_Driver/src/stm32f4xx_dcmi.c ****   *
  68:Libraries/STM32F4xx_StdPeriph_Driver/src/stm32f4xx_dcmi.c ****   * Copyright (c) 2016 STMicroelectronics.
  69:Libraries/STM32F4xx_StdPeriph_Driver/src/stm32f4xx_dcmi.c ****   * All rights reserved.
  70:Libraries/STM32F4xx_StdPeriph_Driver/src/stm32f4xx_dcmi.c ****   *
  71:Libraries/STM32F4xx_StdPeriph_Driver/src/stm32f4xx_dcmi.c ****   * This software is licensed under terms that can be found in the LICENSE file
  72:Libraries/STM32F4xx_StdPeriph_Driver/src/stm32f4xx_dcmi.c ****   * in the root directory of this software component.
  73:Libraries/STM32F4xx_StdPeriph_Driver/src/stm32f4xx_dcmi.c ****   * If no LICENSE file comes with this software, it is provided AS-IS.
  74:Libraries/STM32F4xx_StdPeriph_Driver/src/stm32f4xx_dcmi.c ****   *
  75:Libraries/STM32F4xx_StdPeriph_Driver/src/stm32f4xx_dcmi.c ****   ******************************************************************************
  76:Libraries/STM32F4xx_StdPeriph_Driver/src/stm32f4xx_dcmi.c ****   */
  77:Libraries/STM32F4xx_StdPeriph_Driver/src/stm32f4xx_dcmi.c **** 
  78:Libraries/STM32F4xx_StdPeriph_Driver/src/stm32f4xx_dcmi.c **** /* Includes ------------------------------------------------------------------*/
  79:Libraries/STM32F4xx_StdPeriph_Driver/src/stm32f4xx_dcmi.c **** #include "stm32f4xx_dcmi.h"
  80:Libraries/STM32F4xx_StdPeriph_Driver/src/stm32f4xx_dcmi.c **** #include "stm32f4xx_rcc.h"
  81:Libraries/STM32F4xx_StdPeriph_Driver/src/stm32f4xx_dcmi.c **** 
  82:Libraries/STM32F4xx_StdPeriph_Driver/src/stm32f4xx_dcmi.c **** /** @addtogroup STM32F4xx_StdPeriph_Driver
  83:Libraries/STM32F4xx_StdPeriph_Driver/src/stm32f4xx_dcmi.c ****   * @{
  84:Libraries/STM32F4xx_StdPeriph_Driver/src/stm32f4xx_dcmi.c ****   */
  85:Libraries/STM32F4xx_StdPeriph_Driver/src/stm32f4xx_dcmi.c **** 
  86:Libraries/STM32F4xx_StdPeriph_Driver/src/stm32f4xx_dcmi.c **** /** @defgroup DCMI 
  87:Libraries/STM32F4xx_StdPeriph_Driver/src/stm32f4xx_dcmi.c ****   * @brief DCMI driver modules
ARM GAS  /tmp/ccyYSkJU.s 			page 3


  88:Libraries/STM32F4xx_StdPeriph_Driver/src/stm32f4xx_dcmi.c ****   * @{
  89:Libraries/STM32F4xx_StdPeriph_Driver/src/stm32f4xx_dcmi.c ****   */ 
  90:Libraries/STM32F4xx_StdPeriph_Driver/src/stm32f4xx_dcmi.c **** 
  91:Libraries/STM32F4xx_StdPeriph_Driver/src/stm32f4xx_dcmi.c **** /* Private typedef -----------------------------------------------------------*/
  92:Libraries/STM32F4xx_StdPeriph_Driver/src/stm32f4xx_dcmi.c **** /* Private define ------------------------------------------------------------*/
  93:Libraries/STM32F4xx_StdPeriph_Driver/src/stm32f4xx_dcmi.c **** /* Private macro -------------------------------------------------------------*/
  94:Libraries/STM32F4xx_StdPeriph_Driver/src/stm32f4xx_dcmi.c **** /* Private variables ---------------------------------------------------------*/
  95:Libraries/STM32F4xx_StdPeriph_Driver/src/stm32f4xx_dcmi.c **** /* Private function prototypes -----------------------------------------------*/
  96:Libraries/STM32F4xx_StdPeriph_Driver/src/stm32f4xx_dcmi.c **** /* Private functions ---------------------------------------------------------*/
  97:Libraries/STM32F4xx_StdPeriph_Driver/src/stm32f4xx_dcmi.c **** 
  98:Libraries/STM32F4xx_StdPeriph_Driver/src/stm32f4xx_dcmi.c **** /** @defgroup DCMI_Private_Functions
  99:Libraries/STM32F4xx_StdPeriph_Driver/src/stm32f4xx_dcmi.c ****   * @{
 100:Libraries/STM32F4xx_StdPeriph_Driver/src/stm32f4xx_dcmi.c ****   */ 
 101:Libraries/STM32F4xx_StdPeriph_Driver/src/stm32f4xx_dcmi.c **** 
 102:Libraries/STM32F4xx_StdPeriph_Driver/src/stm32f4xx_dcmi.c **** /** @defgroup DCMI_Group1 Initialization and Configuration functions
 103:Libraries/STM32F4xx_StdPeriph_Driver/src/stm32f4xx_dcmi.c ****  *  @brief   Initialization and Configuration functions 
 104:Libraries/STM32F4xx_StdPeriph_Driver/src/stm32f4xx_dcmi.c ****  *
 105:Libraries/STM32F4xx_StdPeriph_Driver/src/stm32f4xx_dcmi.c **** @verbatim   
 106:Libraries/STM32F4xx_StdPeriph_Driver/src/stm32f4xx_dcmi.c ****  ===============================================================================
 107:Libraries/STM32F4xx_StdPeriph_Driver/src/stm32f4xx_dcmi.c ****               ##### Initialization and Configuration functions #####
 108:Libraries/STM32F4xx_StdPeriph_Driver/src/stm32f4xx_dcmi.c ****  ===============================================================================  
 109:Libraries/STM32F4xx_StdPeriph_Driver/src/stm32f4xx_dcmi.c **** 
 110:Libraries/STM32F4xx_StdPeriph_Driver/src/stm32f4xx_dcmi.c **** @endverbatim
 111:Libraries/STM32F4xx_StdPeriph_Driver/src/stm32f4xx_dcmi.c ****   * @{
 112:Libraries/STM32F4xx_StdPeriph_Driver/src/stm32f4xx_dcmi.c ****   */
 113:Libraries/STM32F4xx_StdPeriph_Driver/src/stm32f4xx_dcmi.c **** 
 114:Libraries/STM32F4xx_StdPeriph_Driver/src/stm32f4xx_dcmi.c **** /**
 115:Libraries/STM32F4xx_StdPeriph_Driver/src/stm32f4xx_dcmi.c ****   * @brief  Deinitializes the DCMI registers to their default reset values.
 116:Libraries/STM32F4xx_StdPeriph_Driver/src/stm32f4xx_dcmi.c ****   * @param  None
 117:Libraries/STM32F4xx_StdPeriph_Driver/src/stm32f4xx_dcmi.c ****   * @retval None
 118:Libraries/STM32F4xx_StdPeriph_Driver/src/stm32f4xx_dcmi.c ****   */
 119:Libraries/STM32F4xx_StdPeriph_Driver/src/stm32f4xx_dcmi.c **** void DCMI_DeInit(void)
 120:Libraries/STM32F4xx_StdPeriph_Driver/src/stm32f4xx_dcmi.c **** {
  29              		.loc 1 120 1 view -0
  30              		.cfi_startproc
  31              		@ args = 0, pretend = 0, frame = 0
  32              		@ frame_needed = 0, uses_anonymous_args = 0
  33              		@ link register save eliminated.
 121:Libraries/STM32F4xx_StdPeriph_Driver/src/stm32f4xx_dcmi.c ****   DCMI->CR = 0x0;
  34              		.loc 1 121 3 view .LVU1
  35              		.loc 1 121 12 is_stmt 0 view .LVU2
  36 0000 054B     		ldr	r3, .L2
  37 0002 0022     		movs	r2, #0
  38 0004 1A60     		str	r2, [r3]
 122:Libraries/STM32F4xx_StdPeriph_Driver/src/stm32f4xx_dcmi.c ****   DCMI->IER = 0x0;
  39              		.loc 1 122 3 is_stmt 1 view .LVU3
  40              		.loc 1 122 13 is_stmt 0 view .LVU4
  41 0006 DA60     		str	r2, [r3, #12]
 123:Libraries/STM32F4xx_StdPeriph_Driver/src/stm32f4xx_dcmi.c ****   DCMI->ICR = 0x1F;
  42              		.loc 1 123 3 is_stmt 1 view .LVU5
  43              		.loc 1 123 13 is_stmt 0 view .LVU6
  44 0008 1F21     		movs	r1, #31
  45 000a 5961     		str	r1, [r3, #20]
 124:Libraries/STM32F4xx_StdPeriph_Driver/src/stm32f4xx_dcmi.c ****   DCMI->ESCR = 0x0;
  46              		.loc 1 124 3 is_stmt 1 view .LVU7
  47              		.loc 1 124 14 is_stmt 0 view .LVU8
  48 000c 9A61     		str	r2, [r3, #24]
ARM GAS  /tmp/ccyYSkJU.s 			page 4


 125:Libraries/STM32F4xx_StdPeriph_Driver/src/stm32f4xx_dcmi.c ****   DCMI->ESUR = 0x0;
  49              		.loc 1 125 3 is_stmt 1 view .LVU9
  50              		.loc 1 125 14 is_stmt 0 view .LVU10
  51 000e DA61     		str	r2, [r3, #28]
 126:Libraries/STM32F4xx_StdPeriph_Driver/src/stm32f4xx_dcmi.c ****   DCMI->CWSTRTR = 0x0;
  52              		.loc 1 126 3 is_stmt 1 view .LVU11
  53              		.loc 1 126 17 is_stmt 0 view .LVU12
  54 0010 1A62     		str	r2, [r3, #32]
 127:Libraries/STM32F4xx_StdPeriph_Driver/src/stm32f4xx_dcmi.c ****   DCMI->CWSIZER = 0x0;
  55              		.loc 1 127 3 is_stmt 1 view .LVU13
  56              		.loc 1 127 17 is_stmt 0 view .LVU14
  57 0012 5A62     		str	r2, [r3, #36]
 128:Libraries/STM32F4xx_StdPeriph_Driver/src/stm32f4xx_dcmi.c **** }
  58              		.loc 1 128 1 view .LVU15
  59 0014 7047     		bx	lr
  60              	.L3:
  61 0016 00BF     		.align	2
  62              	.L2:
  63 0018 00000550 		.word	1342504960
  64              		.cfi_endproc
  65              	.LFE123:
  67              		.section	.text.DCMI_Init,"ax",%progbits
  68              		.align	1
  69              		.global	DCMI_Init
  70              		.syntax unified
  71              		.thumb
  72              		.thumb_func
  73              		.fpu fpv4-sp-d16
  75              	DCMI_Init:
  76              	.LVL0:
  77              	.LFB124:
 129:Libraries/STM32F4xx_StdPeriph_Driver/src/stm32f4xx_dcmi.c **** 
 130:Libraries/STM32F4xx_StdPeriph_Driver/src/stm32f4xx_dcmi.c **** /**
 131:Libraries/STM32F4xx_StdPeriph_Driver/src/stm32f4xx_dcmi.c ****   * @brief  Initializes the DCMI according to the specified parameters in the DCMI_InitStruct.
 132:Libraries/STM32F4xx_StdPeriph_Driver/src/stm32f4xx_dcmi.c ****   * @param  DCMI_InitStruct: pointer to a DCMI_InitTypeDef structure that contains 
 133:Libraries/STM32F4xx_StdPeriph_Driver/src/stm32f4xx_dcmi.c ****   *         the configuration information for the DCMI.
 134:Libraries/STM32F4xx_StdPeriph_Driver/src/stm32f4xx_dcmi.c ****   * @retval None
 135:Libraries/STM32F4xx_StdPeriph_Driver/src/stm32f4xx_dcmi.c ****   */
 136:Libraries/STM32F4xx_StdPeriph_Driver/src/stm32f4xx_dcmi.c **** void DCMI_Init(DCMI_InitTypeDef* DCMI_InitStruct)
 137:Libraries/STM32F4xx_StdPeriph_Driver/src/stm32f4xx_dcmi.c **** {
  78              		.loc 1 137 1 is_stmt 1 view -0
  79              		.cfi_startproc
  80              		@ args = 0, pretend = 0, frame = 0
  81              		@ frame_needed = 0, uses_anonymous_args = 0
  82              		.loc 1 137 1 is_stmt 0 view .LVU17
  83 0000 F0B5     		push	{r4, r5, r6, r7, lr}
  84              	.LCFI0:
  85              		.cfi_def_cfa_offset 20
  86              		.cfi_offset 4, -20
  87              		.cfi_offset 5, -16
  88              		.cfi_offset 6, -12
  89              		.cfi_offset 7, -8
  90              		.cfi_offset 14, -4
 138:Libraries/STM32F4xx_StdPeriph_Driver/src/stm32f4xx_dcmi.c ****   uint32_t temp = 0x0;
  91              		.loc 1 138 3 is_stmt 1 view .LVU18
  92              	.LVL1:
 139:Libraries/STM32F4xx_StdPeriph_Driver/src/stm32f4xx_dcmi.c ****   
ARM GAS  /tmp/ccyYSkJU.s 			page 5


 140:Libraries/STM32F4xx_StdPeriph_Driver/src/stm32f4xx_dcmi.c ****   /* Check the parameters */
 141:Libraries/STM32F4xx_StdPeriph_Driver/src/stm32f4xx_dcmi.c ****   assert_param(IS_DCMI_CAPTURE_MODE(DCMI_InitStruct->DCMI_CaptureMode));
  93              		.loc 1 141 3 view .LVU19
 142:Libraries/STM32F4xx_StdPeriph_Driver/src/stm32f4xx_dcmi.c ****   assert_param(IS_DCMI_SYNCHRO(DCMI_InitStruct->DCMI_SynchroMode));
  94              		.loc 1 142 3 view .LVU20
 143:Libraries/STM32F4xx_StdPeriph_Driver/src/stm32f4xx_dcmi.c ****   assert_param(IS_DCMI_PCKPOLARITY(DCMI_InitStruct->DCMI_PCKPolarity));
  95              		.loc 1 143 3 view .LVU21
 144:Libraries/STM32F4xx_StdPeriph_Driver/src/stm32f4xx_dcmi.c ****   assert_param(IS_DCMI_VSPOLARITY(DCMI_InitStruct->DCMI_VSPolarity));
  96              		.loc 1 144 3 view .LVU22
 145:Libraries/STM32F4xx_StdPeriph_Driver/src/stm32f4xx_dcmi.c ****   assert_param(IS_DCMI_HSPOLARITY(DCMI_InitStruct->DCMI_HSPolarity));
  97              		.loc 1 145 3 view .LVU23
 146:Libraries/STM32F4xx_StdPeriph_Driver/src/stm32f4xx_dcmi.c ****   assert_param(IS_DCMI_CAPTURE_RATE(DCMI_InitStruct->DCMI_CaptureRate));
  98              		.loc 1 146 3 view .LVU24
 147:Libraries/STM32F4xx_StdPeriph_Driver/src/stm32f4xx_dcmi.c ****   assert_param(IS_DCMI_EXTENDED_DATA(DCMI_InitStruct->DCMI_ExtendedDataMode));
  99              		.loc 1 147 3 view .LVU25
 148:Libraries/STM32F4xx_StdPeriph_Driver/src/stm32f4xx_dcmi.c **** 
 149:Libraries/STM32F4xx_StdPeriph_Driver/src/stm32f4xx_dcmi.c ****   /* The DCMI configuration registers should be programmed correctly before 
 150:Libraries/STM32F4xx_StdPeriph_Driver/src/stm32f4xx_dcmi.c ****   enabling the CR_ENABLE Bit and the CR_CAPTURE Bit */
 151:Libraries/STM32F4xx_StdPeriph_Driver/src/stm32f4xx_dcmi.c ****   DCMI->CR &= ~(DCMI_CR_ENABLE | DCMI_CR_CAPTURE);
 100              		.loc 1 151 3 view .LVU26
 101              		.loc 1 151 12 is_stmt 0 view .LVU27
 102 0002 1049     		ldr	r1, .L6
 103 0004 0B68     		ldr	r3, [r1]
 104 0006 23F48043 		bic	r3, r3, #16384
 105 000a 23F00103 		bic	r3, r3, #1
 106 000e 0B60     		str	r3, [r1]
 152:Libraries/STM32F4xx_StdPeriph_Driver/src/stm32f4xx_dcmi.c ****    
 153:Libraries/STM32F4xx_StdPeriph_Driver/src/stm32f4xx_dcmi.c ****   /* Reset the old DCMI configuration */
 154:Libraries/STM32F4xx_StdPeriph_Driver/src/stm32f4xx_dcmi.c ****   temp = DCMI->CR;
 107              		.loc 1 154 3 is_stmt 1 view .LVU28
 108              		.loc 1 154 8 is_stmt 0 view .LVU29
 109 0010 0A68     		ldr	r2, [r1]
 110              	.LVL2:
 155:Libraries/STM32F4xx_StdPeriph_Driver/src/stm32f4xx_dcmi.c ****   
 156:Libraries/STM32F4xx_StdPeriph_Driver/src/stm32f4xx_dcmi.c ****   temp &= ~((uint32_t)DCMI_CR_CM     | DCMI_CR_ESS   | DCMI_CR_PCKPOL |
 111              		.loc 1 156 3 is_stmt 1 view .LVU30
 112              		.loc 1 156 8 is_stmt 0 view .LVU31
 113 0012 22F47F62 		bic	r2, r2, #4080
 114              	.LVL3:
 115              		.loc 1 156 8 view .LVU32
 116 0016 22F00202 		bic	r2, r2, #2
 117              	.LVL4:
 157:Libraries/STM32F4xx_StdPeriph_Driver/src/stm32f4xx_dcmi.c ****                       DCMI_CR_HSPOL  | DCMI_CR_VSPOL | DCMI_CR_FCRC_0 | 
 158:Libraries/STM32F4xx_StdPeriph_Driver/src/stm32f4xx_dcmi.c ****                       DCMI_CR_FCRC_1 | DCMI_CR_EDM_0 | DCMI_CR_EDM_1); 
 159:Libraries/STM32F4xx_StdPeriph_Driver/src/stm32f4xx_dcmi.c ****                   
 160:Libraries/STM32F4xx_StdPeriph_Driver/src/stm32f4xx_dcmi.c ****   /* Sets the new configuration of the DCMI peripheral */
 161:Libraries/STM32F4xx_StdPeriph_Driver/src/stm32f4xx_dcmi.c ****   temp |= ((uint32_t)DCMI_InitStruct->DCMI_CaptureMode |
 118              		.loc 1 161 3 is_stmt 1 view .LVU33
 119              		.loc 1 161 37 is_stmt 0 view .LVU34
 120 001a 0688     		ldrh	r6, [r0]
 162:Libraries/STM32F4xx_StdPeriph_Driver/src/stm32f4xx_dcmi.c ****                      DCMI_InitStruct->DCMI_SynchroMode |
 121              		.loc 1 162 37 view .LVU35
 122 001c 4788     		ldrh	r7, [r0, #2]
 163:Libraries/STM32F4xx_StdPeriph_Driver/src/stm32f4xx_dcmi.c ****                      DCMI_InitStruct->DCMI_PCKPolarity |
 123              		.loc 1 163 37 view .LVU36
 124 001e 8588     		ldrh	r5, [r0, #4]
 164:Libraries/STM32F4xx_StdPeriph_Driver/src/stm32f4xx_dcmi.c ****                      DCMI_InitStruct->DCMI_VSPolarity |
ARM GAS  /tmp/ccyYSkJU.s 			page 6


 125              		.loc 1 164 37 view .LVU37
 126 0020 C488     		ldrh	r4, [r0, #6]
 165:Libraries/STM32F4xx_StdPeriph_Driver/src/stm32f4xx_dcmi.c ****                      DCMI_InitStruct->DCMI_HSPolarity |
 127              		.loc 1 165 37 view .LVU38
 128 0022 B0F808E0 		ldrh	lr, [r0, #8]
 166:Libraries/STM32F4xx_StdPeriph_Driver/src/stm32f4xx_dcmi.c ****                      DCMI_InitStruct->DCMI_CaptureRate |
 129              		.loc 1 166 37 view .LVU39
 130 0026 B0F80AC0 		ldrh	ip, [r0, #10]
 167:Libraries/STM32F4xx_StdPeriph_Driver/src/stm32f4xx_dcmi.c ****                      DCMI_InitStruct->DCMI_ExtendedDataMode);
 131              		.loc 1 167 37 view .LVU40
 132 002a 8389     		ldrh	r3, [r0, #12]
 166:Libraries/STM32F4xx_StdPeriph_Driver/src/stm32f4xx_dcmi.c ****                      DCMI_InitStruct->DCMI_CaptureRate |
 133              		.loc 1 166 56 view .LVU41
 134 002c 46EA0700 		orr	r0, r6, r7
 135              	.LVL5:
 166:Libraries/STM32F4xx_StdPeriph_Driver/src/stm32f4xx_dcmi.c ****                      DCMI_InitStruct->DCMI_CaptureRate |
 136              		.loc 1 166 56 view .LVU42
 137 0030 2843     		orrs	r0, r0, r5
 138 0032 2043     		orrs	r0, r0, r4
 139 0034 4EEA0000 		orr	r0, lr, r0
 140 0038 4CEA0000 		orr	r0, ip, r0
 141 003c 0343     		orrs	r3, r3, r0
 161:Libraries/STM32F4xx_StdPeriph_Driver/src/stm32f4xx_dcmi.c ****                      DCMI_InitStruct->DCMI_SynchroMode |
 142              		.loc 1 161 8 view .LVU43
 143 003e 1343     		orrs	r3, r3, r2
 144              	.LVL6:
 168:Libraries/STM32F4xx_StdPeriph_Driver/src/stm32f4xx_dcmi.c **** 
 169:Libraries/STM32F4xx_StdPeriph_Driver/src/stm32f4xx_dcmi.c ****   DCMI->CR = temp;                              
 145              		.loc 1 169 3 is_stmt 1 view .LVU44
 146              		.loc 1 169 12 is_stmt 0 view .LVU45
 147 0040 0B60     		str	r3, [r1]
 170:Libraries/STM32F4xx_StdPeriph_Driver/src/stm32f4xx_dcmi.c **** }
 148              		.loc 1 170 1 view .LVU46
 149 0042 F0BD     		pop	{r4, r5, r6, r7, pc}
 150              	.L7:
 151              		.align	2
 152              	.L6:
 153 0044 00000550 		.word	1342504960
 154              		.cfi_endproc
 155              	.LFE124:
 157              		.section	.text.DCMI_StructInit,"ax",%progbits
 158              		.align	1
 159              		.global	DCMI_StructInit
 160              		.syntax unified
 161              		.thumb
 162              		.thumb_func
 163              		.fpu fpv4-sp-d16
 165              	DCMI_StructInit:
 166              	.LVL7:
 167              	.LFB125:
 171:Libraries/STM32F4xx_StdPeriph_Driver/src/stm32f4xx_dcmi.c **** 
 172:Libraries/STM32F4xx_StdPeriph_Driver/src/stm32f4xx_dcmi.c **** /**
 173:Libraries/STM32F4xx_StdPeriph_Driver/src/stm32f4xx_dcmi.c ****   * @brief  Fills each DCMI_InitStruct member with its default value.
 174:Libraries/STM32F4xx_StdPeriph_Driver/src/stm32f4xx_dcmi.c ****   * @param  DCMI_InitStruct : pointer to a DCMI_InitTypeDef structure which will
 175:Libraries/STM32F4xx_StdPeriph_Driver/src/stm32f4xx_dcmi.c ****   *         be initialized.
 176:Libraries/STM32F4xx_StdPeriph_Driver/src/stm32f4xx_dcmi.c ****   * @retval None
 177:Libraries/STM32F4xx_StdPeriph_Driver/src/stm32f4xx_dcmi.c ****   */
ARM GAS  /tmp/ccyYSkJU.s 			page 7


 178:Libraries/STM32F4xx_StdPeriph_Driver/src/stm32f4xx_dcmi.c **** void DCMI_StructInit(DCMI_InitTypeDef* DCMI_InitStruct)
 179:Libraries/STM32F4xx_StdPeriph_Driver/src/stm32f4xx_dcmi.c **** {
 168              		.loc 1 179 1 is_stmt 1 view -0
 169              		.cfi_startproc
 170              		@ args = 0, pretend = 0, frame = 0
 171              		@ frame_needed = 0, uses_anonymous_args = 0
 172              		@ link register save eliminated.
 180:Libraries/STM32F4xx_StdPeriph_Driver/src/stm32f4xx_dcmi.c ****   /* Set the default configuration */
 181:Libraries/STM32F4xx_StdPeriph_Driver/src/stm32f4xx_dcmi.c ****   DCMI_InitStruct->DCMI_CaptureMode = DCMI_CaptureMode_Continuous;
 173              		.loc 1 181 3 view .LVU48
 174              		.loc 1 181 37 is_stmt 0 view .LVU49
 175 0000 0023     		movs	r3, #0
 176 0002 0380     		strh	r3, [r0]	@ movhi
 182:Libraries/STM32F4xx_StdPeriph_Driver/src/stm32f4xx_dcmi.c ****   DCMI_InitStruct->DCMI_SynchroMode = DCMI_SynchroMode_Hardware;
 177              		.loc 1 182 3 is_stmt 1 view .LVU50
 178              		.loc 1 182 37 is_stmt 0 view .LVU51
 179 0004 4380     		strh	r3, [r0, #2]	@ movhi
 183:Libraries/STM32F4xx_StdPeriph_Driver/src/stm32f4xx_dcmi.c ****   DCMI_InitStruct->DCMI_PCKPolarity = DCMI_PCKPolarity_Falling;
 180              		.loc 1 183 3 is_stmt 1 view .LVU52
 181              		.loc 1 183 37 is_stmt 0 view .LVU53
 182 0006 8380     		strh	r3, [r0, #4]	@ movhi
 184:Libraries/STM32F4xx_StdPeriph_Driver/src/stm32f4xx_dcmi.c ****   DCMI_InitStruct->DCMI_VSPolarity = DCMI_VSPolarity_Low;
 183              		.loc 1 184 3 is_stmt 1 view .LVU54
 184              		.loc 1 184 36 is_stmt 0 view .LVU55
 185 0008 C380     		strh	r3, [r0, #6]	@ movhi
 185:Libraries/STM32F4xx_StdPeriph_Driver/src/stm32f4xx_dcmi.c ****   DCMI_InitStruct->DCMI_HSPolarity = DCMI_HSPolarity_Low;
 186              		.loc 1 185 3 is_stmt 1 view .LVU56
 187              		.loc 1 185 36 is_stmt 0 view .LVU57
 188 000a 0381     		strh	r3, [r0, #8]	@ movhi
 186:Libraries/STM32F4xx_StdPeriph_Driver/src/stm32f4xx_dcmi.c ****   DCMI_InitStruct->DCMI_CaptureRate = DCMI_CaptureRate_All_Frame;
 189              		.loc 1 186 3 is_stmt 1 view .LVU58
 190              		.loc 1 186 37 is_stmt 0 view .LVU59
 191 000c 4381     		strh	r3, [r0, #10]	@ movhi
 187:Libraries/STM32F4xx_StdPeriph_Driver/src/stm32f4xx_dcmi.c ****   DCMI_InitStruct->DCMI_ExtendedDataMode = DCMI_ExtendedDataMode_8b;
 192              		.loc 1 187 3 is_stmt 1 view .LVU60
 193              		.loc 1 187 42 is_stmt 0 view .LVU61
 194 000e 8381     		strh	r3, [r0, #12]	@ movhi
 188:Libraries/STM32F4xx_StdPeriph_Driver/src/stm32f4xx_dcmi.c **** }
 195              		.loc 1 188 1 view .LVU62
 196 0010 7047     		bx	lr
 197              		.cfi_endproc
 198              	.LFE125:
 200              		.section	.text.DCMI_CROPConfig,"ax",%progbits
 201              		.align	1
 202              		.global	DCMI_CROPConfig
 203              		.syntax unified
 204              		.thumb
 205              		.thumb_func
 206              		.fpu fpv4-sp-d16
 208              	DCMI_CROPConfig:
 209              	.LVL8:
 210              	.LFB126:
 189:Libraries/STM32F4xx_StdPeriph_Driver/src/stm32f4xx_dcmi.c **** 
 190:Libraries/STM32F4xx_StdPeriph_Driver/src/stm32f4xx_dcmi.c **** /**
 191:Libraries/STM32F4xx_StdPeriph_Driver/src/stm32f4xx_dcmi.c ****   * @brief  Initializes the DCMI peripheral CROP mode according to the specified
 192:Libraries/STM32F4xx_StdPeriph_Driver/src/stm32f4xx_dcmi.c ****   *         parameters in the DCMI_CROPInitStruct.
 193:Libraries/STM32F4xx_StdPeriph_Driver/src/stm32f4xx_dcmi.c ****   * @note   This function should be called before to enable and start the DCMI interface.   
ARM GAS  /tmp/ccyYSkJU.s 			page 8


 194:Libraries/STM32F4xx_StdPeriph_Driver/src/stm32f4xx_dcmi.c ****   * @param  DCMI_CROPInitStruct:  pointer to a DCMI_CROPInitTypeDef structure that 
 195:Libraries/STM32F4xx_StdPeriph_Driver/src/stm32f4xx_dcmi.c ****   *         contains the configuration information for the DCMI peripheral CROP mode.
 196:Libraries/STM32F4xx_StdPeriph_Driver/src/stm32f4xx_dcmi.c ****   * @retval None
 197:Libraries/STM32F4xx_StdPeriph_Driver/src/stm32f4xx_dcmi.c ****   */
 198:Libraries/STM32F4xx_StdPeriph_Driver/src/stm32f4xx_dcmi.c **** void DCMI_CROPConfig(DCMI_CROPInitTypeDef* DCMI_CROPInitStruct)
 199:Libraries/STM32F4xx_StdPeriph_Driver/src/stm32f4xx_dcmi.c **** {  
 211              		.loc 1 199 1 is_stmt 1 view -0
 212              		.cfi_startproc
 213              		@ args = 0, pretend = 0, frame = 0
 214              		@ frame_needed = 0, uses_anonymous_args = 0
 215              		@ link register save eliminated.
 200:Libraries/STM32F4xx_StdPeriph_Driver/src/stm32f4xx_dcmi.c ****   /* Sets the CROP window coordinates */
 201:Libraries/STM32F4xx_StdPeriph_Driver/src/stm32f4xx_dcmi.c ****   DCMI->CWSTRTR = (uint32_t)((uint32_t)DCMI_CROPInitStruct->DCMI_HorizontalOffsetCount |
 216              		.loc 1 201 3 view .LVU64
 217              		.loc 1 201 59 is_stmt 0 view .LVU65
 218 0000 4388     		ldrh	r3, [r0, #2]
 202:Libraries/STM32F4xx_StdPeriph_Driver/src/stm32f4xx_dcmi.c ****                   ((uint32_t)DCMI_CROPInitStruct->DCMI_VerticalStartLine << 16));
 219              		.loc 1 202 49 view .LVU66
 220 0002 0288     		ldrh	r2, [r0]
 201:Libraries/STM32F4xx_StdPeriph_Driver/src/stm32f4xx_dcmi.c ****                   ((uint32_t)DCMI_CROPInitStruct->DCMI_VerticalStartLine << 16));
 221              		.loc 1 201 19 view .LVU67
 222 0004 43EA0243 		orr	r3, r3, r2, lsl #16
 201:Libraries/STM32F4xx_StdPeriph_Driver/src/stm32f4xx_dcmi.c ****                   ((uint32_t)DCMI_CROPInitStruct->DCMI_VerticalStartLine << 16));
 223              		.loc 1 201 17 view .LVU68
 224 0008 034A     		ldr	r2, .L10
 225 000a 1362     		str	r3, [r2, #32]
 203:Libraries/STM32F4xx_StdPeriph_Driver/src/stm32f4xx_dcmi.c **** 
 204:Libraries/STM32F4xx_StdPeriph_Driver/src/stm32f4xx_dcmi.c ****   /* Sets the CROP window size */
 205:Libraries/STM32F4xx_StdPeriph_Driver/src/stm32f4xx_dcmi.c ****   DCMI->CWSIZER = (uint32_t)(DCMI_CROPInitStruct->DCMI_CaptureCount |
 226              		.loc 1 205 3 is_stmt 1 view .LVU69
 227              		.loc 1 205 49 is_stmt 0 view .LVU70
 228 000c C388     		ldrh	r3, [r0, #6]
 206:Libraries/STM32F4xx_StdPeriph_Driver/src/stm32f4xx_dcmi.c ****                   ((uint32_t)DCMI_CROPInitStruct->DCMI_VerticalLineCount << 16));
 229              		.loc 1 206 49 view .LVU71
 230 000e 8188     		ldrh	r1, [r0, #4]
 205:Libraries/STM32F4xx_StdPeriph_Driver/src/stm32f4xx_dcmi.c ****                   ((uint32_t)DCMI_CROPInitStruct->DCMI_VerticalLineCount << 16));
 231              		.loc 1 205 19 view .LVU72
 232 0010 43EA0143 		orr	r3, r3, r1, lsl #16
 205:Libraries/STM32F4xx_StdPeriph_Driver/src/stm32f4xx_dcmi.c ****                   ((uint32_t)DCMI_CROPInitStruct->DCMI_VerticalLineCount << 16));
 233              		.loc 1 205 17 view .LVU73
 234 0014 5362     		str	r3, [r2, #36]
 207:Libraries/STM32F4xx_StdPeriph_Driver/src/stm32f4xx_dcmi.c **** }
 235              		.loc 1 207 1 view .LVU74
 236 0016 7047     		bx	lr
 237              	.L11:
 238              		.align	2
 239              	.L10:
 240 0018 00000550 		.word	1342504960
 241              		.cfi_endproc
 242              	.LFE126:
 244              		.section	.text.DCMI_CROPCmd,"ax",%progbits
 245              		.align	1
 246              		.global	DCMI_CROPCmd
 247              		.syntax unified
 248              		.thumb
 249              		.thumb_func
 250              		.fpu fpv4-sp-d16
ARM GAS  /tmp/ccyYSkJU.s 			page 9


 252              	DCMI_CROPCmd:
 253              	.LVL9:
 254              	.LFB127:
 208:Libraries/STM32F4xx_StdPeriph_Driver/src/stm32f4xx_dcmi.c **** 
 209:Libraries/STM32F4xx_StdPeriph_Driver/src/stm32f4xx_dcmi.c **** /**
 210:Libraries/STM32F4xx_StdPeriph_Driver/src/stm32f4xx_dcmi.c ****   * @brief  Enables or disables the DCMI Crop feature.
 211:Libraries/STM32F4xx_StdPeriph_Driver/src/stm32f4xx_dcmi.c ****   * @note   This function should be called before to enable and start the DCMI interface.
 212:Libraries/STM32F4xx_StdPeriph_Driver/src/stm32f4xx_dcmi.c ****   * @param  NewState: new state of the DCMI Crop feature. 
 213:Libraries/STM32F4xx_StdPeriph_Driver/src/stm32f4xx_dcmi.c ****   *          This parameter can be: ENABLE or DISABLE.
 214:Libraries/STM32F4xx_StdPeriph_Driver/src/stm32f4xx_dcmi.c ****   * @retval None
 215:Libraries/STM32F4xx_StdPeriph_Driver/src/stm32f4xx_dcmi.c ****   */
 216:Libraries/STM32F4xx_StdPeriph_Driver/src/stm32f4xx_dcmi.c **** void DCMI_CROPCmd(FunctionalState NewState)
 217:Libraries/STM32F4xx_StdPeriph_Driver/src/stm32f4xx_dcmi.c **** {
 255              		.loc 1 217 1 is_stmt 1 view -0
 256              		.cfi_startproc
 257              		@ args = 0, pretend = 0, frame = 0
 258              		@ frame_needed = 0, uses_anonymous_args = 0
 259              		@ link register save eliminated.
 218:Libraries/STM32F4xx_StdPeriph_Driver/src/stm32f4xx_dcmi.c ****   /* Check the parameters */
 219:Libraries/STM32F4xx_StdPeriph_Driver/src/stm32f4xx_dcmi.c ****   assert_param(IS_FUNCTIONAL_STATE(NewState));
 260              		.loc 1 219 3 view .LVU76
 220:Libraries/STM32F4xx_StdPeriph_Driver/src/stm32f4xx_dcmi.c ****     
 221:Libraries/STM32F4xx_StdPeriph_Driver/src/stm32f4xx_dcmi.c ****   if (NewState != DISABLE)
 261              		.loc 1 221 3 view .LVU77
 262              		.loc 1 221 6 is_stmt 0 view .LVU78
 263 0000 28B1     		cbz	r0, .L13
 222:Libraries/STM32F4xx_StdPeriph_Driver/src/stm32f4xx_dcmi.c ****   {
 223:Libraries/STM32F4xx_StdPeriph_Driver/src/stm32f4xx_dcmi.c ****     /* Enable the DCMI Crop feature */
 224:Libraries/STM32F4xx_StdPeriph_Driver/src/stm32f4xx_dcmi.c ****     DCMI->CR |= (uint32_t)DCMI_CR_CROP;
 264              		.loc 1 224 5 is_stmt 1 view .LVU79
 265              		.loc 1 224 14 is_stmt 0 view .LVU80
 266 0002 064A     		ldr	r2, .L15
 267 0004 1368     		ldr	r3, [r2]
 268 0006 43F00403 		orr	r3, r3, #4
 269 000a 1360     		str	r3, [r2]
 270 000c 7047     		bx	lr
 271              	.L13:
 225:Libraries/STM32F4xx_StdPeriph_Driver/src/stm32f4xx_dcmi.c ****   }
 226:Libraries/STM32F4xx_StdPeriph_Driver/src/stm32f4xx_dcmi.c ****   else
 227:Libraries/STM32F4xx_StdPeriph_Driver/src/stm32f4xx_dcmi.c ****   {
 228:Libraries/STM32F4xx_StdPeriph_Driver/src/stm32f4xx_dcmi.c ****     /* Disable the DCMI Crop feature */
 229:Libraries/STM32F4xx_StdPeriph_Driver/src/stm32f4xx_dcmi.c ****     DCMI->CR &= ~(uint32_t)DCMI_CR_CROP;
 272              		.loc 1 229 5 is_stmt 1 view .LVU81
 273              		.loc 1 229 14 is_stmt 0 view .LVU82
 274 000e 034A     		ldr	r2, .L15
 275 0010 1368     		ldr	r3, [r2]
 276 0012 23F00403 		bic	r3, r3, #4
 277 0016 1360     		str	r3, [r2]
 230:Libraries/STM32F4xx_StdPeriph_Driver/src/stm32f4xx_dcmi.c ****   }
 231:Libraries/STM32F4xx_StdPeriph_Driver/src/stm32f4xx_dcmi.c **** }
 278              		.loc 1 231 1 view .LVU83
 279 0018 7047     		bx	lr
 280              	.L16:
 281 001a 00BF     		.align	2
 282              	.L15:
 283 001c 00000550 		.word	1342504960
 284              		.cfi_endproc
ARM GAS  /tmp/ccyYSkJU.s 			page 10


 285              	.LFE127:
 287              		.section	.text.DCMI_SetEmbeddedSynchroCodes,"ax",%progbits
 288              		.align	1
 289              		.global	DCMI_SetEmbeddedSynchroCodes
 290              		.syntax unified
 291              		.thumb
 292              		.thumb_func
 293              		.fpu fpv4-sp-d16
 295              	DCMI_SetEmbeddedSynchroCodes:
 296              	.LVL10:
 297              	.LFB128:
 232:Libraries/STM32F4xx_StdPeriph_Driver/src/stm32f4xx_dcmi.c **** 
 233:Libraries/STM32F4xx_StdPeriph_Driver/src/stm32f4xx_dcmi.c **** /**
 234:Libraries/STM32F4xx_StdPeriph_Driver/src/stm32f4xx_dcmi.c ****   * @brief  Sets the embedded synchronization codes
 235:Libraries/STM32F4xx_StdPeriph_Driver/src/stm32f4xx_dcmi.c ****   * @param  DCMI_CodesInitTypeDef: pointer to a DCMI_CodesInitTypeDef structure that
 236:Libraries/STM32F4xx_StdPeriph_Driver/src/stm32f4xx_dcmi.c ****   *         contains the embedded synchronization codes for the DCMI peripheral.
 237:Libraries/STM32F4xx_StdPeriph_Driver/src/stm32f4xx_dcmi.c ****   * @retval None
 238:Libraries/STM32F4xx_StdPeriph_Driver/src/stm32f4xx_dcmi.c ****   */
 239:Libraries/STM32F4xx_StdPeriph_Driver/src/stm32f4xx_dcmi.c **** void DCMI_SetEmbeddedSynchroCodes(DCMI_CodesInitTypeDef* DCMI_CodesInitStruct)
 240:Libraries/STM32F4xx_StdPeriph_Driver/src/stm32f4xx_dcmi.c **** {
 298              		.loc 1 240 1 is_stmt 1 view -0
 299              		.cfi_startproc
 300              		@ args = 0, pretend = 0, frame = 0
 301              		@ frame_needed = 0, uses_anonymous_args = 0
 302              		@ link register save eliminated.
 241:Libraries/STM32F4xx_StdPeriph_Driver/src/stm32f4xx_dcmi.c ****   DCMI->ESCR = (uint32_t)(DCMI_CodesInitStruct->DCMI_FrameStartCode |
 303              		.loc 1 241 3 view .LVU85
 304              		.loc 1 241 47 is_stmt 0 view .LVU86
 305 0000 0378     		ldrb	r3, [r0]	@ zero_extendqisi2
 242:Libraries/STM32F4xx_StdPeriph_Driver/src/stm32f4xx_dcmi.c ****                           ((uint32_t)DCMI_CodesInitStruct->DCMI_LineStartCode << 8)|
 306              		.loc 1 242 58 view .LVU87
 307 0002 4278     		ldrb	r2, [r0, #1]	@ zero_extendqisi2
 241:Libraries/STM32F4xx_StdPeriph_Driver/src/stm32f4xx_dcmi.c ****   DCMI->ESCR = (uint32_t)(DCMI_CodesInitStruct->DCMI_FrameStartCode |
 308              		.loc 1 241 69 view .LVU88
 309 0004 43EA0223 		orr	r3, r3, r2, lsl #8
 243:Libraries/STM32F4xx_StdPeriph_Driver/src/stm32f4xx_dcmi.c ****                           ((uint32_t)DCMI_CodesInitStruct->DCMI_LineEndCode << 16)|
 310              		.loc 1 243 58 view .LVU89
 311 0008 8278     		ldrb	r2, [r0, #2]	@ zero_extendqisi2
 242:Libraries/STM32F4xx_StdPeriph_Driver/src/stm32f4xx_dcmi.c ****                           ((uint32_t)DCMI_CodesInitStruct->DCMI_LineStartCode << 8)|
 312              		.loc 1 242 84 view .LVU90
 313 000a 43EA0243 		orr	r3, r3, r2, lsl #16
 244:Libraries/STM32F4xx_StdPeriph_Driver/src/stm32f4xx_dcmi.c ****                           ((uint32_t)DCMI_CodesInitStruct->DCMI_FrameEndCode << 24));
 314              		.loc 1 244 58 view .LVU91
 315 000e C278     		ldrb	r2, [r0, #3]	@ zero_extendqisi2
 241:Libraries/STM32F4xx_StdPeriph_Driver/src/stm32f4xx_dcmi.c ****                           ((uint32_t)DCMI_CodesInitStruct->DCMI_LineStartCode << 8)|
 316              		.loc 1 241 16 view .LVU92
 317 0010 43EA0263 		orr	r3, r3, r2, lsl #24
 241:Libraries/STM32F4xx_StdPeriph_Driver/src/stm32f4xx_dcmi.c ****                           ((uint32_t)DCMI_CodesInitStruct->DCMI_LineStartCode << 8)|
 318              		.loc 1 241 14 view .LVU93
 319 0014 014A     		ldr	r2, .L18
 320 0016 9361     		str	r3, [r2, #24]
 245:Libraries/STM32F4xx_StdPeriph_Driver/src/stm32f4xx_dcmi.c **** }
 321              		.loc 1 245 1 view .LVU94
 322 0018 7047     		bx	lr
 323              	.L19:
 324 001a 00BF     		.align	2
 325              	.L18:
ARM GAS  /tmp/ccyYSkJU.s 			page 11


 326 001c 00000550 		.word	1342504960
 327              		.cfi_endproc
 328              	.LFE128:
 330              		.section	.text.DCMI_JPEGCmd,"ax",%progbits
 331              		.align	1
 332              		.global	DCMI_JPEGCmd
 333              		.syntax unified
 334              		.thumb
 335              		.thumb_func
 336              		.fpu fpv4-sp-d16
 338              	DCMI_JPEGCmd:
 339              	.LVL11:
 340              	.LFB129:
 246:Libraries/STM32F4xx_StdPeriph_Driver/src/stm32f4xx_dcmi.c **** 
 247:Libraries/STM32F4xx_StdPeriph_Driver/src/stm32f4xx_dcmi.c **** /**
 248:Libraries/STM32F4xx_StdPeriph_Driver/src/stm32f4xx_dcmi.c ****   * @brief  Enables or disables the DCMI JPEG format.
 249:Libraries/STM32F4xx_StdPeriph_Driver/src/stm32f4xx_dcmi.c ****   * @note   The Crop and Embedded Synchronization features cannot be used in this mode.  
 250:Libraries/STM32F4xx_StdPeriph_Driver/src/stm32f4xx_dcmi.c ****   * @param  NewState: new state of the DCMI JPEG format. 
 251:Libraries/STM32F4xx_StdPeriph_Driver/src/stm32f4xx_dcmi.c ****   *          This parameter can be: ENABLE or DISABLE.
 252:Libraries/STM32F4xx_StdPeriph_Driver/src/stm32f4xx_dcmi.c ****   * @retval None
 253:Libraries/STM32F4xx_StdPeriph_Driver/src/stm32f4xx_dcmi.c ****   */
 254:Libraries/STM32F4xx_StdPeriph_Driver/src/stm32f4xx_dcmi.c **** void DCMI_JPEGCmd(FunctionalState NewState)
 255:Libraries/STM32F4xx_StdPeriph_Driver/src/stm32f4xx_dcmi.c **** {
 341              		.loc 1 255 1 is_stmt 1 view -0
 342              		.cfi_startproc
 343              		@ args = 0, pretend = 0, frame = 0
 344              		@ frame_needed = 0, uses_anonymous_args = 0
 345              		@ link register save eliminated.
 256:Libraries/STM32F4xx_StdPeriph_Driver/src/stm32f4xx_dcmi.c ****   /* Check the parameters */
 257:Libraries/STM32F4xx_StdPeriph_Driver/src/stm32f4xx_dcmi.c ****   assert_param(IS_FUNCTIONAL_STATE(NewState));
 346              		.loc 1 257 3 view .LVU96
 258:Libraries/STM32F4xx_StdPeriph_Driver/src/stm32f4xx_dcmi.c ****  
 259:Libraries/STM32F4xx_StdPeriph_Driver/src/stm32f4xx_dcmi.c ****   if (NewState != DISABLE)
 347              		.loc 1 259 3 view .LVU97
 348              		.loc 1 259 6 is_stmt 0 view .LVU98
 349 0000 28B1     		cbz	r0, .L21
 260:Libraries/STM32F4xx_StdPeriph_Driver/src/stm32f4xx_dcmi.c ****   {
 261:Libraries/STM32F4xx_StdPeriph_Driver/src/stm32f4xx_dcmi.c ****     /* Enable the DCMI JPEG format */
 262:Libraries/STM32F4xx_StdPeriph_Driver/src/stm32f4xx_dcmi.c ****     DCMI->CR |= (uint32_t)DCMI_CR_JPEG;
 350              		.loc 1 262 5 is_stmt 1 view .LVU99
 351              		.loc 1 262 14 is_stmt 0 view .LVU100
 352 0002 064A     		ldr	r2, .L23
 353 0004 1368     		ldr	r3, [r2]
 354 0006 43F00803 		orr	r3, r3, #8
 355 000a 1360     		str	r3, [r2]
 356 000c 7047     		bx	lr
 357              	.L21:
 263:Libraries/STM32F4xx_StdPeriph_Driver/src/stm32f4xx_dcmi.c ****   }
 264:Libraries/STM32F4xx_StdPeriph_Driver/src/stm32f4xx_dcmi.c ****   else
 265:Libraries/STM32F4xx_StdPeriph_Driver/src/stm32f4xx_dcmi.c ****   {
 266:Libraries/STM32F4xx_StdPeriph_Driver/src/stm32f4xx_dcmi.c ****     /* Disable the DCMI JPEG format */
 267:Libraries/STM32F4xx_StdPeriph_Driver/src/stm32f4xx_dcmi.c ****     DCMI->CR &= ~(uint32_t)DCMI_CR_JPEG;
 358              		.loc 1 267 5 is_stmt 1 view .LVU101
 359              		.loc 1 267 14 is_stmt 0 view .LVU102
 360 000e 034A     		ldr	r2, .L23
 361 0010 1368     		ldr	r3, [r2]
 362 0012 23F00803 		bic	r3, r3, #8
ARM GAS  /tmp/ccyYSkJU.s 			page 12


 363 0016 1360     		str	r3, [r2]
 268:Libraries/STM32F4xx_StdPeriph_Driver/src/stm32f4xx_dcmi.c ****   }
 269:Libraries/STM32F4xx_StdPeriph_Driver/src/stm32f4xx_dcmi.c **** }
 364              		.loc 1 269 1 view .LVU103
 365 0018 7047     		bx	lr
 366              	.L24:
 367 001a 00BF     		.align	2
 368              	.L23:
 369 001c 00000550 		.word	1342504960
 370              		.cfi_endproc
 371              	.LFE129:
 373              		.section	.text.DCMI_Cmd,"ax",%progbits
 374              		.align	1
 375              		.global	DCMI_Cmd
 376              		.syntax unified
 377              		.thumb
 378              		.thumb_func
 379              		.fpu fpv4-sp-d16
 381              	DCMI_Cmd:
 382              	.LVL12:
 383              	.LFB130:
 270:Libraries/STM32F4xx_StdPeriph_Driver/src/stm32f4xx_dcmi.c **** /**
 271:Libraries/STM32F4xx_StdPeriph_Driver/src/stm32f4xx_dcmi.c ****   * @}
 272:Libraries/STM32F4xx_StdPeriph_Driver/src/stm32f4xx_dcmi.c ****   */
 273:Libraries/STM32F4xx_StdPeriph_Driver/src/stm32f4xx_dcmi.c **** 
 274:Libraries/STM32F4xx_StdPeriph_Driver/src/stm32f4xx_dcmi.c **** /** @defgroup DCMI_Group2 Image capture functions
 275:Libraries/STM32F4xx_StdPeriph_Driver/src/stm32f4xx_dcmi.c ****  *  @brief   Image capture functions
 276:Libraries/STM32F4xx_StdPeriph_Driver/src/stm32f4xx_dcmi.c ****  *
 277:Libraries/STM32F4xx_StdPeriph_Driver/src/stm32f4xx_dcmi.c **** @verbatim   
 278:Libraries/STM32F4xx_StdPeriph_Driver/src/stm32f4xx_dcmi.c ****  ===============================================================================
 279:Libraries/STM32F4xx_StdPeriph_Driver/src/stm32f4xx_dcmi.c ****                     ##### Image capture functions #####
 280:Libraries/STM32F4xx_StdPeriph_Driver/src/stm32f4xx_dcmi.c ****  ===============================================================================  
 281:Libraries/STM32F4xx_StdPeriph_Driver/src/stm32f4xx_dcmi.c **** 
 282:Libraries/STM32F4xx_StdPeriph_Driver/src/stm32f4xx_dcmi.c **** @endverbatim
 283:Libraries/STM32F4xx_StdPeriph_Driver/src/stm32f4xx_dcmi.c ****   * @{
 284:Libraries/STM32F4xx_StdPeriph_Driver/src/stm32f4xx_dcmi.c ****   */
 285:Libraries/STM32F4xx_StdPeriph_Driver/src/stm32f4xx_dcmi.c ****   
 286:Libraries/STM32F4xx_StdPeriph_Driver/src/stm32f4xx_dcmi.c **** /**
 287:Libraries/STM32F4xx_StdPeriph_Driver/src/stm32f4xx_dcmi.c ****   * @brief  Enables or disables the DCMI interface.
 288:Libraries/STM32F4xx_StdPeriph_Driver/src/stm32f4xx_dcmi.c ****   * @param  NewState: new state of the DCMI interface. 
 289:Libraries/STM32F4xx_StdPeriph_Driver/src/stm32f4xx_dcmi.c ****   *          This parameter can be: ENABLE or DISABLE.
 290:Libraries/STM32F4xx_StdPeriph_Driver/src/stm32f4xx_dcmi.c ****   * @retval None
 291:Libraries/STM32F4xx_StdPeriph_Driver/src/stm32f4xx_dcmi.c ****   */
 292:Libraries/STM32F4xx_StdPeriph_Driver/src/stm32f4xx_dcmi.c **** void DCMI_Cmd(FunctionalState NewState)
 293:Libraries/STM32F4xx_StdPeriph_Driver/src/stm32f4xx_dcmi.c **** {
 384              		.loc 1 293 1 is_stmt 1 view -0
 385              		.cfi_startproc
 386              		@ args = 0, pretend = 0, frame = 0
 387              		@ frame_needed = 0, uses_anonymous_args = 0
 388              		@ link register save eliminated.
 294:Libraries/STM32F4xx_StdPeriph_Driver/src/stm32f4xx_dcmi.c ****   /* Check the parameters */
 295:Libraries/STM32F4xx_StdPeriph_Driver/src/stm32f4xx_dcmi.c ****   assert_param(IS_FUNCTIONAL_STATE(NewState));
 389              		.loc 1 295 3 view .LVU105
 296:Libraries/STM32F4xx_StdPeriph_Driver/src/stm32f4xx_dcmi.c ****   
 297:Libraries/STM32F4xx_StdPeriph_Driver/src/stm32f4xx_dcmi.c ****   if (NewState != DISABLE)
 390              		.loc 1 297 3 view .LVU106
 391              		.loc 1 297 6 is_stmt 0 view .LVU107
ARM GAS  /tmp/ccyYSkJU.s 			page 13


 392 0000 28B1     		cbz	r0, .L26
 298:Libraries/STM32F4xx_StdPeriph_Driver/src/stm32f4xx_dcmi.c ****   {
 299:Libraries/STM32F4xx_StdPeriph_Driver/src/stm32f4xx_dcmi.c ****     /* Enable the DCMI by setting ENABLE bit */
 300:Libraries/STM32F4xx_StdPeriph_Driver/src/stm32f4xx_dcmi.c ****     DCMI->CR |= (uint32_t)DCMI_CR_ENABLE;
 393              		.loc 1 300 5 is_stmt 1 view .LVU108
 394              		.loc 1 300 14 is_stmt 0 view .LVU109
 395 0002 064A     		ldr	r2, .L28
 396 0004 1368     		ldr	r3, [r2]
 397 0006 43F48043 		orr	r3, r3, #16384
 398 000a 1360     		str	r3, [r2]
 399 000c 7047     		bx	lr
 400              	.L26:
 301:Libraries/STM32F4xx_StdPeriph_Driver/src/stm32f4xx_dcmi.c ****   }
 302:Libraries/STM32F4xx_StdPeriph_Driver/src/stm32f4xx_dcmi.c ****   else
 303:Libraries/STM32F4xx_StdPeriph_Driver/src/stm32f4xx_dcmi.c ****   {
 304:Libraries/STM32F4xx_StdPeriph_Driver/src/stm32f4xx_dcmi.c ****     /* Disable the DCMI by clearing ENABLE bit */
 305:Libraries/STM32F4xx_StdPeriph_Driver/src/stm32f4xx_dcmi.c ****     DCMI->CR &= ~(uint32_t)DCMI_CR_ENABLE;
 401              		.loc 1 305 5 is_stmt 1 view .LVU110
 402              		.loc 1 305 14 is_stmt 0 view .LVU111
 403 000e 034A     		ldr	r2, .L28
 404 0010 1368     		ldr	r3, [r2]
 405 0012 23F48043 		bic	r3, r3, #16384
 406 0016 1360     		str	r3, [r2]
 306:Libraries/STM32F4xx_StdPeriph_Driver/src/stm32f4xx_dcmi.c ****   }
 307:Libraries/STM32F4xx_StdPeriph_Driver/src/stm32f4xx_dcmi.c **** }
 407              		.loc 1 307 1 view .LVU112
 408 0018 7047     		bx	lr
 409              	.L29:
 410 001a 00BF     		.align	2
 411              	.L28:
 412 001c 00000550 		.word	1342504960
 413              		.cfi_endproc
 414              	.LFE130:
 416              		.section	.text.DCMI_CaptureCmd,"ax",%progbits
 417              		.align	1
 418              		.global	DCMI_CaptureCmd
 419              		.syntax unified
 420              		.thumb
 421              		.thumb_func
 422              		.fpu fpv4-sp-d16
 424              	DCMI_CaptureCmd:
 425              	.LVL13:
 426              	.LFB131:
 308:Libraries/STM32F4xx_StdPeriph_Driver/src/stm32f4xx_dcmi.c **** 
 309:Libraries/STM32F4xx_StdPeriph_Driver/src/stm32f4xx_dcmi.c **** /**
 310:Libraries/STM32F4xx_StdPeriph_Driver/src/stm32f4xx_dcmi.c ****   * @brief  Enables or disables the DCMI Capture.
 311:Libraries/STM32F4xx_StdPeriph_Driver/src/stm32f4xx_dcmi.c ****   * @param  NewState: new state of the DCMI capture. 
 312:Libraries/STM32F4xx_StdPeriph_Driver/src/stm32f4xx_dcmi.c ****   *          This parameter can be: ENABLE or DISABLE.
 313:Libraries/STM32F4xx_StdPeriph_Driver/src/stm32f4xx_dcmi.c ****   * @retval None
 314:Libraries/STM32F4xx_StdPeriph_Driver/src/stm32f4xx_dcmi.c ****   */
 315:Libraries/STM32F4xx_StdPeriph_Driver/src/stm32f4xx_dcmi.c **** void DCMI_CaptureCmd(FunctionalState NewState)
 316:Libraries/STM32F4xx_StdPeriph_Driver/src/stm32f4xx_dcmi.c **** {
 427              		.loc 1 316 1 is_stmt 1 view -0
 428              		.cfi_startproc
 429              		@ args = 0, pretend = 0, frame = 0
 430              		@ frame_needed = 0, uses_anonymous_args = 0
 431              		@ link register save eliminated.
ARM GAS  /tmp/ccyYSkJU.s 			page 14


 317:Libraries/STM32F4xx_StdPeriph_Driver/src/stm32f4xx_dcmi.c ****   /* Check the parameters */
 318:Libraries/STM32F4xx_StdPeriph_Driver/src/stm32f4xx_dcmi.c ****   assert_param(IS_FUNCTIONAL_STATE(NewState));
 432              		.loc 1 318 3 view .LVU114
 319:Libraries/STM32F4xx_StdPeriph_Driver/src/stm32f4xx_dcmi.c ****     
 320:Libraries/STM32F4xx_StdPeriph_Driver/src/stm32f4xx_dcmi.c ****   if (NewState != DISABLE)
 433              		.loc 1 320 3 view .LVU115
 434              		.loc 1 320 6 is_stmt 0 view .LVU116
 435 0000 28B1     		cbz	r0, .L31
 321:Libraries/STM32F4xx_StdPeriph_Driver/src/stm32f4xx_dcmi.c ****   {
 322:Libraries/STM32F4xx_StdPeriph_Driver/src/stm32f4xx_dcmi.c ****     /* Enable the DCMI Capture */
 323:Libraries/STM32F4xx_StdPeriph_Driver/src/stm32f4xx_dcmi.c ****     DCMI->CR |= (uint32_t)DCMI_CR_CAPTURE;
 436              		.loc 1 323 5 is_stmt 1 view .LVU117
 437              		.loc 1 323 14 is_stmt 0 view .LVU118
 438 0002 064A     		ldr	r2, .L33
 439 0004 1368     		ldr	r3, [r2]
 440 0006 43F00103 		orr	r3, r3, #1
 441 000a 1360     		str	r3, [r2]
 442 000c 7047     		bx	lr
 443              	.L31:
 324:Libraries/STM32F4xx_StdPeriph_Driver/src/stm32f4xx_dcmi.c ****   }
 325:Libraries/STM32F4xx_StdPeriph_Driver/src/stm32f4xx_dcmi.c ****   else
 326:Libraries/STM32F4xx_StdPeriph_Driver/src/stm32f4xx_dcmi.c ****   {
 327:Libraries/STM32F4xx_StdPeriph_Driver/src/stm32f4xx_dcmi.c ****     /* Disable the DCMI Capture */
 328:Libraries/STM32F4xx_StdPeriph_Driver/src/stm32f4xx_dcmi.c ****     DCMI->CR &= ~(uint32_t)DCMI_CR_CAPTURE;
 444              		.loc 1 328 5 is_stmt 1 view .LVU119
 445              		.loc 1 328 14 is_stmt 0 view .LVU120
 446 000e 034A     		ldr	r2, .L33
 447 0010 1368     		ldr	r3, [r2]
 448 0012 23F00103 		bic	r3, r3, #1
 449 0016 1360     		str	r3, [r2]
 329:Libraries/STM32F4xx_StdPeriph_Driver/src/stm32f4xx_dcmi.c ****   }
 330:Libraries/STM32F4xx_StdPeriph_Driver/src/stm32f4xx_dcmi.c **** }
 450              		.loc 1 330 1 view .LVU121
 451 0018 7047     		bx	lr
 452              	.L34:
 453 001a 00BF     		.align	2
 454              	.L33:
 455 001c 00000550 		.word	1342504960
 456              		.cfi_endproc
 457              	.LFE131:
 459              		.section	.text.DCMI_ReadData,"ax",%progbits
 460              		.align	1
 461              		.global	DCMI_ReadData
 462              		.syntax unified
 463              		.thumb
 464              		.thumb_func
 465              		.fpu fpv4-sp-d16
 467              	DCMI_ReadData:
 468              	.LFB132:
 331:Libraries/STM32F4xx_StdPeriph_Driver/src/stm32f4xx_dcmi.c **** 
 332:Libraries/STM32F4xx_StdPeriph_Driver/src/stm32f4xx_dcmi.c **** /**
 333:Libraries/STM32F4xx_StdPeriph_Driver/src/stm32f4xx_dcmi.c ****   * @brief  Reads the data stored in the DR register.
 334:Libraries/STM32F4xx_StdPeriph_Driver/src/stm32f4xx_dcmi.c ****   * @param  None 
 335:Libraries/STM32F4xx_StdPeriph_Driver/src/stm32f4xx_dcmi.c ****   * @retval Data register value
 336:Libraries/STM32F4xx_StdPeriph_Driver/src/stm32f4xx_dcmi.c ****   */
 337:Libraries/STM32F4xx_StdPeriph_Driver/src/stm32f4xx_dcmi.c **** uint32_t DCMI_ReadData(void)
 338:Libraries/STM32F4xx_StdPeriph_Driver/src/stm32f4xx_dcmi.c **** {
ARM GAS  /tmp/ccyYSkJU.s 			page 15


 469              		.loc 1 338 1 is_stmt 1 view -0
 470              		.cfi_startproc
 471              		@ args = 0, pretend = 0, frame = 0
 472              		@ frame_needed = 0, uses_anonymous_args = 0
 473              		@ link register save eliminated.
 339:Libraries/STM32F4xx_StdPeriph_Driver/src/stm32f4xx_dcmi.c ****   return DCMI->DR;
 474              		.loc 1 339 3 view .LVU123
 475              		.loc 1 339 14 is_stmt 0 view .LVU124
 476 0000 014B     		ldr	r3, .L36
 477 0002 986A     		ldr	r0, [r3, #40]
 340:Libraries/STM32F4xx_StdPeriph_Driver/src/stm32f4xx_dcmi.c **** }
 478              		.loc 1 340 1 view .LVU125
 479 0004 7047     		bx	lr
 480              	.L37:
 481 0006 00BF     		.align	2
 482              	.L36:
 483 0008 00000550 		.word	1342504960
 484              		.cfi_endproc
 485              	.LFE132:
 487              		.section	.text.DCMI_ITConfig,"ax",%progbits
 488              		.align	1
 489              		.global	DCMI_ITConfig
 490              		.syntax unified
 491              		.thumb
 492              		.thumb_func
 493              		.fpu fpv4-sp-d16
 495              	DCMI_ITConfig:
 496              	.LVL14:
 497              	.LFB133:
 341:Libraries/STM32F4xx_StdPeriph_Driver/src/stm32f4xx_dcmi.c **** /**
 342:Libraries/STM32F4xx_StdPeriph_Driver/src/stm32f4xx_dcmi.c ****   * @}
 343:Libraries/STM32F4xx_StdPeriph_Driver/src/stm32f4xx_dcmi.c ****   */
 344:Libraries/STM32F4xx_StdPeriph_Driver/src/stm32f4xx_dcmi.c **** 
 345:Libraries/STM32F4xx_StdPeriph_Driver/src/stm32f4xx_dcmi.c **** /** @defgroup DCMI_Group3 Interrupts and flags management functions
 346:Libraries/STM32F4xx_StdPeriph_Driver/src/stm32f4xx_dcmi.c ****  *  @brief   Interrupts and flags management functions
 347:Libraries/STM32F4xx_StdPeriph_Driver/src/stm32f4xx_dcmi.c ****  *
 348:Libraries/STM32F4xx_StdPeriph_Driver/src/stm32f4xx_dcmi.c **** @verbatim   
 349:Libraries/STM32F4xx_StdPeriph_Driver/src/stm32f4xx_dcmi.c ****  ===============================================================================
 350:Libraries/STM32F4xx_StdPeriph_Driver/src/stm32f4xx_dcmi.c ****              ##### Interrupts and flags management functions #####
 351:Libraries/STM32F4xx_StdPeriph_Driver/src/stm32f4xx_dcmi.c ****  ===============================================================================  
 352:Libraries/STM32F4xx_StdPeriph_Driver/src/stm32f4xx_dcmi.c **** 
 353:Libraries/STM32F4xx_StdPeriph_Driver/src/stm32f4xx_dcmi.c **** @endverbatim
 354:Libraries/STM32F4xx_StdPeriph_Driver/src/stm32f4xx_dcmi.c ****   * @{
 355:Libraries/STM32F4xx_StdPeriph_Driver/src/stm32f4xx_dcmi.c ****   */
 356:Libraries/STM32F4xx_StdPeriph_Driver/src/stm32f4xx_dcmi.c **** 
 357:Libraries/STM32F4xx_StdPeriph_Driver/src/stm32f4xx_dcmi.c **** /**
 358:Libraries/STM32F4xx_StdPeriph_Driver/src/stm32f4xx_dcmi.c ****   * @brief  Enables or disables the DCMI interface interrupts.
 359:Libraries/STM32F4xx_StdPeriph_Driver/src/stm32f4xx_dcmi.c ****   * @param  DCMI_IT: specifies the DCMI interrupt sources to be enabled or disabled. 
 360:Libraries/STM32F4xx_StdPeriph_Driver/src/stm32f4xx_dcmi.c ****   *          This parameter can be any combination of the following values:
 361:Libraries/STM32F4xx_StdPeriph_Driver/src/stm32f4xx_dcmi.c ****   *            @arg DCMI_IT_FRAME: Frame capture complete interrupt mask
 362:Libraries/STM32F4xx_StdPeriph_Driver/src/stm32f4xx_dcmi.c ****   *            @arg DCMI_IT_OVF: Overflow interrupt mask
 363:Libraries/STM32F4xx_StdPeriph_Driver/src/stm32f4xx_dcmi.c ****   *            @arg DCMI_IT_ERR: Synchronization error interrupt mask
 364:Libraries/STM32F4xx_StdPeriph_Driver/src/stm32f4xx_dcmi.c ****   *            @arg DCMI_IT_VSYNC: VSYNC interrupt mask
 365:Libraries/STM32F4xx_StdPeriph_Driver/src/stm32f4xx_dcmi.c ****   *            @arg DCMI_IT_LINE: Line interrupt mask
 366:Libraries/STM32F4xx_StdPeriph_Driver/src/stm32f4xx_dcmi.c ****   * @param  NewState: new state of the specified DCMI interrupts.
 367:Libraries/STM32F4xx_StdPeriph_Driver/src/stm32f4xx_dcmi.c ****   *          This parameter can be: ENABLE or DISABLE.
 368:Libraries/STM32F4xx_StdPeriph_Driver/src/stm32f4xx_dcmi.c ****   * @retval None
ARM GAS  /tmp/ccyYSkJU.s 			page 16


 369:Libraries/STM32F4xx_StdPeriph_Driver/src/stm32f4xx_dcmi.c ****   */
 370:Libraries/STM32F4xx_StdPeriph_Driver/src/stm32f4xx_dcmi.c **** void DCMI_ITConfig(uint16_t DCMI_IT, FunctionalState NewState)
 371:Libraries/STM32F4xx_StdPeriph_Driver/src/stm32f4xx_dcmi.c **** {
 498              		.loc 1 371 1 is_stmt 1 view -0
 499              		.cfi_startproc
 500              		@ args = 0, pretend = 0, frame = 0
 501              		@ frame_needed = 0, uses_anonymous_args = 0
 502              		@ link register save eliminated.
 372:Libraries/STM32F4xx_StdPeriph_Driver/src/stm32f4xx_dcmi.c ****   /* Check the parameters */
 373:Libraries/STM32F4xx_StdPeriph_Driver/src/stm32f4xx_dcmi.c ****   assert_param(IS_DCMI_CONFIG_IT(DCMI_IT));
 503              		.loc 1 373 3 view .LVU127
 374:Libraries/STM32F4xx_StdPeriph_Driver/src/stm32f4xx_dcmi.c ****   assert_param(IS_FUNCTIONAL_STATE(NewState));
 504              		.loc 1 374 3 view .LVU128
 375:Libraries/STM32F4xx_StdPeriph_Driver/src/stm32f4xx_dcmi.c ****   
 376:Libraries/STM32F4xx_StdPeriph_Driver/src/stm32f4xx_dcmi.c ****   if (NewState != DISABLE)
 505              		.loc 1 376 3 view .LVU129
 506              		.loc 1 376 6 is_stmt 0 view .LVU130
 507 0000 21B1     		cbz	r1, .L39
 377:Libraries/STM32F4xx_StdPeriph_Driver/src/stm32f4xx_dcmi.c ****   {
 378:Libraries/STM32F4xx_StdPeriph_Driver/src/stm32f4xx_dcmi.c ****     /* Enable the Interrupt sources */
 379:Libraries/STM32F4xx_StdPeriph_Driver/src/stm32f4xx_dcmi.c ****     DCMI->IER |= DCMI_IT;
 508              		.loc 1 379 5 is_stmt 1 view .LVU131
 509              		.loc 1 379 15 is_stmt 0 view .LVU132
 510 0002 064B     		ldr	r3, .L41
 511 0004 DA68     		ldr	r2, [r3, #12]
 512 0006 1043     		orrs	r0, r0, r2
 513              	.LVL15:
 514              		.loc 1 379 15 view .LVU133
 515 0008 D860     		str	r0, [r3, #12]
 516 000a 7047     		bx	lr
 517              	.LVL16:
 518              	.L39:
 380:Libraries/STM32F4xx_StdPeriph_Driver/src/stm32f4xx_dcmi.c ****   }
 381:Libraries/STM32F4xx_StdPeriph_Driver/src/stm32f4xx_dcmi.c ****   else
 382:Libraries/STM32F4xx_StdPeriph_Driver/src/stm32f4xx_dcmi.c ****   {
 383:Libraries/STM32F4xx_StdPeriph_Driver/src/stm32f4xx_dcmi.c ****     /* Disable the Interrupt sources */
 384:Libraries/STM32F4xx_StdPeriph_Driver/src/stm32f4xx_dcmi.c ****     DCMI->IER &= (uint16_t)(~DCMI_IT);
 519              		.loc 1 384 5 is_stmt 1 view .LVU134
 520              		.loc 1 384 15 is_stmt 0 view .LVU135
 521 000c 034A     		ldr	r2, .L41
 522 000e D368     		ldr	r3, [r2, #12]
 523              		.loc 1 384 18 view .LVU136
 524 0010 C043     		mvns	r0, r0
 525              	.LVL17:
 526              		.loc 1 384 18 view .LVU137
 527 0012 80B2     		uxth	r0, r0
 528              		.loc 1 384 15 view .LVU138
 529 0014 1840     		ands	r0, r0, r3
 530 0016 D060     		str	r0, [r2, #12]
 385:Libraries/STM32F4xx_StdPeriph_Driver/src/stm32f4xx_dcmi.c ****   }  
 386:Libraries/STM32F4xx_StdPeriph_Driver/src/stm32f4xx_dcmi.c **** }
 531              		.loc 1 386 1 view .LVU139
 532 0018 7047     		bx	lr
 533              	.L42:
 534 001a 00BF     		.align	2
 535              	.L41:
 536 001c 00000550 		.word	1342504960
ARM GAS  /tmp/ccyYSkJU.s 			page 17


 537              		.cfi_endproc
 538              	.LFE133:
 540              		.section	.text.DCMI_GetFlagStatus,"ax",%progbits
 541              		.align	1
 542              		.global	DCMI_GetFlagStatus
 543              		.syntax unified
 544              		.thumb
 545              		.thumb_func
 546              		.fpu fpv4-sp-d16
 548              	DCMI_GetFlagStatus:
 549              	.LVL18:
 550              	.LFB134:
 387:Libraries/STM32F4xx_StdPeriph_Driver/src/stm32f4xx_dcmi.c **** 
 388:Libraries/STM32F4xx_StdPeriph_Driver/src/stm32f4xx_dcmi.c **** /**
 389:Libraries/STM32F4xx_StdPeriph_Driver/src/stm32f4xx_dcmi.c ****   * @brief  Checks whether the  DCMI interface flag is set or not.
 390:Libraries/STM32F4xx_StdPeriph_Driver/src/stm32f4xx_dcmi.c ****   * @param  DCMI_FLAG: specifies the flag to check.
 391:Libraries/STM32F4xx_StdPeriph_Driver/src/stm32f4xx_dcmi.c ****   *          This parameter can be one of the following values:
 392:Libraries/STM32F4xx_StdPeriph_Driver/src/stm32f4xx_dcmi.c ****   *            @arg DCMI_FLAG_FRAMERI: Frame capture complete Raw flag mask
 393:Libraries/STM32F4xx_StdPeriph_Driver/src/stm32f4xx_dcmi.c ****   *            @arg DCMI_FLAG_OVFRI: Overflow Raw flag mask
 394:Libraries/STM32F4xx_StdPeriph_Driver/src/stm32f4xx_dcmi.c ****   *            @arg DCMI_FLAG_ERRRI: Synchronization error Raw flag mask
 395:Libraries/STM32F4xx_StdPeriph_Driver/src/stm32f4xx_dcmi.c ****   *            @arg DCMI_FLAG_VSYNCRI: VSYNC Raw flag mask
 396:Libraries/STM32F4xx_StdPeriph_Driver/src/stm32f4xx_dcmi.c ****   *            @arg DCMI_FLAG_LINERI: Line Raw flag mask
 397:Libraries/STM32F4xx_StdPeriph_Driver/src/stm32f4xx_dcmi.c ****   *            @arg DCMI_FLAG_FRAMEMI: Frame capture complete Masked flag mask
 398:Libraries/STM32F4xx_StdPeriph_Driver/src/stm32f4xx_dcmi.c ****   *            @arg DCMI_FLAG_OVFMI: Overflow Masked flag mask
 399:Libraries/STM32F4xx_StdPeriph_Driver/src/stm32f4xx_dcmi.c ****   *            @arg DCMI_FLAG_ERRMI: Synchronization error Masked flag mask
 400:Libraries/STM32F4xx_StdPeriph_Driver/src/stm32f4xx_dcmi.c ****   *            @arg DCMI_FLAG_VSYNCMI: VSYNC Masked flag mask
 401:Libraries/STM32F4xx_StdPeriph_Driver/src/stm32f4xx_dcmi.c ****   *            @arg DCMI_FLAG_LINEMI: Line Masked flag mask
 402:Libraries/STM32F4xx_StdPeriph_Driver/src/stm32f4xx_dcmi.c ****   *            @arg DCMI_FLAG_HSYNC: HSYNC flag mask
 403:Libraries/STM32F4xx_StdPeriph_Driver/src/stm32f4xx_dcmi.c ****   *            @arg DCMI_FLAG_VSYNC: VSYNC flag mask
 404:Libraries/STM32F4xx_StdPeriph_Driver/src/stm32f4xx_dcmi.c ****   *            @arg DCMI_FLAG_FNE: Fifo not empty flag mask
 405:Libraries/STM32F4xx_StdPeriph_Driver/src/stm32f4xx_dcmi.c ****   * @retval The new state of DCMI_FLAG (SET or RESET).
 406:Libraries/STM32F4xx_StdPeriph_Driver/src/stm32f4xx_dcmi.c ****   */
 407:Libraries/STM32F4xx_StdPeriph_Driver/src/stm32f4xx_dcmi.c **** FlagStatus DCMI_GetFlagStatus(uint16_t DCMI_FLAG)
 408:Libraries/STM32F4xx_StdPeriph_Driver/src/stm32f4xx_dcmi.c **** {
 551              		.loc 1 408 1 is_stmt 1 view -0
 552              		.cfi_startproc
 553              		@ args = 0, pretend = 0, frame = 0
 554              		@ frame_needed = 0, uses_anonymous_args = 0
 555              		@ link register save eliminated.
 409:Libraries/STM32F4xx_StdPeriph_Driver/src/stm32f4xx_dcmi.c ****   FlagStatus bitstatus = RESET;
 556              		.loc 1 409 3 view .LVU141
 410:Libraries/STM32F4xx_StdPeriph_Driver/src/stm32f4xx_dcmi.c ****   uint32_t dcmireg, tempreg = 0;
 557              		.loc 1 410 3 view .LVU142
 411:Libraries/STM32F4xx_StdPeriph_Driver/src/stm32f4xx_dcmi.c **** 
 412:Libraries/STM32F4xx_StdPeriph_Driver/src/stm32f4xx_dcmi.c ****   /* Check the parameters */
 413:Libraries/STM32F4xx_StdPeriph_Driver/src/stm32f4xx_dcmi.c ****   assert_param(IS_DCMI_GET_FLAG(DCMI_FLAG));
 558              		.loc 1 413 3 view .LVU143
 414:Libraries/STM32F4xx_StdPeriph_Driver/src/stm32f4xx_dcmi.c ****   
 415:Libraries/STM32F4xx_StdPeriph_Driver/src/stm32f4xx_dcmi.c ****   /* Get the DCMI register index */
 416:Libraries/STM32F4xx_StdPeriph_Driver/src/stm32f4xx_dcmi.c ****   dcmireg = (((uint16_t)DCMI_FLAG) >> 12);
 559              		.loc 1 416 3 view .LVU144
 417:Libraries/STM32F4xx_StdPeriph_Driver/src/stm32f4xx_dcmi.c ****   
 418:Libraries/STM32F4xx_StdPeriph_Driver/src/stm32f4xx_dcmi.c ****   if (dcmireg == 0x00) /* The FLAG is in RISR register */
 560              		.loc 1 418 3 view .LVU145
 561              		.loc 1 418 6 is_stmt 0 view .LVU146
 562 0000 030B     		lsrs	r3, r0, #12
 563              	.LVL19:
ARM GAS  /tmp/ccyYSkJU.s 			page 18


 564              		.loc 1 418 6 view .LVU147
 565 0002 05D1     		bne	.L44
 419:Libraries/STM32F4xx_StdPeriph_Driver/src/stm32f4xx_dcmi.c ****   {
 420:Libraries/STM32F4xx_StdPeriph_Driver/src/stm32f4xx_dcmi.c ****     tempreg= DCMI->RISR;
 566              		.loc 1 420 5 is_stmt 1 view .LVU148
 567              		.loc 1 420 12 is_stmt 0 view .LVU149
 568 0004 074B     		ldr	r3, .L50
 569              	.LVL20:
 570              		.loc 1 420 12 view .LVU150
 571 0006 9B68     		ldr	r3, [r3, #8]
 572              	.LVL21:
 573              	.L45:
 421:Libraries/STM32F4xx_StdPeriph_Driver/src/stm32f4xx_dcmi.c ****   }
 422:Libraries/STM32F4xx_StdPeriph_Driver/src/stm32f4xx_dcmi.c ****   else if (dcmireg == 0x02) /* The FLAG is in SR register */
 423:Libraries/STM32F4xx_StdPeriph_Driver/src/stm32f4xx_dcmi.c ****   {
 424:Libraries/STM32F4xx_StdPeriph_Driver/src/stm32f4xx_dcmi.c ****     tempreg = DCMI->SR;
 425:Libraries/STM32F4xx_StdPeriph_Driver/src/stm32f4xx_dcmi.c ****   }
 426:Libraries/STM32F4xx_StdPeriph_Driver/src/stm32f4xx_dcmi.c ****   else /* The FLAG is in MISR register */
 427:Libraries/STM32F4xx_StdPeriph_Driver/src/stm32f4xx_dcmi.c ****   {
 428:Libraries/STM32F4xx_StdPeriph_Driver/src/stm32f4xx_dcmi.c ****     tempreg = DCMI->MISR;
 429:Libraries/STM32F4xx_StdPeriph_Driver/src/stm32f4xx_dcmi.c ****   }
 430:Libraries/STM32F4xx_StdPeriph_Driver/src/stm32f4xx_dcmi.c ****   
 431:Libraries/STM32F4xx_StdPeriph_Driver/src/stm32f4xx_dcmi.c ****   if ((tempreg & DCMI_FLAG) != (uint16_t)RESET )
 574              		.loc 1 431 3 is_stmt 1 view .LVU151
 575              		.loc 1 431 6 is_stmt 0 view .LVU152
 576 0008 1842     		tst	r0, r3
 577 000a 09D0     		beq	.L48
 432:Libraries/STM32F4xx_StdPeriph_Driver/src/stm32f4xx_dcmi.c ****   {
 433:Libraries/STM32F4xx_StdPeriph_Driver/src/stm32f4xx_dcmi.c ****     bitstatus = SET;
 578              		.loc 1 433 15 view .LVU153
 579 000c 0120     		movs	r0, #1
 580              	.LVL22:
 581              		.loc 1 433 15 view .LVU154
 582 000e 7047     		bx	lr
 583              	.LVL23:
 584              	.L44:
 422:Libraries/STM32F4xx_StdPeriph_Driver/src/stm32f4xx_dcmi.c ****   {
 585              		.loc 1 422 8 is_stmt 1 view .LVU155
 422:Libraries/STM32F4xx_StdPeriph_Driver/src/stm32f4xx_dcmi.c ****   {
 586              		.loc 1 422 11 is_stmt 0 view .LVU156
 587 0010 022B     		cmp	r3, #2
 588 0012 02D0     		beq	.L49
 428:Libraries/STM32F4xx_StdPeriph_Driver/src/stm32f4xx_dcmi.c ****   }
 589              		.loc 1 428 5 is_stmt 1 view .LVU157
 428:Libraries/STM32F4xx_StdPeriph_Driver/src/stm32f4xx_dcmi.c ****   }
 590              		.loc 1 428 13 is_stmt 0 view .LVU158
 591 0014 034B     		ldr	r3, .L50
 592              	.LVL24:
 428:Libraries/STM32F4xx_StdPeriph_Driver/src/stm32f4xx_dcmi.c ****   }
 593              		.loc 1 428 13 view .LVU159
 594 0016 1B69     		ldr	r3, [r3, #16]
 595              	.LVL25:
 428:Libraries/STM32F4xx_StdPeriph_Driver/src/stm32f4xx_dcmi.c ****   }
 596              		.loc 1 428 13 view .LVU160
 597 0018 F6E7     		b	.L45
 598              	.LVL26:
 599              	.L49:
ARM GAS  /tmp/ccyYSkJU.s 			page 19


 424:Libraries/STM32F4xx_StdPeriph_Driver/src/stm32f4xx_dcmi.c ****   }
 600              		.loc 1 424 5 is_stmt 1 view .LVU161
 424:Libraries/STM32F4xx_StdPeriph_Driver/src/stm32f4xx_dcmi.c ****   }
 601              		.loc 1 424 13 is_stmt 0 view .LVU162
 602 001a 024B     		ldr	r3, .L50
 603              	.LVL27:
 424:Libraries/STM32F4xx_StdPeriph_Driver/src/stm32f4xx_dcmi.c ****   }
 604              		.loc 1 424 13 view .LVU163
 605 001c 5B68     		ldr	r3, [r3, #4]
 606              	.LVL28:
 424:Libraries/STM32F4xx_StdPeriph_Driver/src/stm32f4xx_dcmi.c ****   }
 607              		.loc 1 424 13 view .LVU164
 608 001e F3E7     		b	.L45
 609              	.L48:
 434:Libraries/STM32F4xx_StdPeriph_Driver/src/stm32f4xx_dcmi.c ****   }
 435:Libraries/STM32F4xx_StdPeriph_Driver/src/stm32f4xx_dcmi.c ****   else
 436:Libraries/STM32F4xx_StdPeriph_Driver/src/stm32f4xx_dcmi.c ****   {
 437:Libraries/STM32F4xx_StdPeriph_Driver/src/stm32f4xx_dcmi.c ****     bitstatus = RESET;
 610              		.loc 1 437 15 view .LVU165
 611 0020 0020     		movs	r0, #0
 612              	.LVL29:
 438:Libraries/STM32F4xx_StdPeriph_Driver/src/stm32f4xx_dcmi.c ****   }
 439:Libraries/STM32F4xx_StdPeriph_Driver/src/stm32f4xx_dcmi.c ****   /* Return the DCMI_FLAG status */
 440:Libraries/STM32F4xx_StdPeriph_Driver/src/stm32f4xx_dcmi.c ****   return  bitstatus;
 613              		.loc 1 440 3 is_stmt 1 view .LVU166
 441:Libraries/STM32F4xx_StdPeriph_Driver/src/stm32f4xx_dcmi.c **** }
 614              		.loc 1 441 1 is_stmt 0 view .LVU167
 615 0022 7047     		bx	lr
 616              	.L51:
 617              		.align	2
 618              	.L50:
 619 0024 00000550 		.word	1342504960
 620              		.cfi_endproc
 621              	.LFE134:
 623              		.section	.text.DCMI_ClearFlag,"ax",%progbits
 624              		.align	1
 625              		.global	DCMI_ClearFlag
 626              		.syntax unified
 627              		.thumb
 628              		.thumb_func
 629              		.fpu fpv4-sp-d16
 631              	DCMI_ClearFlag:
 632              	.LVL30:
 633              	.LFB135:
 442:Libraries/STM32F4xx_StdPeriph_Driver/src/stm32f4xx_dcmi.c **** 
 443:Libraries/STM32F4xx_StdPeriph_Driver/src/stm32f4xx_dcmi.c **** /**
 444:Libraries/STM32F4xx_StdPeriph_Driver/src/stm32f4xx_dcmi.c ****   * @brief  Clears the DCMI's pending flags.
 445:Libraries/STM32F4xx_StdPeriph_Driver/src/stm32f4xx_dcmi.c ****   * @param  DCMI_FLAG: specifies the flag to clear.
 446:Libraries/STM32F4xx_StdPeriph_Driver/src/stm32f4xx_dcmi.c ****   *          This parameter can be any combination of the following values:
 447:Libraries/STM32F4xx_StdPeriph_Driver/src/stm32f4xx_dcmi.c ****   *            @arg DCMI_FLAG_FRAMERI: Frame capture complete Raw flag mask
 448:Libraries/STM32F4xx_StdPeriph_Driver/src/stm32f4xx_dcmi.c ****   *            @arg DCMI_FLAG_OVFRI: Overflow Raw flag mask
 449:Libraries/STM32F4xx_StdPeriph_Driver/src/stm32f4xx_dcmi.c ****   *            @arg DCMI_FLAG_ERRRI: Synchronization error Raw flag mask
 450:Libraries/STM32F4xx_StdPeriph_Driver/src/stm32f4xx_dcmi.c ****   *            @arg DCMI_FLAG_VSYNCRI: VSYNC Raw flag mask
 451:Libraries/STM32F4xx_StdPeriph_Driver/src/stm32f4xx_dcmi.c ****   *            @arg DCMI_FLAG_LINERI: Line Raw flag mask
 452:Libraries/STM32F4xx_StdPeriph_Driver/src/stm32f4xx_dcmi.c ****   * @retval None
 453:Libraries/STM32F4xx_StdPeriph_Driver/src/stm32f4xx_dcmi.c ****   */
 454:Libraries/STM32F4xx_StdPeriph_Driver/src/stm32f4xx_dcmi.c **** void DCMI_ClearFlag(uint16_t DCMI_FLAG)
ARM GAS  /tmp/ccyYSkJU.s 			page 20


 455:Libraries/STM32F4xx_StdPeriph_Driver/src/stm32f4xx_dcmi.c **** {
 634              		.loc 1 455 1 is_stmt 1 view -0
 635              		.cfi_startproc
 636              		@ args = 0, pretend = 0, frame = 0
 637              		@ frame_needed = 0, uses_anonymous_args = 0
 638              		@ link register save eliminated.
 456:Libraries/STM32F4xx_StdPeriph_Driver/src/stm32f4xx_dcmi.c ****   /* Check the parameters */
 457:Libraries/STM32F4xx_StdPeriph_Driver/src/stm32f4xx_dcmi.c ****   assert_param(IS_DCMI_CLEAR_FLAG(DCMI_FLAG));
 639              		.loc 1 457 3 view .LVU169
 458:Libraries/STM32F4xx_StdPeriph_Driver/src/stm32f4xx_dcmi.c ****   
 459:Libraries/STM32F4xx_StdPeriph_Driver/src/stm32f4xx_dcmi.c ****   /* Clear the flag by writing in the ICR register 1 in the corresponding 
 460:Libraries/STM32F4xx_StdPeriph_Driver/src/stm32f4xx_dcmi.c ****   Flag position*/
 461:Libraries/STM32F4xx_StdPeriph_Driver/src/stm32f4xx_dcmi.c ****   
 462:Libraries/STM32F4xx_StdPeriph_Driver/src/stm32f4xx_dcmi.c ****   DCMI->ICR = DCMI_FLAG;
 640              		.loc 1 462 3 view .LVU170
 641              		.loc 1 462 13 is_stmt 0 view .LVU171
 642 0000 014B     		ldr	r3, .L53
 643 0002 5861     		str	r0, [r3, #20]
 463:Libraries/STM32F4xx_StdPeriph_Driver/src/stm32f4xx_dcmi.c **** }
 644              		.loc 1 463 1 view .LVU172
 645 0004 7047     		bx	lr
 646              	.L54:
 647 0006 00BF     		.align	2
 648              	.L53:
 649 0008 00000550 		.word	1342504960
 650              		.cfi_endproc
 651              	.LFE135:
 653              		.section	.text.DCMI_GetITStatus,"ax",%progbits
 654              		.align	1
 655              		.global	DCMI_GetITStatus
 656              		.syntax unified
 657              		.thumb
 658              		.thumb_func
 659              		.fpu fpv4-sp-d16
 661              	DCMI_GetITStatus:
 662              	.LVL31:
 663              	.LFB136:
 464:Libraries/STM32F4xx_StdPeriph_Driver/src/stm32f4xx_dcmi.c **** 
 465:Libraries/STM32F4xx_StdPeriph_Driver/src/stm32f4xx_dcmi.c **** /**
 466:Libraries/STM32F4xx_StdPeriph_Driver/src/stm32f4xx_dcmi.c ****   * @brief  Checks whether the DCMI interrupt has occurred or not.
 467:Libraries/STM32F4xx_StdPeriph_Driver/src/stm32f4xx_dcmi.c ****   * @param  DCMI_IT: specifies the DCMI interrupt source to check.
 468:Libraries/STM32F4xx_StdPeriph_Driver/src/stm32f4xx_dcmi.c ****   *          This parameter can be one of the following values:
 469:Libraries/STM32F4xx_StdPeriph_Driver/src/stm32f4xx_dcmi.c ****   *            @arg DCMI_IT_FRAME: Frame capture complete interrupt mask
 470:Libraries/STM32F4xx_StdPeriph_Driver/src/stm32f4xx_dcmi.c ****   *            @arg DCMI_IT_OVF: Overflow interrupt mask
 471:Libraries/STM32F4xx_StdPeriph_Driver/src/stm32f4xx_dcmi.c ****   *            @arg DCMI_IT_ERR: Synchronization error interrupt mask
 472:Libraries/STM32F4xx_StdPeriph_Driver/src/stm32f4xx_dcmi.c ****   *            @arg DCMI_IT_VSYNC: VSYNC interrupt mask
 473:Libraries/STM32F4xx_StdPeriph_Driver/src/stm32f4xx_dcmi.c ****   *            @arg DCMI_IT_LINE: Line interrupt mask
 474:Libraries/STM32F4xx_StdPeriph_Driver/src/stm32f4xx_dcmi.c ****   * @retval The new state of DCMI_IT (SET or RESET).
 475:Libraries/STM32F4xx_StdPeriph_Driver/src/stm32f4xx_dcmi.c ****   */
 476:Libraries/STM32F4xx_StdPeriph_Driver/src/stm32f4xx_dcmi.c **** ITStatus DCMI_GetITStatus(uint16_t DCMI_IT)
 477:Libraries/STM32F4xx_StdPeriph_Driver/src/stm32f4xx_dcmi.c **** {
 664              		.loc 1 477 1 is_stmt 1 view -0
 665              		.cfi_startproc
 666              		@ args = 0, pretend = 0, frame = 0
 667              		@ frame_needed = 0, uses_anonymous_args = 0
 668              		@ link register save eliminated.
 478:Libraries/STM32F4xx_StdPeriph_Driver/src/stm32f4xx_dcmi.c ****   ITStatus bitstatus = RESET;
ARM GAS  /tmp/ccyYSkJU.s 			page 21


 669              		.loc 1 478 3 view .LVU174
 479:Libraries/STM32F4xx_StdPeriph_Driver/src/stm32f4xx_dcmi.c ****   uint32_t itstatus = 0;
 670              		.loc 1 479 3 view .LVU175
 480:Libraries/STM32F4xx_StdPeriph_Driver/src/stm32f4xx_dcmi.c ****   
 481:Libraries/STM32F4xx_StdPeriph_Driver/src/stm32f4xx_dcmi.c ****   /* Check the parameters */
 482:Libraries/STM32F4xx_StdPeriph_Driver/src/stm32f4xx_dcmi.c ****   assert_param(IS_DCMI_GET_IT(DCMI_IT));
 671              		.loc 1 482 3 view .LVU176
 483:Libraries/STM32F4xx_StdPeriph_Driver/src/stm32f4xx_dcmi.c ****   
 484:Libraries/STM32F4xx_StdPeriph_Driver/src/stm32f4xx_dcmi.c ****   itstatus = DCMI->MISR & DCMI_IT; /* Only masked interrupts are checked */
 672              		.loc 1 484 3 view .LVU177
 673              		.loc 1 484 18 is_stmt 0 view .LVU178
 674 0000 034B     		ldr	r3, .L58
 675 0002 1B69     		ldr	r3, [r3, #16]
 676              	.LVL32:
 485:Libraries/STM32F4xx_StdPeriph_Driver/src/stm32f4xx_dcmi.c ****   
 486:Libraries/STM32F4xx_StdPeriph_Driver/src/stm32f4xx_dcmi.c ****   if ((itstatus != (uint16_t)RESET))
 677              		.loc 1 486 3 is_stmt 1 view .LVU179
 678              		.loc 1 486 6 is_stmt 0 view .LVU180
 679 0004 0342     		tst	r3, r0
 680 0006 01D0     		beq	.L57
 487:Libraries/STM32F4xx_StdPeriph_Driver/src/stm32f4xx_dcmi.c ****   {
 488:Libraries/STM32F4xx_StdPeriph_Driver/src/stm32f4xx_dcmi.c ****     bitstatus = SET;
 681              		.loc 1 488 15 view .LVU181
 682 0008 0120     		movs	r0, #1
 683              	.LVL33:
 684              		.loc 1 488 15 view .LVU182
 685 000a 7047     		bx	lr
 686              	.LVL34:
 687              	.L57:
 489:Libraries/STM32F4xx_StdPeriph_Driver/src/stm32f4xx_dcmi.c ****   }
 490:Libraries/STM32F4xx_StdPeriph_Driver/src/stm32f4xx_dcmi.c ****   else
 491:Libraries/STM32F4xx_StdPeriph_Driver/src/stm32f4xx_dcmi.c ****   {
 492:Libraries/STM32F4xx_StdPeriph_Driver/src/stm32f4xx_dcmi.c ****     bitstatus = RESET;
 688              		.loc 1 492 15 view .LVU183
 689 000c 0020     		movs	r0, #0
 690              	.LVL35:
 493:Libraries/STM32F4xx_StdPeriph_Driver/src/stm32f4xx_dcmi.c ****   }
 494:Libraries/STM32F4xx_StdPeriph_Driver/src/stm32f4xx_dcmi.c ****   return bitstatus;
 691              		.loc 1 494 3 is_stmt 1 view .LVU184
 495:Libraries/STM32F4xx_StdPeriph_Driver/src/stm32f4xx_dcmi.c **** }
 692              		.loc 1 495 1 is_stmt 0 view .LVU185
 693 000e 7047     		bx	lr
 694              	.L59:
 695              		.align	2
 696              	.L58:
 697 0010 00000550 		.word	1342504960
 698              		.cfi_endproc
 699              	.LFE136:
 701              		.section	.text.DCMI_ClearITPendingBit,"ax",%progbits
 702              		.align	1
 703              		.global	DCMI_ClearITPendingBit
 704              		.syntax unified
 705              		.thumb
 706              		.thumb_func
 707              		.fpu fpv4-sp-d16
 709              	DCMI_ClearITPendingBit:
 710              	.LVL36:
ARM GAS  /tmp/ccyYSkJU.s 			page 22


 711              	.LFB137:
 496:Libraries/STM32F4xx_StdPeriph_Driver/src/stm32f4xx_dcmi.c **** 
 497:Libraries/STM32F4xx_StdPeriph_Driver/src/stm32f4xx_dcmi.c **** /**
 498:Libraries/STM32F4xx_StdPeriph_Driver/src/stm32f4xx_dcmi.c ****   * @brief  Clears the DCMI's interrupt pending bits.
 499:Libraries/STM32F4xx_StdPeriph_Driver/src/stm32f4xx_dcmi.c ****   * @param  DCMI_IT: specifies the DCMI interrupt pending bit to clear.
 500:Libraries/STM32F4xx_StdPeriph_Driver/src/stm32f4xx_dcmi.c ****   *          This parameter can be any combination of the following values:
 501:Libraries/STM32F4xx_StdPeriph_Driver/src/stm32f4xx_dcmi.c ****   *            @arg DCMI_IT_FRAME: Frame capture complete interrupt mask
 502:Libraries/STM32F4xx_StdPeriph_Driver/src/stm32f4xx_dcmi.c ****   *            @arg DCMI_IT_OVF: Overflow interrupt mask
 503:Libraries/STM32F4xx_StdPeriph_Driver/src/stm32f4xx_dcmi.c ****   *            @arg DCMI_IT_ERR: Synchronization error interrupt mask
 504:Libraries/STM32F4xx_StdPeriph_Driver/src/stm32f4xx_dcmi.c ****   *            @arg DCMI_IT_VSYNC: VSYNC interrupt mask
 505:Libraries/STM32F4xx_StdPeriph_Driver/src/stm32f4xx_dcmi.c ****   *            @arg DCMI_IT_LINE: Line interrupt mask
 506:Libraries/STM32F4xx_StdPeriph_Driver/src/stm32f4xx_dcmi.c ****   * @retval None
 507:Libraries/STM32F4xx_StdPeriph_Driver/src/stm32f4xx_dcmi.c ****   */
 508:Libraries/STM32F4xx_StdPeriph_Driver/src/stm32f4xx_dcmi.c **** void DCMI_ClearITPendingBit(uint16_t DCMI_IT)
 509:Libraries/STM32F4xx_StdPeriph_Driver/src/stm32f4xx_dcmi.c **** {
 712              		.loc 1 509 1 is_stmt 1 view -0
 713              		.cfi_startproc
 714              		@ args = 0, pretend = 0, frame = 0
 715              		@ frame_needed = 0, uses_anonymous_args = 0
 716              		@ link register save eliminated.
 510:Libraries/STM32F4xx_StdPeriph_Driver/src/stm32f4xx_dcmi.c ****   /* Clear the interrupt pending Bit by writing in the ICR register 1 in the 
 511:Libraries/STM32F4xx_StdPeriph_Driver/src/stm32f4xx_dcmi.c ****   corresponding pending Bit position*/
 512:Libraries/STM32F4xx_StdPeriph_Driver/src/stm32f4xx_dcmi.c ****   
 513:Libraries/STM32F4xx_StdPeriph_Driver/src/stm32f4xx_dcmi.c ****   DCMI->ICR = DCMI_IT;
 717              		.loc 1 513 3 view .LVU187
 718              		.loc 1 513 13 is_stmt 0 view .LVU188
 719 0000 014B     		ldr	r3, .L61
 720 0002 5861     		str	r0, [r3, #20]
 514:Libraries/STM32F4xx_StdPeriph_Driver/src/stm32f4xx_dcmi.c **** }
 721              		.loc 1 514 1 view .LVU189
 722 0004 7047     		bx	lr
 723              	.L62:
 724 0006 00BF     		.align	2
 725              	.L61:
 726 0008 00000550 		.word	1342504960
 727              		.cfi_endproc
 728              	.LFE137:
 730              		.text
 731              	.Letext0:
 732              		.file 2 "/home/ktkuri/arm-gcc-tools/arm-none-eabi/include/machine/_default_types.h"
 733              		.file 3 "/home/ktkuri/arm-gcc-tools/arm-none-eabi/include/sys/_stdint.h"
 734              		.file 4 "Libraries/CMSIS/Device/ST/STM32F4xx/Include/stm32f4xx.h"
 735              		.file 5 "Libraries/STM32F4xx_StdPeriph_Driver/inc/stm32f4xx_dcmi.h"
ARM GAS  /tmp/ccyYSkJU.s 			page 23


DEFINED SYMBOLS
                            *ABS*:0000000000000000 stm32f4xx_dcmi.c
     /tmp/ccyYSkJU.s:18     .text.DCMI_DeInit:0000000000000000 $t
     /tmp/ccyYSkJU.s:26     .text.DCMI_DeInit:0000000000000000 DCMI_DeInit
     /tmp/ccyYSkJU.s:63     .text.DCMI_DeInit:0000000000000018 $d
     /tmp/ccyYSkJU.s:68     .text.DCMI_Init:0000000000000000 $t
     /tmp/ccyYSkJU.s:75     .text.DCMI_Init:0000000000000000 DCMI_Init
     /tmp/ccyYSkJU.s:153    .text.DCMI_Init:0000000000000044 $d
     /tmp/ccyYSkJU.s:158    .text.DCMI_StructInit:0000000000000000 $t
     /tmp/ccyYSkJU.s:165    .text.DCMI_StructInit:0000000000000000 DCMI_StructInit
     /tmp/ccyYSkJU.s:201    .text.DCMI_CROPConfig:0000000000000000 $t
     /tmp/ccyYSkJU.s:208    .text.DCMI_CROPConfig:0000000000000000 DCMI_CROPConfig
     /tmp/ccyYSkJU.s:240    .text.DCMI_CROPConfig:0000000000000018 $d
     /tmp/ccyYSkJU.s:245    .text.DCMI_CROPCmd:0000000000000000 $t
     /tmp/ccyYSkJU.s:252    .text.DCMI_CROPCmd:0000000000000000 DCMI_CROPCmd
     /tmp/ccyYSkJU.s:283    .text.DCMI_CROPCmd:000000000000001c $d
     /tmp/ccyYSkJU.s:288    .text.DCMI_SetEmbeddedSynchroCodes:0000000000000000 $t
     /tmp/ccyYSkJU.s:295    .text.DCMI_SetEmbeddedSynchroCodes:0000000000000000 DCMI_SetEmbeddedSynchroCodes
     /tmp/ccyYSkJU.s:326    .text.DCMI_SetEmbeddedSynchroCodes:000000000000001c $d
     /tmp/ccyYSkJU.s:331    .text.DCMI_JPEGCmd:0000000000000000 $t
     /tmp/ccyYSkJU.s:338    .text.DCMI_JPEGCmd:0000000000000000 DCMI_JPEGCmd
     /tmp/ccyYSkJU.s:369    .text.DCMI_JPEGCmd:000000000000001c $d
     /tmp/ccyYSkJU.s:374    .text.DCMI_Cmd:0000000000000000 $t
     /tmp/ccyYSkJU.s:381    .text.DCMI_Cmd:0000000000000000 DCMI_Cmd
     /tmp/ccyYSkJU.s:412    .text.DCMI_Cmd:000000000000001c $d
     /tmp/ccyYSkJU.s:417    .text.DCMI_CaptureCmd:0000000000000000 $t
     /tmp/ccyYSkJU.s:424    .text.DCMI_CaptureCmd:0000000000000000 DCMI_CaptureCmd
     /tmp/ccyYSkJU.s:455    .text.DCMI_CaptureCmd:000000000000001c $d
     /tmp/ccyYSkJU.s:460    .text.DCMI_ReadData:0000000000000000 $t
     /tmp/ccyYSkJU.s:467    .text.DCMI_ReadData:0000000000000000 DCMI_ReadData
     /tmp/ccyYSkJU.s:483    .text.DCMI_ReadData:0000000000000008 $d
     /tmp/ccyYSkJU.s:488    .text.DCMI_ITConfig:0000000000000000 $t
     /tmp/ccyYSkJU.s:495    .text.DCMI_ITConfig:0000000000000000 DCMI_ITConfig
     /tmp/ccyYSkJU.s:536    .text.DCMI_ITConfig:000000000000001c $d
     /tmp/ccyYSkJU.s:541    .text.DCMI_GetFlagStatus:0000000000000000 $t
     /tmp/ccyYSkJU.s:548    .text.DCMI_GetFlagStatus:0000000000000000 DCMI_GetFlagStatus
     /tmp/ccyYSkJU.s:619    .text.DCMI_GetFlagStatus:0000000000000024 $d
     /tmp/ccyYSkJU.s:624    .text.DCMI_ClearFlag:0000000000000000 $t
     /tmp/ccyYSkJU.s:631    .text.DCMI_ClearFlag:0000000000000000 DCMI_ClearFlag
     /tmp/ccyYSkJU.s:649    .text.DCMI_ClearFlag:0000000000000008 $d
     /tmp/ccyYSkJU.s:654    .text.DCMI_GetITStatus:0000000000000000 $t
     /tmp/ccyYSkJU.s:661    .text.DCMI_GetITStatus:0000000000000000 DCMI_GetITStatus
     /tmp/ccyYSkJU.s:697    .text.DCMI_GetITStatus:0000000000000010 $d
     /tmp/ccyYSkJU.s:702    .text.DCMI_ClearITPendingBit:0000000000000000 $t
     /tmp/ccyYSkJU.s:709    .text.DCMI_ClearITPendingBit:0000000000000000 DCMI_ClearITPendingBit
     /tmp/ccyYSkJU.s:726    .text.DCMI_ClearITPendingBit:0000000000000008 $d

NO UNDEFINED SYMBOLS
