ARM GAS  /tmp/cclEJd3j.s 			page 1


   1              		.cpu cortex-m4
   2              		.eabi_attribute 27, 1
   3              		.eabi_attribute 28, 1
   4              		.eabi_attribute 20, 1
   5              		.eabi_attribute 21, 1
   6              		.eabi_attribute 23, 3
   7              		.eabi_attribute 24, 1
   8              		.eabi_attribute 25, 1
   9              		.eabi_attribute 26, 1
  10              		.eabi_attribute 30, 1
  11              		.eabi_attribute 34, 1
  12              		.eabi_attribute 18, 4
  13              		.file	"stm32f4xx_i2c.c"
  14              		.text
  15              	.Ltext0:
  16              		.cfi_sections	.debug_frame
  17              		.section	.text.I2C_DeInit,"ax",%progbits
  18              		.align	1
  19              		.global	I2C_DeInit
  20              		.arch armv7e-m
  21              		.syntax unified
  22              		.thumb
  23              		.thumb_func
  24              		.fpu fpv4-sp-d16
  26              	I2C_DeInit:
  27              	.LVL0:
  28              	.LFB123:
  29              		.file 1 "Libraries/STM32F4xx_StdPeriph_Driver/src/stm32f4xx_i2c.c"
   1:Libraries/STM32F4xx_StdPeriph_Driver/src/stm32f4xx_i2c.c **** /**
   2:Libraries/STM32F4xx_StdPeriph_Driver/src/stm32f4xx_i2c.c ****   ******************************************************************************
   3:Libraries/STM32F4xx_StdPeriph_Driver/src/stm32f4xx_i2c.c ****   * @file    stm32f4xx_i2c.c
   4:Libraries/STM32F4xx_StdPeriph_Driver/src/stm32f4xx_i2c.c ****   * @author  MCD Application Team
   5:Libraries/STM32F4xx_StdPeriph_Driver/src/stm32f4xx_i2c.c ****   * @version V1.8.1
   6:Libraries/STM32F4xx_StdPeriph_Driver/src/stm32f4xx_i2c.c ****   * @date    27-January-2022
   7:Libraries/STM32F4xx_StdPeriph_Driver/src/stm32f4xx_i2c.c ****   * @brief   This file provides firmware functions to manage the following 
   8:Libraries/STM32F4xx_StdPeriph_Driver/src/stm32f4xx_i2c.c ****   *          functionalities of the Inter-integrated circuit (I2C)
   9:Libraries/STM32F4xx_StdPeriph_Driver/src/stm32f4xx_i2c.c ****   *           + Initialization and Configuration
  10:Libraries/STM32F4xx_StdPeriph_Driver/src/stm32f4xx_i2c.c ****   *           + Data transfers
  11:Libraries/STM32F4xx_StdPeriph_Driver/src/stm32f4xx_i2c.c ****   *           + PEC management
  12:Libraries/STM32F4xx_StdPeriph_Driver/src/stm32f4xx_i2c.c ****   *           + DMA transfers management
  13:Libraries/STM32F4xx_StdPeriph_Driver/src/stm32f4xx_i2c.c ****   *           + Interrupts, events and flags management 
  14:Libraries/STM32F4xx_StdPeriph_Driver/src/stm32f4xx_i2c.c ****   *           
  15:Libraries/STM32F4xx_StdPeriph_Driver/src/stm32f4xx_i2c.c ****     @verbatim    
  16:Libraries/STM32F4xx_StdPeriph_Driver/src/stm32f4xx_i2c.c ****  ===============================================================================
  17:Libraries/STM32F4xx_StdPeriph_Driver/src/stm32f4xx_i2c.c ****                     ##### How to use this driver #####
  18:Libraries/STM32F4xx_StdPeriph_Driver/src/stm32f4xx_i2c.c ****  ===============================================================================
  19:Libraries/STM32F4xx_StdPeriph_Driver/src/stm32f4xx_i2c.c ****     [..]
  20:Libraries/STM32F4xx_StdPeriph_Driver/src/stm32f4xx_i2c.c ****       (#) Enable peripheral clock using RCC_APB1PeriphClockCmd(RCC_APB1Periph_I2Cx, ENABLE)
  21:Libraries/STM32F4xx_StdPeriph_Driver/src/stm32f4xx_i2c.c ****           function for I2C1, I2C2 or I2C3.
  22:Libraries/STM32F4xx_StdPeriph_Driver/src/stm32f4xx_i2c.c ****   
  23:Libraries/STM32F4xx_StdPeriph_Driver/src/stm32f4xx_i2c.c ****       (#) Enable SDA, SCL  and SMBA (when used) GPIO clocks using 
  24:Libraries/STM32F4xx_StdPeriph_Driver/src/stm32f4xx_i2c.c ****           RCC_AHBPeriphClockCmd() function. 
  25:Libraries/STM32F4xx_StdPeriph_Driver/src/stm32f4xx_i2c.c ****   
  26:Libraries/STM32F4xx_StdPeriph_Driver/src/stm32f4xx_i2c.c ****       (#) Peripherals alternate function: 
  27:Libraries/STM32F4xx_StdPeriph_Driver/src/stm32f4xx_i2c.c ****         (++) Connect the pin to the desired peripherals' Alternate 
  28:Libraries/STM32F4xx_StdPeriph_Driver/src/stm32f4xx_i2c.c ****              Function (AF) using GPIO_PinAFConfig() function
  29:Libraries/STM32F4xx_StdPeriph_Driver/src/stm32f4xx_i2c.c ****         (++) Configure the desired pin in alternate function by:
ARM GAS  /tmp/cclEJd3j.s 			page 2


  30:Libraries/STM32F4xx_StdPeriph_Driver/src/stm32f4xx_i2c.c ****              GPIO_InitStruct->GPIO_Mode = GPIO_Mode_AF
  31:Libraries/STM32F4xx_StdPeriph_Driver/src/stm32f4xx_i2c.c ****         (++) Select the type, pull-up/pull-down and output speed via 
  32:Libraries/STM32F4xx_StdPeriph_Driver/src/stm32f4xx_i2c.c ****              GPIO_PuPd, GPIO_OType and GPIO_Speed members
  33:Libraries/STM32F4xx_StdPeriph_Driver/src/stm32f4xx_i2c.c ****         (++) Call GPIO_Init() function
  34:Libraries/STM32F4xx_StdPeriph_Driver/src/stm32f4xx_i2c.c ****              Recommended configuration is Push-Pull, Pull-up, Open-Drain.
  35:Libraries/STM32F4xx_StdPeriph_Driver/src/stm32f4xx_i2c.c ****              Add an external pull up if necessary (typically 4.7 KOhm).      
  36:Libraries/STM32F4xx_StdPeriph_Driver/src/stm32f4xx_i2c.c ****           
  37:Libraries/STM32F4xx_StdPeriph_Driver/src/stm32f4xx_i2c.c ****       (#) Program the Mode, duty cycle , Own address, Ack, Speed and Acknowledged
  38:Libraries/STM32F4xx_StdPeriph_Driver/src/stm32f4xx_i2c.c ****           Address using the I2C_Init() function.
  39:Libraries/STM32F4xx_StdPeriph_Driver/src/stm32f4xx_i2c.c ****   
  40:Libraries/STM32F4xx_StdPeriph_Driver/src/stm32f4xx_i2c.c ****       (#) Optionally you can enable/configure the following parameters without
  41:Libraries/STM32F4xx_StdPeriph_Driver/src/stm32f4xx_i2c.c ****           re-initialization (i.e there is no need to call again I2C_Init() function):
  42:Libraries/STM32F4xx_StdPeriph_Driver/src/stm32f4xx_i2c.c ****         (++) Enable the acknowledge feature using I2C_AcknowledgeConfig() function
  43:Libraries/STM32F4xx_StdPeriph_Driver/src/stm32f4xx_i2c.c ****         (++) Enable the dual addressing mode using I2C_DualAddressCmd() function
  44:Libraries/STM32F4xx_StdPeriph_Driver/src/stm32f4xx_i2c.c ****         (++) Enable the general call using the I2C_GeneralCallCmd() function
  45:Libraries/STM32F4xx_StdPeriph_Driver/src/stm32f4xx_i2c.c ****         (++) Enable the clock stretching using I2C_StretchClockCmd() function
  46:Libraries/STM32F4xx_StdPeriph_Driver/src/stm32f4xx_i2c.c ****         (++) Enable the fast mode duty cycle using the I2C_FastModeDutyCycleConfig()
  47:Libraries/STM32F4xx_StdPeriph_Driver/src/stm32f4xx_i2c.c ****              function.
  48:Libraries/STM32F4xx_StdPeriph_Driver/src/stm32f4xx_i2c.c ****         (++) Configure the NACK position for Master Receiver mode in case of 
  49:Libraries/STM32F4xx_StdPeriph_Driver/src/stm32f4xx_i2c.c ****              2 bytes reception using the function I2C_NACKPositionConfig().  
  50:Libraries/STM32F4xx_StdPeriph_Driver/src/stm32f4xx_i2c.c ****         (++) Enable the PEC Calculation using I2C_CalculatePEC() function
  51:Libraries/STM32F4xx_StdPeriph_Driver/src/stm32f4xx_i2c.c ****         (++) For SMBus Mode: 
  52:Libraries/STM32F4xx_StdPeriph_Driver/src/stm32f4xx_i2c.c ****           (+++) Enable the Address Resolution Protocol (ARP) using I2C_ARPCmd() function
  53:Libraries/STM32F4xx_StdPeriph_Driver/src/stm32f4xx_i2c.c ****           (+++) Configure the SMBusAlert pin using I2C_SMBusAlertConfig() function
  54:Libraries/STM32F4xx_StdPeriph_Driver/src/stm32f4xx_i2c.c ****   
  55:Libraries/STM32F4xx_StdPeriph_Driver/src/stm32f4xx_i2c.c ****       (#) Enable the NVIC and the corresponding interrupt using the function 
  56:Libraries/STM32F4xx_StdPeriph_Driver/src/stm32f4xx_i2c.c ****           I2C_ITConfig() if you need to use interrupt mode. 
  57:Libraries/STM32F4xx_StdPeriph_Driver/src/stm32f4xx_i2c.c ****   
  58:Libraries/STM32F4xx_StdPeriph_Driver/src/stm32f4xx_i2c.c ****       (#) When using the DMA mode 
  59:Libraries/STM32F4xx_StdPeriph_Driver/src/stm32f4xx_i2c.c ****         (++) Configure the DMA using DMA_Init() function
  60:Libraries/STM32F4xx_StdPeriph_Driver/src/stm32f4xx_i2c.c ****         (++) Active the needed channel Request using I2C_DMACmd() or
  61:Libraries/STM32F4xx_StdPeriph_Driver/src/stm32f4xx_i2c.c ****              I2C_DMALastTransferCmd() function.
  62:Libraries/STM32F4xx_StdPeriph_Driver/src/stm32f4xx_i2c.c ****         -@@- When using DMA mode, I2C interrupts may be used at the same time to
  63:Libraries/STM32F4xx_StdPeriph_Driver/src/stm32f4xx_i2c.c ****              control the communication flow (Start/Stop/Ack... events and errors).
  64:Libraries/STM32F4xx_StdPeriph_Driver/src/stm32f4xx_i2c.c ****    
  65:Libraries/STM32F4xx_StdPeriph_Driver/src/stm32f4xx_i2c.c ****       (#) Enable the I2C using the I2C_Cmd() function.
  66:Libraries/STM32F4xx_StdPeriph_Driver/src/stm32f4xx_i2c.c ****    
  67:Libraries/STM32F4xx_StdPeriph_Driver/src/stm32f4xx_i2c.c ****       (#) Enable the DMA using the DMA_Cmd() function when using DMA mode in the 
  68:Libraries/STM32F4xx_StdPeriph_Driver/src/stm32f4xx_i2c.c ****           transfers. 
  69:Libraries/STM32F4xx_StdPeriph_Driver/src/stm32f4xx_i2c.c ****   
  70:Libraries/STM32F4xx_StdPeriph_Driver/src/stm32f4xx_i2c.c ****     @endverbatim  
  71:Libraries/STM32F4xx_StdPeriph_Driver/src/stm32f4xx_i2c.c ****   ******************************************************************************
  72:Libraries/STM32F4xx_StdPeriph_Driver/src/stm32f4xx_i2c.c ****   * @attention
  73:Libraries/STM32F4xx_StdPeriph_Driver/src/stm32f4xx_i2c.c ****   *
  74:Libraries/STM32F4xx_StdPeriph_Driver/src/stm32f4xx_i2c.c ****   * Copyright (c) 2016 STMicroelectronics.
  75:Libraries/STM32F4xx_StdPeriph_Driver/src/stm32f4xx_i2c.c ****   * All rights reserved.
  76:Libraries/STM32F4xx_StdPeriph_Driver/src/stm32f4xx_i2c.c ****   *
  77:Libraries/STM32F4xx_StdPeriph_Driver/src/stm32f4xx_i2c.c ****   * This software is licensed under terms that can be found in the LICENSE file
  78:Libraries/STM32F4xx_StdPeriph_Driver/src/stm32f4xx_i2c.c ****   * in the root directory of this software component.
  79:Libraries/STM32F4xx_StdPeriph_Driver/src/stm32f4xx_i2c.c ****   * If no LICENSE file comes with this software, it is provided AS-IS.
  80:Libraries/STM32F4xx_StdPeriph_Driver/src/stm32f4xx_i2c.c ****   *
  81:Libraries/STM32F4xx_StdPeriph_Driver/src/stm32f4xx_i2c.c ****   ******************************************************************************
  82:Libraries/STM32F4xx_StdPeriph_Driver/src/stm32f4xx_i2c.c ****   */
  83:Libraries/STM32F4xx_StdPeriph_Driver/src/stm32f4xx_i2c.c **** 
  84:Libraries/STM32F4xx_StdPeriph_Driver/src/stm32f4xx_i2c.c **** /* Includes ------------------------------------------------------------------*/
  85:Libraries/STM32F4xx_StdPeriph_Driver/src/stm32f4xx_i2c.c **** #include "stm32f4xx_i2c.h"
  86:Libraries/STM32F4xx_StdPeriph_Driver/src/stm32f4xx_i2c.c **** #include "stm32f4xx_rcc.h"
ARM GAS  /tmp/cclEJd3j.s 			page 3


  87:Libraries/STM32F4xx_StdPeriph_Driver/src/stm32f4xx_i2c.c **** 
  88:Libraries/STM32F4xx_StdPeriph_Driver/src/stm32f4xx_i2c.c **** /** @addtogroup STM32F4xx_StdPeriph_Driver
  89:Libraries/STM32F4xx_StdPeriph_Driver/src/stm32f4xx_i2c.c ****   * @{
  90:Libraries/STM32F4xx_StdPeriph_Driver/src/stm32f4xx_i2c.c ****   */
  91:Libraries/STM32F4xx_StdPeriph_Driver/src/stm32f4xx_i2c.c **** 
  92:Libraries/STM32F4xx_StdPeriph_Driver/src/stm32f4xx_i2c.c **** /** @defgroup I2C 
  93:Libraries/STM32F4xx_StdPeriph_Driver/src/stm32f4xx_i2c.c ****   * @brief I2C driver modules
  94:Libraries/STM32F4xx_StdPeriph_Driver/src/stm32f4xx_i2c.c ****   * @{
  95:Libraries/STM32F4xx_StdPeriph_Driver/src/stm32f4xx_i2c.c ****   */ 
  96:Libraries/STM32F4xx_StdPeriph_Driver/src/stm32f4xx_i2c.c **** 
  97:Libraries/STM32F4xx_StdPeriph_Driver/src/stm32f4xx_i2c.c **** /* Private typedef -----------------------------------------------------------*/
  98:Libraries/STM32F4xx_StdPeriph_Driver/src/stm32f4xx_i2c.c **** /* Private define ------------------------------------------------------------*/
  99:Libraries/STM32F4xx_StdPeriph_Driver/src/stm32f4xx_i2c.c **** 
 100:Libraries/STM32F4xx_StdPeriph_Driver/src/stm32f4xx_i2c.c **** #define CR1_CLEAR_MASK    ((uint16_t)0xFBF5)      /*<! I2C registers Masks */
 101:Libraries/STM32F4xx_StdPeriph_Driver/src/stm32f4xx_i2c.c **** #define FLAG_MASK         ((uint32_t)0x00FFFFFF)  /*<! I2C FLAG mask */
 102:Libraries/STM32F4xx_StdPeriph_Driver/src/stm32f4xx_i2c.c **** #define ITEN_MASK         ((uint32_t)0x07000000)  /*<! I2C Interrupt Enable mask */
 103:Libraries/STM32F4xx_StdPeriph_Driver/src/stm32f4xx_i2c.c **** 
 104:Libraries/STM32F4xx_StdPeriph_Driver/src/stm32f4xx_i2c.c **** /* Private macro -------------------------------------------------------------*/
 105:Libraries/STM32F4xx_StdPeriph_Driver/src/stm32f4xx_i2c.c **** /* Private variables ---------------------------------------------------------*/
 106:Libraries/STM32F4xx_StdPeriph_Driver/src/stm32f4xx_i2c.c **** /* Private function prototypes -----------------------------------------------*/
 107:Libraries/STM32F4xx_StdPeriph_Driver/src/stm32f4xx_i2c.c **** /* Private functions ---------------------------------------------------------*/
 108:Libraries/STM32F4xx_StdPeriph_Driver/src/stm32f4xx_i2c.c **** 
 109:Libraries/STM32F4xx_StdPeriph_Driver/src/stm32f4xx_i2c.c **** /** @defgroup I2C_Private_Functions
 110:Libraries/STM32F4xx_StdPeriph_Driver/src/stm32f4xx_i2c.c ****   * @{
 111:Libraries/STM32F4xx_StdPeriph_Driver/src/stm32f4xx_i2c.c ****   */
 112:Libraries/STM32F4xx_StdPeriph_Driver/src/stm32f4xx_i2c.c **** 
 113:Libraries/STM32F4xx_StdPeriph_Driver/src/stm32f4xx_i2c.c **** /** @defgroup I2C_Group1 Initialization and Configuration functions
 114:Libraries/STM32F4xx_StdPeriph_Driver/src/stm32f4xx_i2c.c ****  *  @brief   Initialization and Configuration functions 
 115:Libraries/STM32F4xx_StdPeriph_Driver/src/stm32f4xx_i2c.c ****  *
 116:Libraries/STM32F4xx_StdPeriph_Driver/src/stm32f4xx_i2c.c **** @verbatim   
 117:Libraries/STM32F4xx_StdPeriph_Driver/src/stm32f4xx_i2c.c ****  ===============================================================================
 118:Libraries/STM32F4xx_StdPeriph_Driver/src/stm32f4xx_i2c.c ****             ##### Initialization and Configuration functions #####
 119:Libraries/STM32F4xx_StdPeriph_Driver/src/stm32f4xx_i2c.c ****  ===============================================================================  
 120:Libraries/STM32F4xx_StdPeriph_Driver/src/stm32f4xx_i2c.c **** 
 121:Libraries/STM32F4xx_StdPeriph_Driver/src/stm32f4xx_i2c.c **** @endverbatim
 122:Libraries/STM32F4xx_StdPeriph_Driver/src/stm32f4xx_i2c.c ****   * @{
 123:Libraries/STM32F4xx_StdPeriph_Driver/src/stm32f4xx_i2c.c ****   */
 124:Libraries/STM32F4xx_StdPeriph_Driver/src/stm32f4xx_i2c.c **** 
 125:Libraries/STM32F4xx_StdPeriph_Driver/src/stm32f4xx_i2c.c **** /**
 126:Libraries/STM32F4xx_StdPeriph_Driver/src/stm32f4xx_i2c.c ****   * @brief  Deinitialize the I2Cx peripheral registers to their default reset values.
 127:Libraries/STM32F4xx_StdPeriph_Driver/src/stm32f4xx_i2c.c ****   * @param  I2Cx: where x can be 1, 2 or 3 to select the I2C peripheral.
 128:Libraries/STM32F4xx_StdPeriph_Driver/src/stm32f4xx_i2c.c ****   * @retval None
 129:Libraries/STM32F4xx_StdPeriph_Driver/src/stm32f4xx_i2c.c ****   */
 130:Libraries/STM32F4xx_StdPeriph_Driver/src/stm32f4xx_i2c.c **** void I2C_DeInit(I2C_TypeDef* I2Cx)
 131:Libraries/STM32F4xx_StdPeriph_Driver/src/stm32f4xx_i2c.c **** {
  30              		.loc 1 131 1 view -0
  31              		.cfi_startproc
  32              		@ args = 0, pretend = 0, frame = 0
  33              		@ frame_needed = 0, uses_anonymous_args = 0
  34              		.loc 1 131 1 is_stmt 0 view .LVU1
  35 0000 08B5     		push	{r3, lr}
  36              	.LCFI0:
  37              		.cfi_def_cfa_offset 8
  38              		.cfi_offset 3, -8
  39              		.cfi_offset 14, -4
 132:Libraries/STM32F4xx_StdPeriph_Driver/src/stm32f4xx_i2c.c ****   /* Check the parameters */
 133:Libraries/STM32F4xx_StdPeriph_Driver/src/stm32f4xx_i2c.c ****   assert_param(IS_I2C_ALL_PERIPH(I2Cx));
ARM GAS  /tmp/cclEJd3j.s 			page 4


  40              		.loc 1 133 3 is_stmt 1 view .LVU2
 134:Libraries/STM32F4xx_StdPeriph_Driver/src/stm32f4xx_i2c.c **** 
 135:Libraries/STM32F4xx_StdPeriph_Driver/src/stm32f4xx_i2c.c ****   if (I2Cx == I2C1)
  41              		.loc 1 135 3 view .LVU3
  42              		.loc 1 135 6 is_stmt 0 view .LVU4
  43 0002 154B     		ldr	r3, .L9
  44 0004 9842     		cmp	r0, r3
  45 0006 06D0     		beq	.L6
 136:Libraries/STM32F4xx_StdPeriph_Driver/src/stm32f4xx_i2c.c ****   {
 137:Libraries/STM32F4xx_StdPeriph_Driver/src/stm32f4xx_i2c.c ****     /* Enable I2C1 reset state */
 138:Libraries/STM32F4xx_StdPeriph_Driver/src/stm32f4xx_i2c.c ****     RCC_APB1PeriphResetCmd(RCC_APB1Periph_I2C1, ENABLE);
 139:Libraries/STM32F4xx_StdPeriph_Driver/src/stm32f4xx_i2c.c ****     /* Release I2C1 from reset state */
 140:Libraries/STM32F4xx_StdPeriph_Driver/src/stm32f4xx_i2c.c ****     RCC_APB1PeriphResetCmd(RCC_APB1Periph_I2C1, DISABLE);    
 141:Libraries/STM32F4xx_StdPeriph_Driver/src/stm32f4xx_i2c.c ****   }
 142:Libraries/STM32F4xx_StdPeriph_Driver/src/stm32f4xx_i2c.c ****   else if (I2Cx == I2C2)
  46              		.loc 1 142 8 is_stmt 1 view .LVU5
  47              		.loc 1 142 11 is_stmt 0 view .LVU6
  48 0008 144B     		ldr	r3, .L9+4
  49 000a 9842     		cmp	r0, r3
  50 000c 0ED0     		beq	.L7
 143:Libraries/STM32F4xx_StdPeriph_Driver/src/stm32f4xx_i2c.c ****   {
 144:Libraries/STM32F4xx_StdPeriph_Driver/src/stm32f4xx_i2c.c ****     /* Enable I2C2 reset state */
 145:Libraries/STM32F4xx_StdPeriph_Driver/src/stm32f4xx_i2c.c ****     RCC_APB1PeriphResetCmd(RCC_APB1Periph_I2C2, ENABLE);
 146:Libraries/STM32F4xx_StdPeriph_Driver/src/stm32f4xx_i2c.c ****     /* Release I2C2 from reset state */
 147:Libraries/STM32F4xx_StdPeriph_Driver/src/stm32f4xx_i2c.c ****     RCC_APB1PeriphResetCmd(RCC_APB1Periph_I2C2, DISABLE);      
 148:Libraries/STM32F4xx_StdPeriph_Driver/src/stm32f4xx_i2c.c ****   }
 149:Libraries/STM32F4xx_StdPeriph_Driver/src/stm32f4xx_i2c.c ****   else 
 150:Libraries/STM32F4xx_StdPeriph_Driver/src/stm32f4xx_i2c.c ****   {
 151:Libraries/STM32F4xx_StdPeriph_Driver/src/stm32f4xx_i2c.c ****     if (I2Cx == I2C3)
  51              		.loc 1 151 5 is_stmt 1 view .LVU7
  52              		.loc 1 151 8 is_stmt 0 view .LVU8
  53 000e 144B     		ldr	r3, .L9+8
  54 0010 9842     		cmp	r0, r3
  55 0012 16D0     		beq	.L8
  56              	.LVL1:
  57              	.L1:
 152:Libraries/STM32F4xx_StdPeriph_Driver/src/stm32f4xx_i2c.c ****     {
 153:Libraries/STM32F4xx_StdPeriph_Driver/src/stm32f4xx_i2c.c ****       /* Enable I2C3 reset state */
 154:Libraries/STM32F4xx_StdPeriph_Driver/src/stm32f4xx_i2c.c ****       RCC_APB1PeriphResetCmd(RCC_APB1Periph_I2C3, ENABLE);
 155:Libraries/STM32F4xx_StdPeriph_Driver/src/stm32f4xx_i2c.c ****       /* Release I2C3 from reset state */
 156:Libraries/STM32F4xx_StdPeriph_Driver/src/stm32f4xx_i2c.c ****       RCC_APB1PeriphResetCmd(RCC_APB1Periph_I2C3, DISABLE);     
 157:Libraries/STM32F4xx_StdPeriph_Driver/src/stm32f4xx_i2c.c ****     }
 158:Libraries/STM32F4xx_StdPeriph_Driver/src/stm32f4xx_i2c.c ****   }
 159:Libraries/STM32F4xx_StdPeriph_Driver/src/stm32f4xx_i2c.c **** }
  58              		.loc 1 159 1 view .LVU9
  59 0014 08BD     		pop	{r3, pc}
  60              	.LVL2:
  61              	.L6:
 138:Libraries/STM32F4xx_StdPeriph_Driver/src/stm32f4xx_i2c.c ****     /* Release I2C1 from reset state */
  62              		.loc 1 138 5 is_stmt 1 view .LVU10
  63 0016 0121     		movs	r1, #1
  64 0018 4FF40010 		mov	r0, #2097152
  65              	.LVL3:
 138:Libraries/STM32F4xx_StdPeriph_Driver/src/stm32f4xx_i2c.c ****     /* Release I2C1 from reset state */
  66              		.loc 1 138 5 is_stmt 0 view .LVU11
  67 001c FFF7FEFF 		bl	RCC_APB1PeriphResetCmd
  68              	.LVL4:
ARM GAS  /tmp/cclEJd3j.s 			page 5


 140:Libraries/STM32F4xx_StdPeriph_Driver/src/stm32f4xx_i2c.c ****   }
  69              		.loc 1 140 5 is_stmt 1 view .LVU12
  70 0020 0021     		movs	r1, #0
  71 0022 4FF40010 		mov	r0, #2097152
  72 0026 FFF7FEFF 		bl	RCC_APB1PeriphResetCmd
  73              	.LVL5:
  74 002a F3E7     		b	.L1
  75              	.LVL6:
  76              	.L7:
 145:Libraries/STM32F4xx_StdPeriph_Driver/src/stm32f4xx_i2c.c ****     /* Release I2C2 from reset state */
  77              		.loc 1 145 5 view .LVU13
  78 002c 0121     		movs	r1, #1
  79 002e 4FF48000 		mov	r0, #4194304
  80              	.LVL7:
 145:Libraries/STM32F4xx_StdPeriph_Driver/src/stm32f4xx_i2c.c ****     /* Release I2C2 from reset state */
  81              		.loc 1 145 5 is_stmt 0 view .LVU14
  82 0032 FFF7FEFF 		bl	RCC_APB1PeriphResetCmd
  83              	.LVL8:
 147:Libraries/STM32F4xx_StdPeriph_Driver/src/stm32f4xx_i2c.c ****   }
  84              		.loc 1 147 5 is_stmt 1 view .LVU15
  85 0036 0021     		movs	r1, #0
  86 0038 4FF48000 		mov	r0, #4194304
  87 003c FFF7FEFF 		bl	RCC_APB1PeriphResetCmd
  88              	.LVL9:
  89 0040 E8E7     		b	.L1
  90              	.LVL10:
  91              	.L8:
 154:Libraries/STM32F4xx_StdPeriph_Driver/src/stm32f4xx_i2c.c ****       /* Release I2C3 from reset state */
  92              		.loc 1 154 7 view .LVU16
  93 0042 0121     		movs	r1, #1
  94 0044 4FF40000 		mov	r0, #8388608
  95              	.LVL11:
 154:Libraries/STM32F4xx_StdPeriph_Driver/src/stm32f4xx_i2c.c ****       /* Release I2C3 from reset state */
  96              		.loc 1 154 7 is_stmt 0 view .LVU17
  97 0048 FFF7FEFF 		bl	RCC_APB1PeriphResetCmd
  98              	.LVL12:
 156:Libraries/STM32F4xx_StdPeriph_Driver/src/stm32f4xx_i2c.c ****     }
  99              		.loc 1 156 7 is_stmt 1 view .LVU18
 100 004c 0021     		movs	r1, #0
 101 004e 4FF40000 		mov	r0, #8388608
 102 0052 FFF7FEFF 		bl	RCC_APB1PeriphResetCmd
 103              	.LVL13:
 104              		.loc 1 159 1 is_stmt 0 view .LVU19
 105 0056 DDE7     		b	.L1
 106              	.L10:
 107              		.align	2
 108              	.L9:
 109 0058 00540040 		.word	1073763328
 110 005c 00580040 		.word	1073764352
 111 0060 005C0040 		.word	1073765376
 112              		.cfi_endproc
 113              	.LFE123:
 115              		.section	.text.I2C_Init,"ax",%progbits
 116              		.align	1
 117              		.global	I2C_Init
 118              		.syntax unified
 119              		.thumb
ARM GAS  /tmp/cclEJd3j.s 			page 6


 120              		.thumb_func
 121              		.fpu fpv4-sp-d16
 123              	I2C_Init:
 124              	.LVL14:
 125              	.LFB124:
 160:Libraries/STM32F4xx_StdPeriph_Driver/src/stm32f4xx_i2c.c **** 
 161:Libraries/STM32F4xx_StdPeriph_Driver/src/stm32f4xx_i2c.c **** /**
 162:Libraries/STM32F4xx_StdPeriph_Driver/src/stm32f4xx_i2c.c ****   * @brief  Initializes the I2Cx peripheral according to the specified 
 163:Libraries/STM32F4xx_StdPeriph_Driver/src/stm32f4xx_i2c.c ****   *         parameters in the I2C_InitStruct.
 164:Libraries/STM32F4xx_StdPeriph_Driver/src/stm32f4xx_i2c.c ****   *           
 165:Libraries/STM32F4xx_StdPeriph_Driver/src/stm32f4xx_i2c.c ****   * @note   To use the I2C at 400 KHz (in fast mode), the PCLK1 frequency 
 166:Libraries/STM32F4xx_StdPeriph_Driver/src/stm32f4xx_i2c.c ****   *         (I2C peripheral input clock) must be a multiple of 10 MHz.  
 167:Libraries/STM32F4xx_StdPeriph_Driver/src/stm32f4xx_i2c.c ****   *           
 168:Libraries/STM32F4xx_StdPeriph_Driver/src/stm32f4xx_i2c.c ****   * @param  I2Cx: where x can be 1, 2 or 3 to select the I2C peripheral.
 169:Libraries/STM32F4xx_StdPeriph_Driver/src/stm32f4xx_i2c.c ****   * @param  I2C_InitStruct: pointer to a I2C_InitTypeDef structure that contains 
 170:Libraries/STM32F4xx_StdPeriph_Driver/src/stm32f4xx_i2c.c ****   *         the configuration information for the specified I2C peripheral.
 171:Libraries/STM32F4xx_StdPeriph_Driver/src/stm32f4xx_i2c.c ****   * @retval None
 172:Libraries/STM32F4xx_StdPeriph_Driver/src/stm32f4xx_i2c.c ****   */
 173:Libraries/STM32F4xx_StdPeriph_Driver/src/stm32f4xx_i2c.c **** void I2C_Init(I2C_TypeDef* I2Cx, I2C_InitTypeDef* I2C_InitStruct)
 174:Libraries/STM32F4xx_StdPeriph_Driver/src/stm32f4xx_i2c.c **** {
 126              		.loc 1 174 1 is_stmt 1 view -0
 127              		.cfi_startproc
 128              		@ args = 0, pretend = 0, frame = 16
 129              		@ frame_needed = 0, uses_anonymous_args = 0
 130              		.loc 1 174 1 is_stmt 0 view .LVU21
 131 0000 70B5     		push	{r4, r5, r6, lr}
 132              	.LCFI1:
 133              		.cfi_def_cfa_offset 16
 134              		.cfi_offset 4, -16
 135              		.cfi_offset 5, -12
 136              		.cfi_offset 6, -8
 137              		.cfi_offset 14, -4
 138 0002 84B0     		sub	sp, sp, #16
 139              	.LCFI2:
 140              		.cfi_def_cfa_offset 32
 141 0004 0446     		mov	r4, r0
 142 0006 0D46     		mov	r5, r1
 175:Libraries/STM32F4xx_StdPeriph_Driver/src/stm32f4xx_i2c.c ****   uint16_t tmpreg = 0, freqrange = 0;
 143              		.loc 1 175 3 is_stmt 1 view .LVU22
 144              	.LVL15:
 176:Libraries/STM32F4xx_StdPeriph_Driver/src/stm32f4xx_i2c.c ****   uint16_t result = 0x04;
 145              		.loc 1 176 3 view .LVU23
 177:Libraries/STM32F4xx_StdPeriph_Driver/src/stm32f4xx_i2c.c ****   uint32_t pclk1 = 8000000;
 146              		.loc 1 177 3 view .LVU24
 178:Libraries/STM32F4xx_StdPeriph_Driver/src/stm32f4xx_i2c.c ****   RCC_ClocksTypeDef  rcc_clocks;
 147              		.loc 1 178 3 view .LVU25
 179:Libraries/STM32F4xx_StdPeriph_Driver/src/stm32f4xx_i2c.c ****   /* Check the parameters */
 180:Libraries/STM32F4xx_StdPeriph_Driver/src/stm32f4xx_i2c.c ****   assert_param(IS_I2C_ALL_PERIPH(I2Cx));
 148              		.loc 1 180 3 view .LVU26
 181:Libraries/STM32F4xx_StdPeriph_Driver/src/stm32f4xx_i2c.c ****   assert_param(IS_I2C_CLOCK_SPEED(I2C_InitStruct->I2C_ClockSpeed));
 149              		.loc 1 181 3 view .LVU27
 182:Libraries/STM32F4xx_StdPeriph_Driver/src/stm32f4xx_i2c.c ****   assert_param(IS_I2C_MODE(I2C_InitStruct->I2C_Mode));
 150              		.loc 1 182 3 view .LVU28
 183:Libraries/STM32F4xx_StdPeriph_Driver/src/stm32f4xx_i2c.c ****   assert_param(IS_I2C_DUTY_CYCLE(I2C_InitStruct->I2C_DutyCycle));
 151              		.loc 1 183 3 view .LVU29
 184:Libraries/STM32F4xx_StdPeriph_Driver/src/stm32f4xx_i2c.c ****   assert_param(IS_I2C_OWN_ADDRESS1(I2C_InitStruct->I2C_OwnAddress1));
 152              		.loc 1 184 3 view .LVU30
ARM GAS  /tmp/cclEJd3j.s 			page 7


 185:Libraries/STM32F4xx_StdPeriph_Driver/src/stm32f4xx_i2c.c ****   assert_param(IS_I2C_ACK_STATE(I2C_InitStruct->I2C_Ack));
 153              		.loc 1 185 3 view .LVU31
 186:Libraries/STM32F4xx_StdPeriph_Driver/src/stm32f4xx_i2c.c ****   assert_param(IS_I2C_ACKNOWLEDGE_ADDRESS(I2C_InitStruct->I2C_AcknowledgedAddress));
 154              		.loc 1 186 3 view .LVU32
 187:Libraries/STM32F4xx_StdPeriph_Driver/src/stm32f4xx_i2c.c **** 
 188:Libraries/STM32F4xx_StdPeriph_Driver/src/stm32f4xx_i2c.c **** /*---------------------------- I2Cx CR2 Configuration ------------------------*/
 189:Libraries/STM32F4xx_StdPeriph_Driver/src/stm32f4xx_i2c.c ****   /* Get the I2Cx CR2 value */
 190:Libraries/STM32F4xx_StdPeriph_Driver/src/stm32f4xx_i2c.c ****   tmpreg = I2Cx->CR2;
 155              		.loc 1 190 3 view .LVU33
 156              		.loc 1 190 10 is_stmt 0 view .LVU34
 157 0008 8688     		ldrh	r6, [r0, #4]
 158 000a B6B2     		uxth	r6, r6
 159              	.LVL16:
 191:Libraries/STM32F4xx_StdPeriph_Driver/src/stm32f4xx_i2c.c ****   /* Clear frequency FREQ[5:0] bits */
 192:Libraries/STM32F4xx_StdPeriph_Driver/src/stm32f4xx_i2c.c ****   tmpreg &= (uint16_t)~((uint16_t)I2C_CR2_FREQ);
 160              		.loc 1 192 3 is_stmt 1 view .LVU35
 161              		.loc 1 192 10 is_stmt 0 view .LVU36
 162 000c 26F03F06 		bic	r6, r6, #63
 163              	.LVL17:
 164              		.loc 1 192 10 view .LVU37
 165 0010 B6B2     		uxth	r6, r6
 166              	.LVL18:
 193:Libraries/STM32F4xx_StdPeriph_Driver/src/stm32f4xx_i2c.c ****   /* Get pclk1 frequency value */
 194:Libraries/STM32F4xx_StdPeriph_Driver/src/stm32f4xx_i2c.c ****   RCC_GetClocksFreq(&rcc_clocks);
 167              		.loc 1 194 3 is_stmt 1 view .LVU38
 168 0012 6846     		mov	r0, sp
 169              	.LVL19:
 170              		.loc 1 194 3 is_stmt 0 view .LVU39
 171 0014 FFF7FEFF 		bl	RCC_GetClocksFreq
 172              	.LVL20:
 195:Libraries/STM32F4xx_StdPeriph_Driver/src/stm32f4xx_i2c.c ****   pclk1 = rcc_clocks.PCLK1_Frequency;
 173              		.loc 1 195 3 is_stmt 1 view .LVU40
 174              		.loc 1 195 9 is_stmt 0 view .LVU41
 175 0018 0298     		ldr	r0, [sp, #8]
 176              	.LVL21:
 196:Libraries/STM32F4xx_StdPeriph_Driver/src/stm32f4xx_i2c.c ****   /* Set frequency bits depending on pclk1 value */
 197:Libraries/STM32F4xx_StdPeriph_Driver/src/stm32f4xx_i2c.c ****   freqrange = (uint16_t)(pclk1 / 1000000);
 177              		.loc 1 197 3 is_stmt 1 view .LVU42
 178              		.loc 1 197 32 is_stmt 0 view .LVU43
 179 001a 2D4B     		ldr	r3, .L21
 180 001c A3FB0023 		umull	r2, r3, r3, r0
 181 0020 990C     		lsrs	r1, r3, #18
 182              	.LVL22:
 198:Libraries/STM32F4xx_StdPeriph_Driver/src/stm32f4xx_i2c.c ****   tmpreg |= freqrange;
 183              		.loc 1 198 3 is_stmt 1 view .LVU44
 184              		.loc 1 198 10 is_stmt 0 view .LVU45
 185 0022 46EA9346 		orr	r6, r6, r3, lsr #18
 186              	.LVL23:
 199:Libraries/STM32F4xx_StdPeriph_Driver/src/stm32f4xx_i2c.c ****   /* Write to I2Cx CR2 */
 200:Libraries/STM32F4xx_StdPeriph_Driver/src/stm32f4xx_i2c.c ****   I2Cx->CR2 = tmpreg;
 187              		.loc 1 200 3 is_stmt 1 view .LVU46
 188              		.loc 1 200 13 is_stmt 0 view .LVU47
 189 0026 A680     		strh	r6, [r4, #4]	@ movhi
 201:Libraries/STM32F4xx_StdPeriph_Driver/src/stm32f4xx_i2c.c **** 
 202:Libraries/STM32F4xx_StdPeriph_Driver/src/stm32f4xx_i2c.c **** /*---------------------------- I2Cx CCR Configuration ------------------------*/
 203:Libraries/STM32F4xx_StdPeriph_Driver/src/stm32f4xx_i2c.c ****   /* Disable the selected I2C peripheral to configure TRISE */
 204:Libraries/STM32F4xx_StdPeriph_Driver/src/stm32f4xx_i2c.c ****   I2Cx->CR1 &= (uint16_t)~((uint16_t)I2C_CR1_PE);
ARM GAS  /tmp/cclEJd3j.s 			page 8


 190              		.loc 1 204 3 is_stmt 1 view .LVU48
 191              		.loc 1 204 13 is_stmt 0 view .LVU49
 192 0028 2288     		ldrh	r2, [r4]
 193 002a 92B2     		uxth	r2, r2
 194 002c 22F00102 		bic	r2, r2, #1
 195 0030 92B2     		uxth	r2, r2
 196 0032 2280     		strh	r2, [r4]	@ movhi
 205:Libraries/STM32F4xx_StdPeriph_Driver/src/stm32f4xx_i2c.c ****   /* Reset tmpreg value */
 206:Libraries/STM32F4xx_StdPeriph_Driver/src/stm32f4xx_i2c.c ****   /* Clear F/S, DUTY and CCR[11:0] bits */
 207:Libraries/STM32F4xx_StdPeriph_Driver/src/stm32f4xx_i2c.c ****   tmpreg = 0;
 197              		.loc 1 207 3 is_stmt 1 view .LVU50
 198              	.LVL24:
 208:Libraries/STM32F4xx_StdPeriph_Driver/src/stm32f4xx_i2c.c **** 
 209:Libraries/STM32F4xx_StdPeriph_Driver/src/stm32f4xx_i2c.c ****   /* Configure speed in standard mode */
 210:Libraries/STM32F4xx_StdPeriph_Driver/src/stm32f4xx_i2c.c ****   if (I2C_InitStruct->I2C_ClockSpeed <= 100000)
 199              		.loc 1 210 3 view .LVU51
 200              		.loc 1 210 21 is_stmt 0 view .LVU52
 201 0034 2B68     		ldr	r3, [r5]
 202              		.loc 1 210 6 view .LVU53
 203 0036 274A     		ldr	r2, .L21+4
 204 0038 9342     		cmp	r3, r2
 205 003a 22D8     		bhi	.L12
 206 003c 8C46     		mov	ip, r1
 211:Libraries/STM32F4xx_StdPeriph_Driver/src/stm32f4xx_i2c.c ****   {
 212:Libraries/STM32F4xx_StdPeriph_Driver/src/stm32f4xx_i2c.c ****     /* Standard mode speed calculate */
 213:Libraries/STM32F4xx_StdPeriph_Driver/src/stm32f4xx_i2c.c ****     result = (uint16_t)(pclk1 / (I2C_InitStruct->I2C_ClockSpeed << 1));
 207              		.loc 1 213 5 is_stmt 1 view .LVU54
 208              		.loc 1 213 65 is_stmt 0 view .LVU55
 209 003e 5B00     		lsls	r3, r3, #1
 210              		.loc 1 213 31 view .LVU56
 211 0040 B0FBF3F3 		udiv	r3, r0, r3
 212              		.loc 1 213 12 view .LVU57
 213 0044 9BB2     		uxth	r3, r3
 214              	.LVL25:
 214:Libraries/STM32F4xx_StdPeriph_Driver/src/stm32f4xx_i2c.c ****     /* Test if CCR value is under 0x4*/
 215:Libraries/STM32F4xx_StdPeriph_Driver/src/stm32f4xx_i2c.c ****     if (result < 0x04)
 215              		.loc 1 215 5 is_stmt 1 view .LVU58
 216              		.loc 1 215 8 is_stmt 0 view .LVU59
 217 0046 032B     		cmp	r3, #3
 218 0048 00D8     		bhi	.L13
 216:Libraries/STM32F4xx_StdPeriph_Driver/src/stm32f4xx_i2c.c ****     {
 217:Libraries/STM32F4xx_StdPeriph_Driver/src/stm32f4xx_i2c.c ****       /* Set minimum allowed value */
 218:Libraries/STM32F4xx_StdPeriph_Driver/src/stm32f4xx_i2c.c ****       result = 0x04;  
 219              		.loc 1 218 14 view .LVU60
 220 004a 0423     		movs	r3, #4
 221              	.LVL26:
 222              	.L13:
 219:Libraries/STM32F4xx_StdPeriph_Driver/src/stm32f4xx_i2c.c ****     }
 220:Libraries/STM32F4xx_StdPeriph_Driver/src/stm32f4xx_i2c.c ****     /* Set speed value for standard mode */
 221:Libraries/STM32F4xx_StdPeriph_Driver/src/stm32f4xx_i2c.c ****     tmpreg |= result;	  
 223              		.loc 1 221 5 is_stmt 1 view .LVU61
 222:Libraries/STM32F4xx_StdPeriph_Driver/src/stm32f4xx_i2c.c ****     /* Set Maximum Rise Time for standard mode */
 223:Libraries/STM32F4xx_StdPeriph_Driver/src/stm32f4xx_i2c.c ****     I2Cx->TRISE = freqrange + 1; 
 224              		.loc 1 223 5 view .LVU62
 225              		.loc 1 223 29 is_stmt 0 view .LVU63
 226 004c 0CF1010C 		add	ip, ip, #1
 227              		.loc 1 223 17 view .LVU64
ARM GAS  /tmp/cclEJd3j.s 			page 9


 228 0050 A4F820C0 		strh	ip, [r4, #32]	@ movhi
 229              	.LVL27:
 230              	.L14:
 224:Libraries/STM32F4xx_StdPeriph_Driver/src/stm32f4xx_i2c.c ****   }
 225:Libraries/STM32F4xx_StdPeriph_Driver/src/stm32f4xx_i2c.c ****   /* Configure speed in fast mode */
 226:Libraries/STM32F4xx_StdPeriph_Driver/src/stm32f4xx_i2c.c ****   /* To use the I2C at 400 KHz (in fast mode), the PCLK1 frequency (I2C peripheral
 227:Libraries/STM32F4xx_StdPeriph_Driver/src/stm32f4xx_i2c.c ****      input clock) must be a multiple of 10 MHz */
 228:Libraries/STM32F4xx_StdPeriph_Driver/src/stm32f4xx_i2c.c ****   else /*(I2C_InitStruct->I2C_ClockSpeed <= 400000)*/
 229:Libraries/STM32F4xx_StdPeriph_Driver/src/stm32f4xx_i2c.c ****   {
 230:Libraries/STM32F4xx_StdPeriph_Driver/src/stm32f4xx_i2c.c ****     if (I2C_InitStruct->I2C_DutyCycle == I2C_DutyCycle_2)
 231:Libraries/STM32F4xx_StdPeriph_Driver/src/stm32f4xx_i2c.c ****     {
 232:Libraries/STM32F4xx_StdPeriph_Driver/src/stm32f4xx_i2c.c ****       /* Fast mode speed calculate: Tlow/Thigh = 2 */
 233:Libraries/STM32F4xx_StdPeriph_Driver/src/stm32f4xx_i2c.c ****       result = (uint16_t)(pclk1 / (I2C_InitStruct->I2C_ClockSpeed * 3));
 234:Libraries/STM32F4xx_StdPeriph_Driver/src/stm32f4xx_i2c.c ****     }
 235:Libraries/STM32F4xx_StdPeriph_Driver/src/stm32f4xx_i2c.c ****     else /*I2C_InitStruct->I2C_DutyCycle == I2C_DutyCycle_16_9*/
 236:Libraries/STM32F4xx_StdPeriph_Driver/src/stm32f4xx_i2c.c ****     {
 237:Libraries/STM32F4xx_StdPeriph_Driver/src/stm32f4xx_i2c.c ****       /* Fast mode speed calculate: Tlow/Thigh = 16/9 */
 238:Libraries/STM32F4xx_StdPeriph_Driver/src/stm32f4xx_i2c.c ****       result = (uint16_t)(pclk1 / (I2C_InitStruct->I2C_ClockSpeed * 25));
 239:Libraries/STM32F4xx_StdPeriph_Driver/src/stm32f4xx_i2c.c ****       /* Set DUTY bit */
 240:Libraries/STM32F4xx_StdPeriph_Driver/src/stm32f4xx_i2c.c ****       result |= I2C_DutyCycle_16_9;
 241:Libraries/STM32F4xx_StdPeriph_Driver/src/stm32f4xx_i2c.c ****     }
 242:Libraries/STM32F4xx_StdPeriph_Driver/src/stm32f4xx_i2c.c **** 
 243:Libraries/STM32F4xx_StdPeriph_Driver/src/stm32f4xx_i2c.c ****     /* Test if CCR value is under 0x1*/
 244:Libraries/STM32F4xx_StdPeriph_Driver/src/stm32f4xx_i2c.c ****     if ((result & I2C_CCR_CCR) == 0)
 245:Libraries/STM32F4xx_StdPeriph_Driver/src/stm32f4xx_i2c.c ****     {
 246:Libraries/STM32F4xx_StdPeriph_Driver/src/stm32f4xx_i2c.c ****       /* Set minimum allowed value */
 247:Libraries/STM32F4xx_StdPeriph_Driver/src/stm32f4xx_i2c.c ****       result |= (uint16_t)0x0001;  
 248:Libraries/STM32F4xx_StdPeriph_Driver/src/stm32f4xx_i2c.c ****     }
 249:Libraries/STM32F4xx_StdPeriph_Driver/src/stm32f4xx_i2c.c ****     /* Set speed value and set F/S bit for fast mode */
 250:Libraries/STM32F4xx_StdPeriph_Driver/src/stm32f4xx_i2c.c ****     tmpreg |= (uint16_t)(result | I2C_CCR_FS);
 251:Libraries/STM32F4xx_StdPeriph_Driver/src/stm32f4xx_i2c.c ****     /* Set Maximum Rise Time for fast mode */
 252:Libraries/STM32F4xx_StdPeriph_Driver/src/stm32f4xx_i2c.c ****     I2Cx->TRISE = (uint16_t)(((freqrange * (uint16_t)300) / (uint16_t)1000) + (uint16_t)1);  
 253:Libraries/STM32F4xx_StdPeriph_Driver/src/stm32f4xx_i2c.c ****   }
 254:Libraries/STM32F4xx_StdPeriph_Driver/src/stm32f4xx_i2c.c **** 
 255:Libraries/STM32F4xx_StdPeriph_Driver/src/stm32f4xx_i2c.c ****   /* Write to I2Cx CCR */
 256:Libraries/STM32F4xx_StdPeriph_Driver/src/stm32f4xx_i2c.c ****   I2Cx->CCR = tmpreg;
 231              		.loc 1 256 3 is_stmt 1 view .LVU65
 232              		.loc 1 256 13 is_stmt 0 view .LVU66
 233 0054 A383     		strh	r3, [r4, #28]	@ movhi
 257:Libraries/STM32F4xx_StdPeriph_Driver/src/stm32f4xx_i2c.c ****   /* Enable the selected I2C peripheral */
 258:Libraries/STM32F4xx_StdPeriph_Driver/src/stm32f4xx_i2c.c ****   I2Cx->CR1 |= I2C_CR1_PE;
 234              		.loc 1 258 3 is_stmt 1 view .LVU67
 235              		.loc 1 258 13 is_stmt 0 view .LVU68
 236 0056 2388     		ldrh	r3, [r4]
 237              	.LVL28:
 238              		.loc 1 258 13 view .LVU69
 239 0058 9BB2     		uxth	r3, r3
 240 005a 43F00103 		orr	r3, r3, #1
 241 005e 2380     		strh	r3, [r4]	@ movhi
 242              	.LVL29:
 259:Libraries/STM32F4xx_StdPeriph_Driver/src/stm32f4xx_i2c.c **** 
 260:Libraries/STM32F4xx_StdPeriph_Driver/src/stm32f4xx_i2c.c **** /*---------------------------- I2Cx CR1 Configuration ------------------------*/
 261:Libraries/STM32F4xx_StdPeriph_Driver/src/stm32f4xx_i2c.c ****   /* Get the I2Cx CR1 value */
 262:Libraries/STM32F4xx_StdPeriph_Driver/src/stm32f4xx_i2c.c ****   tmpreg = I2Cx->CR1;
 243              		.loc 1 262 3 is_stmt 1 view .LVU70
 244              		.loc 1 262 10 is_stmt 0 view .LVU71
 245 0060 2388     		ldrh	r3, [r4]
ARM GAS  /tmp/cclEJd3j.s 			page 10


 246 0062 9BB2     		uxth	r3, r3
 247              	.LVL30:
 263:Libraries/STM32F4xx_StdPeriph_Driver/src/stm32f4xx_i2c.c ****   /* Clear ACK, SMBTYPE and  SMBUS bits */
 264:Libraries/STM32F4xx_StdPeriph_Driver/src/stm32f4xx_i2c.c ****   tmpreg &= CR1_CLEAR_MASK;
 248              		.loc 1 264 3 is_stmt 1 view .LVU72
 249              		.loc 1 264 10 is_stmt 0 view .LVU73
 250 0064 23F48163 		bic	r3, r3, #1032
 251              	.LVL31:
 252              		.loc 1 264 10 view .LVU74
 253 0068 23F00203 		bic	r3, r3, #2
 254              	.LVL32:
 265:Libraries/STM32F4xx_StdPeriph_Driver/src/stm32f4xx_i2c.c ****   /* Configure I2Cx: mode and acknowledgement */
 266:Libraries/STM32F4xx_StdPeriph_Driver/src/stm32f4xx_i2c.c ****   /* Set SMBTYPE and SMBUS bits according to I2C_Mode value */
 267:Libraries/STM32F4xx_StdPeriph_Driver/src/stm32f4xx_i2c.c ****   /* Set ACK bit according to I2C_Ack value */
 268:Libraries/STM32F4xx_StdPeriph_Driver/src/stm32f4xx_i2c.c ****   tmpreg |= (uint16_t)((uint32_t)I2C_InitStruct->I2C_Mode | I2C_InitStruct->I2C_Ack);
 255              		.loc 1 268 3 is_stmt 1 view .LVU75
 256              		.loc 1 268 48 is_stmt 0 view .LVU76
 257 006c AA88     		ldrh	r2, [r5, #4]
 258              		.loc 1 268 75 view .LVU77
 259 006e 6989     		ldrh	r1, [r5, #10]
 260              		.loc 1 268 13 view .LVU78
 261 0070 0A43     		orrs	r2, r2, r1
 262              		.loc 1 268 10 view .LVU79
 263 0072 1343     		orrs	r3, r3, r2
 264              	.LVL33:
 269:Libraries/STM32F4xx_StdPeriph_Driver/src/stm32f4xx_i2c.c ****   /* Write to I2Cx CR1 */
 270:Libraries/STM32F4xx_StdPeriph_Driver/src/stm32f4xx_i2c.c ****   I2Cx->CR1 = tmpreg;
 265              		.loc 1 270 3 is_stmt 1 view .LVU80
 266              		.loc 1 270 13 is_stmt 0 view .LVU81
 267 0074 2380     		strh	r3, [r4]	@ movhi
 271:Libraries/STM32F4xx_StdPeriph_Driver/src/stm32f4xx_i2c.c **** 
 272:Libraries/STM32F4xx_StdPeriph_Driver/src/stm32f4xx_i2c.c **** /*---------------------------- I2Cx OAR1 Configuration -----------------------*/
 273:Libraries/STM32F4xx_StdPeriph_Driver/src/stm32f4xx_i2c.c ****   /* Set I2Cx Own Address1 and acknowledged address */
 274:Libraries/STM32F4xx_StdPeriph_Driver/src/stm32f4xx_i2c.c ****   I2Cx->OAR1 = (I2C_InitStruct->I2C_AcknowledgedAddress | I2C_InitStruct->I2C_OwnAddress1);
 268              		.loc 1 274 3 is_stmt 1 view .LVU82
 269              		.loc 1 274 31 is_stmt 0 view .LVU83
 270 0076 AB89     		ldrh	r3, [r5, #12]
 271              	.LVL34:
 272              		.loc 1 274 73 view .LVU84
 273 0078 2A89     		ldrh	r2, [r5, #8]
 274              		.loc 1 274 14 view .LVU85
 275 007a 1343     		orrs	r3, r3, r2
 276 007c 2381     		strh	r3, [r4, #8]	@ movhi
 277              	.LVL35:
 275:Libraries/STM32F4xx_StdPeriph_Driver/src/stm32f4xx_i2c.c **** }
 278              		.loc 1 275 1 view .LVU86
 279 007e 04B0     		add	sp, sp, #16
 280              	.LCFI3:
 281              		.cfi_remember_state
 282              		.cfi_def_cfa_offset 16
 283              		@ sp needed
 284 0080 70BD     		pop	{r4, r5, r6, pc}
 285              	.LVL36:
 286              	.L12:
 287              	.LCFI4:
 288              		.cfi_restore_state
 230:Libraries/STM32F4xx_StdPeriph_Driver/src/stm32f4xx_i2c.c ****     {
ARM GAS  /tmp/cclEJd3j.s 			page 11


 289              		.loc 1 230 5 is_stmt 1 view .LVU87
 230:Libraries/STM32F4xx_StdPeriph_Driver/src/stm32f4xx_i2c.c ****     {
 290              		.loc 1 230 23 is_stmt 0 view .LVU88
 291 0082 EE88     		ldrh	r6, [r5, #6]
 230:Libraries/STM32F4xx_StdPeriph_Driver/src/stm32f4xx_i2c.c ****     {
 292              		.loc 1 230 8 view .LVU89
 293 0084 4BF6FF72 		movw	r2, #49151
 294 0088 9642     		cmp	r6, r2
 295 008a 1BD0     		beq	.L20
 238:Libraries/STM32F4xx_StdPeriph_Driver/src/stm32f4xx_i2c.c ****       /* Set DUTY bit */
 296              		.loc 1 238 7 is_stmt 1 view .LVU90
 238:Libraries/STM32F4xx_StdPeriph_Driver/src/stm32f4xx_i2c.c ****       /* Set DUTY bit */
 297              		.loc 1 238 67 is_stmt 0 view .LVU91
 298 008c 03EB8303 		add	r3, r3, r3, lsl #2
 299 0090 03EB8303 		add	r3, r3, r3, lsl #2
 238:Libraries/STM32F4xx_StdPeriph_Driver/src/stm32f4xx_i2c.c ****       /* Set DUTY bit */
 300              		.loc 1 238 33 view .LVU92
 301 0094 B0FBF3F3 		udiv	r3, r0, r3
 238:Libraries/STM32F4xx_StdPeriph_Driver/src/stm32f4xx_i2c.c ****       /* Set DUTY bit */
 302              		.loc 1 238 14 view .LVU93
 303 0098 9BB2     		uxth	r3, r3
 304              	.LVL37:
 240:Libraries/STM32F4xx_StdPeriph_Driver/src/stm32f4xx_i2c.c ****     }
 305              		.loc 1 240 7 is_stmt 1 view .LVU94
 240:Libraries/STM32F4xx_StdPeriph_Driver/src/stm32f4xx_i2c.c ****     }
 306              		.loc 1 240 14 is_stmt 0 view .LVU95
 307 009a 43F48043 		orr	r3, r3, #16384
 308              	.LVL38:
 309              	.L16:
 244:Libraries/STM32F4xx_StdPeriph_Driver/src/stm32f4xx_i2c.c ****     {
 310              		.loc 1 244 5 is_stmt 1 view .LVU96
 244:Libraries/STM32F4xx_StdPeriph_Driver/src/stm32f4xx_i2c.c ****     {
 311              		.loc 1 244 8 is_stmt 0 view .LVU97
 312 009e C3F30B02 		ubfx	r2, r3, #0, #12
 313 00a2 0AB9     		cbnz	r2, .L17
 247:Libraries/STM32F4xx_StdPeriph_Driver/src/stm32f4xx_i2c.c ****     }
 314              		.loc 1 247 7 is_stmt 1 view .LVU98
 247:Libraries/STM32F4xx_StdPeriph_Driver/src/stm32f4xx_i2c.c ****     }
 315              		.loc 1 247 14 is_stmt 0 view .LVU99
 316 00a4 43F00103 		orr	r3, r3, #1
 317              	.LVL39:
 318              	.L17:
 250:Libraries/STM32F4xx_StdPeriph_Driver/src/stm32f4xx_i2c.c ****     /* Set Maximum Rise Time for fast mode */
 319              		.loc 1 250 5 is_stmt 1 view .LVU100
 250:Libraries/STM32F4xx_StdPeriph_Driver/src/stm32f4xx_i2c.c ****     /* Set Maximum Rise Time for fast mode */
 320              		.loc 1 250 12 is_stmt 0 view .LVU101
 321 00a8 43F40043 		orr	r3, r3, #32768
 322              	.LVL40:
 252:Libraries/STM32F4xx_StdPeriph_Driver/src/stm32f4xx_i2c.c ****   }
 323              		.loc 1 252 5 is_stmt 1 view .LVU102
 252:Libraries/STM32F4xx_StdPeriph_Driver/src/stm32f4xx_i2c.c ****   }
 324              		.loc 1 252 42 is_stmt 0 view .LVU103
 325 00ac 4FF49672 		mov	r2, #300
 326 00b0 01FB02F2 		mul	r2, r1, r2
 252:Libraries/STM32F4xx_StdPeriph_Driver/src/stm32f4xx_i2c.c ****   }
 327              		.loc 1 252 59 view .LVU104
 328 00b4 0849     		ldr	r1, .L21+8
ARM GAS  /tmp/cclEJd3j.s 			page 12


 329              	.LVL41:
 252:Libraries/STM32F4xx_StdPeriph_Driver/src/stm32f4xx_i2c.c ****   }
 330              		.loc 1 252 59 view .LVU105
 331 00b6 81FB0212 		smull	r1, r2, r1, r2
 332 00ba 9211     		asrs	r2, r2, #6
 252:Libraries/STM32F4xx_StdPeriph_Driver/src/stm32f4xx_i2c.c ****   }
 333              		.loc 1 252 19 view .LVU106
 334 00bc 0132     		adds	r2, r2, #1
 335 00be 92B2     		uxth	r2, r2
 252:Libraries/STM32F4xx_StdPeriph_Driver/src/stm32f4xx_i2c.c ****   }
 336              		.loc 1 252 17 view .LVU107
 337 00c0 2284     		strh	r2, [r4, #32]	@ movhi
 338 00c2 C7E7     		b	.L14
 339              	.LVL42:
 340              	.L20:
 233:Libraries/STM32F4xx_StdPeriph_Driver/src/stm32f4xx_i2c.c ****     }
 341              		.loc 1 233 7 is_stmt 1 view .LVU108
 233:Libraries/STM32F4xx_StdPeriph_Driver/src/stm32f4xx_i2c.c ****     }
 342              		.loc 1 233 67 is_stmt 0 view .LVU109
 343 00c4 03EB4303 		add	r3, r3, r3, lsl #1
 233:Libraries/STM32F4xx_StdPeriph_Driver/src/stm32f4xx_i2c.c ****     }
 344              		.loc 1 233 33 view .LVU110
 345 00c8 B0FBF3F3 		udiv	r3, r0, r3
 233:Libraries/STM32F4xx_StdPeriph_Driver/src/stm32f4xx_i2c.c ****     }
 346              		.loc 1 233 14 view .LVU111
 347 00cc 9BB2     		uxth	r3, r3
 348              	.LVL43:
 233:Libraries/STM32F4xx_StdPeriph_Driver/src/stm32f4xx_i2c.c ****     }
 349              		.loc 1 233 14 view .LVU112
 350 00ce E6E7     		b	.L16
 351              	.L22:
 352              		.align	2
 353              	.L21:
 354 00d0 83DE1B43 		.word	1125899907
 355 00d4 A0860100 		.word	100000
 356 00d8 D34D6210 		.word	274877907
 357              		.cfi_endproc
 358              	.LFE124:
 360              		.section	.text.I2C_StructInit,"ax",%progbits
 361              		.align	1
 362              		.global	I2C_StructInit
 363              		.syntax unified
 364              		.thumb
 365              		.thumb_func
 366              		.fpu fpv4-sp-d16
 368              	I2C_StructInit:
 369              	.LVL44:
 370              	.LFB125:
 276:Libraries/STM32F4xx_StdPeriph_Driver/src/stm32f4xx_i2c.c **** 
 277:Libraries/STM32F4xx_StdPeriph_Driver/src/stm32f4xx_i2c.c **** /**
 278:Libraries/STM32F4xx_StdPeriph_Driver/src/stm32f4xx_i2c.c ****   * @brief  Fills each I2C_InitStruct member with its default value.
 279:Libraries/STM32F4xx_StdPeriph_Driver/src/stm32f4xx_i2c.c ****   * @param  I2C_InitStruct: pointer to an I2C_InitTypeDef structure which will be initialized.
 280:Libraries/STM32F4xx_StdPeriph_Driver/src/stm32f4xx_i2c.c ****   * @retval None
 281:Libraries/STM32F4xx_StdPeriph_Driver/src/stm32f4xx_i2c.c ****   */
 282:Libraries/STM32F4xx_StdPeriph_Driver/src/stm32f4xx_i2c.c **** void I2C_StructInit(I2C_InitTypeDef* I2C_InitStruct)
 283:Libraries/STM32F4xx_StdPeriph_Driver/src/stm32f4xx_i2c.c **** {
 371              		.loc 1 283 1 is_stmt 1 view -0
ARM GAS  /tmp/cclEJd3j.s 			page 13


 372              		.cfi_startproc
 373              		@ args = 0, pretend = 0, frame = 0
 374              		@ frame_needed = 0, uses_anonymous_args = 0
 375              		@ link register save eliminated.
 284:Libraries/STM32F4xx_StdPeriph_Driver/src/stm32f4xx_i2c.c **** /*---------------- Reset I2C init structure parameters values ----------------*/
 285:Libraries/STM32F4xx_StdPeriph_Driver/src/stm32f4xx_i2c.c ****   /* initialize the I2C_ClockSpeed member */
 286:Libraries/STM32F4xx_StdPeriph_Driver/src/stm32f4xx_i2c.c ****   I2C_InitStruct->I2C_ClockSpeed = 5000;
 376              		.loc 1 286 3 view .LVU114
 377              		.loc 1 286 34 is_stmt 0 view .LVU115
 378 0000 41F28833 		movw	r3, #5000
 379 0004 0360     		str	r3, [r0]
 287:Libraries/STM32F4xx_StdPeriph_Driver/src/stm32f4xx_i2c.c ****   /* Initialize the I2C_Mode member */
 288:Libraries/STM32F4xx_StdPeriph_Driver/src/stm32f4xx_i2c.c ****   I2C_InitStruct->I2C_Mode = I2C_Mode_I2C;
 380              		.loc 1 288 3 is_stmt 1 view .LVU116
 381              		.loc 1 288 28 is_stmt 0 view .LVU117
 382 0006 0023     		movs	r3, #0
 383 0008 8380     		strh	r3, [r0, #4]	@ movhi
 289:Libraries/STM32F4xx_StdPeriph_Driver/src/stm32f4xx_i2c.c ****   /* Initialize the I2C_DutyCycle member */
 290:Libraries/STM32F4xx_StdPeriph_Driver/src/stm32f4xx_i2c.c ****   I2C_InitStruct->I2C_DutyCycle = I2C_DutyCycle_2;
 384              		.loc 1 290 3 is_stmt 1 view .LVU118
 385              		.loc 1 290 33 is_stmt 0 view .LVU119
 386 000a 4BF6FF72 		movw	r2, #49151
 387 000e C280     		strh	r2, [r0, #6]	@ movhi
 291:Libraries/STM32F4xx_StdPeriph_Driver/src/stm32f4xx_i2c.c ****   /* Initialize the I2C_OwnAddress1 member */
 292:Libraries/STM32F4xx_StdPeriph_Driver/src/stm32f4xx_i2c.c ****   I2C_InitStruct->I2C_OwnAddress1 = 0;
 388              		.loc 1 292 3 is_stmt 1 view .LVU120
 389              		.loc 1 292 35 is_stmt 0 view .LVU121
 390 0010 0381     		strh	r3, [r0, #8]	@ movhi
 293:Libraries/STM32F4xx_StdPeriph_Driver/src/stm32f4xx_i2c.c ****   /* Initialize the I2C_Ack member */
 294:Libraries/STM32F4xx_StdPeriph_Driver/src/stm32f4xx_i2c.c ****   I2C_InitStruct->I2C_Ack = I2C_Ack_Disable;
 391              		.loc 1 294 3 is_stmt 1 view .LVU122
 392              		.loc 1 294 27 is_stmt 0 view .LVU123
 393 0012 4381     		strh	r3, [r0, #10]	@ movhi
 295:Libraries/STM32F4xx_StdPeriph_Driver/src/stm32f4xx_i2c.c ****   /* Initialize the I2C_AcknowledgedAddress member */
 296:Libraries/STM32F4xx_StdPeriph_Driver/src/stm32f4xx_i2c.c ****   I2C_InitStruct->I2C_AcknowledgedAddress = I2C_AcknowledgedAddress_7bit;
 394              		.loc 1 296 3 is_stmt 1 view .LVU124
 395              		.loc 1 296 43 is_stmt 0 view .LVU125
 396 0014 4FF48043 		mov	r3, #16384
 397 0018 8381     		strh	r3, [r0, #12]	@ movhi
 297:Libraries/STM32F4xx_StdPeriph_Driver/src/stm32f4xx_i2c.c **** }
 398              		.loc 1 297 1 view .LVU126
 399 001a 7047     		bx	lr
 400              		.cfi_endproc
 401              	.LFE125:
 403              		.section	.text.I2C_Cmd,"ax",%progbits
 404              		.align	1
 405              		.global	I2C_Cmd
 406              		.syntax unified
 407              		.thumb
 408              		.thumb_func
 409              		.fpu fpv4-sp-d16
 411              	I2C_Cmd:
 412              	.LVL45:
 413              	.LFB126:
 298:Libraries/STM32F4xx_StdPeriph_Driver/src/stm32f4xx_i2c.c **** 
 299:Libraries/STM32F4xx_StdPeriph_Driver/src/stm32f4xx_i2c.c **** /**
 300:Libraries/STM32F4xx_StdPeriph_Driver/src/stm32f4xx_i2c.c ****   * @brief  Enables or disables the specified I2C peripheral.
ARM GAS  /tmp/cclEJd3j.s 			page 14


 301:Libraries/STM32F4xx_StdPeriph_Driver/src/stm32f4xx_i2c.c ****   * @param  I2Cx: where x can be 1, 2 or 3 to select the I2C peripheral.
 302:Libraries/STM32F4xx_StdPeriph_Driver/src/stm32f4xx_i2c.c ****   * @param  NewState: new state of the I2Cx peripheral. 
 303:Libraries/STM32F4xx_StdPeriph_Driver/src/stm32f4xx_i2c.c ****   *          This parameter can be: ENABLE or DISABLE.
 304:Libraries/STM32F4xx_StdPeriph_Driver/src/stm32f4xx_i2c.c ****   * @retval None
 305:Libraries/STM32F4xx_StdPeriph_Driver/src/stm32f4xx_i2c.c ****   */
 306:Libraries/STM32F4xx_StdPeriph_Driver/src/stm32f4xx_i2c.c **** void I2C_Cmd(I2C_TypeDef* I2Cx, FunctionalState NewState)
 307:Libraries/STM32F4xx_StdPeriph_Driver/src/stm32f4xx_i2c.c **** {
 414              		.loc 1 307 1 is_stmt 1 view -0
 415              		.cfi_startproc
 416              		@ args = 0, pretend = 0, frame = 0
 417              		@ frame_needed = 0, uses_anonymous_args = 0
 418              		@ link register save eliminated.
 308:Libraries/STM32F4xx_StdPeriph_Driver/src/stm32f4xx_i2c.c ****   /* Check the parameters */
 309:Libraries/STM32F4xx_StdPeriph_Driver/src/stm32f4xx_i2c.c ****   assert_param(IS_I2C_ALL_PERIPH(I2Cx));
 419              		.loc 1 309 3 view .LVU128
 310:Libraries/STM32F4xx_StdPeriph_Driver/src/stm32f4xx_i2c.c ****   assert_param(IS_FUNCTIONAL_STATE(NewState));
 420              		.loc 1 310 3 view .LVU129
 311:Libraries/STM32F4xx_StdPeriph_Driver/src/stm32f4xx_i2c.c ****   if (NewState != DISABLE)
 421              		.loc 1 311 3 view .LVU130
 422              		.loc 1 311 6 is_stmt 0 view .LVU131
 423 0000 29B1     		cbz	r1, .L25
 312:Libraries/STM32F4xx_StdPeriph_Driver/src/stm32f4xx_i2c.c ****   {
 313:Libraries/STM32F4xx_StdPeriph_Driver/src/stm32f4xx_i2c.c ****     /* Enable the selected I2C peripheral */
 314:Libraries/STM32F4xx_StdPeriph_Driver/src/stm32f4xx_i2c.c ****     I2Cx->CR1 |= I2C_CR1_PE;
 424              		.loc 1 314 5 is_stmt 1 view .LVU132
 425              		.loc 1 314 15 is_stmt 0 view .LVU133
 426 0002 0388     		ldrh	r3, [r0]
 427 0004 9BB2     		uxth	r3, r3
 428 0006 43F00103 		orr	r3, r3, #1
 429 000a 0380     		strh	r3, [r0]	@ movhi
 430 000c 7047     		bx	lr
 431              	.L25:
 315:Libraries/STM32F4xx_StdPeriph_Driver/src/stm32f4xx_i2c.c ****   }
 316:Libraries/STM32F4xx_StdPeriph_Driver/src/stm32f4xx_i2c.c ****   else
 317:Libraries/STM32F4xx_StdPeriph_Driver/src/stm32f4xx_i2c.c ****   {
 318:Libraries/STM32F4xx_StdPeriph_Driver/src/stm32f4xx_i2c.c ****     /* Disable the selected I2C peripheral */
 319:Libraries/STM32F4xx_StdPeriph_Driver/src/stm32f4xx_i2c.c ****     I2Cx->CR1 &= (uint16_t)~((uint16_t)I2C_CR1_PE);
 432              		.loc 1 319 5 is_stmt 1 view .LVU134
 433              		.loc 1 319 15 is_stmt 0 view .LVU135
 434 000e 0388     		ldrh	r3, [r0]
 435 0010 9BB2     		uxth	r3, r3
 436 0012 23F00103 		bic	r3, r3, #1
 437 0016 9BB2     		uxth	r3, r3
 438 0018 0380     		strh	r3, [r0]	@ movhi
 320:Libraries/STM32F4xx_StdPeriph_Driver/src/stm32f4xx_i2c.c ****   }
 321:Libraries/STM32F4xx_StdPeriph_Driver/src/stm32f4xx_i2c.c **** }
 439              		.loc 1 321 1 view .LVU136
 440 001a 7047     		bx	lr
 441              		.cfi_endproc
 442              	.LFE126:
 444              		.section	.text.I2C_AnalogFilterCmd,"ax",%progbits
 445              		.align	1
 446              		.global	I2C_AnalogFilterCmd
 447              		.syntax unified
 448              		.thumb
 449              		.thumb_func
 450              		.fpu fpv4-sp-d16
ARM GAS  /tmp/cclEJd3j.s 			page 15


 452              	I2C_AnalogFilterCmd:
 453              	.LVL46:
 454              	.LFB127:
 322:Libraries/STM32F4xx_StdPeriph_Driver/src/stm32f4xx_i2c.c **** 
 323:Libraries/STM32F4xx_StdPeriph_Driver/src/stm32f4xx_i2c.c **** /**
 324:Libraries/STM32F4xx_StdPeriph_Driver/src/stm32f4xx_i2c.c ****   * @brief  Enables or disables the Analog filter of I2C peripheral.
 325:Libraries/STM32F4xx_StdPeriph_Driver/src/stm32f4xx_i2c.c ****   * 
 326:Libraries/STM32F4xx_StdPeriph_Driver/src/stm32f4xx_i2c.c ****   * @note   This function can be used only for STM32F42xxx/STM3243xxx, STM32F401xx, STM32F410xx and
 327:Libraries/STM32F4xx_StdPeriph_Driver/src/stm32f4xx_i2c.c ****   *        
 328:Libraries/STM32F4xx_StdPeriph_Driver/src/stm32f4xx_i2c.c ****   * @param  I2Cx: where x can be 1, 2 or 3 to select the I2C peripheral.
 329:Libraries/STM32F4xx_StdPeriph_Driver/src/stm32f4xx_i2c.c ****   * @param  NewState: new state of the Analog filter. 
 330:Libraries/STM32F4xx_StdPeriph_Driver/src/stm32f4xx_i2c.c ****   *          This parameter can be: ENABLE or DISABLE.
 331:Libraries/STM32F4xx_StdPeriph_Driver/src/stm32f4xx_i2c.c ****   * @note   This function should be called before initializing and enabling
 332:Libraries/STM32F4xx_StdPeriph_Driver/src/stm32f4xx_i2c.c ****             the I2C Peripheral.
 333:Libraries/STM32F4xx_StdPeriph_Driver/src/stm32f4xx_i2c.c ****   * @retval None
 334:Libraries/STM32F4xx_StdPeriph_Driver/src/stm32f4xx_i2c.c ****   */
 335:Libraries/STM32F4xx_StdPeriph_Driver/src/stm32f4xx_i2c.c **** void I2C_AnalogFilterCmd(I2C_TypeDef* I2Cx, FunctionalState NewState)
 336:Libraries/STM32F4xx_StdPeriph_Driver/src/stm32f4xx_i2c.c **** {
 455              		.loc 1 336 1 is_stmt 1 view -0
 456              		.cfi_startproc
 457              		@ args = 0, pretend = 0, frame = 0
 458              		@ frame_needed = 0, uses_anonymous_args = 0
 459              		@ link register save eliminated.
 337:Libraries/STM32F4xx_StdPeriph_Driver/src/stm32f4xx_i2c.c ****   /* Check the parameters */
 338:Libraries/STM32F4xx_StdPeriph_Driver/src/stm32f4xx_i2c.c ****   assert_param(IS_I2C_ALL_PERIPH(I2Cx));
 460              		.loc 1 338 3 view .LVU138
 339:Libraries/STM32F4xx_StdPeriph_Driver/src/stm32f4xx_i2c.c ****   assert_param(IS_FUNCTIONAL_STATE(NewState));
 461              		.loc 1 339 3 view .LVU139
 340:Libraries/STM32F4xx_StdPeriph_Driver/src/stm32f4xx_i2c.c ****   if (NewState != DISABLE)
 462              		.loc 1 340 3 view .LVU140
 463              		.loc 1 340 6 is_stmt 0 view .LVU141
 464 0000 31B1     		cbz	r1, .L28
 341:Libraries/STM32F4xx_StdPeriph_Driver/src/stm32f4xx_i2c.c ****   {
 342:Libraries/STM32F4xx_StdPeriph_Driver/src/stm32f4xx_i2c.c ****     /* Enable the analog filter */
 343:Libraries/STM32F4xx_StdPeriph_Driver/src/stm32f4xx_i2c.c ****     I2Cx->FLTR &= (uint16_t)~((uint16_t)I2C_FLTR_ANOFF);    
 465              		.loc 1 343 5 is_stmt 1 view .LVU142
 466              		.loc 1 343 16 is_stmt 0 view .LVU143
 467 0002 838C     		ldrh	r3, [r0, #36]
 468 0004 9BB2     		uxth	r3, r3
 469 0006 23F01003 		bic	r3, r3, #16
 470 000a 9BB2     		uxth	r3, r3
 471 000c 8384     		strh	r3, [r0, #36]	@ movhi
 472 000e 7047     		bx	lr
 473              	.L28:
 344:Libraries/STM32F4xx_StdPeriph_Driver/src/stm32f4xx_i2c.c ****   }
 345:Libraries/STM32F4xx_StdPeriph_Driver/src/stm32f4xx_i2c.c ****   else
 346:Libraries/STM32F4xx_StdPeriph_Driver/src/stm32f4xx_i2c.c ****   {
 347:Libraries/STM32F4xx_StdPeriph_Driver/src/stm32f4xx_i2c.c ****     /* Disable the analog filter */
 348:Libraries/STM32F4xx_StdPeriph_Driver/src/stm32f4xx_i2c.c ****     I2Cx->FLTR |= I2C_FLTR_ANOFF;
 474              		.loc 1 348 5 is_stmt 1 view .LVU144
 475              		.loc 1 348 16 is_stmt 0 view .LVU145
 476 0010 838C     		ldrh	r3, [r0, #36]
 477 0012 9BB2     		uxth	r3, r3
 478 0014 43F01003 		orr	r3, r3, #16
 479 0018 8384     		strh	r3, [r0, #36]	@ movhi
 349:Libraries/STM32F4xx_StdPeriph_Driver/src/stm32f4xx_i2c.c ****   }
 350:Libraries/STM32F4xx_StdPeriph_Driver/src/stm32f4xx_i2c.c **** }
ARM GAS  /tmp/cclEJd3j.s 			page 16


 480              		.loc 1 350 1 view .LVU146
 481 001a 7047     		bx	lr
 482              		.cfi_endproc
 483              	.LFE127:
 485              		.section	.text.I2C_DigitalFilterConfig,"ax",%progbits
 486              		.align	1
 487              		.global	I2C_DigitalFilterConfig
 488              		.syntax unified
 489              		.thumb
 490              		.thumb_func
 491              		.fpu fpv4-sp-d16
 493              	I2C_DigitalFilterConfig:
 494              	.LVL47:
 495              	.LFB128:
 351:Libraries/STM32F4xx_StdPeriph_Driver/src/stm32f4xx_i2c.c **** 
 352:Libraries/STM32F4xx_StdPeriph_Driver/src/stm32f4xx_i2c.c **** /**
 353:Libraries/STM32F4xx_StdPeriph_Driver/src/stm32f4xx_i2c.c ****   * @brief  Configures the Digital noise filter of I2C peripheral.
 354:Libraries/STM32F4xx_StdPeriph_Driver/src/stm32f4xx_i2c.c ****   * 
 355:Libraries/STM32F4xx_StdPeriph_Driver/src/stm32f4xx_i2c.c ****   * @note   This function can be used only for STM32F42xxx/STM3243xxx, STM32F401xx, STM32F410xx and
 356:Libraries/STM32F4xx_StdPeriph_Driver/src/stm32f4xx_i2c.c ****   *       
 357:Libraries/STM32F4xx_StdPeriph_Driver/src/stm32f4xx_i2c.c ****   * @param  I2Cx: where x can be 1, 2 or 3 to select the I2C peripheral.
 358:Libraries/STM32F4xx_StdPeriph_Driver/src/stm32f4xx_i2c.c ****   * @param  I2C_DigitalFilter: Coefficient of digital noise filter. 
 359:Libraries/STM32F4xx_StdPeriph_Driver/src/stm32f4xx_i2c.c ****   *          This parameter can be a number between 0x00 and 0x0F.
 360:Libraries/STM32F4xx_StdPeriph_Driver/src/stm32f4xx_i2c.c ****   * @note   This function should be called before initializing and enabling
 361:Libraries/STM32F4xx_StdPeriph_Driver/src/stm32f4xx_i2c.c ****             the I2C Peripheral.
 362:Libraries/STM32F4xx_StdPeriph_Driver/src/stm32f4xx_i2c.c ****   * @retval None
 363:Libraries/STM32F4xx_StdPeriph_Driver/src/stm32f4xx_i2c.c ****   */
 364:Libraries/STM32F4xx_StdPeriph_Driver/src/stm32f4xx_i2c.c **** void I2C_DigitalFilterConfig(I2C_TypeDef* I2Cx, uint16_t I2C_DigitalFilter)
 365:Libraries/STM32F4xx_StdPeriph_Driver/src/stm32f4xx_i2c.c **** {
 496              		.loc 1 365 1 is_stmt 1 view -0
 497              		.cfi_startproc
 498              		@ args = 0, pretend = 0, frame = 0
 499              		@ frame_needed = 0, uses_anonymous_args = 0
 500              		@ link register save eliminated.
 366:Libraries/STM32F4xx_StdPeriph_Driver/src/stm32f4xx_i2c.c ****   uint16_t tmpreg = 0;
 501              		.loc 1 366 3 view .LVU148
 367:Libraries/STM32F4xx_StdPeriph_Driver/src/stm32f4xx_i2c.c ****   
 368:Libraries/STM32F4xx_StdPeriph_Driver/src/stm32f4xx_i2c.c ****   /* Check the parameters */
 369:Libraries/STM32F4xx_StdPeriph_Driver/src/stm32f4xx_i2c.c ****   assert_param(IS_I2C_ALL_PERIPH(I2Cx));
 502              		.loc 1 369 3 view .LVU149
 370:Libraries/STM32F4xx_StdPeriph_Driver/src/stm32f4xx_i2c.c ****   assert_param(IS_I2C_DIGITAL_FILTER(I2C_DigitalFilter));
 503              		.loc 1 370 3 view .LVU150
 371:Libraries/STM32F4xx_StdPeriph_Driver/src/stm32f4xx_i2c.c ****   
 372:Libraries/STM32F4xx_StdPeriph_Driver/src/stm32f4xx_i2c.c ****   /* Get the old register value */
 373:Libraries/STM32F4xx_StdPeriph_Driver/src/stm32f4xx_i2c.c ****   tmpreg = I2Cx->FLTR;
 504              		.loc 1 373 3 view .LVU151
 505              		.loc 1 373 10 is_stmt 0 view .LVU152
 506 0000 838C     		ldrh	r3, [r0, #36]
 507 0002 9BB2     		uxth	r3, r3
 508              	.LVL48:
 374:Libraries/STM32F4xx_StdPeriph_Driver/src/stm32f4xx_i2c.c ****   
 375:Libraries/STM32F4xx_StdPeriph_Driver/src/stm32f4xx_i2c.c ****   /* Reset I2Cx DNF bit [3:0] */
 376:Libraries/STM32F4xx_StdPeriph_Driver/src/stm32f4xx_i2c.c ****   tmpreg &= (uint16_t)~((uint16_t)I2C_FLTR_DNF);
 509              		.loc 1 376 3 is_stmt 1 view .LVU153
 510              		.loc 1 376 10 is_stmt 0 view .LVU154
 511 0004 23F00F03 		bic	r3, r3, #15
 512              	.LVL49:
ARM GAS  /tmp/cclEJd3j.s 			page 17


 377:Libraries/STM32F4xx_StdPeriph_Driver/src/stm32f4xx_i2c.c ****   
 378:Libraries/STM32F4xx_StdPeriph_Driver/src/stm32f4xx_i2c.c ****   /* Set I2Cx DNF coefficient */
 379:Libraries/STM32F4xx_StdPeriph_Driver/src/stm32f4xx_i2c.c ****   tmpreg |= (uint16_t)((uint16_t)I2C_DigitalFilter & I2C_FLTR_DNF);
 513              		.loc 1 379 3 is_stmt 1 view .LVU155
 514              		.loc 1 379 13 is_stmt 0 view .LVU156
 515 0008 01F00F01 		and	r1, r1, #15
 516              	.LVL50:
 517              		.loc 1 379 10 view .LVU157
 518 000c 0B43     		orrs	r3, r3, r1
 519              	.LVL51:
 380:Libraries/STM32F4xx_StdPeriph_Driver/src/stm32f4xx_i2c.c ****   
 381:Libraries/STM32F4xx_StdPeriph_Driver/src/stm32f4xx_i2c.c ****   /* Store the new register value */
 382:Libraries/STM32F4xx_StdPeriph_Driver/src/stm32f4xx_i2c.c ****   I2Cx->FLTR = tmpreg;
 520              		.loc 1 382 3 is_stmt 1 view .LVU158
 521              		.loc 1 382 14 is_stmt 0 view .LVU159
 522 000e 8384     		strh	r3, [r0, #36]	@ movhi
 383:Libraries/STM32F4xx_StdPeriph_Driver/src/stm32f4xx_i2c.c **** }
 523              		.loc 1 383 1 view .LVU160
 524 0010 7047     		bx	lr
 525              		.cfi_endproc
 526              	.LFE128:
 528              		.section	.text.I2C_GenerateSTART,"ax",%progbits
 529              		.align	1
 530              		.global	I2C_GenerateSTART
 531              		.syntax unified
 532              		.thumb
 533              		.thumb_func
 534              		.fpu fpv4-sp-d16
 536              	I2C_GenerateSTART:
 537              	.LVL52:
 538              	.LFB129:
 384:Libraries/STM32F4xx_StdPeriph_Driver/src/stm32f4xx_i2c.c **** 
 385:Libraries/STM32F4xx_StdPeriph_Driver/src/stm32f4xx_i2c.c **** /**
 386:Libraries/STM32F4xx_StdPeriph_Driver/src/stm32f4xx_i2c.c ****   * @brief  Generates I2Cx communication START condition.
 387:Libraries/STM32F4xx_StdPeriph_Driver/src/stm32f4xx_i2c.c ****   * @param  I2Cx: where x can be 1, 2 or 3 to select the I2C peripheral.
 388:Libraries/STM32F4xx_StdPeriph_Driver/src/stm32f4xx_i2c.c ****   * @param  NewState: new state of the I2C START condition generation.
 389:Libraries/STM32F4xx_StdPeriph_Driver/src/stm32f4xx_i2c.c ****   *          This parameter can be: ENABLE or DISABLE.
 390:Libraries/STM32F4xx_StdPeriph_Driver/src/stm32f4xx_i2c.c ****   * @retval None.
 391:Libraries/STM32F4xx_StdPeriph_Driver/src/stm32f4xx_i2c.c ****   */
 392:Libraries/STM32F4xx_StdPeriph_Driver/src/stm32f4xx_i2c.c **** void I2C_GenerateSTART(I2C_TypeDef* I2Cx, FunctionalState NewState)
 393:Libraries/STM32F4xx_StdPeriph_Driver/src/stm32f4xx_i2c.c **** {
 539              		.loc 1 393 1 is_stmt 1 view -0
 540              		.cfi_startproc
 541              		@ args = 0, pretend = 0, frame = 0
 542              		@ frame_needed = 0, uses_anonymous_args = 0
 543              		@ link register save eliminated.
 394:Libraries/STM32F4xx_StdPeriph_Driver/src/stm32f4xx_i2c.c ****   /* Check the parameters */
 395:Libraries/STM32F4xx_StdPeriph_Driver/src/stm32f4xx_i2c.c ****   assert_param(IS_I2C_ALL_PERIPH(I2Cx));
 544              		.loc 1 395 3 view .LVU162
 396:Libraries/STM32F4xx_StdPeriph_Driver/src/stm32f4xx_i2c.c ****   assert_param(IS_FUNCTIONAL_STATE(NewState));
 545              		.loc 1 396 3 view .LVU163
 397:Libraries/STM32F4xx_StdPeriph_Driver/src/stm32f4xx_i2c.c ****   if (NewState != DISABLE)
 546              		.loc 1 397 3 view .LVU164
 547              		.loc 1 397 6 is_stmt 0 view .LVU165
 548 0000 29B1     		cbz	r1, .L32
 398:Libraries/STM32F4xx_StdPeriph_Driver/src/stm32f4xx_i2c.c ****   {
 399:Libraries/STM32F4xx_StdPeriph_Driver/src/stm32f4xx_i2c.c ****     /* Generate a START condition */
ARM GAS  /tmp/cclEJd3j.s 			page 18


 400:Libraries/STM32F4xx_StdPeriph_Driver/src/stm32f4xx_i2c.c ****     I2Cx->CR1 |= I2C_CR1_START;
 549              		.loc 1 400 5 is_stmt 1 view .LVU166
 550              		.loc 1 400 15 is_stmt 0 view .LVU167
 551 0002 0388     		ldrh	r3, [r0]
 552 0004 9BB2     		uxth	r3, r3
 553 0006 43F48073 		orr	r3, r3, #256
 554 000a 0380     		strh	r3, [r0]	@ movhi
 555 000c 7047     		bx	lr
 556              	.L32:
 401:Libraries/STM32F4xx_StdPeriph_Driver/src/stm32f4xx_i2c.c ****   }
 402:Libraries/STM32F4xx_StdPeriph_Driver/src/stm32f4xx_i2c.c ****   else
 403:Libraries/STM32F4xx_StdPeriph_Driver/src/stm32f4xx_i2c.c ****   {
 404:Libraries/STM32F4xx_StdPeriph_Driver/src/stm32f4xx_i2c.c ****     /* Disable the START condition generation */
 405:Libraries/STM32F4xx_StdPeriph_Driver/src/stm32f4xx_i2c.c ****     I2Cx->CR1 &= (uint16_t)~((uint16_t)I2C_CR1_START);
 557              		.loc 1 405 5 is_stmt 1 view .LVU168
 558              		.loc 1 405 15 is_stmt 0 view .LVU169
 559 000e 0388     		ldrh	r3, [r0]
 560 0010 9BB2     		uxth	r3, r3
 561 0012 23F48073 		bic	r3, r3, #256
 562 0016 9BB2     		uxth	r3, r3
 563 0018 0380     		strh	r3, [r0]	@ movhi
 406:Libraries/STM32F4xx_StdPeriph_Driver/src/stm32f4xx_i2c.c ****   }
 407:Libraries/STM32F4xx_StdPeriph_Driver/src/stm32f4xx_i2c.c **** }
 564              		.loc 1 407 1 view .LVU170
 565 001a 7047     		bx	lr
 566              		.cfi_endproc
 567              	.LFE129:
 569              		.section	.text.I2C_GenerateSTOP,"ax",%progbits
 570              		.align	1
 571              		.global	I2C_GenerateSTOP
 572              		.syntax unified
 573              		.thumb
 574              		.thumb_func
 575              		.fpu fpv4-sp-d16
 577              	I2C_GenerateSTOP:
 578              	.LVL53:
 579              	.LFB130:
 408:Libraries/STM32F4xx_StdPeriph_Driver/src/stm32f4xx_i2c.c **** 
 409:Libraries/STM32F4xx_StdPeriph_Driver/src/stm32f4xx_i2c.c **** /**
 410:Libraries/STM32F4xx_StdPeriph_Driver/src/stm32f4xx_i2c.c ****   * @brief  Generates I2Cx communication STOP condition.
 411:Libraries/STM32F4xx_StdPeriph_Driver/src/stm32f4xx_i2c.c ****   * @param  I2Cx: where x can be 1, 2 or 3 to select the I2C peripheral.
 412:Libraries/STM32F4xx_StdPeriph_Driver/src/stm32f4xx_i2c.c ****   * @param  NewState: new state of the I2C STOP condition generation.
 413:Libraries/STM32F4xx_StdPeriph_Driver/src/stm32f4xx_i2c.c ****   *          This parameter can be: ENABLE or DISABLE.
 414:Libraries/STM32F4xx_StdPeriph_Driver/src/stm32f4xx_i2c.c ****   * @retval None.
 415:Libraries/STM32F4xx_StdPeriph_Driver/src/stm32f4xx_i2c.c ****   */
 416:Libraries/STM32F4xx_StdPeriph_Driver/src/stm32f4xx_i2c.c **** void I2C_GenerateSTOP(I2C_TypeDef* I2Cx, FunctionalState NewState)
 417:Libraries/STM32F4xx_StdPeriph_Driver/src/stm32f4xx_i2c.c **** {
 580              		.loc 1 417 1 is_stmt 1 view -0
 581              		.cfi_startproc
 582              		@ args = 0, pretend = 0, frame = 0
 583              		@ frame_needed = 0, uses_anonymous_args = 0
 584              		@ link register save eliminated.
 418:Libraries/STM32F4xx_StdPeriph_Driver/src/stm32f4xx_i2c.c ****   /* Check the parameters */
 419:Libraries/STM32F4xx_StdPeriph_Driver/src/stm32f4xx_i2c.c ****   assert_param(IS_I2C_ALL_PERIPH(I2Cx));
 585              		.loc 1 419 3 view .LVU172
 420:Libraries/STM32F4xx_StdPeriph_Driver/src/stm32f4xx_i2c.c ****   assert_param(IS_FUNCTIONAL_STATE(NewState));
 586              		.loc 1 420 3 view .LVU173
ARM GAS  /tmp/cclEJd3j.s 			page 19


 421:Libraries/STM32F4xx_StdPeriph_Driver/src/stm32f4xx_i2c.c ****   if (NewState != DISABLE)
 587              		.loc 1 421 3 view .LVU174
 588              		.loc 1 421 6 is_stmt 0 view .LVU175
 589 0000 29B1     		cbz	r1, .L35
 422:Libraries/STM32F4xx_StdPeriph_Driver/src/stm32f4xx_i2c.c ****   {
 423:Libraries/STM32F4xx_StdPeriph_Driver/src/stm32f4xx_i2c.c ****     /* Generate a STOP condition */
 424:Libraries/STM32F4xx_StdPeriph_Driver/src/stm32f4xx_i2c.c ****     I2Cx->CR1 |= I2C_CR1_STOP;
 590              		.loc 1 424 5 is_stmt 1 view .LVU176
 591              		.loc 1 424 15 is_stmt 0 view .LVU177
 592 0002 0388     		ldrh	r3, [r0]
 593 0004 9BB2     		uxth	r3, r3
 594 0006 43F40073 		orr	r3, r3, #512
 595 000a 0380     		strh	r3, [r0]	@ movhi
 596 000c 7047     		bx	lr
 597              	.L35:
 425:Libraries/STM32F4xx_StdPeriph_Driver/src/stm32f4xx_i2c.c ****   }
 426:Libraries/STM32F4xx_StdPeriph_Driver/src/stm32f4xx_i2c.c ****   else
 427:Libraries/STM32F4xx_StdPeriph_Driver/src/stm32f4xx_i2c.c ****   {
 428:Libraries/STM32F4xx_StdPeriph_Driver/src/stm32f4xx_i2c.c ****     /* Disable the STOP condition generation */
 429:Libraries/STM32F4xx_StdPeriph_Driver/src/stm32f4xx_i2c.c ****     I2Cx->CR1 &= (uint16_t)~((uint16_t)I2C_CR1_STOP);
 598              		.loc 1 429 5 is_stmt 1 view .LVU178
 599              		.loc 1 429 15 is_stmt 0 view .LVU179
 600 000e 0388     		ldrh	r3, [r0]
 601 0010 9BB2     		uxth	r3, r3
 602 0012 23F40073 		bic	r3, r3, #512
 603 0016 9BB2     		uxth	r3, r3
 604 0018 0380     		strh	r3, [r0]	@ movhi
 430:Libraries/STM32F4xx_StdPeriph_Driver/src/stm32f4xx_i2c.c ****   }
 431:Libraries/STM32F4xx_StdPeriph_Driver/src/stm32f4xx_i2c.c **** }
 605              		.loc 1 431 1 view .LVU180
 606 001a 7047     		bx	lr
 607              		.cfi_endproc
 608              	.LFE130:
 610              		.section	.text.I2C_Send7bitAddress,"ax",%progbits
 611              		.align	1
 612              		.global	I2C_Send7bitAddress
 613              		.syntax unified
 614              		.thumb
 615              		.thumb_func
 616              		.fpu fpv4-sp-d16
 618              	I2C_Send7bitAddress:
 619              	.LVL54:
 620              	.LFB131:
 432:Libraries/STM32F4xx_StdPeriph_Driver/src/stm32f4xx_i2c.c **** 
 433:Libraries/STM32F4xx_StdPeriph_Driver/src/stm32f4xx_i2c.c **** /**
 434:Libraries/STM32F4xx_StdPeriph_Driver/src/stm32f4xx_i2c.c ****   * @brief  Transmits the address byte to select the slave device.
 435:Libraries/STM32F4xx_StdPeriph_Driver/src/stm32f4xx_i2c.c ****   * @param  I2Cx: where x can be 1, 2 or 3 to select the I2C peripheral.
 436:Libraries/STM32F4xx_StdPeriph_Driver/src/stm32f4xx_i2c.c ****   * @param  Address: specifies the slave address which will be transmitted
 437:Libraries/STM32F4xx_StdPeriph_Driver/src/stm32f4xx_i2c.c ****   * @param  I2C_Direction: specifies whether the I2C device will be a Transmitter
 438:Libraries/STM32F4xx_StdPeriph_Driver/src/stm32f4xx_i2c.c ****   *         or a Receiver. 
 439:Libraries/STM32F4xx_StdPeriph_Driver/src/stm32f4xx_i2c.c ****   *          This parameter can be one of the following values
 440:Libraries/STM32F4xx_StdPeriph_Driver/src/stm32f4xx_i2c.c ****   *            @arg I2C_Direction_Transmitter: Transmitter mode
 441:Libraries/STM32F4xx_StdPeriph_Driver/src/stm32f4xx_i2c.c ****   *            @arg I2C_Direction_Receiver: Receiver mode
 442:Libraries/STM32F4xx_StdPeriph_Driver/src/stm32f4xx_i2c.c ****   * @retval None.
 443:Libraries/STM32F4xx_StdPeriph_Driver/src/stm32f4xx_i2c.c ****   */
 444:Libraries/STM32F4xx_StdPeriph_Driver/src/stm32f4xx_i2c.c **** void I2C_Send7bitAddress(I2C_TypeDef* I2Cx, uint8_t Address, uint8_t I2C_Direction)
 445:Libraries/STM32F4xx_StdPeriph_Driver/src/stm32f4xx_i2c.c **** {
ARM GAS  /tmp/cclEJd3j.s 			page 20


 621              		.loc 1 445 1 is_stmt 1 view -0
 622              		.cfi_startproc
 623              		@ args = 0, pretend = 0, frame = 0
 624              		@ frame_needed = 0, uses_anonymous_args = 0
 625              		@ link register save eliminated.
 446:Libraries/STM32F4xx_StdPeriph_Driver/src/stm32f4xx_i2c.c ****   /* Check the parameters */
 447:Libraries/STM32F4xx_StdPeriph_Driver/src/stm32f4xx_i2c.c ****   assert_param(IS_I2C_ALL_PERIPH(I2Cx));
 626              		.loc 1 447 3 view .LVU182
 448:Libraries/STM32F4xx_StdPeriph_Driver/src/stm32f4xx_i2c.c ****   assert_param(IS_I2C_DIRECTION(I2C_Direction));
 627              		.loc 1 448 3 view .LVU183
 449:Libraries/STM32F4xx_StdPeriph_Driver/src/stm32f4xx_i2c.c ****   /* Test on the direction to set/reset the read/write bit */
 450:Libraries/STM32F4xx_StdPeriph_Driver/src/stm32f4xx_i2c.c ****   if (I2C_Direction != I2C_Direction_Transmitter)
 628              		.loc 1 450 3 view .LVU184
 629              		.loc 1 450 6 is_stmt 0 view .LVU185
 630 0000 22B1     		cbz	r2, .L38
 451:Libraries/STM32F4xx_StdPeriph_Driver/src/stm32f4xx_i2c.c ****   {
 452:Libraries/STM32F4xx_StdPeriph_Driver/src/stm32f4xx_i2c.c ****     /* Set the address bit0 for read */
 453:Libraries/STM32F4xx_StdPeriph_Driver/src/stm32f4xx_i2c.c ****     Address |= I2C_OAR1_ADD0;
 631              		.loc 1 453 5 is_stmt 1 view .LVU186
 632              		.loc 1 453 13 is_stmt 0 view .LVU187
 633 0002 41F00101 		orr	r1, r1, #1
 634              	.LVL55:
 635              	.L39:
 454:Libraries/STM32F4xx_StdPeriph_Driver/src/stm32f4xx_i2c.c ****   }
 455:Libraries/STM32F4xx_StdPeriph_Driver/src/stm32f4xx_i2c.c ****   else
 456:Libraries/STM32F4xx_StdPeriph_Driver/src/stm32f4xx_i2c.c ****   {
 457:Libraries/STM32F4xx_StdPeriph_Driver/src/stm32f4xx_i2c.c ****     /* Reset the address bit0 for write */
 458:Libraries/STM32F4xx_StdPeriph_Driver/src/stm32f4xx_i2c.c ****     Address &= (uint8_t)~((uint8_t)I2C_OAR1_ADD0);
 459:Libraries/STM32F4xx_StdPeriph_Driver/src/stm32f4xx_i2c.c ****   }
 460:Libraries/STM32F4xx_StdPeriph_Driver/src/stm32f4xx_i2c.c ****   /* Send the address */
 461:Libraries/STM32F4xx_StdPeriph_Driver/src/stm32f4xx_i2c.c ****   I2Cx->DR = Address;
 636              		.loc 1 461 3 is_stmt 1 view .LVU188
 637              		.loc 1 461 12 is_stmt 0 view .LVU189
 638 0006 89B2     		uxth	r1, r1
 639              	.LVL56:
 640              		.loc 1 461 12 view .LVU190
 641 0008 0182     		strh	r1, [r0, #16]	@ movhi
 462:Libraries/STM32F4xx_StdPeriph_Driver/src/stm32f4xx_i2c.c **** }
 642              		.loc 1 462 1 view .LVU191
 643 000a 7047     		bx	lr
 644              	.LVL57:
 645              	.L38:
 458:Libraries/STM32F4xx_StdPeriph_Driver/src/stm32f4xx_i2c.c ****   }
 646              		.loc 1 458 5 is_stmt 1 view .LVU192
 458:Libraries/STM32F4xx_StdPeriph_Driver/src/stm32f4xx_i2c.c ****   }
 647              		.loc 1 458 13 is_stmt 0 view .LVU193
 648 000c 01F0FE01 		and	r1, r1, #254
 649              	.LVL58:
 458:Libraries/STM32F4xx_StdPeriph_Driver/src/stm32f4xx_i2c.c ****   }
 650              		.loc 1 458 13 view .LVU194
 651 0010 F9E7     		b	.L39
 652              		.cfi_endproc
 653              	.LFE131:
 655              		.section	.text.I2C_AcknowledgeConfig,"ax",%progbits
 656              		.align	1
 657              		.global	I2C_AcknowledgeConfig
 658              		.syntax unified
ARM GAS  /tmp/cclEJd3j.s 			page 21


 659              		.thumb
 660              		.thumb_func
 661              		.fpu fpv4-sp-d16
 663              	I2C_AcknowledgeConfig:
 664              	.LVL59:
 665              	.LFB132:
 463:Libraries/STM32F4xx_StdPeriph_Driver/src/stm32f4xx_i2c.c **** 
 464:Libraries/STM32F4xx_StdPeriph_Driver/src/stm32f4xx_i2c.c **** /**
 465:Libraries/STM32F4xx_StdPeriph_Driver/src/stm32f4xx_i2c.c ****   * @brief  Enables or disables the specified I2C acknowledge feature.
 466:Libraries/STM32F4xx_StdPeriph_Driver/src/stm32f4xx_i2c.c ****   * @param  I2Cx: where x can be 1, 2 or 3 to select the I2C peripheral.
 467:Libraries/STM32F4xx_StdPeriph_Driver/src/stm32f4xx_i2c.c ****   * @param  NewState: new state of the I2C Acknowledgement.
 468:Libraries/STM32F4xx_StdPeriph_Driver/src/stm32f4xx_i2c.c ****   *          This parameter can be: ENABLE or DISABLE.
 469:Libraries/STM32F4xx_StdPeriph_Driver/src/stm32f4xx_i2c.c ****   * @retval None.
 470:Libraries/STM32F4xx_StdPeriph_Driver/src/stm32f4xx_i2c.c ****   */
 471:Libraries/STM32F4xx_StdPeriph_Driver/src/stm32f4xx_i2c.c **** void I2C_AcknowledgeConfig(I2C_TypeDef* I2Cx, FunctionalState NewState)
 472:Libraries/STM32F4xx_StdPeriph_Driver/src/stm32f4xx_i2c.c **** {
 666              		.loc 1 472 1 is_stmt 1 view -0
 667              		.cfi_startproc
 668              		@ args = 0, pretend = 0, frame = 0
 669              		@ frame_needed = 0, uses_anonymous_args = 0
 670              		@ link register save eliminated.
 473:Libraries/STM32F4xx_StdPeriph_Driver/src/stm32f4xx_i2c.c ****   /* Check the parameters */
 474:Libraries/STM32F4xx_StdPeriph_Driver/src/stm32f4xx_i2c.c ****   assert_param(IS_I2C_ALL_PERIPH(I2Cx));
 671              		.loc 1 474 3 view .LVU196
 475:Libraries/STM32F4xx_StdPeriph_Driver/src/stm32f4xx_i2c.c ****   assert_param(IS_FUNCTIONAL_STATE(NewState));
 672              		.loc 1 475 3 view .LVU197
 476:Libraries/STM32F4xx_StdPeriph_Driver/src/stm32f4xx_i2c.c ****   if (NewState != DISABLE)
 673              		.loc 1 476 3 view .LVU198
 674              		.loc 1 476 6 is_stmt 0 view .LVU199
 675 0000 29B1     		cbz	r1, .L41
 477:Libraries/STM32F4xx_StdPeriph_Driver/src/stm32f4xx_i2c.c ****   {
 478:Libraries/STM32F4xx_StdPeriph_Driver/src/stm32f4xx_i2c.c ****     /* Enable the acknowledgement */
 479:Libraries/STM32F4xx_StdPeriph_Driver/src/stm32f4xx_i2c.c ****     I2Cx->CR1 |= I2C_CR1_ACK;
 676              		.loc 1 479 5 is_stmt 1 view .LVU200
 677              		.loc 1 479 15 is_stmt 0 view .LVU201
 678 0002 0388     		ldrh	r3, [r0]
 679 0004 9BB2     		uxth	r3, r3
 680 0006 43F48063 		orr	r3, r3, #1024
 681 000a 0380     		strh	r3, [r0]	@ movhi
 682 000c 7047     		bx	lr
 683              	.L41:
 480:Libraries/STM32F4xx_StdPeriph_Driver/src/stm32f4xx_i2c.c ****   }
 481:Libraries/STM32F4xx_StdPeriph_Driver/src/stm32f4xx_i2c.c ****   else
 482:Libraries/STM32F4xx_StdPeriph_Driver/src/stm32f4xx_i2c.c ****   {
 483:Libraries/STM32F4xx_StdPeriph_Driver/src/stm32f4xx_i2c.c ****     /* Disable the acknowledgement */
 484:Libraries/STM32F4xx_StdPeriph_Driver/src/stm32f4xx_i2c.c ****     I2Cx->CR1 &= (uint16_t)~((uint16_t)I2C_CR1_ACK);
 684              		.loc 1 484 5 is_stmt 1 view .LVU202
 685              		.loc 1 484 15 is_stmt 0 view .LVU203
 686 000e 0388     		ldrh	r3, [r0]
 687 0010 9BB2     		uxth	r3, r3
 688 0012 23F48063 		bic	r3, r3, #1024
 689 0016 9BB2     		uxth	r3, r3
 690 0018 0380     		strh	r3, [r0]	@ movhi
 485:Libraries/STM32F4xx_StdPeriph_Driver/src/stm32f4xx_i2c.c ****   }
 486:Libraries/STM32F4xx_StdPeriph_Driver/src/stm32f4xx_i2c.c **** }
 691              		.loc 1 486 1 view .LVU204
 692 001a 7047     		bx	lr
ARM GAS  /tmp/cclEJd3j.s 			page 22


 693              		.cfi_endproc
 694              	.LFE132:
 696              		.section	.text.I2C_OwnAddress2Config,"ax",%progbits
 697              		.align	1
 698              		.global	I2C_OwnAddress2Config
 699              		.syntax unified
 700              		.thumb
 701              		.thumb_func
 702              		.fpu fpv4-sp-d16
 704              	I2C_OwnAddress2Config:
 705              	.LVL60:
 706              	.LFB133:
 487:Libraries/STM32F4xx_StdPeriph_Driver/src/stm32f4xx_i2c.c **** 
 488:Libraries/STM32F4xx_StdPeriph_Driver/src/stm32f4xx_i2c.c **** /**
 489:Libraries/STM32F4xx_StdPeriph_Driver/src/stm32f4xx_i2c.c ****   * @brief  Configures the specified I2C own address2.
 490:Libraries/STM32F4xx_StdPeriph_Driver/src/stm32f4xx_i2c.c ****   * @param  I2Cx: where x can be 1, 2 or 3 to select the I2C peripheral.
 491:Libraries/STM32F4xx_StdPeriph_Driver/src/stm32f4xx_i2c.c ****   * @param  Address: specifies the 7bit I2C own address2.
 492:Libraries/STM32F4xx_StdPeriph_Driver/src/stm32f4xx_i2c.c ****   * @retval None.
 493:Libraries/STM32F4xx_StdPeriph_Driver/src/stm32f4xx_i2c.c ****   */
 494:Libraries/STM32F4xx_StdPeriph_Driver/src/stm32f4xx_i2c.c **** void I2C_OwnAddress2Config(I2C_TypeDef* I2Cx, uint8_t Address)
 495:Libraries/STM32F4xx_StdPeriph_Driver/src/stm32f4xx_i2c.c **** {
 707              		.loc 1 495 1 is_stmt 1 view -0
 708              		.cfi_startproc
 709              		@ args = 0, pretend = 0, frame = 0
 710              		@ frame_needed = 0, uses_anonymous_args = 0
 711              		@ link register save eliminated.
 496:Libraries/STM32F4xx_StdPeriph_Driver/src/stm32f4xx_i2c.c ****   uint16_t tmpreg = 0;
 712              		.loc 1 496 3 view .LVU206
 497:Libraries/STM32F4xx_StdPeriph_Driver/src/stm32f4xx_i2c.c **** 
 498:Libraries/STM32F4xx_StdPeriph_Driver/src/stm32f4xx_i2c.c ****   /* Check the parameters */
 499:Libraries/STM32F4xx_StdPeriph_Driver/src/stm32f4xx_i2c.c ****   assert_param(IS_I2C_ALL_PERIPH(I2Cx));
 713              		.loc 1 499 3 view .LVU207
 500:Libraries/STM32F4xx_StdPeriph_Driver/src/stm32f4xx_i2c.c **** 
 501:Libraries/STM32F4xx_StdPeriph_Driver/src/stm32f4xx_i2c.c ****   /* Get the old register value */
 502:Libraries/STM32F4xx_StdPeriph_Driver/src/stm32f4xx_i2c.c ****   tmpreg = I2Cx->OAR2;
 714              		.loc 1 502 3 view .LVU208
 715              		.loc 1 502 10 is_stmt 0 view .LVU209
 716 0000 8389     		ldrh	r3, [r0, #12]
 717 0002 9BB2     		uxth	r3, r3
 718              	.LVL61:
 503:Libraries/STM32F4xx_StdPeriph_Driver/src/stm32f4xx_i2c.c **** 
 504:Libraries/STM32F4xx_StdPeriph_Driver/src/stm32f4xx_i2c.c ****   /* Reset I2Cx Own address2 bit [7:1] */
 505:Libraries/STM32F4xx_StdPeriph_Driver/src/stm32f4xx_i2c.c ****   tmpreg &= (uint16_t)~((uint16_t)I2C_OAR2_ADD2);
 719              		.loc 1 505 3 is_stmt 1 view .LVU210
 720              		.loc 1 505 10 is_stmt 0 view .LVU211
 721 0004 23F0FE03 		bic	r3, r3, #254
 722              	.LVL62:
 506:Libraries/STM32F4xx_StdPeriph_Driver/src/stm32f4xx_i2c.c **** 
 507:Libraries/STM32F4xx_StdPeriph_Driver/src/stm32f4xx_i2c.c ****   /* Set I2Cx Own address2 */
 508:Libraries/STM32F4xx_StdPeriph_Driver/src/stm32f4xx_i2c.c ****   tmpreg |= (uint16_t)((uint16_t)Address & (uint16_t)0x00FE);
 723              		.loc 1 508 3 is_stmt 1 view .LVU212
 724              		.loc 1 508 13 is_stmt 0 view .LVU213
 725 0008 01F0FE01 		and	r1, r1, #254
 726              	.LVL63:
 727              		.loc 1 508 10 view .LVU214
 728 000c 0B43     		orrs	r3, r3, r1
 729              	.LVL64:
ARM GAS  /tmp/cclEJd3j.s 			page 23


 509:Libraries/STM32F4xx_StdPeriph_Driver/src/stm32f4xx_i2c.c **** 
 510:Libraries/STM32F4xx_StdPeriph_Driver/src/stm32f4xx_i2c.c ****   /* Store the new register value */
 511:Libraries/STM32F4xx_StdPeriph_Driver/src/stm32f4xx_i2c.c ****   I2Cx->OAR2 = tmpreg;
 730              		.loc 1 511 3 is_stmt 1 view .LVU215
 731              		.loc 1 511 14 is_stmt 0 view .LVU216
 732 000e 8381     		strh	r3, [r0, #12]	@ movhi
 512:Libraries/STM32F4xx_StdPeriph_Driver/src/stm32f4xx_i2c.c **** }
 733              		.loc 1 512 1 view .LVU217
 734 0010 7047     		bx	lr
 735              		.cfi_endproc
 736              	.LFE133:
 738              		.section	.text.I2C_DualAddressCmd,"ax",%progbits
 739              		.align	1
 740              		.global	I2C_DualAddressCmd
 741              		.syntax unified
 742              		.thumb
 743              		.thumb_func
 744              		.fpu fpv4-sp-d16
 746              	I2C_DualAddressCmd:
 747              	.LVL65:
 748              	.LFB134:
 513:Libraries/STM32F4xx_StdPeriph_Driver/src/stm32f4xx_i2c.c **** 
 514:Libraries/STM32F4xx_StdPeriph_Driver/src/stm32f4xx_i2c.c **** /**
 515:Libraries/STM32F4xx_StdPeriph_Driver/src/stm32f4xx_i2c.c ****   * @brief  Enables or disables the specified I2C dual addressing mode.
 516:Libraries/STM32F4xx_StdPeriph_Driver/src/stm32f4xx_i2c.c ****   * @param  I2Cx: where x can be 1, 2 or 3 to select the I2C peripheral.
 517:Libraries/STM32F4xx_StdPeriph_Driver/src/stm32f4xx_i2c.c ****   * @param  NewState: new state of the I2C dual addressing mode.
 518:Libraries/STM32F4xx_StdPeriph_Driver/src/stm32f4xx_i2c.c ****   *          This parameter can be: ENABLE or DISABLE.
 519:Libraries/STM32F4xx_StdPeriph_Driver/src/stm32f4xx_i2c.c ****   * @retval None
 520:Libraries/STM32F4xx_StdPeriph_Driver/src/stm32f4xx_i2c.c ****   */
 521:Libraries/STM32F4xx_StdPeriph_Driver/src/stm32f4xx_i2c.c **** void I2C_DualAddressCmd(I2C_TypeDef* I2Cx, FunctionalState NewState)
 522:Libraries/STM32F4xx_StdPeriph_Driver/src/stm32f4xx_i2c.c **** {
 749              		.loc 1 522 1 is_stmt 1 view -0
 750              		.cfi_startproc
 751              		@ args = 0, pretend = 0, frame = 0
 752              		@ frame_needed = 0, uses_anonymous_args = 0
 753              		@ link register save eliminated.
 523:Libraries/STM32F4xx_StdPeriph_Driver/src/stm32f4xx_i2c.c ****   /* Check the parameters */
 524:Libraries/STM32F4xx_StdPeriph_Driver/src/stm32f4xx_i2c.c ****   assert_param(IS_I2C_ALL_PERIPH(I2Cx));
 754              		.loc 1 524 3 view .LVU219
 525:Libraries/STM32F4xx_StdPeriph_Driver/src/stm32f4xx_i2c.c ****   assert_param(IS_FUNCTIONAL_STATE(NewState));
 755              		.loc 1 525 3 view .LVU220
 526:Libraries/STM32F4xx_StdPeriph_Driver/src/stm32f4xx_i2c.c ****   if (NewState != DISABLE)
 756              		.loc 1 526 3 view .LVU221
 757              		.loc 1 526 6 is_stmt 0 view .LVU222
 758 0000 29B1     		cbz	r1, .L45
 527:Libraries/STM32F4xx_StdPeriph_Driver/src/stm32f4xx_i2c.c ****   {
 528:Libraries/STM32F4xx_StdPeriph_Driver/src/stm32f4xx_i2c.c ****     /* Enable dual addressing mode */
 529:Libraries/STM32F4xx_StdPeriph_Driver/src/stm32f4xx_i2c.c ****     I2Cx->OAR2 |= I2C_OAR2_ENDUAL;
 759              		.loc 1 529 5 is_stmt 1 view .LVU223
 760              		.loc 1 529 16 is_stmt 0 view .LVU224
 761 0002 8389     		ldrh	r3, [r0, #12]
 762 0004 9BB2     		uxth	r3, r3
 763 0006 43F00103 		orr	r3, r3, #1
 764 000a 8381     		strh	r3, [r0, #12]	@ movhi
 765 000c 7047     		bx	lr
 766              	.L45:
 530:Libraries/STM32F4xx_StdPeriph_Driver/src/stm32f4xx_i2c.c ****   }
ARM GAS  /tmp/cclEJd3j.s 			page 24


 531:Libraries/STM32F4xx_StdPeriph_Driver/src/stm32f4xx_i2c.c ****   else
 532:Libraries/STM32F4xx_StdPeriph_Driver/src/stm32f4xx_i2c.c ****   {
 533:Libraries/STM32F4xx_StdPeriph_Driver/src/stm32f4xx_i2c.c ****     /* Disable dual addressing mode */
 534:Libraries/STM32F4xx_StdPeriph_Driver/src/stm32f4xx_i2c.c ****     I2Cx->OAR2 &= (uint16_t)~((uint16_t)I2C_OAR2_ENDUAL);
 767              		.loc 1 534 5 is_stmt 1 view .LVU225
 768              		.loc 1 534 16 is_stmt 0 view .LVU226
 769 000e 8389     		ldrh	r3, [r0, #12]
 770 0010 9BB2     		uxth	r3, r3
 771 0012 23F00103 		bic	r3, r3, #1
 772 0016 9BB2     		uxth	r3, r3
 773 0018 8381     		strh	r3, [r0, #12]	@ movhi
 535:Libraries/STM32F4xx_StdPeriph_Driver/src/stm32f4xx_i2c.c ****   }
 536:Libraries/STM32F4xx_StdPeriph_Driver/src/stm32f4xx_i2c.c **** }
 774              		.loc 1 536 1 view .LVU227
 775 001a 7047     		bx	lr
 776              		.cfi_endproc
 777              	.LFE134:
 779              		.section	.text.I2C_GeneralCallCmd,"ax",%progbits
 780              		.align	1
 781              		.global	I2C_GeneralCallCmd
 782              		.syntax unified
 783              		.thumb
 784              		.thumb_func
 785              		.fpu fpv4-sp-d16
 787              	I2C_GeneralCallCmd:
 788              	.LVL66:
 789              	.LFB135:
 537:Libraries/STM32F4xx_StdPeriph_Driver/src/stm32f4xx_i2c.c **** 
 538:Libraries/STM32F4xx_StdPeriph_Driver/src/stm32f4xx_i2c.c **** /**
 539:Libraries/STM32F4xx_StdPeriph_Driver/src/stm32f4xx_i2c.c ****   * @brief  Enables or disables the specified I2C general call feature.
 540:Libraries/STM32F4xx_StdPeriph_Driver/src/stm32f4xx_i2c.c ****   * @param  I2Cx: where x can be 1, 2 or 3 to select the I2C peripheral.
 541:Libraries/STM32F4xx_StdPeriph_Driver/src/stm32f4xx_i2c.c ****   * @param  NewState: new state of the I2C General call.
 542:Libraries/STM32F4xx_StdPeriph_Driver/src/stm32f4xx_i2c.c ****   *          This parameter can be: ENABLE or DISABLE.
 543:Libraries/STM32F4xx_StdPeriph_Driver/src/stm32f4xx_i2c.c ****   * @retval None
 544:Libraries/STM32F4xx_StdPeriph_Driver/src/stm32f4xx_i2c.c ****   */
 545:Libraries/STM32F4xx_StdPeriph_Driver/src/stm32f4xx_i2c.c **** void I2C_GeneralCallCmd(I2C_TypeDef* I2Cx, FunctionalState NewState)
 546:Libraries/STM32F4xx_StdPeriph_Driver/src/stm32f4xx_i2c.c **** {
 790              		.loc 1 546 1 is_stmt 1 view -0
 791              		.cfi_startproc
 792              		@ args = 0, pretend = 0, frame = 0
 793              		@ frame_needed = 0, uses_anonymous_args = 0
 794              		@ link register save eliminated.
 547:Libraries/STM32F4xx_StdPeriph_Driver/src/stm32f4xx_i2c.c ****   /* Check the parameters */
 548:Libraries/STM32F4xx_StdPeriph_Driver/src/stm32f4xx_i2c.c ****   assert_param(IS_I2C_ALL_PERIPH(I2Cx));
 795              		.loc 1 548 3 view .LVU229
 549:Libraries/STM32F4xx_StdPeriph_Driver/src/stm32f4xx_i2c.c ****   assert_param(IS_FUNCTIONAL_STATE(NewState));
 796              		.loc 1 549 3 view .LVU230
 550:Libraries/STM32F4xx_StdPeriph_Driver/src/stm32f4xx_i2c.c ****   if (NewState != DISABLE)
 797              		.loc 1 550 3 view .LVU231
 798              		.loc 1 550 6 is_stmt 0 view .LVU232
 799 0000 29B1     		cbz	r1, .L48
 551:Libraries/STM32F4xx_StdPeriph_Driver/src/stm32f4xx_i2c.c ****   {
 552:Libraries/STM32F4xx_StdPeriph_Driver/src/stm32f4xx_i2c.c ****     /* Enable general call */
 553:Libraries/STM32F4xx_StdPeriph_Driver/src/stm32f4xx_i2c.c ****     I2Cx->CR1 |= I2C_CR1_ENGC;
 800              		.loc 1 553 5 is_stmt 1 view .LVU233
 801              		.loc 1 553 15 is_stmt 0 view .LVU234
 802 0002 0388     		ldrh	r3, [r0]
ARM GAS  /tmp/cclEJd3j.s 			page 25


 803 0004 9BB2     		uxth	r3, r3
 804 0006 43F04003 		orr	r3, r3, #64
 805 000a 0380     		strh	r3, [r0]	@ movhi
 806 000c 7047     		bx	lr
 807              	.L48:
 554:Libraries/STM32F4xx_StdPeriph_Driver/src/stm32f4xx_i2c.c ****   }
 555:Libraries/STM32F4xx_StdPeriph_Driver/src/stm32f4xx_i2c.c ****   else
 556:Libraries/STM32F4xx_StdPeriph_Driver/src/stm32f4xx_i2c.c ****   {
 557:Libraries/STM32F4xx_StdPeriph_Driver/src/stm32f4xx_i2c.c ****     /* Disable general call */
 558:Libraries/STM32F4xx_StdPeriph_Driver/src/stm32f4xx_i2c.c ****     I2Cx->CR1 &= (uint16_t)~((uint16_t)I2C_CR1_ENGC);
 808              		.loc 1 558 5 is_stmt 1 view .LVU235
 809              		.loc 1 558 15 is_stmt 0 view .LVU236
 810 000e 0388     		ldrh	r3, [r0]
 811 0010 9BB2     		uxth	r3, r3
 812 0012 23F04003 		bic	r3, r3, #64
 813 0016 9BB2     		uxth	r3, r3
 814 0018 0380     		strh	r3, [r0]	@ movhi
 559:Libraries/STM32F4xx_StdPeriph_Driver/src/stm32f4xx_i2c.c ****   }
 560:Libraries/STM32F4xx_StdPeriph_Driver/src/stm32f4xx_i2c.c **** }
 815              		.loc 1 560 1 view .LVU237
 816 001a 7047     		bx	lr
 817              		.cfi_endproc
 818              	.LFE135:
 820              		.section	.text.I2C_SoftwareResetCmd,"ax",%progbits
 821              		.align	1
 822              		.global	I2C_SoftwareResetCmd
 823              		.syntax unified
 824              		.thumb
 825              		.thumb_func
 826              		.fpu fpv4-sp-d16
 828              	I2C_SoftwareResetCmd:
 829              	.LVL67:
 830              	.LFB136:
 561:Libraries/STM32F4xx_StdPeriph_Driver/src/stm32f4xx_i2c.c **** 
 562:Libraries/STM32F4xx_StdPeriph_Driver/src/stm32f4xx_i2c.c **** /**
 563:Libraries/STM32F4xx_StdPeriph_Driver/src/stm32f4xx_i2c.c ****   * @brief  Enables or disables the specified I2C software reset.
 564:Libraries/STM32F4xx_StdPeriph_Driver/src/stm32f4xx_i2c.c ****   * @note   When software reset is enabled, the I2C IOs are released (this can
 565:Libraries/STM32F4xx_StdPeriph_Driver/src/stm32f4xx_i2c.c ****   *         be useful to recover from bus errors).  
 566:Libraries/STM32F4xx_StdPeriph_Driver/src/stm32f4xx_i2c.c ****   * @param  I2Cx: where x can be 1, 2 or 3 to select the I2C peripheral.
 567:Libraries/STM32F4xx_StdPeriph_Driver/src/stm32f4xx_i2c.c ****   * @param  NewState: new state of the I2C software reset.
 568:Libraries/STM32F4xx_StdPeriph_Driver/src/stm32f4xx_i2c.c ****   *          This parameter can be: ENABLE or DISABLE.
 569:Libraries/STM32F4xx_StdPeriph_Driver/src/stm32f4xx_i2c.c ****   * @retval None
 570:Libraries/STM32F4xx_StdPeriph_Driver/src/stm32f4xx_i2c.c ****   */
 571:Libraries/STM32F4xx_StdPeriph_Driver/src/stm32f4xx_i2c.c **** void I2C_SoftwareResetCmd(I2C_TypeDef* I2Cx, FunctionalState NewState)
 572:Libraries/STM32F4xx_StdPeriph_Driver/src/stm32f4xx_i2c.c **** {
 831              		.loc 1 572 1 is_stmt 1 view -0
 832              		.cfi_startproc
 833              		@ args = 0, pretend = 0, frame = 0
 834              		@ frame_needed = 0, uses_anonymous_args = 0
 835              		@ link register save eliminated.
 573:Libraries/STM32F4xx_StdPeriph_Driver/src/stm32f4xx_i2c.c ****   /* Check the parameters */
 574:Libraries/STM32F4xx_StdPeriph_Driver/src/stm32f4xx_i2c.c ****   assert_param(IS_I2C_ALL_PERIPH(I2Cx));
 836              		.loc 1 574 3 view .LVU239
 575:Libraries/STM32F4xx_StdPeriph_Driver/src/stm32f4xx_i2c.c ****   assert_param(IS_FUNCTIONAL_STATE(NewState));
 837              		.loc 1 575 3 view .LVU240
 576:Libraries/STM32F4xx_StdPeriph_Driver/src/stm32f4xx_i2c.c ****   if (NewState != DISABLE)
 838              		.loc 1 576 3 view .LVU241
ARM GAS  /tmp/cclEJd3j.s 			page 26


 839              		.loc 1 576 6 is_stmt 0 view .LVU242
 840 0000 39B1     		cbz	r1, .L51
 577:Libraries/STM32F4xx_StdPeriph_Driver/src/stm32f4xx_i2c.c ****   {
 578:Libraries/STM32F4xx_StdPeriph_Driver/src/stm32f4xx_i2c.c ****     /* Peripheral under reset */
 579:Libraries/STM32F4xx_StdPeriph_Driver/src/stm32f4xx_i2c.c ****     I2Cx->CR1 |= I2C_CR1_SWRST;
 841              		.loc 1 579 5 is_stmt 1 view .LVU243
 842              		.loc 1 579 15 is_stmt 0 view .LVU244
 843 0002 0388     		ldrh	r3, [r0]
 844 0004 6FEA4343 		mvn	r3, r3, lsl #17
 845 0008 6FEA5343 		mvn	r3, r3, lsr #17
 846 000c 9BB2     		uxth	r3, r3
 847 000e 0380     		strh	r3, [r0]	@ movhi
 848 0010 7047     		bx	lr
 849              	.L51:
 580:Libraries/STM32F4xx_StdPeriph_Driver/src/stm32f4xx_i2c.c ****   }
 581:Libraries/STM32F4xx_StdPeriph_Driver/src/stm32f4xx_i2c.c ****   else
 582:Libraries/STM32F4xx_StdPeriph_Driver/src/stm32f4xx_i2c.c ****   {
 583:Libraries/STM32F4xx_StdPeriph_Driver/src/stm32f4xx_i2c.c ****     /* Peripheral not under reset */
 584:Libraries/STM32F4xx_StdPeriph_Driver/src/stm32f4xx_i2c.c ****     I2Cx->CR1 &= (uint16_t)~((uint16_t)I2C_CR1_SWRST);
 850              		.loc 1 584 5 is_stmt 1 view .LVU245
 851              		.loc 1 584 15 is_stmt 0 view .LVU246
 852 0012 0388     		ldrh	r3, [r0]
 853 0014 C3F30E03 		ubfx	r3, r3, #0, #15
 854 0018 0380     		strh	r3, [r0]	@ movhi
 585:Libraries/STM32F4xx_StdPeriph_Driver/src/stm32f4xx_i2c.c ****   }
 586:Libraries/STM32F4xx_StdPeriph_Driver/src/stm32f4xx_i2c.c **** }
 855              		.loc 1 586 1 view .LVU247
 856 001a 7047     		bx	lr
 857              		.cfi_endproc
 858              	.LFE136:
 860              		.section	.text.I2C_StretchClockCmd,"ax",%progbits
 861              		.align	1
 862              		.global	I2C_StretchClockCmd
 863              		.syntax unified
 864              		.thumb
 865              		.thumb_func
 866              		.fpu fpv4-sp-d16
 868              	I2C_StretchClockCmd:
 869              	.LVL68:
 870              	.LFB137:
 587:Libraries/STM32F4xx_StdPeriph_Driver/src/stm32f4xx_i2c.c **** 
 588:Libraries/STM32F4xx_StdPeriph_Driver/src/stm32f4xx_i2c.c **** /**
 589:Libraries/STM32F4xx_StdPeriph_Driver/src/stm32f4xx_i2c.c ****   * @brief  Enables or disables the specified I2C Clock stretching.
 590:Libraries/STM32F4xx_StdPeriph_Driver/src/stm32f4xx_i2c.c ****   * @param  I2Cx: where x can be 1, 2 or 3 to select the I2C peripheral.
 591:Libraries/STM32F4xx_StdPeriph_Driver/src/stm32f4xx_i2c.c ****   * @param  NewState: new state of the I2Cx Clock stretching.
 592:Libraries/STM32F4xx_StdPeriph_Driver/src/stm32f4xx_i2c.c ****   *          This parameter can be: ENABLE or DISABLE.
 593:Libraries/STM32F4xx_StdPeriph_Driver/src/stm32f4xx_i2c.c ****   * @retval None
 594:Libraries/STM32F4xx_StdPeriph_Driver/src/stm32f4xx_i2c.c ****   */
 595:Libraries/STM32F4xx_StdPeriph_Driver/src/stm32f4xx_i2c.c **** void I2C_StretchClockCmd(I2C_TypeDef* I2Cx, FunctionalState NewState)
 596:Libraries/STM32F4xx_StdPeriph_Driver/src/stm32f4xx_i2c.c **** {
 871              		.loc 1 596 1 is_stmt 1 view -0
 872              		.cfi_startproc
 873              		@ args = 0, pretend = 0, frame = 0
 874              		@ frame_needed = 0, uses_anonymous_args = 0
 875              		@ link register save eliminated.
 597:Libraries/STM32F4xx_StdPeriph_Driver/src/stm32f4xx_i2c.c ****   /* Check the parameters */
 598:Libraries/STM32F4xx_StdPeriph_Driver/src/stm32f4xx_i2c.c ****   assert_param(IS_I2C_ALL_PERIPH(I2Cx));
ARM GAS  /tmp/cclEJd3j.s 			page 27


 876              		.loc 1 598 3 view .LVU249
 599:Libraries/STM32F4xx_StdPeriph_Driver/src/stm32f4xx_i2c.c ****   assert_param(IS_FUNCTIONAL_STATE(NewState));
 877              		.loc 1 599 3 view .LVU250
 600:Libraries/STM32F4xx_StdPeriph_Driver/src/stm32f4xx_i2c.c ****   if (NewState == DISABLE)
 878              		.loc 1 600 3 view .LVU251
 879              		.loc 1 600 6 is_stmt 0 view .LVU252
 880 0000 29B9     		cbnz	r1, .L54
 601:Libraries/STM32F4xx_StdPeriph_Driver/src/stm32f4xx_i2c.c ****   {
 602:Libraries/STM32F4xx_StdPeriph_Driver/src/stm32f4xx_i2c.c ****     /* Enable the selected I2C Clock stretching */
 603:Libraries/STM32F4xx_StdPeriph_Driver/src/stm32f4xx_i2c.c ****     I2Cx->CR1 |= I2C_CR1_NOSTRETCH;
 881              		.loc 1 603 5 is_stmt 1 view .LVU253
 882              		.loc 1 603 15 is_stmt 0 view .LVU254
 883 0002 0388     		ldrh	r3, [r0]
 884 0004 9BB2     		uxth	r3, r3
 885 0006 43F08003 		orr	r3, r3, #128
 886 000a 0380     		strh	r3, [r0]	@ movhi
 887 000c 7047     		bx	lr
 888              	.L54:
 604:Libraries/STM32F4xx_StdPeriph_Driver/src/stm32f4xx_i2c.c ****   }
 605:Libraries/STM32F4xx_StdPeriph_Driver/src/stm32f4xx_i2c.c ****   else
 606:Libraries/STM32F4xx_StdPeriph_Driver/src/stm32f4xx_i2c.c ****   {
 607:Libraries/STM32F4xx_StdPeriph_Driver/src/stm32f4xx_i2c.c ****     /* Disable the selected I2C Clock stretching */
 608:Libraries/STM32F4xx_StdPeriph_Driver/src/stm32f4xx_i2c.c ****     I2Cx->CR1 &= (uint16_t)~((uint16_t)I2C_CR1_NOSTRETCH);
 889              		.loc 1 608 5 is_stmt 1 view .LVU255
 890              		.loc 1 608 15 is_stmt 0 view .LVU256
 891 000e 0388     		ldrh	r3, [r0]
 892 0010 9BB2     		uxth	r3, r3
 893 0012 23F08003 		bic	r3, r3, #128
 894 0016 9BB2     		uxth	r3, r3
 895 0018 0380     		strh	r3, [r0]	@ movhi
 609:Libraries/STM32F4xx_StdPeriph_Driver/src/stm32f4xx_i2c.c ****   }
 610:Libraries/STM32F4xx_StdPeriph_Driver/src/stm32f4xx_i2c.c **** }
 896              		.loc 1 610 1 view .LVU257
 897 001a 7047     		bx	lr
 898              		.cfi_endproc
 899              	.LFE137:
 901              		.section	.text.I2C_FastModeDutyCycleConfig,"ax",%progbits
 902              		.align	1
 903              		.global	I2C_FastModeDutyCycleConfig
 904              		.syntax unified
 905              		.thumb
 906              		.thumb_func
 907              		.fpu fpv4-sp-d16
 909              	I2C_FastModeDutyCycleConfig:
 910              	.LVL69:
 911              	.LFB138:
 611:Libraries/STM32F4xx_StdPeriph_Driver/src/stm32f4xx_i2c.c **** 
 612:Libraries/STM32F4xx_StdPeriph_Driver/src/stm32f4xx_i2c.c **** /**
 613:Libraries/STM32F4xx_StdPeriph_Driver/src/stm32f4xx_i2c.c ****   * @brief  Selects the specified I2C fast mode duty cycle.
 614:Libraries/STM32F4xx_StdPeriph_Driver/src/stm32f4xx_i2c.c ****   * @param  I2Cx: where x can be 1, 2 or 3 to select the I2C peripheral.
 615:Libraries/STM32F4xx_StdPeriph_Driver/src/stm32f4xx_i2c.c ****   * @param  I2C_DutyCycle: specifies the fast mode duty cycle.
 616:Libraries/STM32F4xx_StdPeriph_Driver/src/stm32f4xx_i2c.c ****   *          This parameter can be one of the following values:
 617:Libraries/STM32F4xx_StdPeriph_Driver/src/stm32f4xx_i2c.c ****   *            @arg I2C_DutyCycle_2: I2C fast mode Tlow/Thigh = 2
 618:Libraries/STM32F4xx_StdPeriph_Driver/src/stm32f4xx_i2c.c ****   *            @arg I2C_DutyCycle_16_9: I2C fast mode Tlow/Thigh = 16/9
 619:Libraries/STM32F4xx_StdPeriph_Driver/src/stm32f4xx_i2c.c ****   * @retval None
 620:Libraries/STM32F4xx_StdPeriph_Driver/src/stm32f4xx_i2c.c ****   */
 621:Libraries/STM32F4xx_StdPeriph_Driver/src/stm32f4xx_i2c.c **** void I2C_FastModeDutyCycleConfig(I2C_TypeDef* I2Cx, uint16_t I2C_DutyCycle)
ARM GAS  /tmp/cclEJd3j.s 			page 28


 622:Libraries/STM32F4xx_StdPeriph_Driver/src/stm32f4xx_i2c.c **** {
 912              		.loc 1 622 1 is_stmt 1 view -0
 913              		.cfi_startproc
 914              		@ args = 0, pretend = 0, frame = 0
 915              		@ frame_needed = 0, uses_anonymous_args = 0
 916              		@ link register save eliminated.
 623:Libraries/STM32F4xx_StdPeriph_Driver/src/stm32f4xx_i2c.c ****   /* Check the parameters */
 624:Libraries/STM32F4xx_StdPeriph_Driver/src/stm32f4xx_i2c.c ****   assert_param(IS_I2C_ALL_PERIPH(I2Cx));
 917              		.loc 1 624 3 view .LVU259
 625:Libraries/STM32F4xx_StdPeriph_Driver/src/stm32f4xx_i2c.c ****   assert_param(IS_I2C_DUTY_CYCLE(I2C_DutyCycle));
 918              		.loc 1 625 3 view .LVU260
 626:Libraries/STM32F4xx_StdPeriph_Driver/src/stm32f4xx_i2c.c ****   if (I2C_DutyCycle != I2C_DutyCycle_16_9)
 919              		.loc 1 626 3 view .LVU261
 920              		.loc 1 626 6 is_stmt 0 view .LVU262
 921 0000 B1F5804F 		cmp	r1, #16384
 922 0004 06D0     		beq	.L57
 627:Libraries/STM32F4xx_StdPeriph_Driver/src/stm32f4xx_i2c.c ****   {
 628:Libraries/STM32F4xx_StdPeriph_Driver/src/stm32f4xx_i2c.c ****     /* I2C fast mode Tlow/Thigh=2 */
 629:Libraries/STM32F4xx_StdPeriph_Driver/src/stm32f4xx_i2c.c ****     I2Cx->CCR &= I2C_DutyCycle_2;
 923              		.loc 1 629 5 is_stmt 1 view .LVU263
 924              		.loc 1 629 15 is_stmt 0 view .LVU264
 925 0006 838B     		ldrh	r3, [r0, #28]
 926 0008 9BB2     		uxth	r3, r3
 927 000a 23F48043 		bic	r3, r3, #16384
 928 000e 9BB2     		uxth	r3, r3
 929 0010 8383     		strh	r3, [r0, #28]	@ movhi
 930 0012 7047     		bx	lr
 931              	.L57:
 630:Libraries/STM32F4xx_StdPeriph_Driver/src/stm32f4xx_i2c.c ****   }
 631:Libraries/STM32F4xx_StdPeriph_Driver/src/stm32f4xx_i2c.c ****   else
 632:Libraries/STM32F4xx_StdPeriph_Driver/src/stm32f4xx_i2c.c ****   {
 633:Libraries/STM32F4xx_StdPeriph_Driver/src/stm32f4xx_i2c.c ****     /* I2C fast mode Tlow/Thigh=16/9 */
 634:Libraries/STM32F4xx_StdPeriph_Driver/src/stm32f4xx_i2c.c ****     I2Cx->CCR |= I2C_DutyCycle_16_9;
 932              		.loc 1 634 5 is_stmt 1 view .LVU265
 933              		.loc 1 634 15 is_stmt 0 view .LVU266
 934 0014 838B     		ldrh	r3, [r0, #28]
 935 0016 9BB2     		uxth	r3, r3
 936 0018 43F48043 		orr	r3, r3, #16384
 937 001c 8383     		strh	r3, [r0, #28]	@ movhi
 635:Libraries/STM32F4xx_StdPeriph_Driver/src/stm32f4xx_i2c.c ****   }
 636:Libraries/STM32F4xx_StdPeriph_Driver/src/stm32f4xx_i2c.c **** }
 938              		.loc 1 636 1 view .LVU267
 939 001e 7047     		bx	lr
 940              		.cfi_endproc
 941              	.LFE138:
 943              		.section	.text.I2C_NACKPositionConfig,"ax",%progbits
 944              		.align	1
 945              		.global	I2C_NACKPositionConfig
 946              		.syntax unified
 947              		.thumb
 948              		.thumb_func
 949              		.fpu fpv4-sp-d16
 951              	I2C_NACKPositionConfig:
 952              	.LVL70:
 953              	.LFB139:
 637:Libraries/STM32F4xx_StdPeriph_Driver/src/stm32f4xx_i2c.c **** 
 638:Libraries/STM32F4xx_StdPeriph_Driver/src/stm32f4xx_i2c.c **** /**
ARM GAS  /tmp/cclEJd3j.s 			page 29


 639:Libraries/STM32F4xx_StdPeriph_Driver/src/stm32f4xx_i2c.c ****   * @brief  Selects the specified I2C NACK position in master receiver mode.
 640:Libraries/STM32F4xx_StdPeriph_Driver/src/stm32f4xx_i2c.c ****   * @note   This function is useful in I2C Master Receiver mode when the number
 641:Libraries/STM32F4xx_StdPeriph_Driver/src/stm32f4xx_i2c.c ****   *         of data to be received is equal to 2. In this case, this function 
 642:Libraries/STM32F4xx_StdPeriph_Driver/src/stm32f4xx_i2c.c ****   *         should be called (with parameter I2C_NACKPosition_Next) before data 
 643:Libraries/STM32F4xx_StdPeriph_Driver/src/stm32f4xx_i2c.c ****   *         reception starts,as described in the 2-byte reception procedure 
 644:Libraries/STM32F4xx_StdPeriph_Driver/src/stm32f4xx_i2c.c ****   *         recommended in Reference Manual in Section: Master receiver.                
 645:Libraries/STM32F4xx_StdPeriph_Driver/src/stm32f4xx_i2c.c ****   * @param  I2Cx: where x can be 1, 2 or 3 to select the I2C peripheral.
 646:Libraries/STM32F4xx_StdPeriph_Driver/src/stm32f4xx_i2c.c ****   * @param  I2C_NACKPosition: specifies the NACK position. 
 647:Libraries/STM32F4xx_StdPeriph_Driver/src/stm32f4xx_i2c.c ****   *          This parameter can be one of the following values:
 648:Libraries/STM32F4xx_StdPeriph_Driver/src/stm32f4xx_i2c.c ****   *            @arg I2C_NACKPosition_Next: indicates that the next byte will be the last
 649:Libraries/STM32F4xx_StdPeriph_Driver/src/stm32f4xx_i2c.c ****   *                                        received byte.  
 650:Libraries/STM32F4xx_StdPeriph_Driver/src/stm32f4xx_i2c.c ****   *            @arg I2C_NACKPosition_Current: indicates that current byte is the last 
 651:Libraries/STM32F4xx_StdPeriph_Driver/src/stm32f4xx_i2c.c ****   *                                           received byte.
 652:Libraries/STM32F4xx_StdPeriph_Driver/src/stm32f4xx_i2c.c ****   *            
 653:Libraries/STM32F4xx_StdPeriph_Driver/src/stm32f4xx_i2c.c ****   * @note    This function configures the same bit (POS) as I2C_PECPositionConfig() 
 654:Libraries/STM32F4xx_StdPeriph_Driver/src/stm32f4xx_i2c.c ****   *          but is intended to be used in I2C mode while I2C_PECPositionConfig() 
 655:Libraries/STM32F4xx_StdPeriph_Driver/src/stm32f4xx_i2c.c ****   *          is intended to used in SMBUS mode. 
 656:Libraries/STM32F4xx_StdPeriph_Driver/src/stm32f4xx_i2c.c ****   *            
 657:Libraries/STM32F4xx_StdPeriph_Driver/src/stm32f4xx_i2c.c ****   * @retval None
 658:Libraries/STM32F4xx_StdPeriph_Driver/src/stm32f4xx_i2c.c ****   */
 659:Libraries/STM32F4xx_StdPeriph_Driver/src/stm32f4xx_i2c.c **** void I2C_NACKPositionConfig(I2C_TypeDef* I2Cx, uint16_t I2C_NACKPosition)
 660:Libraries/STM32F4xx_StdPeriph_Driver/src/stm32f4xx_i2c.c **** {
 954              		.loc 1 660 1 is_stmt 1 view -0
 955              		.cfi_startproc
 956              		@ args = 0, pretend = 0, frame = 0
 957              		@ frame_needed = 0, uses_anonymous_args = 0
 958              		@ link register save eliminated.
 661:Libraries/STM32F4xx_StdPeriph_Driver/src/stm32f4xx_i2c.c ****   /* Check the parameters */
 662:Libraries/STM32F4xx_StdPeriph_Driver/src/stm32f4xx_i2c.c ****   assert_param(IS_I2C_ALL_PERIPH(I2Cx));
 959              		.loc 1 662 3 view .LVU269
 663:Libraries/STM32F4xx_StdPeriph_Driver/src/stm32f4xx_i2c.c ****   assert_param(IS_I2C_NACK_POSITION(I2C_NACKPosition));
 960              		.loc 1 663 3 view .LVU270
 664:Libraries/STM32F4xx_StdPeriph_Driver/src/stm32f4xx_i2c.c ****   
 665:Libraries/STM32F4xx_StdPeriph_Driver/src/stm32f4xx_i2c.c ****   /* Check the input parameter */
 666:Libraries/STM32F4xx_StdPeriph_Driver/src/stm32f4xx_i2c.c ****   if (I2C_NACKPosition == I2C_NACKPosition_Next)
 961              		.loc 1 666 3 view .LVU271
 962              		.loc 1 666 6 is_stmt 0 view .LVU272
 963 0000 B1F5006F 		cmp	r1, #2048
 964 0004 06D0     		beq	.L62
 667:Libraries/STM32F4xx_StdPeriph_Driver/src/stm32f4xx_i2c.c ****   {
 668:Libraries/STM32F4xx_StdPeriph_Driver/src/stm32f4xx_i2c.c ****     /* Next byte in shift register is the last received byte */
 669:Libraries/STM32F4xx_StdPeriph_Driver/src/stm32f4xx_i2c.c ****     I2Cx->CR1 |= I2C_NACKPosition_Next;
 670:Libraries/STM32F4xx_StdPeriph_Driver/src/stm32f4xx_i2c.c ****   }
 671:Libraries/STM32F4xx_StdPeriph_Driver/src/stm32f4xx_i2c.c ****   else
 672:Libraries/STM32F4xx_StdPeriph_Driver/src/stm32f4xx_i2c.c ****   {
 673:Libraries/STM32F4xx_StdPeriph_Driver/src/stm32f4xx_i2c.c ****     /* Current byte in shift register is the last received byte */
 674:Libraries/STM32F4xx_StdPeriph_Driver/src/stm32f4xx_i2c.c ****     I2Cx->CR1 &= I2C_NACKPosition_Current;
 965              		.loc 1 674 5 is_stmt 1 view .LVU273
 966              		.loc 1 674 15 is_stmt 0 view .LVU274
 967 0006 0388     		ldrh	r3, [r0]
 968 0008 9BB2     		uxth	r3, r3
 969 000a 23F40063 		bic	r3, r3, #2048
 970 000e 9BB2     		uxth	r3, r3
 971 0010 0380     		strh	r3, [r0]	@ movhi
 675:Libraries/STM32F4xx_StdPeriph_Driver/src/stm32f4xx_i2c.c ****   }
 676:Libraries/STM32F4xx_StdPeriph_Driver/src/stm32f4xx_i2c.c **** }
 972              		.loc 1 676 1 view .LVU275
ARM GAS  /tmp/cclEJd3j.s 			page 30


 973 0012 7047     		bx	lr
 974              	.L62:
 669:Libraries/STM32F4xx_StdPeriph_Driver/src/stm32f4xx_i2c.c ****   }
 975              		.loc 1 669 5 is_stmt 1 view .LVU276
 669:Libraries/STM32F4xx_StdPeriph_Driver/src/stm32f4xx_i2c.c ****   }
 976              		.loc 1 669 15 is_stmt 0 view .LVU277
 977 0014 0388     		ldrh	r3, [r0]
 978 0016 9BB2     		uxth	r3, r3
 979 0018 43F40063 		orr	r3, r3, #2048
 980 001c 0380     		strh	r3, [r0]	@ movhi
 981 001e 7047     		bx	lr
 982              		.cfi_endproc
 983              	.LFE139:
 985              		.section	.text.I2C_SMBusAlertConfig,"ax",%progbits
 986              		.align	1
 987              		.global	I2C_SMBusAlertConfig
 988              		.syntax unified
 989              		.thumb
 990              		.thumb_func
 991              		.fpu fpv4-sp-d16
 993              	I2C_SMBusAlertConfig:
 994              	.LVL71:
 995              	.LFB140:
 677:Libraries/STM32F4xx_StdPeriph_Driver/src/stm32f4xx_i2c.c **** 
 678:Libraries/STM32F4xx_StdPeriph_Driver/src/stm32f4xx_i2c.c **** /**
 679:Libraries/STM32F4xx_StdPeriph_Driver/src/stm32f4xx_i2c.c ****   * @brief  Drives the SMBusAlert pin high or low for the specified I2C.
 680:Libraries/STM32F4xx_StdPeriph_Driver/src/stm32f4xx_i2c.c ****   * @param  I2Cx: where x can be 1, 2 or 3 to select the I2C peripheral.
 681:Libraries/STM32F4xx_StdPeriph_Driver/src/stm32f4xx_i2c.c ****   * @param  I2C_SMBusAlert: specifies SMBAlert pin level. 
 682:Libraries/STM32F4xx_StdPeriph_Driver/src/stm32f4xx_i2c.c ****   *          This parameter can be one of the following values:
 683:Libraries/STM32F4xx_StdPeriph_Driver/src/stm32f4xx_i2c.c ****   *            @arg I2C_SMBusAlert_Low: SMBAlert pin driven low
 684:Libraries/STM32F4xx_StdPeriph_Driver/src/stm32f4xx_i2c.c ****   *            @arg I2C_SMBusAlert_High: SMBAlert pin driven high
 685:Libraries/STM32F4xx_StdPeriph_Driver/src/stm32f4xx_i2c.c ****   * @retval None
 686:Libraries/STM32F4xx_StdPeriph_Driver/src/stm32f4xx_i2c.c ****   */
 687:Libraries/STM32F4xx_StdPeriph_Driver/src/stm32f4xx_i2c.c **** void I2C_SMBusAlertConfig(I2C_TypeDef* I2Cx, uint16_t I2C_SMBusAlert)
 688:Libraries/STM32F4xx_StdPeriph_Driver/src/stm32f4xx_i2c.c **** {
 996              		.loc 1 688 1 is_stmt 1 view -0
 997              		.cfi_startproc
 998              		@ args = 0, pretend = 0, frame = 0
 999              		@ frame_needed = 0, uses_anonymous_args = 0
 1000              		@ link register save eliminated.
 689:Libraries/STM32F4xx_StdPeriph_Driver/src/stm32f4xx_i2c.c ****   /* Check the parameters */
 690:Libraries/STM32F4xx_StdPeriph_Driver/src/stm32f4xx_i2c.c ****   assert_param(IS_I2C_ALL_PERIPH(I2Cx));
 1001              		.loc 1 690 3 view .LVU279
 691:Libraries/STM32F4xx_StdPeriph_Driver/src/stm32f4xx_i2c.c ****   assert_param(IS_I2C_SMBUS_ALERT(I2C_SMBusAlert));
 1002              		.loc 1 691 3 view .LVU280
 692:Libraries/STM32F4xx_StdPeriph_Driver/src/stm32f4xx_i2c.c ****   if (I2C_SMBusAlert == I2C_SMBusAlert_Low)
 1003              		.loc 1 692 3 view .LVU281
 1004              		.loc 1 692 6 is_stmt 0 view .LVU282
 1005 0000 B1F5005F 		cmp	r1, #8192
 1006 0004 06D0     		beq	.L66
 693:Libraries/STM32F4xx_StdPeriph_Driver/src/stm32f4xx_i2c.c ****   {
 694:Libraries/STM32F4xx_StdPeriph_Driver/src/stm32f4xx_i2c.c ****     /* Drive the SMBusAlert pin Low */
 695:Libraries/STM32F4xx_StdPeriph_Driver/src/stm32f4xx_i2c.c ****     I2Cx->CR1 |= I2C_SMBusAlert_Low;
 696:Libraries/STM32F4xx_StdPeriph_Driver/src/stm32f4xx_i2c.c ****   }
 697:Libraries/STM32F4xx_StdPeriph_Driver/src/stm32f4xx_i2c.c ****   else
 698:Libraries/STM32F4xx_StdPeriph_Driver/src/stm32f4xx_i2c.c ****   {
 699:Libraries/STM32F4xx_StdPeriph_Driver/src/stm32f4xx_i2c.c ****     /* Drive the SMBusAlert pin High  */
ARM GAS  /tmp/cclEJd3j.s 			page 31


 700:Libraries/STM32F4xx_StdPeriph_Driver/src/stm32f4xx_i2c.c ****     I2Cx->CR1 &= I2C_SMBusAlert_High;
 1007              		.loc 1 700 5 is_stmt 1 view .LVU283
 1008              		.loc 1 700 15 is_stmt 0 view .LVU284
 1009 0006 0388     		ldrh	r3, [r0]
 1010 0008 9BB2     		uxth	r3, r3
 1011 000a 23F40053 		bic	r3, r3, #8192
 1012 000e 9BB2     		uxth	r3, r3
 1013 0010 0380     		strh	r3, [r0]	@ movhi
 701:Libraries/STM32F4xx_StdPeriph_Driver/src/stm32f4xx_i2c.c ****   }
 702:Libraries/STM32F4xx_StdPeriph_Driver/src/stm32f4xx_i2c.c **** }
 1014              		.loc 1 702 1 view .LVU285
 1015 0012 7047     		bx	lr
 1016              	.L66:
 695:Libraries/STM32F4xx_StdPeriph_Driver/src/stm32f4xx_i2c.c ****   }
 1017              		.loc 1 695 5 is_stmt 1 view .LVU286
 695:Libraries/STM32F4xx_StdPeriph_Driver/src/stm32f4xx_i2c.c ****   }
 1018              		.loc 1 695 15 is_stmt 0 view .LVU287
 1019 0014 0388     		ldrh	r3, [r0]
 1020 0016 9BB2     		uxth	r3, r3
 1021 0018 43F40053 		orr	r3, r3, #8192
 1022 001c 0380     		strh	r3, [r0]	@ movhi
 1023 001e 7047     		bx	lr
 1024              		.cfi_endproc
 1025              	.LFE140:
 1027              		.section	.text.I2C_ARPCmd,"ax",%progbits
 1028              		.align	1
 1029              		.global	I2C_ARPCmd
 1030              		.syntax unified
 1031              		.thumb
 1032              		.thumb_func
 1033              		.fpu fpv4-sp-d16
 1035              	I2C_ARPCmd:
 1036              	.LVL72:
 1037              	.LFB141:
 703:Libraries/STM32F4xx_StdPeriph_Driver/src/stm32f4xx_i2c.c **** 
 704:Libraries/STM32F4xx_StdPeriph_Driver/src/stm32f4xx_i2c.c **** /**
 705:Libraries/STM32F4xx_StdPeriph_Driver/src/stm32f4xx_i2c.c ****   * @brief  Enables or disables the specified I2C ARP.
 706:Libraries/STM32F4xx_StdPeriph_Driver/src/stm32f4xx_i2c.c ****   * @param  I2Cx: where x can be 1, 2 or 3 to select the I2C peripheral.
 707:Libraries/STM32F4xx_StdPeriph_Driver/src/stm32f4xx_i2c.c ****   * @param  NewState: new state of the I2Cx ARP. 
 708:Libraries/STM32F4xx_StdPeriph_Driver/src/stm32f4xx_i2c.c ****   *          This parameter can be: ENABLE or DISABLE.
 709:Libraries/STM32F4xx_StdPeriph_Driver/src/stm32f4xx_i2c.c ****   * @retval None
 710:Libraries/STM32F4xx_StdPeriph_Driver/src/stm32f4xx_i2c.c ****   */
 711:Libraries/STM32F4xx_StdPeriph_Driver/src/stm32f4xx_i2c.c **** void I2C_ARPCmd(I2C_TypeDef* I2Cx, FunctionalState NewState)
 712:Libraries/STM32F4xx_StdPeriph_Driver/src/stm32f4xx_i2c.c **** {
 1038              		.loc 1 712 1 is_stmt 1 view -0
 1039              		.cfi_startproc
 1040              		@ args = 0, pretend = 0, frame = 0
 1041              		@ frame_needed = 0, uses_anonymous_args = 0
 1042              		@ link register save eliminated.
 713:Libraries/STM32F4xx_StdPeriph_Driver/src/stm32f4xx_i2c.c ****   /* Check the parameters */
 714:Libraries/STM32F4xx_StdPeriph_Driver/src/stm32f4xx_i2c.c ****   assert_param(IS_I2C_ALL_PERIPH(I2Cx));
 1043              		.loc 1 714 3 view .LVU289
 715:Libraries/STM32F4xx_StdPeriph_Driver/src/stm32f4xx_i2c.c ****   assert_param(IS_FUNCTIONAL_STATE(NewState));
 1044              		.loc 1 715 3 view .LVU290
 716:Libraries/STM32F4xx_StdPeriph_Driver/src/stm32f4xx_i2c.c ****   if (NewState != DISABLE)
 1045              		.loc 1 716 3 view .LVU291
 1046              		.loc 1 716 6 is_stmt 0 view .LVU292
ARM GAS  /tmp/cclEJd3j.s 			page 32


 1047 0000 29B1     		cbz	r1, .L68
 717:Libraries/STM32F4xx_StdPeriph_Driver/src/stm32f4xx_i2c.c ****   {
 718:Libraries/STM32F4xx_StdPeriph_Driver/src/stm32f4xx_i2c.c ****     /* Enable the selected I2C ARP */
 719:Libraries/STM32F4xx_StdPeriph_Driver/src/stm32f4xx_i2c.c ****     I2Cx->CR1 |= I2C_CR1_ENARP;
 1048              		.loc 1 719 5 is_stmt 1 view .LVU293
 1049              		.loc 1 719 15 is_stmt 0 view .LVU294
 1050 0002 0388     		ldrh	r3, [r0]
 1051 0004 9BB2     		uxth	r3, r3
 1052 0006 43F01003 		orr	r3, r3, #16
 1053 000a 0380     		strh	r3, [r0]	@ movhi
 1054 000c 7047     		bx	lr
 1055              	.L68:
 720:Libraries/STM32F4xx_StdPeriph_Driver/src/stm32f4xx_i2c.c ****   }
 721:Libraries/STM32F4xx_StdPeriph_Driver/src/stm32f4xx_i2c.c ****   else
 722:Libraries/STM32F4xx_StdPeriph_Driver/src/stm32f4xx_i2c.c ****   {
 723:Libraries/STM32F4xx_StdPeriph_Driver/src/stm32f4xx_i2c.c ****     /* Disable the selected I2C ARP */
 724:Libraries/STM32F4xx_StdPeriph_Driver/src/stm32f4xx_i2c.c ****     I2Cx->CR1 &= (uint16_t)~((uint16_t)I2C_CR1_ENARP);
 1056              		.loc 1 724 5 is_stmt 1 view .LVU295
 1057              		.loc 1 724 15 is_stmt 0 view .LVU296
 1058 000e 0388     		ldrh	r3, [r0]
 1059 0010 9BB2     		uxth	r3, r3
 1060 0012 23F01003 		bic	r3, r3, #16
 1061 0016 9BB2     		uxth	r3, r3
 1062 0018 0380     		strh	r3, [r0]	@ movhi
 725:Libraries/STM32F4xx_StdPeriph_Driver/src/stm32f4xx_i2c.c ****   }
 726:Libraries/STM32F4xx_StdPeriph_Driver/src/stm32f4xx_i2c.c **** }
 1063              		.loc 1 726 1 view .LVU297
 1064 001a 7047     		bx	lr
 1065              		.cfi_endproc
 1066              	.LFE141:
 1068              		.section	.text.I2C_SendData,"ax",%progbits
 1069              		.align	1
 1070              		.global	I2C_SendData
 1071              		.syntax unified
 1072              		.thumb
 1073              		.thumb_func
 1074              		.fpu fpv4-sp-d16
 1076              	I2C_SendData:
 1077              	.LVL73:
 1078              	.LFB142:
 727:Libraries/STM32F4xx_StdPeriph_Driver/src/stm32f4xx_i2c.c **** /**
 728:Libraries/STM32F4xx_StdPeriph_Driver/src/stm32f4xx_i2c.c ****   * @}
 729:Libraries/STM32F4xx_StdPeriph_Driver/src/stm32f4xx_i2c.c ****   */
 730:Libraries/STM32F4xx_StdPeriph_Driver/src/stm32f4xx_i2c.c **** 
 731:Libraries/STM32F4xx_StdPeriph_Driver/src/stm32f4xx_i2c.c **** /** @defgroup I2C_Group2 Data transfers functions
 732:Libraries/STM32F4xx_StdPeriph_Driver/src/stm32f4xx_i2c.c ****  *  @brief   Data transfers functions 
 733:Libraries/STM32F4xx_StdPeriph_Driver/src/stm32f4xx_i2c.c ****  *
 734:Libraries/STM32F4xx_StdPeriph_Driver/src/stm32f4xx_i2c.c **** @verbatim   
 735:Libraries/STM32F4xx_StdPeriph_Driver/src/stm32f4xx_i2c.c ****  ===============================================================================
 736:Libraries/STM32F4xx_StdPeriph_Driver/src/stm32f4xx_i2c.c ****                   ##### Data transfers functions #####
 737:Libraries/STM32F4xx_StdPeriph_Driver/src/stm32f4xx_i2c.c ****  ===============================================================================  
 738:Libraries/STM32F4xx_StdPeriph_Driver/src/stm32f4xx_i2c.c **** 
 739:Libraries/STM32F4xx_StdPeriph_Driver/src/stm32f4xx_i2c.c **** @endverbatim
 740:Libraries/STM32F4xx_StdPeriph_Driver/src/stm32f4xx_i2c.c ****   * @{
 741:Libraries/STM32F4xx_StdPeriph_Driver/src/stm32f4xx_i2c.c ****   */
 742:Libraries/STM32F4xx_StdPeriph_Driver/src/stm32f4xx_i2c.c **** 
 743:Libraries/STM32F4xx_StdPeriph_Driver/src/stm32f4xx_i2c.c **** /**
ARM GAS  /tmp/cclEJd3j.s 			page 33


 744:Libraries/STM32F4xx_StdPeriph_Driver/src/stm32f4xx_i2c.c ****   * @brief  Sends a data byte through the I2Cx peripheral.
 745:Libraries/STM32F4xx_StdPeriph_Driver/src/stm32f4xx_i2c.c ****   * @param  I2Cx: where x can be 1, 2 or 3 to select the I2C peripheral.
 746:Libraries/STM32F4xx_StdPeriph_Driver/src/stm32f4xx_i2c.c ****   * @param  Data: Byte to be transmitted..
 747:Libraries/STM32F4xx_StdPeriph_Driver/src/stm32f4xx_i2c.c ****   * @retval None
 748:Libraries/STM32F4xx_StdPeriph_Driver/src/stm32f4xx_i2c.c ****   */
 749:Libraries/STM32F4xx_StdPeriph_Driver/src/stm32f4xx_i2c.c **** void I2C_SendData(I2C_TypeDef* I2Cx, uint8_t Data)
 750:Libraries/STM32F4xx_StdPeriph_Driver/src/stm32f4xx_i2c.c **** {
 1079              		.loc 1 750 1 is_stmt 1 view -0
 1080              		.cfi_startproc
 1081              		@ args = 0, pretend = 0, frame = 0
 1082              		@ frame_needed = 0, uses_anonymous_args = 0
 1083              		@ link register save eliminated.
 751:Libraries/STM32F4xx_StdPeriph_Driver/src/stm32f4xx_i2c.c ****   /* Check the parameters */
 752:Libraries/STM32F4xx_StdPeriph_Driver/src/stm32f4xx_i2c.c ****   assert_param(IS_I2C_ALL_PERIPH(I2Cx));
 1084              		.loc 1 752 3 view .LVU299
 753:Libraries/STM32F4xx_StdPeriph_Driver/src/stm32f4xx_i2c.c ****   /* Write in the DR register the data to be sent */
 754:Libraries/STM32F4xx_StdPeriph_Driver/src/stm32f4xx_i2c.c ****   I2Cx->DR = Data;
 1085              		.loc 1 754 3 view .LVU300
 1086              		.loc 1 754 12 is_stmt 0 view .LVU301
 1087 0000 0182     		strh	r1, [r0, #16]	@ movhi
 755:Libraries/STM32F4xx_StdPeriph_Driver/src/stm32f4xx_i2c.c **** }
 1088              		.loc 1 755 1 view .LVU302
 1089 0002 7047     		bx	lr
 1090              		.cfi_endproc
 1091              	.LFE142:
 1093              		.section	.text.I2C_ReceiveData,"ax",%progbits
 1094              		.align	1
 1095              		.global	I2C_ReceiveData
 1096              		.syntax unified
 1097              		.thumb
 1098              		.thumb_func
 1099              		.fpu fpv4-sp-d16
 1101              	I2C_ReceiveData:
 1102              	.LVL74:
 1103              	.LFB143:
 756:Libraries/STM32F4xx_StdPeriph_Driver/src/stm32f4xx_i2c.c **** 
 757:Libraries/STM32F4xx_StdPeriph_Driver/src/stm32f4xx_i2c.c **** /**
 758:Libraries/STM32F4xx_StdPeriph_Driver/src/stm32f4xx_i2c.c ****   * @brief  Returns the most recent received data by the I2Cx peripheral.
 759:Libraries/STM32F4xx_StdPeriph_Driver/src/stm32f4xx_i2c.c ****   * @param  I2Cx: where x can be 1, 2 or 3 to select the I2C peripheral.
 760:Libraries/STM32F4xx_StdPeriph_Driver/src/stm32f4xx_i2c.c ****   * @retval The value of the received data.
 761:Libraries/STM32F4xx_StdPeriph_Driver/src/stm32f4xx_i2c.c ****   */
 762:Libraries/STM32F4xx_StdPeriph_Driver/src/stm32f4xx_i2c.c **** uint8_t I2C_ReceiveData(I2C_TypeDef* I2Cx)
 763:Libraries/STM32F4xx_StdPeriph_Driver/src/stm32f4xx_i2c.c **** {
 1104              		.loc 1 763 1 is_stmt 1 view -0
 1105              		.cfi_startproc
 1106              		@ args = 0, pretend = 0, frame = 0
 1107              		@ frame_needed = 0, uses_anonymous_args = 0
 1108              		@ link register save eliminated.
 764:Libraries/STM32F4xx_StdPeriph_Driver/src/stm32f4xx_i2c.c ****   /* Check the parameters */
 765:Libraries/STM32F4xx_StdPeriph_Driver/src/stm32f4xx_i2c.c ****   assert_param(IS_I2C_ALL_PERIPH(I2Cx));
 1109              		.loc 1 765 3 view .LVU304
 766:Libraries/STM32F4xx_StdPeriph_Driver/src/stm32f4xx_i2c.c ****   /* Return the data in the DR register */
 767:Libraries/STM32F4xx_StdPeriph_Driver/src/stm32f4xx_i2c.c ****   return (uint8_t)I2Cx->DR;
 1110              		.loc 1 767 3 view .LVU305
 1111              		.loc 1 767 23 is_stmt 0 view .LVU306
 1112 0000 008A     		ldrh	r0, [r0, #16]
 1113              	.LVL75:
ARM GAS  /tmp/cclEJd3j.s 			page 34


 768:Libraries/STM32F4xx_StdPeriph_Driver/src/stm32f4xx_i2c.c **** }
 1114              		.loc 1 768 1 view .LVU307
 1115 0002 C0B2     		uxtb	r0, r0
 1116 0004 7047     		bx	lr
 1117              		.cfi_endproc
 1118              	.LFE143:
 1120              		.section	.text.I2C_TransmitPEC,"ax",%progbits
 1121              		.align	1
 1122              		.global	I2C_TransmitPEC
 1123              		.syntax unified
 1124              		.thumb
 1125              		.thumb_func
 1126              		.fpu fpv4-sp-d16
 1128              	I2C_TransmitPEC:
 1129              	.LVL76:
 1130              	.LFB144:
 769:Libraries/STM32F4xx_StdPeriph_Driver/src/stm32f4xx_i2c.c **** 
 770:Libraries/STM32F4xx_StdPeriph_Driver/src/stm32f4xx_i2c.c **** /**
 771:Libraries/STM32F4xx_StdPeriph_Driver/src/stm32f4xx_i2c.c ****   * @}
 772:Libraries/STM32F4xx_StdPeriph_Driver/src/stm32f4xx_i2c.c ****   */
 773:Libraries/STM32F4xx_StdPeriph_Driver/src/stm32f4xx_i2c.c **** 
 774:Libraries/STM32F4xx_StdPeriph_Driver/src/stm32f4xx_i2c.c **** /** @defgroup I2C_Group3 PEC management functions
 775:Libraries/STM32F4xx_StdPeriph_Driver/src/stm32f4xx_i2c.c ****  *  @brief   PEC management functions 
 776:Libraries/STM32F4xx_StdPeriph_Driver/src/stm32f4xx_i2c.c ****  *
 777:Libraries/STM32F4xx_StdPeriph_Driver/src/stm32f4xx_i2c.c **** @verbatim   
 778:Libraries/STM32F4xx_StdPeriph_Driver/src/stm32f4xx_i2c.c ****  ===============================================================================
 779:Libraries/STM32F4xx_StdPeriph_Driver/src/stm32f4xx_i2c.c ****                   ##### PEC management functions #####
 780:Libraries/STM32F4xx_StdPeriph_Driver/src/stm32f4xx_i2c.c ****  ===============================================================================  
 781:Libraries/STM32F4xx_StdPeriph_Driver/src/stm32f4xx_i2c.c **** 
 782:Libraries/STM32F4xx_StdPeriph_Driver/src/stm32f4xx_i2c.c **** @endverbatim
 783:Libraries/STM32F4xx_StdPeriph_Driver/src/stm32f4xx_i2c.c ****   * @{
 784:Libraries/STM32F4xx_StdPeriph_Driver/src/stm32f4xx_i2c.c ****   */
 785:Libraries/STM32F4xx_StdPeriph_Driver/src/stm32f4xx_i2c.c **** 
 786:Libraries/STM32F4xx_StdPeriph_Driver/src/stm32f4xx_i2c.c **** /**
 787:Libraries/STM32F4xx_StdPeriph_Driver/src/stm32f4xx_i2c.c ****   * @brief  Enables or disables the specified I2C PEC transfer.
 788:Libraries/STM32F4xx_StdPeriph_Driver/src/stm32f4xx_i2c.c ****   * @param  I2Cx: where x can be 1, 2 or 3 to select the I2C peripheral.
 789:Libraries/STM32F4xx_StdPeriph_Driver/src/stm32f4xx_i2c.c ****   * @param  NewState: new state of the I2C PEC transmission.
 790:Libraries/STM32F4xx_StdPeriph_Driver/src/stm32f4xx_i2c.c ****   *          This parameter can be: ENABLE or DISABLE.
 791:Libraries/STM32F4xx_StdPeriph_Driver/src/stm32f4xx_i2c.c ****   * @retval None
 792:Libraries/STM32F4xx_StdPeriph_Driver/src/stm32f4xx_i2c.c ****   */
 793:Libraries/STM32F4xx_StdPeriph_Driver/src/stm32f4xx_i2c.c **** void I2C_TransmitPEC(I2C_TypeDef* I2Cx, FunctionalState NewState)
 794:Libraries/STM32F4xx_StdPeriph_Driver/src/stm32f4xx_i2c.c **** {
 1131              		.loc 1 794 1 is_stmt 1 view -0
 1132              		.cfi_startproc
 1133              		@ args = 0, pretend = 0, frame = 0
 1134              		@ frame_needed = 0, uses_anonymous_args = 0
 1135              		@ link register save eliminated.
 795:Libraries/STM32F4xx_StdPeriph_Driver/src/stm32f4xx_i2c.c ****   /* Check the parameters */
 796:Libraries/STM32F4xx_StdPeriph_Driver/src/stm32f4xx_i2c.c ****   assert_param(IS_I2C_ALL_PERIPH(I2Cx));
 1136              		.loc 1 796 3 view .LVU309
 797:Libraries/STM32F4xx_StdPeriph_Driver/src/stm32f4xx_i2c.c ****   assert_param(IS_FUNCTIONAL_STATE(NewState));
 1137              		.loc 1 797 3 view .LVU310
 798:Libraries/STM32F4xx_StdPeriph_Driver/src/stm32f4xx_i2c.c ****   if (NewState != DISABLE)
 1138              		.loc 1 798 3 view .LVU311
 1139              		.loc 1 798 6 is_stmt 0 view .LVU312
 1140 0000 29B1     		cbz	r1, .L73
 799:Libraries/STM32F4xx_StdPeriph_Driver/src/stm32f4xx_i2c.c ****   {
ARM GAS  /tmp/cclEJd3j.s 			page 35


 800:Libraries/STM32F4xx_StdPeriph_Driver/src/stm32f4xx_i2c.c ****     /* Enable the selected I2C PEC transmission */
 801:Libraries/STM32F4xx_StdPeriph_Driver/src/stm32f4xx_i2c.c ****     I2Cx->CR1 |= I2C_CR1_PEC;
 1141              		.loc 1 801 5 is_stmt 1 view .LVU313
 1142              		.loc 1 801 15 is_stmt 0 view .LVU314
 1143 0002 0388     		ldrh	r3, [r0]
 1144 0004 9BB2     		uxth	r3, r3
 1145 0006 43F48053 		orr	r3, r3, #4096
 1146 000a 0380     		strh	r3, [r0]	@ movhi
 1147 000c 7047     		bx	lr
 1148              	.L73:
 802:Libraries/STM32F4xx_StdPeriph_Driver/src/stm32f4xx_i2c.c ****   }
 803:Libraries/STM32F4xx_StdPeriph_Driver/src/stm32f4xx_i2c.c ****   else
 804:Libraries/STM32F4xx_StdPeriph_Driver/src/stm32f4xx_i2c.c ****   {
 805:Libraries/STM32F4xx_StdPeriph_Driver/src/stm32f4xx_i2c.c ****     /* Disable the selected I2C PEC transmission */
 806:Libraries/STM32F4xx_StdPeriph_Driver/src/stm32f4xx_i2c.c ****     I2Cx->CR1 &= (uint16_t)~((uint16_t)I2C_CR1_PEC);
 1149              		.loc 1 806 5 is_stmt 1 view .LVU315
 1150              		.loc 1 806 15 is_stmt 0 view .LVU316
 1151 000e 0388     		ldrh	r3, [r0]
 1152 0010 9BB2     		uxth	r3, r3
 1153 0012 23F48053 		bic	r3, r3, #4096
 1154 0016 9BB2     		uxth	r3, r3
 1155 0018 0380     		strh	r3, [r0]	@ movhi
 807:Libraries/STM32F4xx_StdPeriph_Driver/src/stm32f4xx_i2c.c ****   }
 808:Libraries/STM32F4xx_StdPeriph_Driver/src/stm32f4xx_i2c.c **** }
 1156              		.loc 1 808 1 view .LVU317
 1157 001a 7047     		bx	lr
 1158              		.cfi_endproc
 1159              	.LFE144:
 1161              		.section	.text.I2C_PECPositionConfig,"ax",%progbits
 1162              		.align	1
 1163              		.global	I2C_PECPositionConfig
 1164              		.syntax unified
 1165              		.thumb
 1166              		.thumb_func
 1167              		.fpu fpv4-sp-d16
 1169              	I2C_PECPositionConfig:
 1170              	.LVL77:
 1171              	.LFB145:
 809:Libraries/STM32F4xx_StdPeriph_Driver/src/stm32f4xx_i2c.c **** 
 810:Libraries/STM32F4xx_StdPeriph_Driver/src/stm32f4xx_i2c.c **** /**
 811:Libraries/STM32F4xx_StdPeriph_Driver/src/stm32f4xx_i2c.c ****   * @brief  Selects the specified I2C PEC position.
 812:Libraries/STM32F4xx_StdPeriph_Driver/src/stm32f4xx_i2c.c ****   * @param  I2Cx: where x can be 1, 2 or 3 to select the I2C peripheral.
 813:Libraries/STM32F4xx_StdPeriph_Driver/src/stm32f4xx_i2c.c ****   * @param  I2C_PECPosition: specifies the PEC position. 
 814:Libraries/STM32F4xx_StdPeriph_Driver/src/stm32f4xx_i2c.c ****   *          This parameter can be one of the following values:
 815:Libraries/STM32F4xx_StdPeriph_Driver/src/stm32f4xx_i2c.c ****   *            @arg I2C_PECPosition_Next: indicates that the next byte is PEC
 816:Libraries/STM32F4xx_StdPeriph_Driver/src/stm32f4xx_i2c.c ****   *            @arg I2C_PECPosition_Current: indicates that current byte is PEC
 817:Libraries/STM32F4xx_StdPeriph_Driver/src/stm32f4xx_i2c.c ****   *       
 818:Libraries/STM32F4xx_StdPeriph_Driver/src/stm32f4xx_i2c.c ****   * @note    This function configures the same bit (POS) as I2C_NACKPositionConfig()
 819:Libraries/STM32F4xx_StdPeriph_Driver/src/stm32f4xx_i2c.c ****   *          but is intended to be used in SMBUS mode while I2C_NACKPositionConfig() 
 820:Libraries/STM32F4xx_StdPeriph_Driver/src/stm32f4xx_i2c.c ****   *          is intended to used in I2C mode.
 821:Libraries/STM32F4xx_StdPeriph_Driver/src/stm32f4xx_i2c.c ****   *                
 822:Libraries/STM32F4xx_StdPeriph_Driver/src/stm32f4xx_i2c.c ****   * @retval None
 823:Libraries/STM32F4xx_StdPeriph_Driver/src/stm32f4xx_i2c.c ****   */
 824:Libraries/STM32F4xx_StdPeriph_Driver/src/stm32f4xx_i2c.c **** void I2C_PECPositionConfig(I2C_TypeDef* I2Cx, uint16_t I2C_PECPosition)
 825:Libraries/STM32F4xx_StdPeriph_Driver/src/stm32f4xx_i2c.c **** {
 1172              		.loc 1 825 1 is_stmt 1 view -0
 1173              		.cfi_startproc
ARM GAS  /tmp/cclEJd3j.s 			page 36


 1174              		@ args = 0, pretend = 0, frame = 0
 1175              		@ frame_needed = 0, uses_anonymous_args = 0
 1176              		@ link register save eliminated.
 826:Libraries/STM32F4xx_StdPeriph_Driver/src/stm32f4xx_i2c.c ****   /* Check the parameters */
 827:Libraries/STM32F4xx_StdPeriph_Driver/src/stm32f4xx_i2c.c ****   assert_param(IS_I2C_ALL_PERIPH(I2Cx));
 1177              		.loc 1 827 3 view .LVU319
 828:Libraries/STM32F4xx_StdPeriph_Driver/src/stm32f4xx_i2c.c ****   assert_param(IS_I2C_PEC_POSITION(I2C_PECPosition));
 1178              		.loc 1 828 3 view .LVU320
 829:Libraries/STM32F4xx_StdPeriph_Driver/src/stm32f4xx_i2c.c ****   if (I2C_PECPosition == I2C_PECPosition_Next)
 1179              		.loc 1 829 3 view .LVU321
 1180              		.loc 1 829 6 is_stmt 0 view .LVU322
 1181 0000 B1F5006F 		cmp	r1, #2048
 1182 0004 06D0     		beq	.L78
 830:Libraries/STM32F4xx_StdPeriph_Driver/src/stm32f4xx_i2c.c ****   {
 831:Libraries/STM32F4xx_StdPeriph_Driver/src/stm32f4xx_i2c.c ****     /* Next byte in shift register is PEC */
 832:Libraries/STM32F4xx_StdPeriph_Driver/src/stm32f4xx_i2c.c ****     I2Cx->CR1 |= I2C_PECPosition_Next;
 833:Libraries/STM32F4xx_StdPeriph_Driver/src/stm32f4xx_i2c.c ****   }
 834:Libraries/STM32F4xx_StdPeriph_Driver/src/stm32f4xx_i2c.c ****   else
 835:Libraries/STM32F4xx_StdPeriph_Driver/src/stm32f4xx_i2c.c ****   {
 836:Libraries/STM32F4xx_StdPeriph_Driver/src/stm32f4xx_i2c.c ****     /* Current byte in shift register is PEC */
 837:Libraries/STM32F4xx_StdPeriph_Driver/src/stm32f4xx_i2c.c ****     I2Cx->CR1 &= I2C_PECPosition_Current;
 1183              		.loc 1 837 5 is_stmt 1 view .LVU323
 1184              		.loc 1 837 15 is_stmt 0 view .LVU324
 1185 0006 0388     		ldrh	r3, [r0]
 1186 0008 9BB2     		uxth	r3, r3
 1187 000a 23F40063 		bic	r3, r3, #2048
 1188 000e 9BB2     		uxth	r3, r3
 1189 0010 0380     		strh	r3, [r0]	@ movhi
 838:Libraries/STM32F4xx_StdPeriph_Driver/src/stm32f4xx_i2c.c ****   }
 839:Libraries/STM32F4xx_StdPeriph_Driver/src/stm32f4xx_i2c.c **** }
 1190              		.loc 1 839 1 view .LVU325
 1191 0012 7047     		bx	lr
 1192              	.L78:
 832:Libraries/STM32F4xx_StdPeriph_Driver/src/stm32f4xx_i2c.c ****   }
 1193              		.loc 1 832 5 is_stmt 1 view .LVU326
 832:Libraries/STM32F4xx_StdPeriph_Driver/src/stm32f4xx_i2c.c ****   }
 1194              		.loc 1 832 15 is_stmt 0 view .LVU327
 1195 0014 0388     		ldrh	r3, [r0]
 1196 0016 9BB2     		uxth	r3, r3
 1197 0018 43F40063 		orr	r3, r3, #2048
 1198 001c 0380     		strh	r3, [r0]	@ movhi
 1199 001e 7047     		bx	lr
 1200              		.cfi_endproc
 1201              	.LFE145:
 1203              		.section	.text.I2C_CalculatePEC,"ax",%progbits
 1204              		.align	1
 1205              		.global	I2C_CalculatePEC
 1206              		.syntax unified
 1207              		.thumb
 1208              		.thumb_func
 1209              		.fpu fpv4-sp-d16
 1211              	I2C_CalculatePEC:
 1212              	.LVL78:
 1213              	.LFB146:
 840:Libraries/STM32F4xx_StdPeriph_Driver/src/stm32f4xx_i2c.c **** 
 841:Libraries/STM32F4xx_StdPeriph_Driver/src/stm32f4xx_i2c.c **** /**
 842:Libraries/STM32F4xx_StdPeriph_Driver/src/stm32f4xx_i2c.c ****   * @brief  Enables or disables the PEC value calculation of the transferred bytes.
ARM GAS  /tmp/cclEJd3j.s 			page 37


 843:Libraries/STM32F4xx_StdPeriph_Driver/src/stm32f4xx_i2c.c ****   * @param  I2Cx: where x can be 1, 2 or 3 to select the I2C peripheral.
 844:Libraries/STM32F4xx_StdPeriph_Driver/src/stm32f4xx_i2c.c ****   * @param  NewState: new state of the I2Cx PEC value calculation.
 845:Libraries/STM32F4xx_StdPeriph_Driver/src/stm32f4xx_i2c.c ****   *          This parameter can be: ENABLE or DISABLE.
 846:Libraries/STM32F4xx_StdPeriph_Driver/src/stm32f4xx_i2c.c ****   * @retval None
 847:Libraries/STM32F4xx_StdPeriph_Driver/src/stm32f4xx_i2c.c ****   */
 848:Libraries/STM32F4xx_StdPeriph_Driver/src/stm32f4xx_i2c.c **** void I2C_CalculatePEC(I2C_TypeDef* I2Cx, FunctionalState NewState)
 849:Libraries/STM32F4xx_StdPeriph_Driver/src/stm32f4xx_i2c.c **** {
 1214              		.loc 1 849 1 is_stmt 1 view -0
 1215              		.cfi_startproc
 1216              		@ args = 0, pretend = 0, frame = 0
 1217              		@ frame_needed = 0, uses_anonymous_args = 0
 1218              		@ link register save eliminated.
 850:Libraries/STM32F4xx_StdPeriph_Driver/src/stm32f4xx_i2c.c ****   /* Check the parameters */
 851:Libraries/STM32F4xx_StdPeriph_Driver/src/stm32f4xx_i2c.c ****   assert_param(IS_I2C_ALL_PERIPH(I2Cx));
 1219              		.loc 1 851 3 view .LVU329
 852:Libraries/STM32F4xx_StdPeriph_Driver/src/stm32f4xx_i2c.c ****   assert_param(IS_FUNCTIONAL_STATE(NewState));
 1220              		.loc 1 852 3 view .LVU330
 853:Libraries/STM32F4xx_StdPeriph_Driver/src/stm32f4xx_i2c.c ****   if (NewState != DISABLE)
 1221              		.loc 1 853 3 view .LVU331
 1222              		.loc 1 853 6 is_stmt 0 view .LVU332
 1223 0000 29B1     		cbz	r1, .L80
 854:Libraries/STM32F4xx_StdPeriph_Driver/src/stm32f4xx_i2c.c ****   {
 855:Libraries/STM32F4xx_StdPeriph_Driver/src/stm32f4xx_i2c.c ****     /* Enable the selected I2C PEC calculation */
 856:Libraries/STM32F4xx_StdPeriph_Driver/src/stm32f4xx_i2c.c ****     I2Cx->CR1 |= I2C_CR1_ENPEC;
 1224              		.loc 1 856 5 is_stmt 1 view .LVU333
 1225              		.loc 1 856 15 is_stmt 0 view .LVU334
 1226 0002 0388     		ldrh	r3, [r0]
 1227 0004 9BB2     		uxth	r3, r3
 1228 0006 43F02003 		orr	r3, r3, #32
 1229 000a 0380     		strh	r3, [r0]	@ movhi
 1230 000c 7047     		bx	lr
 1231              	.L80:
 857:Libraries/STM32F4xx_StdPeriph_Driver/src/stm32f4xx_i2c.c ****   }
 858:Libraries/STM32F4xx_StdPeriph_Driver/src/stm32f4xx_i2c.c ****   else
 859:Libraries/STM32F4xx_StdPeriph_Driver/src/stm32f4xx_i2c.c ****   {
 860:Libraries/STM32F4xx_StdPeriph_Driver/src/stm32f4xx_i2c.c ****     /* Disable the selected I2C PEC calculation */
 861:Libraries/STM32F4xx_StdPeriph_Driver/src/stm32f4xx_i2c.c ****     I2Cx->CR1 &= (uint16_t)~((uint16_t)I2C_CR1_ENPEC);
 1232              		.loc 1 861 5 is_stmt 1 view .LVU335
 1233              		.loc 1 861 15 is_stmt 0 view .LVU336
 1234 000e 0388     		ldrh	r3, [r0]
 1235 0010 9BB2     		uxth	r3, r3
 1236 0012 23F02003 		bic	r3, r3, #32
 1237 0016 9BB2     		uxth	r3, r3
 1238 0018 0380     		strh	r3, [r0]	@ movhi
 862:Libraries/STM32F4xx_StdPeriph_Driver/src/stm32f4xx_i2c.c ****   }
 863:Libraries/STM32F4xx_StdPeriph_Driver/src/stm32f4xx_i2c.c **** }
 1239              		.loc 1 863 1 view .LVU337
 1240 001a 7047     		bx	lr
 1241              		.cfi_endproc
 1242              	.LFE146:
 1244              		.section	.text.I2C_GetPEC,"ax",%progbits
 1245              		.align	1
 1246              		.global	I2C_GetPEC
 1247              		.syntax unified
 1248              		.thumb
 1249              		.thumb_func
 1250              		.fpu fpv4-sp-d16
ARM GAS  /tmp/cclEJd3j.s 			page 38


 1252              	I2C_GetPEC:
 1253              	.LVL79:
 1254              	.LFB147:
 864:Libraries/STM32F4xx_StdPeriph_Driver/src/stm32f4xx_i2c.c **** 
 865:Libraries/STM32F4xx_StdPeriph_Driver/src/stm32f4xx_i2c.c **** /**
 866:Libraries/STM32F4xx_StdPeriph_Driver/src/stm32f4xx_i2c.c ****   * @brief  Returns the PEC value for the specified I2C.
 867:Libraries/STM32F4xx_StdPeriph_Driver/src/stm32f4xx_i2c.c ****   * @param  I2Cx: where x can be 1, 2 or 3 to select the I2C peripheral.
 868:Libraries/STM32F4xx_StdPeriph_Driver/src/stm32f4xx_i2c.c ****   * @retval The PEC value.
 869:Libraries/STM32F4xx_StdPeriph_Driver/src/stm32f4xx_i2c.c ****   */
 870:Libraries/STM32F4xx_StdPeriph_Driver/src/stm32f4xx_i2c.c **** uint8_t I2C_GetPEC(I2C_TypeDef* I2Cx)
 871:Libraries/STM32F4xx_StdPeriph_Driver/src/stm32f4xx_i2c.c **** {
 1255              		.loc 1 871 1 is_stmt 1 view -0
 1256              		.cfi_startproc
 1257              		@ args = 0, pretend = 0, frame = 0
 1258              		@ frame_needed = 0, uses_anonymous_args = 0
 1259              		@ link register save eliminated.
 872:Libraries/STM32F4xx_StdPeriph_Driver/src/stm32f4xx_i2c.c ****   /* Check the parameters */
 873:Libraries/STM32F4xx_StdPeriph_Driver/src/stm32f4xx_i2c.c ****   assert_param(IS_I2C_ALL_PERIPH(I2Cx));
 1260              		.loc 1 873 3 view .LVU339
 874:Libraries/STM32F4xx_StdPeriph_Driver/src/stm32f4xx_i2c.c ****   /* Return the selected I2C PEC value */
 875:Libraries/STM32F4xx_StdPeriph_Driver/src/stm32f4xx_i2c.c ****   return ((I2Cx->SR2) >> 8);
 1261              		.loc 1 875 3 view .LVU340
 1262              		.loc 1 875 16 is_stmt 0 view .LVU341
 1263 0000 008B     		ldrh	r0, [r0, #24]
 1264              	.LVL80:
 876:Libraries/STM32F4xx_StdPeriph_Driver/src/stm32f4xx_i2c.c **** }
 1265              		.loc 1 876 1 view .LVU342
 1266 0002 C0F30720 		ubfx	r0, r0, #8, #8
 1267 0006 7047     		bx	lr
 1268              		.cfi_endproc
 1269              	.LFE147:
 1271              		.section	.text.I2C_DMACmd,"ax",%progbits
 1272              		.align	1
 1273              		.global	I2C_DMACmd
 1274              		.syntax unified
 1275              		.thumb
 1276              		.thumb_func
 1277              		.fpu fpv4-sp-d16
 1279              	I2C_DMACmd:
 1280              	.LVL81:
 1281              	.LFB148:
 877:Libraries/STM32F4xx_StdPeriph_Driver/src/stm32f4xx_i2c.c **** 
 878:Libraries/STM32F4xx_StdPeriph_Driver/src/stm32f4xx_i2c.c **** /**
 879:Libraries/STM32F4xx_StdPeriph_Driver/src/stm32f4xx_i2c.c ****   * @}
 880:Libraries/STM32F4xx_StdPeriph_Driver/src/stm32f4xx_i2c.c ****   */
 881:Libraries/STM32F4xx_StdPeriph_Driver/src/stm32f4xx_i2c.c **** 
 882:Libraries/STM32F4xx_StdPeriph_Driver/src/stm32f4xx_i2c.c **** /** @defgroup I2C_Group4 DMA transfers management functions
 883:Libraries/STM32F4xx_StdPeriph_Driver/src/stm32f4xx_i2c.c ****  *  @brief   DMA transfers management functions 
 884:Libraries/STM32F4xx_StdPeriph_Driver/src/stm32f4xx_i2c.c ****  *
 885:Libraries/STM32F4xx_StdPeriph_Driver/src/stm32f4xx_i2c.c **** @verbatim   
 886:Libraries/STM32F4xx_StdPeriph_Driver/src/stm32f4xx_i2c.c ****  ===============================================================================
 887:Libraries/STM32F4xx_StdPeriph_Driver/src/stm32f4xx_i2c.c ****                 ##### DMA transfers management functions #####
 888:Libraries/STM32F4xx_StdPeriph_Driver/src/stm32f4xx_i2c.c ****  ===============================================================================  
 889:Libraries/STM32F4xx_StdPeriph_Driver/src/stm32f4xx_i2c.c ****   This section provides functions allowing to configure the I2C DMA channels 
 890:Libraries/STM32F4xx_StdPeriph_Driver/src/stm32f4xx_i2c.c ****   requests.
 891:Libraries/STM32F4xx_StdPeriph_Driver/src/stm32f4xx_i2c.c ****   
 892:Libraries/STM32F4xx_StdPeriph_Driver/src/stm32f4xx_i2c.c **** @endverbatim
ARM GAS  /tmp/cclEJd3j.s 			page 39


 893:Libraries/STM32F4xx_StdPeriph_Driver/src/stm32f4xx_i2c.c ****   * @{
 894:Libraries/STM32F4xx_StdPeriph_Driver/src/stm32f4xx_i2c.c ****   */
 895:Libraries/STM32F4xx_StdPeriph_Driver/src/stm32f4xx_i2c.c **** 
 896:Libraries/STM32F4xx_StdPeriph_Driver/src/stm32f4xx_i2c.c **** /**
 897:Libraries/STM32F4xx_StdPeriph_Driver/src/stm32f4xx_i2c.c ****   * @brief  Enables or disables the specified I2C DMA requests.
 898:Libraries/STM32F4xx_StdPeriph_Driver/src/stm32f4xx_i2c.c ****   * @param  I2Cx: where x can be 1, 2 or 3 to select the I2C peripheral.
 899:Libraries/STM32F4xx_StdPeriph_Driver/src/stm32f4xx_i2c.c ****   * @param  NewState: new state of the I2C DMA transfer.
 900:Libraries/STM32F4xx_StdPeriph_Driver/src/stm32f4xx_i2c.c ****   *          This parameter can be: ENABLE or DISABLE.
 901:Libraries/STM32F4xx_StdPeriph_Driver/src/stm32f4xx_i2c.c ****   * @retval None
 902:Libraries/STM32F4xx_StdPeriph_Driver/src/stm32f4xx_i2c.c ****   */
 903:Libraries/STM32F4xx_StdPeriph_Driver/src/stm32f4xx_i2c.c **** void I2C_DMACmd(I2C_TypeDef* I2Cx, FunctionalState NewState)
 904:Libraries/STM32F4xx_StdPeriph_Driver/src/stm32f4xx_i2c.c **** {
 1282              		.loc 1 904 1 is_stmt 1 view -0
 1283              		.cfi_startproc
 1284              		@ args = 0, pretend = 0, frame = 0
 1285              		@ frame_needed = 0, uses_anonymous_args = 0
 1286              		@ link register save eliminated.
 905:Libraries/STM32F4xx_StdPeriph_Driver/src/stm32f4xx_i2c.c ****   /* Check the parameters */
 906:Libraries/STM32F4xx_StdPeriph_Driver/src/stm32f4xx_i2c.c ****   assert_param(IS_I2C_ALL_PERIPH(I2Cx));
 1287              		.loc 1 906 3 view .LVU344
 907:Libraries/STM32F4xx_StdPeriph_Driver/src/stm32f4xx_i2c.c ****   assert_param(IS_FUNCTIONAL_STATE(NewState));
 1288              		.loc 1 907 3 view .LVU345
 908:Libraries/STM32F4xx_StdPeriph_Driver/src/stm32f4xx_i2c.c ****   if (NewState != DISABLE)
 1289              		.loc 1 908 3 view .LVU346
 1290              		.loc 1 908 6 is_stmt 0 view .LVU347
 1291 0000 29B1     		cbz	r1, .L84
 909:Libraries/STM32F4xx_StdPeriph_Driver/src/stm32f4xx_i2c.c ****   {
 910:Libraries/STM32F4xx_StdPeriph_Driver/src/stm32f4xx_i2c.c ****     /* Enable the selected I2C DMA requests */
 911:Libraries/STM32F4xx_StdPeriph_Driver/src/stm32f4xx_i2c.c ****     I2Cx->CR2 |= I2C_CR2_DMAEN;
 1292              		.loc 1 911 5 is_stmt 1 view .LVU348
 1293              		.loc 1 911 15 is_stmt 0 view .LVU349
 1294 0002 8388     		ldrh	r3, [r0, #4]
 1295 0004 9BB2     		uxth	r3, r3
 1296 0006 43F40063 		orr	r3, r3, #2048
 1297 000a 8380     		strh	r3, [r0, #4]	@ movhi
 1298 000c 7047     		bx	lr
 1299              	.L84:
 912:Libraries/STM32F4xx_StdPeriph_Driver/src/stm32f4xx_i2c.c ****   }
 913:Libraries/STM32F4xx_StdPeriph_Driver/src/stm32f4xx_i2c.c ****   else
 914:Libraries/STM32F4xx_StdPeriph_Driver/src/stm32f4xx_i2c.c ****   {
 915:Libraries/STM32F4xx_StdPeriph_Driver/src/stm32f4xx_i2c.c ****     /* Disable the selected I2C DMA requests */
 916:Libraries/STM32F4xx_StdPeriph_Driver/src/stm32f4xx_i2c.c ****     I2Cx->CR2 &= (uint16_t)~((uint16_t)I2C_CR2_DMAEN);
 1300              		.loc 1 916 5 is_stmt 1 view .LVU350
 1301              		.loc 1 916 15 is_stmt 0 view .LVU351
 1302 000e 8388     		ldrh	r3, [r0, #4]
 1303 0010 9BB2     		uxth	r3, r3
 1304 0012 23F40063 		bic	r3, r3, #2048
 1305 0016 9BB2     		uxth	r3, r3
 1306 0018 8380     		strh	r3, [r0, #4]	@ movhi
 917:Libraries/STM32F4xx_StdPeriph_Driver/src/stm32f4xx_i2c.c ****   }
 918:Libraries/STM32F4xx_StdPeriph_Driver/src/stm32f4xx_i2c.c **** }
 1307              		.loc 1 918 1 view .LVU352
 1308 001a 7047     		bx	lr
 1309              		.cfi_endproc
 1310              	.LFE148:
 1312              		.section	.text.I2C_DMALastTransferCmd,"ax",%progbits
 1313              		.align	1
ARM GAS  /tmp/cclEJd3j.s 			page 40


 1314              		.global	I2C_DMALastTransferCmd
 1315              		.syntax unified
 1316              		.thumb
 1317              		.thumb_func
 1318              		.fpu fpv4-sp-d16
 1320              	I2C_DMALastTransferCmd:
 1321              	.LVL82:
 1322              	.LFB149:
 919:Libraries/STM32F4xx_StdPeriph_Driver/src/stm32f4xx_i2c.c **** 
 920:Libraries/STM32F4xx_StdPeriph_Driver/src/stm32f4xx_i2c.c **** /**
 921:Libraries/STM32F4xx_StdPeriph_Driver/src/stm32f4xx_i2c.c ****   * @brief  Specifies that the next DMA transfer is the last one.
 922:Libraries/STM32F4xx_StdPeriph_Driver/src/stm32f4xx_i2c.c ****   * @param  I2Cx: where x can be 1, 2 or 3 to select the I2C peripheral.
 923:Libraries/STM32F4xx_StdPeriph_Driver/src/stm32f4xx_i2c.c ****   * @param  NewState: new state of the I2C DMA last transfer.
 924:Libraries/STM32F4xx_StdPeriph_Driver/src/stm32f4xx_i2c.c ****   *          This parameter can be: ENABLE or DISABLE.
 925:Libraries/STM32F4xx_StdPeriph_Driver/src/stm32f4xx_i2c.c ****   * @retval None
 926:Libraries/STM32F4xx_StdPeriph_Driver/src/stm32f4xx_i2c.c ****   */
 927:Libraries/STM32F4xx_StdPeriph_Driver/src/stm32f4xx_i2c.c **** void I2C_DMALastTransferCmd(I2C_TypeDef* I2Cx, FunctionalState NewState)
 928:Libraries/STM32F4xx_StdPeriph_Driver/src/stm32f4xx_i2c.c **** {
 1323              		.loc 1 928 1 is_stmt 1 view -0
 1324              		.cfi_startproc
 1325              		@ args = 0, pretend = 0, frame = 0
 1326              		@ frame_needed = 0, uses_anonymous_args = 0
 1327              		@ link register save eliminated.
 929:Libraries/STM32F4xx_StdPeriph_Driver/src/stm32f4xx_i2c.c ****   /* Check the parameters */
 930:Libraries/STM32F4xx_StdPeriph_Driver/src/stm32f4xx_i2c.c ****   assert_param(IS_I2C_ALL_PERIPH(I2Cx));
 1328              		.loc 1 930 3 view .LVU354
 931:Libraries/STM32F4xx_StdPeriph_Driver/src/stm32f4xx_i2c.c ****   assert_param(IS_FUNCTIONAL_STATE(NewState));
 1329              		.loc 1 931 3 view .LVU355
 932:Libraries/STM32F4xx_StdPeriph_Driver/src/stm32f4xx_i2c.c ****   if (NewState != DISABLE)
 1330              		.loc 1 932 3 view .LVU356
 1331              		.loc 1 932 6 is_stmt 0 view .LVU357
 1332 0000 29B1     		cbz	r1, .L87
 933:Libraries/STM32F4xx_StdPeriph_Driver/src/stm32f4xx_i2c.c ****   {
 934:Libraries/STM32F4xx_StdPeriph_Driver/src/stm32f4xx_i2c.c ****     /* Next DMA transfer is the last transfer */
 935:Libraries/STM32F4xx_StdPeriph_Driver/src/stm32f4xx_i2c.c ****     I2Cx->CR2 |= I2C_CR2_LAST;
 1333              		.loc 1 935 5 is_stmt 1 view .LVU358
 1334              		.loc 1 935 15 is_stmt 0 view .LVU359
 1335 0002 8388     		ldrh	r3, [r0, #4]
 1336 0004 9BB2     		uxth	r3, r3
 1337 0006 43F48053 		orr	r3, r3, #4096
 1338 000a 8380     		strh	r3, [r0, #4]	@ movhi
 1339 000c 7047     		bx	lr
 1340              	.L87:
 936:Libraries/STM32F4xx_StdPeriph_Driver/src/stm32f4xx_i2c.c ****   }
 937:Libraries/STM32F4xx_StdPeriph_Driver/src/stm32f4xx_i2c.c ****   else
 938:Libraries/STM32F4xx_StdPeriph_Driver/src/stm32f4xx_i2c.c ****   {
 939:Libraries/STM32F4xx_StdPeriph_Driver/src/stm32f4xx_i2c.c ****     /* Next DMA transfer is not the last transfer */
 940:Libraries/STM32F4xx_StdPeriph_Driver/src/stm32f4xx_i2c.c ****     I2Cx->CR2 &= (uint16_t)~((uint16_t)I2C_CR2_LAST);
 1341              		.loc 1 940 5 is_stmt 1 view .LVU360
 1342              		.loc 1 940 15 is_stmt 0 view .LVU361
 1343 000e 8388     		ldrh	r3, [r0, #4]
 1344 0010 9BB2     		uxth	r3, r3
 1345 0012 23F48053 		bic	r3, r3, #4096
 1346 0016 9BB2     		uxth	r3, r3
 1347 0018 8380     		strh	r3, [r0, #4]	@ movhi
 941:Libraries/STM32F4xx_StdPeriph_Driver/src/stm32f4xx_i2c.c ****   }
 942:Libraries/STM32F4xx_StdPeriph_Driver/src/stm32f4xx_i2c.c **** }
ARM GAS  /tmp/cclEJd3j.s 			page 41


 1348              		.loc 1 942 1 view .LVU362
 1349 001a 7047     		bx	lr
 1350              		.cfi_endproc
 1351              	.LFE149:
 1353              		.section	.text.I2C_ReadRegister,"ax",%progbits
 1354              		.align	1
 1355              		.global	I2C_ReadRegister
 1356              		.syntax unified
 1357              		.thumb
 1358              		.thumb_func
 1359              		.fpu fpv4-sp-d16
 1361              	I2C_ReadRegister:
 1362              	.LVL83:
 1363              	.LFB150:
 943:Libraries/STM32F4xx_StdPeriph_Driver/src/stm32f4xx_i2c.c **** 
 944:Libraries/STM32F4xx_StdPeriph_Driver/src/stm32f4xx_i2c.c **** /**
 945:Libraries/STM32F4xx_StdPeriph_Driver/src/stm32f4xx_i2c.c ****   * @}
 946:Libraries/STM32F4xx_StdPeriph_Driver/src/stm32f4xx_i2c.c ****   */
 947:Libraries/STM32F4xx_StdPeriph_Driver/src/stm32f4xx_i2c.c **** 
 948:Libraries/STM32F4xx_StdPeriph_Driver/src/stm32f4xx_i2c.c **** /** @defgroup I2C_Group5 Interrupts events and flags management functions
 949:Libraries/STM32F4xx_StdPeriph_Driver/src/stm32f4xx_i2c.c ****  *  @brief   Interrupts, events and flags management functions
 950:Libraries/STM32F4xx_StdPeriph_Driver/src/stm32f4xx_i2c.c ****  *
 951:Libraries/STM32F4xx_StdPeriph_Driver/src/stm32f4xx_i2c.c **** @verbatim   
 952:Libraries/STM32F4xx_StdPeriph_Driver/src/stm32f4xx_i2c.c ****  ===============================================================================
 953:Libraries/STM32F4xx_StdPeriph_Driver/src/stm32f4xx_i2c.c ****           ##### Interrupts, events and flags management functions #####
 954:Libraries/STM32F4xx_StdPeriph_Driver/src/stm32f4xx_i2c.c ****  ===============================================================================
 955:Libraries/STM32F4xx_StdPeriph_Driver/src/stm32f4xx_i2c.c ****     [..]
 956:Libraries/STM32F4xx_StdPeriph_Driver/src/stm32f4xx_i2c.c ****     This section provides functions allowing to configure the I2C Interrupts 
 957:Libraries/STM32F4xx_StdPeriph_Driver/src/stm32f4xx_i2c.c ****     sources and check or clear the flags or pending bits status.
 958:Libraries/STM32F4xx_StdPeriph_Driver/src/stm32f4xx_i2c.c ****     The user should identify which mode will be used in his application to manage 
 959:Libraries/STM32F4xx_StdPeriph_Driver/src/stm32f4xx_i2c.c ****     the communication: Polling mode, Interrupt mode or DMA mode. 
 960:Libraries/STM32F4xx_StdPeriph_Driver/src/stm32f4xx_i2c.c **** 
 961:Libraries/STM32F4xx_StdPeriph_Driver/src/stm32f4xx_i2c.c **** 
 962:Libraries/STM32F4xx_StdPeriph_Driver/src/stm32f4xx_i2c.c ****                 ##### I2C State Monitoring Functions #####                   
 963:Libraries/STM32F4xx_StdPeriph_Driver/src/stm32f4xx_i2c.c ****  =============================================================================== 
 964:Libraries/STM32F4xx_StdPeriph_Driver/src/stm32f4xx_i2c.c ****     [..]  
 965:Libraries/STM32F4xx_StdPeriph_Driver/src/stm32f4xx_i2c.c ****     This I2C driver provides three different ways for I2C state monitoring
 966:Libraries/STM32F4xx_StdPeriph_Driver/src/stm32f4xx_i2c.c ****     depending on the application requirements and constraints:
 967:Libraries/STM32F4xx_StdPeriph_Driver/src/stm32f4xx_i2c.c ****          
 968:Libraries/STM32F4xx_StdPeriph_Driver/src/stm32f4xx_i2c.c ****    
 969:Libraries/STM32F4xx_StdPeriph_Driver/src/stm32f4xx_i2c.c ****      (#) Basic state monitoring (Using I2C_CheckEvent() function)
 970:Libraries/STM32F4xx_StdPeriph_Driver/src/stm32f4xx_i2c.c ****      
 971:Libraries/STM32F4xx_StdPeriph_Driver/src/stm32f4xx_i2c.c ****         It compares the status registers (SR1 and SR2) content to a given event
 972:Libraries/STM32F4xx_StdPeriph_Driver/src/stm32f4xx_i2c.c ****         (can be the combination of one or more flags).
 973:Libraries/STM32F4xx_StdPeriph_Driver/src/stm32f4xx_i2c.c ****         It returns SUCCESS if the current status includes the given flags 
 974:Libraries/STM32F4xx_StdPeriph_Driver/src/stm32f4xx_i2c.c ****         and returns ERROR if one or more flags are missing in the current status.
 975:Libraries/STM32F4xx_StdPeriph_Driver/src/stm32f4xx_i2c.c **** 
 976:Libraries/STM32F4xx_StdPeriph_Driver/src/stm32f4xx_i2c.c ****           (++) When to use
 977:Libraries/STM32F4xx_StdPeriph_Driver/src/stm32f4xx_i2c.c ****              (+++) This function is suitable for most applications as well as for startup 
 978:Libraries/STM32F4xx_StdPeriph_Driver/src/stm32f4xx_i2c.c ****                activity since the events are fully described in the product reference 
 979:Libraries/STM32F4xx_StdPeriph_Driver/src/stm32f4xx_i2c.c ****                manual (RM0090).
 980:Libraries/STM32F4xx_StdPeriph_Driver/src/stm32f4xx_i2c.c ****              (+++) It is also suitable for users who need to define their own events.
 981:Libraries/STM32F4xx_StdPeriph_Driver/src/stm32f4xx_i2c.c **** 
 982:Libraries/STM32F4xx_StdPeriph_Driver/src/stm32f4xx_i2c.c ****           (++) Limitations
 983:Libraries/STM32F4xx_StdPeriph_Driver/src/stm32f4xx_i2c.c ****                If an error occurs (ie. error flags are set besides to the monitored 
 984:Libraries/STM32F4xx_StdPeriph_Driver/src/stm32f4xx_i2c.c ****                flags), the I2C_CheckEvent() function may return SUCCESS despite 
 985:Libraries/STM32F4xx_StdPeriph_Driver/src/stm32f4xx_i2c.c ****                the communication hold or corrupted real state. 
ARM GAS  /tmp/cclEJd3j.s 			page 42


 986:Libraries/STM32F4xx_StdPeriph_Driver/src/stm32f4xx_i2c.c ****                In this case, it is advised to use error interrupts to monitor 
 987:Libraries/STM32F4xx_StdPeriph_Driver/src/stm32f4xx_i2c.c ****                the error events and handle them in the interrupt IRQ handler.
 988:Libraries/STM32F4xx_StdPeriph_Driver/src/stm32f4xx_i2c.c ****          
 989:Libraries/STM32F4xx_StdPeriph_Driver/src/stm32f4xx_i2c.c ****      -@@- For error management, it is advised to use the following functions:
 990:Libraries/STM32F4xx_StdPeriph_Driver/src/stm32f4xx_i2c.c ****         (+@@) I2C_ITConfig() to configure and enable the error interrupts (I2C_IT_ERR).
 991:Libraries/STM32F4xx_StdPeriph_Driver/src/stm32f4xx_i2c.c ****         (+@@) I2Cx_ER_IRQHandler() which is called when the error interrupt occurs.
 992:Libraries/STM32F4xx_StdPeriph_Driver/src/stm32f4xx_i2c.c ****               Where x is the peripheral instance (I2C1, I2C2 ...)
 993:Libraries/STM32F4xx_StdPeriph_Driver/src/stm32f4xx_i2c.c ****         (+@@) I2C_GetFlagStatus() or I2C_GetITStatus()  to be called into the 
 994:Libraries/STM32F4xx_StdPeriph_Driver/src/stm32f4xx_i2c.c ****               I2Cx_ER_IRQHandler() function in order to determine which error occurred.
 995:Libraries/STM32F4xx_StdPeriph_Driver/src/stm32f4xx_i2c.c ****         (+@@) I2C_ClearFlag() or I2C_ClearITPendingBit() and/or I2C_SoftwareResetCmd() 
 996:Libraries/STM32F4xx_StdPeriph_Driver/src/stm32f4xx_i2c.c ****               and/or I2C_GenerateStop() in order to clear the error flag and source 
 997:Libraries/STM32F4xx_StdPeriph_Driver/src/stm32f4xx_i2c.c ****               and return to correct  communication status.
 998:Libraries/STM32F4xx_StdPeriph_Driver/src/stm32f4xx_i2c.c ****              
 999:Libraries/STM32F4xx_StdPeriph_Driver/src/stm32f4xx_i2c.c ****  
1000:Libraries/STM32F4xx_StdPeriph_Driver/src/stm32f4xx_i2c.c ****      (#) Advanced state monitoring (Using the function I2C_GetLastEvent())
1001:Libraries/STM32F4xx_StdPeriph_Driver/src/stm32f4xx_i2c.c **** 
1002:Libraries/STM32F4xx_StdPeriph_Driver/src/stm32f4xx_i2c.c ****         Using the function I2C_GetLastEvent() which returns the image of both status 
1003:Libraries/STM32F4xx_StdPeriph_Driver/src/stm32f4xx_i2c.c ****         registers in a single word (uint32_t) (Status Register 2 value is shifted left 
1004:Libraries/STM32F4xx_StdPeriph_Driver/src/stm32f4xx_i2c.c ****         by 16 bits and concatenated to Status Register 1).
1005:Libraries/STM32F4xx_StdPeriph_Driver/src/stm32f4xx_i2c.c **** 
1006:Libraries/STM32F4xx_StdPeriph_Driver/src/stm32f4xx_i2c.c ****           (++) When to use
1007:Libraries/STM32F4xx_StdPeriph_Driver/src/stm32f4xx_i2c.c ****              (+++) This function is suitable for the same applications above but it 
1008:Libraries/STM32F4xx_StdPeriph_Driver/src/stm32f4xx_i2c.c ****                allows to overcome the mentioned limitation of I2C_GetFlagStatus() 
1009:Libraries/STM32F4xx_StdPeriph_Driver/src/stm32f4xx_i2c.c ****                function.
1010:Libraries/STM32F4xx_StdPeriph_Driver/src/stm32f4xx_i2c.c ****              (+++) The returned value could be compared to events already defined in 
1011:Libraries/STM32F4xx_StdPeriph_Driver/src/stm32f4xx_i2c.c ****                the library (stm32f4xx_i2c.h) or to custom values defined by user.
1012:Libraries/STM32F4xx_StdPeriph_Driver/src/stm32f4xx_i2c.c ****                This function is suitable when multiple flags are monitored at the 
1013:Libraries/STM32F4xx_StdPeriph_Driver/src/stm32f4xx_i2c.c ****                same time.
1014:Libraries/STM32F4xx_StdPeriph_Driver/src/stm32f4xx_i2c.c ****              (+++) At the opposite of I2C_CheckEvent() function, this function allows 
1015:Libraries/STM32F4xx_StdPeriph_Driver/src/stm32f4xx_i2c.c ****                user to choose when an event is accepted (when all events flags are 
1016:Libraries/STM32F4xx_StdPeriph_Driver/src/stm32f4xx_i2c.c ****                set and no other flags are set or just when the needed flags are set 
1017:Libraries/STM32F4xx_StdPeriph_Driver/src/stm32f4xx_i2c.c ****                like I2C_CheckEvent() function.
1018:Libraries/STM32F4xx_StdPeriph_Driver/src/stm32f4xx_i2c.c **** 
1019:Libraries/STM32F4xx_StdPeriph_Driver/src/stm32f4xx_i2c.c ****           (++) Limitations
1020:Libraries/STM32F4xx_StdPeriph_Driver/src/stm32f4xx_i2c.c ****              (+++) User may need to define his own events.
1021:Libraries/STM32F4xx_StdPeriph_Driver/src/stm32f4xx_i2c.c ****              (+++) Same remark concerning the error management is applicable for this 
1022:Libraries/STM32F4xx_StdPeriph_Driver/src/stm32f4xx_i2c.c ****                function if user decides to check only regular communication flags 
1023:Libraries/STM32F4xx_StdPeriph_Driver/src/stm32f4xx_i2c.c ****                (and ignores error flags).
1024:Libraries/STM32F4xx_StdPeriph_Driver/src/stm32f4xx_i2c.c ****       
1025:Libraries/STM32F4xx_StdPeriph_Driver/src/stm32f4xx_i2c.c ****  
1026:Libraries/STM32F4xx_StdPeriph_Driver/src/stm32f4xx_i2c.c ****      (#) Flag-based state monitoring (Using the function I2C_GetFlagStatus())
1027:Libraries/STM32F4xx_StdPeriph_Driver/src/stm32f4xx_i2c.c ****      
1028:Libraries/STM32F4xx_StdPeriph_Driver/src/stm32f4xx_i2c.c ****       Using the function I2C_GetFlagStatus() which simply returns the status of 
1029:Libraries/STM32F4xx_StdPeriph_Driver/src/stm32f4xx_i2c.c ****       one single flag (ie. I2C_FLAG_RXNE ...). 
1030:Libraries/STM32F4xx_StdPeriph_Driver/src/stm32f4xx_i2c.c **** 
1031:Libraries/STM32F4xx_StdPeriph_Driver/src/stm32f4xx_i2c.c ****           (++) When to use
1032:Libraries/STM32F4xx_StdPeriph_Driver/src/stm32f4xx_i2c.c ****              (+++) This function could be used for specific applications or in debug 
1033:Libraries/STM32F4xx_StdPeriph_Driver/src/stm32f4xx_i2c.c ****                phase.
1034:Libraries/STM32F4xx_StdPeriph_Driver/src/stm32f4xx_i2c.c ****              (+++) It is suitable when only one flag checking is needed (most I2C 
1035:Libraries/STM32F4xx_StdPeriph_Driver/src/stm32f4xx_i2c.c ****                events are monitored through multiple flags).
1036:Libraries/STM32F4xx_StdPeriph_Driver/src/stm32f4xx_i2c.c ****           (++) Limitations: 
1037:Libraries/STM32F4xx_StdPeriph_Driver/src/stm32f4xx_i2c.c ****              (+++) When calling this function, the Status register is accessed. 
1038:Libraries/STM32F4xx_StdPeriph_Driver/src/stm32f4xx_i2c.c ****                Some flags are cleared when the status register is accessed. 
1039:Libraries/STM32F4xx_StdPeriph_Driver/src/stm32f4xx_i2c.c ****                So checking the status of one Flag, may clear other ones.
1040:Libraries/STM32F4xx_StdPeriph_Driver/src/stm32f4xx_i2c.c ****              (+++) Function may need to be called twice or more in order to monitor 
1041:Libraries/STM32F4xx_StdPeriph_Driver/src/stm32f4xx_i2c.c ****                one single event.
1042:Libraries/STM32F4xx_StdPeriph_Driver/src/stm32f4xx_i2c.c ****  
ARM GAS  /tmp/cclEJd3j.s 			page 43


1043:Libraries/STM32F4xx_StdPeriph_Driver/src/stm32f4xx_i2c.c ****    For detailed description of Events, please refer to section I2C_Events in 
1044:Libraries/STM32F4xx_StdPeriph_Driver/src/stm32f4xx_i2c.c ****    stm32f4xx_i2c.h file.
1045:Libraries/STM32F4xx_StdPeriph_Driver/src/stm32f4xx_i2c.c ****        
1046:Libraries/STM32F4xx_StdPeriph_Driver/src/stm32f4xx_i2c.c **** @endverbatim
1047:Libraries/STM32F4xx_StdPeriph_Driver/src/stm32f4xx_i2c.c ****   * @{
1048:Libraries/STM32F4xx_StdPeriph_Driver/src/stm32f4xx_i2c.c ****   */
1049:Libraries/STM32F4xx_StdPeriph_Driver/src/stm32f4xx_i2c.c ****    
1050:Libraries/STM32F4xx_StdPeriph_Driver/src/stm32f4xx_i2c.c **** /**
1051:Libraries/STM32F4xx_StdPeriph_Driver/src/stm32f4xx_i2c.c ****   * @brief  Reads the specified I2C register and returns its value.
1052:Libraries/STM32F4xx_StdPeriph_Driver/src/stm32f4xx_i2c.c ****   * @param  I2C_Register: specifies the register to read.
1053:Libraries/STM32F4xx_StdPeriph_Driver/src/stm32f4xx_i2c.c ****   *          This parameter can be one of the following values:
1054:Libraries/STM32F4xx_StdPeriph_Driver/src/stm32f4xx_i2c.c ****   *            @arg I2C_Register_CR1:  CR1 register.
1055:Libraries/STM32F4xx_StdPeriph_Driver/src/stm32f4xx_i2c.c ****   *            @arg I2C_Register_CR2:   CR2 register.
1056:Libraries/STM32F4xx_StdPeriph_Driver/src/stm32f4xx_i2c.c ****   *            @arg I2C_Register_OAR1:  OAR1 register.
1057:Libraries/STM32F4xx_StdPeriph_Driver/src/stm32f4xx_i2c.c ****   *            @arg I2C_Register_OAR2:  OAR2 register.
1058:Libraries/STM32F4xx_StdPeriph_Driver/src/stm32f4xx_i2c.c ****   *            @arg I2C_Register_DR:    DR register.
1059:Libraries/STM32F4xx_StdPeriph_Driver/src/stm32f4xx_i2c.c ****   *            @arg I2C_Register_SR1:   SR1 register.
1060:Libraries/STM32F4xx_StdPeriph_Driver/src/stm32f4xx_i2c.c ****   *            @arg I2C_Register_SR2:   SR2 register.
1061:Libraries/STM32F4xx_StdPeriph_Driver/src/stm32f4xx_i2c.c ****   *            @arg I2C_Register_CCR:   CCR register.
1062:Libraries/STM32F4xx_StdPeriph_Driver/src/stm32f4xx_i2c.c ****   *            @arg I2C_Register_TRISE: TRISE register.
1063:Libraries/STM32F4xx_StdPeriph_Driver/src/stm32f4xx_i2c.c ****   * @retval The value of the read register.
1064:Libraries/STM32F4xx_StdPeriph_Driver/src/stm32f4xx_i2c.c ****   */
1065:Libraries/STM32F4xx_StdPeriph_Driver/src/stm32f4xx_i2c.c **** uint16_t I2C_ReadRegister(I2C_TypeDef* I2Cx, uint8_t I2C_Register)
1066:Libraries/STM32F4xx_StdPeriph_Driver/src/stm32f4xx_i2c.c **** {
 1364              		.loc 1 1066 1 is_stmt 1 view -0
 1365              		.cfi_startproc
 1366              		@ args = 0, pretend = 0, frame = 8
 1367              		@ frame_needed = 0, uses_anonymous_args = 0
 1368              		@ link register save eliminated.
 1369              		.loc 1 1066 1 is_stmt 0 view .LVU364
 1370 0000 82B0     		sub	sp, sp, #8
 1371              	.LCFI5:
 1372              		.cfi_def_cfa_offset 8
1067:Libraries/STM32F4xx_StdPeriph_Driver/src/stm32f4xx_i2c.c ****   __IO uint32_t tmp = 0;
 1373              		.loc 1 1067 3 is_stmt 1 view .LVU365
 1374              		.loc 1 1067 17 is_stmt 0 view .LVU366
 1375 0002 0023     		movs	r3, #0
 1376 0004 0193     		str	r3, [sp, #4]
1068:Libraries/STM32F4xx_StdPeriph_Driver/src/stm32f4xx_i2c.c **** 
1069:Libraries/STM32F4xx_StdPeriph_Driver/src/stm32f4xx_i2c.c ****   /* Check the parameters */
1070:Libraries/STM32F4xx_StdPeriph_Driver/src/stm32f4xx_i2c.c ****   assert_param(IS_I2C_ALL_PERIPH(I2Cx));
 1377              		.loc 1 1070 3 is_stmt 1 view .LVU367
1071:Libraries/STM32F4xx_StdPeriph_Driver/src/stm32f4xx_i2c.c ****   assert_param(IS_I2C_REGISTER(I2C_Register));
 1378              		.loc 1 1071 3 view .LVU368
1072:Libraries/STM32F4xx_StdPeriph_Driver/src/stm32f4xx_i2c.c **** 
1073:Libraries/STM32F4xx_StdPeriph_Driver/src/stm32f4xx_i2c.c ****   tmp = (uint32_t) I2Cx;
 1379              		.loc 1 1073 3 view .LVU369
 1380              		.loc 1 1073 7 is_stmt 0 view .LVU370
 1381 0006 0190     		str	r0, [sp, #4]
1074:Libraries/STM32F4xx_StdPeriph_Driver/src/stm32f4xx_i2c.c ****   tmp += I2C_Register;
 1382              		.loc 1 1074 3 is_stmt 1 view .LVU371
 1383              		.loc 1 1074 7 is_stmt 0 view .LVU372
 1384 0008 019B     		ldr	r3, [sp, #4]
 1385 000a 1944     		add	r1, r1, r3
 1386              	.LVL84:
 1387              		.loc 1 1074 7 view .LVU373
 1388 000c 0191     		str	r1, [sp, #4]
ARM GAS  /tmp/cclEJd3j.s 			page 44


1075:Libraries/STM32F4xx_StdPeriph_Driver/src/stm32f4xx_i2c.c **** 
1076:Libraries/STM32F4xx_StdPeriph_Driver/src/stm32f4xx_i2c.c ****   /* Return the selected register value */
1077:Libraries/STM32F4xx_StdPeriph_Driver/src/stm32f4xx_i2c.c ****   return (*(__IO uint16_t *) tmp);
 1389              		.loc 1 1077 3 is_stmt 1 view .LVU374
 1390              		.loc 1 1077 12 is_stmt 0 view .LVU375
 1391 000e 019B     		ldr	r3, [sp, #4]
 1392              		.loc 1 1077 11 view .LVU376
 1393 0010 1888     		ldrh	r0, [r3]
 1394              	.LVL85:
1078:Libraries/STM32F4xx_StdPeriph_Driver/src/stm32f4xx_i2c.c **** }
 1395              		.loc 1 1078 1 view .LVU377
 1396 0012 80B2     		uxth	r0, r0
 1397 0014 02B0     		add	sp, sp, #8
 1398              	.LCFI6:
 1399              		.cfi_def_cfa_offset 0
 1400              		@ sp needed
 1401 0016 7047     		bx	lr
 1402              		.cfi_endproc
 1403              	.LFE150:
 1405              		.section	.text.I2C_ITConfig,"ax",%progbits
 1406              		.align	1
 1407              		.global	I2C_ITConfig
 1408              		.syntax unified
 1409              		.thumb
 1410              		.thumb_func
 1411              		.fpu fpv4-sp-d16
 1413              	I2C_ITConfig:
 1414              	.LVL86:
 1415              	.LFB151:
1079:Libraries/STM32F4xx_StdPeriph_Driver/src/stm32f4xx_i2c.c **** 
1080:Libraries/STM32F4xx_StdPeriph_Driver/src/stm32f4xx_i2c.c **** /**
1081:Libraries/STM32F4xx_StdPeriph_Driver/src/stm32f4xx_i2c.c ****   * @brief  Enables or disables the specified I2C interrupts.
1082:Libraries/STM32F4xx_StdPeriph_Driver/src/stm32f4xx_i2c.c ****   * @param  I2Cx: where x can be 1, 2 or 3 to select the I2C peripheral.
1083:Libraries/STM32F4xx_StdPeriph_Driver/src/stm32f4xx_i2c.c ****   * @param  I2C_IT: specifies the I2C interrupts sources to be enabled or disabled. 
1084:Libraries/STM32F4xx_StdPeriph_Driver/src/stm32f4xx_i2c.c ****   *          This parameter can be any combination of the following values:
1085:Libraries/STM32F4xx_StdPeriph_Driver/src/stm32f4xx_i2c.c ****   *            @arg I2C_IT_BUF: Buffer interrupt mask
1086:Libraries/STM32F4xx_StdPeriph_Driver/src/stm32f4xx_i2c.c ****   *            @arg I2C_IT_EVT: Event interrupt mask
1087:Libraries/STM32F4xx_StdPeriph_Driver/src/stm32f4xx_i2c.c ****   *            @arg I2C_IT_ERR: Error interrupt mask
1088:Libraries/STM32F4xx_StdPeriph_Driver/src/stm32f4xx_i2c.c ****   * @param  NewState: new state of the specified I2C interrupts.
1089:Libraries/STM32F4xx_StdPeriph_Driver/src/stm32f4xx_i2c.c ****   *          This parameter can be: ENABLE or DISABLE.
1090:Libraries/STM32F4xx_StdPeriph_Driver/src/stm32f4xx_i2c.c ****   * @retval None
1091:Libraries/STM32F4xx_StdPeriph_Driver/src/stm32f4xx_i2c.c ****   */
1092:Libraries/STM32F4xx_StdPeriph_Driver/src/stm32f4xx_i2c.c **** void I2C_ITConfig(I2C_TypeDef* I2Cx, uint16_t I2C_IT, FunctionalState NewState)
1093:Libraries/STM32F4xx_StdPeriph_Driver/src/stm32f4xx_i2c.c **** {
 1416              		.loc 1 1093 1 is_stmt 1 view -0
 1417              		.cfi_startproc
 1418              		@ args = 0, pretend = 0, frame = 0
 1419              		@ frame_needed = 0, uses_anonymous_args = 0
 1420              		@ link register save eliminated.
1094:Libraries/STM32F4xx_StdPeriph_Driver/src/stm32f4xx_i2c.c ****   /* Check the parameters */
1095:Libraries/STM32F4xx_StdPeriph_Driver/src/stm32f4xx_i2c.c ****   assert_param(IS_I2C_ALL_PERIPH(I2Cx));
 1421              		.loc 1 1095 3 view .LVU379
1096:Libraries/STM32F4xx_StdPeriph_Driver/src/stm32f4xx_i2c.c ****   assert_param(IS_FUNCTIONAL_STATE(NewState));
 1422              		.loc 1 1096 3 view .LVU380
1097:Libraries/STM32F4xx_StdPeriph_Driver/src/stm32f4xx_i2c.c ****   assert_param(IS_I2C_CONFIG_IT(I2C_IT));
 1423              		.loc 1 1097 3 view .LVU381
1098:Libraries/STM32F4xx_StdPeriph_Driver/src/stm32f4xx_i2c.c ****   
ARM GAS  /tmp/cclEJd3j.s 			page 45


1099:Libraries/STM32F4xx_StdPeriph_Driver/src/stm32f4xx_i2c.c ****   if (NewState != DISABLE)
 1424              		.loc 1 1099 3 view .LVU382
 1425              		.loc 1 1099 6 is_stmt 0 view .LVU383
 1426 0000 22B1     		cbz	r2, .L92
1100:Libraries/STM32F4xx_StdPeriph_Driver/src/stm32f4xx_i2c.c ****   {
1101:Libraries/STM32F4xx_StdPeriph_Driver/src/stm32f4xx_i2c.c ****     /* Enable the selected I2C interrupts */
1102:Libraries/STM32F4xx_StdPeriph_Driver/src/stm32f4xx_i2c.c ****     I2Cx->CR2 |= I2C_IT;
 1427              		.loc 1 1102 5 is_stmt 1 view .LVU384
 1428              		.loc 1 1102 15 is_stmt 0 view .LVU385
 1429 0002 8388     		ldrh	r3, [r0, #4]
 1430 0004 9BB2     		uxth	r3, r3
 1431 0006 1943     		orrs	r1, r1, r3
 1432              	.LVL87:
 1433              		.loc 1 1102 15 view .LVU386
 1434 0008 8180     		strh	r1, [r0, #4]	@ movhi
 1435 000a 7047     		bx	lr
 1436              	.LVL88:
 1437              	.L92:
1103:Libraries/STM32F4xx_StdPeriph_Driver/src/stm32f4xx_i2c.c ****   }
1104:Libraries/STM32F4xx_StdPeriph_Driver/src/stm32f4xx_i2c.c ****   else
1105:Libraries/STM32F4xx_StdPeriph_Driver/src/stm32f4xx_i2c.c ****   {
1106:Libraries/STM32F4xx_StdPeriph_Driver/src/stm32f4xx_i2c.c ****     /* Disable the selected I2C interrupts */
1107:Libraries/STM32F4xx_StdPeriph_Driver/src/stm32f4xx_i2c.c ****     I2Cx->CR2 &= (uint16_t)~I2C_IT;
 1438              		.loc 1 1107 5 is_stmt 1 view .LVU387
 1439              		.loc 1 1107 15 is_stmt 0 view .LVU388
 1440 000c 8388     		ldrh	r3, [r0, #4]
 1441              		.loc 1 1107 18 view .LVU389
 1442 000e C943     		mvns	r1, r1
 1443              	.LVL89:
 1444              		.loc 1 1107 18 view .LVU390
 1445 0010 89B2     		uxth	r1, r1
 1446              		.loc 1 1107 15 view .LVU391
 1447 0012 1940     		ands	r1, r1, r3
 1448 0014 8180     		strh	r1, [r0, #4]	@ movhi
1108:Libraries/STM32F4xx_StdPeriph_Driver/src/stm32f4xx_i2c.c ****   }
1109:Libraries/STM32F4xx_StdPeriph_Driver/src/stm32f4xx_i2c.c **** }
 1449              		.loc 1 1109 1 view .LVU392
 1450 0016 7047     		bx	lr
 1451              		.cfi_endproc
 1452              	.LFE151:
 1454              		.section	.text.I2C_CheckEvent,"ax",%progbits
 1455              		.align	1
 1456              		.global	I2C_CheckEvent
 1457              		.syntax unified
 1458              		.thumb
 1459              		.thumb_func
 1460              		.fpu fpv4-sp-d16
 1462              	I2C_CheckEvent:
 1463              	.LVL90:
 1464              	.LFB152:
1110:Libraries/STM32F4xx_StdPeriph_Driver/src/stm32f4xx_i2c.c **** 
1111:Libraries/STM32F4xx_StdPeriph_Driver/src/stm32f4xx_i2c.c **** /*
1112:Libraries/STM32F4xx_StdPeriph_Driver/src/stm32f4xx_i2c.c ****  ===============================================================================
1113:Libraries/STM32F4xx_StdPeriph_Driver/src/stm32f4xx_i2c.c ****                           1. Basic state monitoring                    
1114:Libraries/STM32F4xx_StdPeriph_Driver/src/stm32f4xx_i2c.c ****  ===============================================================================  
1115:Libraries/STM32F4xx_StdPeriph_Driver/src/stm32f4xx_i2c.c ****  */
1116:Libraries/STM32F4xx_StdPeriph_Driver/src/stm32f4xx_i2c.c **** 
ARM GAS  /tmp/cclEJd3j.s 			page 46


1117:Libraries/STM32F4xx_StdPeriph_Driver/src/stm32f4xx_i2c.c **** /**
1118:Libraries/STM32F4xx_StdPeriph_Driver/src/stm32f4xx_i2c.c ****   * @brief  Checks whether the last I2Cx Event is equal to the one passed
1119:Libraries/STM32F4xx_StdPeriph_Driver/src/stm32f4xx_i2c.c ****   *         as parameter.
1120:Libraries/STM32F4xx_StdPeriph_Driver/src/stm32f4xx_i2c.c ****   * @param  I2Cx: where x can be 1, 2 or 3 to select the I2C peripheral.
1121:Libraries/STM32F4xx_StdPeriph_Driver/src/stm32f4xx_i2c.c ****   * @param  I2C_EVENT: specifies the event to be checked. 
1122:Libraries/STM32F4xx_StdPeriph_Driver/src/stm32f4xx_i2c.c ****   *          This parameter can be one of the following values:
1123:Libraries/STM32F4xx_StdPeriph_Driver/src/stm32f4xx_i2c.c ****   *            @arg I2C_EVENT_SLAVE_TRANSMITTER_ADDRESS_MATCHED: EV1
1124:Libraries/STM32F4xx_StdPeriph_Driver/src/stm32f4xx_i2c.c ****   *            @arg I2C_EVENT_SLAVE_RECEIVER_ADDRESS_MATCHED: EV1
1125:Libraries/STM32F4xx_StdPeriph_Driver/src/stm32f4xx_i2c.c ****   *            @arg I2C_EVENT_SLAVE_TRANSMITTER_SECONDADDRESS_MATCHED: EV1
1126:Libraries/STM32F4xx_StdPeriph_Driver/src/stm32f4xx_i2c.c ****   *            @arg I2C_EVENT_SLAVE_RECEIVER_SECONDADDRESS_MATCHED: EV1
1127:Libraries/STM32F4xx_StdPeriph_Driver/src/stm32f4xx_i2c.c ****   *            @arg I2C_EVENT_SLAVE_GENERALCALLADDRESS_MATCHED: EV1
1128:Libraries/STM32F4xx_StdPeriph_Driver/src/stm32f4xx_i2c.c ****   *            @arg I2C_EVENT_SLAVE_BYTE_RECEIVED: EV2
1129:Libraries/STM32F4xx_StdPeriph_Driver/src/stm32f4xx_i2c.c ****   *            @arg (I2C_EVENT_SLAVE_BYTE_RECEIVED | I2C_FLAG_DUALF): EV2
1130:Libraries/STM32F4xx_StdPeriph_Driver/src/stm32f4xx_i2c.c ****   *            @arg (I2C_EVENT_SLAVE_BYTE_RECEIVED | I2C_FLAG_GENCALL): EV2
1131:Libraries/STM32F4xx_StdPeriph_Driver/src/stm32f4xx_i2c.c ****   *            @arg I2C_EVENT_SLAVE_BYTE_TRANSMITTED: EV3
1132:Libraries/STM32F4xx_StdPeriph_Driver/src/stm32f4xx_i2c.c ****   *            @arg (I2C_EVENT_SLAVE_BYTE_TRANSMITTED | I2C_FLAG_DUALF): EV3
1133:Libraries/STM32F4xx_StdPeriph_Driver/src/stm32f4xx_i2c.c ****   *            @arg (I2C_EVENT_SLAVE_BYTE_TRANSMITTED | I2C_FLAG_GENCALL): EV3
1134:Libraries/STM32F4xx_StdPeriph_Driver/src/stm32f4xx_i2c.c ****   *            @arg I2C_EVENT_SLAVE_ACK_FAILURE: EV3_2
1135:Libraries/STM32F4xx_StdPeriph_Driver/src/stm32f4xx_i2c.c ****   *            @arg I2C_EVENT_SLAVE_STOP_DETECTED: EV4
1136:Libraries/STM32F4xx_StdPeriph_Driver/src/stm32f4xx_i2c.c ****   *            @arg I2C_EVENT_MASTER_MODE_SELECT: EV5
1137:Libraries/STM32F4xx_StdPeriph_Driver/src/stm32f4xx_i2c.c ****   *            @arg I2C_EVENT_MASTER_TRANSMITTER_MODE_SELECTED: EV6     
1138:Libraries/STM32F4xx_StdPeriph_Driver/src/stm32f4xx_i2c.c ****   *            @arg I2C_EVENT_MASTER_RECEIVER_MODE_SELECTED: EV6
1139:Libraries/STM32F4xx_StdPeriph_Driver/src/stm32f4xx_i2c.c ****   *            @arg I2C_EVENT_MASTER_BYTE_RECEIVED: EV7
1140:Libraries/STM32F4xx_StdPeriph_Driver/src/stm32f4xx_i2c.c ****   *            @arg I2C_EVENT_MASTER_BYTE_TRANSMITTING: EV8
1141:Libraries/STM32F4xx_StdPeriph_Driver/src/stm32f4xx_i2c.c ****   *            @arg I2C_EVENT_MASTER_BYTE_TRANSMITTED: EV8_2
1142:Libraries/STM32F4xx_StdPeriph_Driver/src/stm32f4xx_i2c.c ****   *            @arg I2C_EVENT_MASTER_MODE_ADDRESS10: EV9
1143:Libraries/STM32F4xx_StdPeriph_Driver/src/stm32f4xx_i2c.c ****   *     
1144:Libraries/STM32F4xx_StdPeriph_Driver/src/stm32f4xx_i2c.c ****   * @note   For detailed description of Events, please refer to section I2C_Events
1145:Libraries/STM32F4xx_StdPeriph_Driver/src/stm32f4xx_i2c.c ****   *         in stm32f4xx_i2c.h file.
1146:Libraries/STM32F4xx_StdPeriph_Driver/src/stm32f4xx_i2c.c ****   *    
1147:Libraries/STM32F4xx_StdPeriph_Driver/src/stm32f4xx_i2c.c ****   * @retval An ErrorStatus enumeration value:
1148:Libraries/STM32F4xx_StdPeriph_Driver/src/stm32f4xx_i2c.c ****   *           - SUCCESS: Last event is equal to the I2C_EVENT
1149:Libraries/STM32F4xx_StdPeriph_Driver/src/stm32f4xx_i2c.c ****   *           - ERROR: Last event is different from the I2C_EVENT
1150:Libraries/STM32F4xx_StdPeriph_Driver/src/stm32f4xx_i2c.c ****   */
1151:Libraries/STM32F4xx_StdPeriph_Driver/src/stm32f4xx_i2c.c **** ErrorStatus I2C_CheckEvent(I2C_TypeDef* I2Cx, uint32_t I2C_EVENT)
1152:Libraries/STM32F4xx_StdPeriph_Driver/src/stm32f4xx_i2c.c **** {
 1465              		.loc 1 1152 1 is_stmt 1 view -0
 1466              		.cfi_startproc
 1467              		@ args = 0, pretend = 0, frame = 0
 1468              		@ frame_needed = 0, uses_anonymous_args = 0
 1469              		@ link register save eliminated.
1153:Libraries/STM32F4xx_StdPeriph_Driver/src/stm32f4xx_i2c.c ****   uint32_t lastevent = 0;
 1470              		.loc 1 1153 3 view .LVU394
1154:Libraries/STM32F4xx_StdPeriph_Driver/src/stm32f4xx_i2c.c ****   uint32_t flag1 = 0, flag2 = 0;
 1471              		.loc 1 1154 3 view .LVU395
1155:Libraries/STM32F4xx_StdPeriph_Driver/src/stm32f4xx_i2c.c ****   ErrorStatus status = ERROR;
 1472              		.loc 1 1155 3 view .LVU396
1156:Libraries/STM32F4xx_StdPeriph_Driver/src/stm32f4xx_i2c.c **** 
1157:Libraries/STM32F4xx_StdPeriph_Driver/src/stm32f4xx_i2c.c ****   /* Check the parameters */
1158:Libraries/STM32F4xx_StdPeriph_Driver/src/stm32f4xx_i2c.c ****   assert_param(IS_I2C_ALL_PERIPH(I2Cx));
 1473              		.loc 1 1158 3 view .LVU397
1159:Libraries/STM32F4xx_StdPeriph_Driver/src/stm32f4xx_i2c.c ****   assert_param(IS_I2C_EVENT(I2C_EVENT));
 1474              		.loc 1 1159 3 view .LVU398
1160:Libraries/STM32F4xx_StdPeriph_Driver/src/stm32f4xx_i2c.c **** 
1161:Libraries/STM32F4xx_StdPeriph_Driver/src/stm32f4xx_i2c.c ****   /* Read the I2Cx status register */
1162:Libraries/STM32F4xx_StdPeriph_Driver/src/stm32f4xx_i2c.c ****   flag1 = I2Cx->SR1;
 1475              		.loc 1 1162 3 view .LVU399
ARM GAS  /tmp/cclEJd3j.s 			page 47


 1476              		.loc 1 1162 15 is_stmt 0 view .LVU400
 1477 0000 838A     		ldrh	r3, [r0, #20]
 1478 0002 9BB2     		uxth	r3, r3
 1479              	.LVL91:
1163:Libraries/STM32F4xx_StdPeriph_Driver/src/stm32f4xx_i2c.c **** 
1164:Libraries/STM32F4xx_StdPeriph_Driver/src/stm32f4xx_i2c.c ****   /* I2C_SR2 must be read only when ADDR is found set in I2C_SR1 or when the STOPF bit is cleared *
1165:Libraries/STM32F4xx_StdPeriph_Driver/src/stm32f4xx_i2c.c ****   if((flag1 & I2C_SR1_ADDR) || (flag1 & ~I2C_SR1_STOPF)) 
 1480              		.loc 1 1165 3 is_stmt 1 view .LVU401
 1481              		.loc 1 1165 5 is_stmt 0 view .LVU402
 1482 0004 33F01002 		bics	r2, r3, #16
 1483 0008 0BD0     		beq	.L96
1166:Libraries/STM32F4xx_StdPeriph_Driver/src/stm32f4xx_i2c.c ****   {
1167:Libraries/STM32F4xx_StdPeriph_Driver/src/stm32f4xx_i2c.c ****     flag2 = I2Cx->SR2;
 1484              		.loc 1 1167 5 is_stmt 1 view .LVU403
 1485              		.loc 1 1167 17 is_stmt 0 view .LVU404
 1486 000a 028B     		ldrh	r2, [r0, #24]
 1487              	.LVL92:
1168:Libraries/STM32F4xx_StdPeriph_Driver/src/stm32f4xx_i2c.c ****   }
1169:Libraries/STM32F4xx_StdPeriph_Driver/src/stm32f4xx_i2c.c ****   else 
1170:Libraries/STM32F4xx_StdPeriph_Driver/src/stm32f4xx_i2c.c ****   { 
1171:Libraries/STM32F4xx_StdPeriph_Driver/src/stm32f4xx_i2c.c ****     return ERROR; 
1172:Libraries/STM32F4xx_StdPeriph_Driver/src/stm32f4xx_i2c.c ****   }
1173:Libraries/STM32F4xx_StdPeriph_Driver/src/stm32f4xx_i2c.c ****   flag2 = flag2 << 16;
 1488              		.loc 1 1173 3 is_stmt 1 view .LVU405
1174:Libraries/STM32F4xx_StdPeriph_Driver/src/stm32f4xx_i2c.c **** 
1175:Libraries/STM32F4xx_StdPeriph_Driver/src/stm32f4xx_i2c.c ****   /* Get the last event value from I2C status register */
1176:Libraries/STM32F4xx_StdPeriph_Driver/src/stm32f4xx_i2c.c ****   lastevent = (flag1 | flag2) & FLAG_MASK;
 1489              		.loc 1 1176 3 view .LVU406
 1490              		.loc 1 1176 22 is_stmt 0 view .LVU407
 1491 000c 43EA0243 		orr	r3, r3, r2, lsl #16
 1492              	.LVL93:
 1493              		.loc 1 1176 13 view .LVU408
 1494 0010 23F07F43 		bic	r3, r3, #-16777216
 1495              	.LVL94:
1177:Libraries/STM32F4xx_StdPeriph_Driver/src/stm32f4xx_i2c.c **** 
1178:Libraries/STM32F4xx_StdPeriph_Driver/src/stm32f4xx_i2c.c ****   /* Check whether the last event contains the I2C_EVENT */
1179:Libraries/STM32F4xx_StdPeriph_Driver/src/stm32f4xx_i2c.c ****   if ((lastevent & I2C_EVENT) == I2C_EVENT)
 1496              		.loc 1 1179 3 is_stmt 1 view .LVU409
 1497              		.loc 1 1179 6 is_stmt 0 view .LVU410
 1498 0014 31EA0303 		bics	r3, r1, r3
 1499              	.LVL95:
 1500              		.loc 1 1179 6 view .LVU411
 1501 0018 01D0     		beq	.L98
1180:Libraries/STM32F4xx_StdPeriph_Driver/src/stm32f4xx_i2c.c ****   {
1181:Libraries/STM32F4xx_StdPeriph_Driver/src/stm32f4xx_i2c.c ****     /* SUCCESS: last event is equal to I2C_EVENT */
1182:Libraries/STM32F4xx_StdPeriph_Driver/src/stm32f4xx_i2c.c ****     status = SUCCESS;
1183:Libraries/STM32F4xx_StdPeriph_Driver/src/stm32f4xx_i2c.c ****   }
1184:Libraries/STM32F4xx_StdPeriph_Driver/src/stm32f4xx_i2c.c ****   else
1185:Libraries/STM32F4xx_StdPeriph_Driver/src/stm32f4xx_i2c.c ****   {
1186:Libraries/STM32F4xx_StdPeriph_Driver/src/stm32f4xx_i2c.c ****     /* ERROR: last event is different from I2C_EVENT */
1187:Libraries/STM32F4xx_StdPeriph_Driver/src/stm32f4xx_i2c.c ****     status = ERROR;
 1502              		.loc 1 1187 12 view .LVU412
 1503 001a 0020     		movs	r0, #0
 1504              	.LVL96:
1188:Libraries/STM32F4xx_StdPeriph_Driver/src/stm32f4xx_i2c.c ****   }
1189:Libraries/STM32F4xx_StdPeriph_Driver/src/stm32f4xx_i2c.c ****   /* Return status */
1190:Libraries/STM32F4xx_StdPeriph_Driver/src/stm32f4xx_i2c.c ****   return status;
ARM GAS  /tmp/cclEJd3j.s 			page 48


1191:Libraries/STM32F4xx_StdPeriph_Driver/src/stm32f4xx_i2c.c **** }
 1505              		.loc 1 1191 1 view .LVU413
 1506 001c 7047     		bx	lr
 1507              	.LVL97:
 1508              	.L98:
1182:Libraries/STM32F4xx_StdPeriph_Driver/src/stm32f4xx_i2c.c ****   }
 1509              		.loc 1 1182 12 view .LVU414
 1510 001e 0120     		movs	r0, #1
 1511              	.LVL98:
1182:Libraries/STM32F4xx_StdPeriph_Driver/src/stm32f4xx_i2c.c ****   }
 1512              		.loc 1 1182 12 view .LVU415
 1513 0020 7047     		bx	lr
 1514              	.LVL99:
 1515              	.L96:
1171:Libraries/STM32F4xx_StdPeriph_Driver/src/stm32f4xx_i2c.c ****   }
 1516              		.loc 1 1171 12 view .LVU416
 1517 0022 0020     		movs	r0, #0
 1518              	.LVL100:
1171:Libraries/STM32F4xx_StdPeriph_Driver/src/stm32f4xx_i2c.c ****   }
 1519              		.loc 1 1171 12 view .LVU417
 1520 0024 7047     		bx	lr
 1521              		.cfi_endproc
 1522              	.LFE152:
 1524              		.section	.text.I2C_GetLastEvent,"ax",%progbits
 1525              		.align	1
 1526              		.global	I2C_GetLastEvent
 1527              		.syntax unified
 1528              		.thumb
 1529              		.thumb_func
 1530              		.fpu fpv4-sp-d16
 1532              	I2C_GetLastEvent:
 1533              	.LVL101:
 1534              	.LFB153:
1192:Libraries/STM32F4xx_StdPeriph_Driver/src/stm32f4xx_i2c.c **** 
1193:Libraries/STM32F4xx_StdPeriph_Driver/src/stm32f4xx_i2c.c **** /*
1194:Libraries/STM32F4xx_StdPeriph_Driver/src/stm32f4xx_i2c.c ****  ===============================================================================
1195:Libraries/STM32F4xx_StdPeriph_Driver/src/stm32f4xx_i2c.c ****                           2. Advanced state monitoring                   
1196:Libraries/STM32F4xx_StdPeriph_Driver/src/stm32f4xx_i2c.c ****  ===============================================================================  
1197:Libraries/STM32F4xx_StdPeriph_Driver/src/stm32f4xx_i2c.c ****  */
1198:Libraries/STM32F4xx_StdPeriph_Driver/src/stm32f4xx_i2c.c **** 
1199:Libraries/STM32F4xx_StdPeriph_Driver/src/stm32f4xx_i2c.c **** /**
1200:Libraries/STM32F4xx_StdPeriph_Driver/src/stm32f4xx_i2c.c ****   * @brief  Returns the last I2Cx Event.
1201:Libraries/STM32F4xx_StdPeriph_Driver/src/stm32f4xx_i2c.c ****   * @param  I2Cx: where x can be 1, 2 or 3 to select the I2C peripheral.
1202:Libraries/STM32F4xx_StdPeriph_Driver/src/stm32f4xx_i2c.c ****   *     
1203:Libraries/STM32F4xx_StdPeriph_Driver/src/stm32f4xx_i2c.c ****   * @note   For detailed description of Events, please refer to section I2C_Events
1204:Libraries/STM32F4xx_StdPeriph_Driver/src/stm32f4xx_i2c.c ****   *         in stm32f4xx_i2c.h file.
1205:Libraries/STM32F4xx_StdPeriph_Driver/src/stm32f4xx_i2c.c ****   *    
1206:Libraries/STM32F4xx_StdPeriph_Driver/src/stm32f4xx_i2c.c ****   * @retval The last event
1207:Libraries/STM32F4xx_StdPeriph_Driver/src/stm32f4xx_i2c.c ****   */
1208:Libraries/STM32F4xx_StdPeriph_Driver/src/stm32f4xx_i2c.c **** uint32_t I2C_GetLastEvent(I2C_TypeDef* I2Cx)
1209:Libraries/STM32F4xx_StdPeriph_Driver/src/stm32f4xx_i2c.c **** {
 1535              		.loc 1 1209 1 is_stmt 1 view -0
 1536              		.cfi_startproc
 1537              		@ args = 0, pretend = 0, frame = 0
 1538              		@ frame_needed = 0, uses_anonymous_args = 0
 1539              		@ link register save eliminated.
1210:Libraries/STM32F4xx_StdPeriph_Driver/src/stm32f4xx_i2c.c ****   uint32_t lastevent = 0;
ARM GAS  /tmp/cclEJd3j.s 			page 49


 1540              		.loc 1 1210 3 view .LVU419
1211:Libraries/STM32F4xx_StdPeriph_Driver/src/stm32f4xx_i2c.c ****   uint32_t flag1 = 0, flag2 = 0;
 1541              		.loc 1 1211 3 view .LVU420
1212:Libraries/STM32F4xx_StdPeriph_Driver/src/stm32f4xx_i2c.c **** 
1213:Libraries/STM32F4xx_StdPeriph_Driver/src/stm32f4xx_i2c.c ****   /* Check the parameters */
1214:Libraries/STM32F4xx_StdPeriph_Driver/src/stm32f4xx_i2c.c ****   assert_param(IS_I2C_ALL_PERIPH(I2Cx));
 1542              		.loc 1 1214 3 view .LVU421
1215:Libraries/STM32F4xx_StdPeriph_Driver/src/stm32f4xx_i2c.c **** 
1216:Libraries/STM32F4xx_StdPeriph_Driver/src/stm32f4xx_i2c.c ****   /* Read the I2Cx status register */
1217:Libraries/STM32F4xx_StdPeriph_Driver/src/stm32f4xx_i2c.c ****   flag1 = I2Cx->SR1;
 1543              		.loc 1 1217 3 view .LVU422
 1544              		.loc 1 1217 15 is_stmt 0 view .LVU423
 1545 0000 838A     		ldrh	r3, [r0, #20]
 1546 0002 9BB2     		uxth	r3, r3
 1547              	.LVL102:
1218:Libraries/STM32F4xx_StdPeriph_Driver/src/stm32f4xx_i2c.c ****   flag2 = I2Cx->SR2;
 1548              		.loc 1 1218 3 is_stmt 1 view .LVU424
 1549              		.loc 1 1218 15 is_stmt 0 view .LVU425
 1550 0004 008B     		ldrh	r0, [r0, #24]
 1551              	.LVL103:
1219:Libraries/STM32F4xx_StdPeriph_Driver/src/stm32f4xx_i2c.c ****   flag2 = flag2 << 16;
 1552              		.loc 1 1219 3 is_stmt 1 view .LVU426
1220:Libraries/STM32F4xx_StdPeriph_Driver/src/stm32f4xx_i2c.c **** 
1221:Libraries/STM32F4xx_StdPeriph_Driver/src/stm32f4xx_i2c.c ****   /* Get the last event value from I2C status register */
1222:Libraries/STM32F4xx_StdPeriph_Driver/src/stm32f4xx_i2c.c ****   lastevent = (flag1 | flag2) & FLAG_MASK;
 1553              		.loc 1 1222 3 view .LVU427
 1554              		.loc 1 1222 22 is_stmt 0 view .LVU428
 1555 0006 43EA0040 		orr	r0, r3, r0, lsl #16
 1556              	.LVL104:
1223:Libraries/STM32F4xx_StdPeriph_Driver/src/stm32f4xx_i2c.c **** 
1224:Libraries/STM32F4xx_StdPeriph_Driver/src/stm32f4xx_i2c.c ****   /* Return status */
1225:Libraries/STM32F4xx_StdPeriph_Driver/src/stm32f4xx_i2c.c ****   return lastevent;
 1557              		.loc 1 1225 3 is_stmt 1 view .LVU429
1226:Libraries/STM32F4xx_StdPeriph_Driver/src/stm32f4xx_i2c.c **** }
 1558              		.loc 1 1226 1 is_stmt 0 view .LVU430
 1559 000a 20F07F40 		bic	r0, r0, #-16777216
 1560              	.LVL105:
 1561              		.loc 1 1226 1 view .LVU431
 1562 000e 7047     		bx	lr
 1563              		.cfi_endproc
 1564              	.LFE153:
 1566              		.section	.text.I2C_GetFlagStatus,"ax",%progbits
 1567              		.align	1
 1568              		.global	I2C_GetFlagStatus
 1569              		.syntax unified
 1570              		.thumb
 1571              		.thumb_func
 1572              		.fpu fpv4-sp-d16
 1574              	I2C_GetFlagStatus:
 1575              	.LVL106:
 1576              	.LFB154:
1227:Libraries/STM32F4xx_StdPeriph_Driver/src/stm32f4xx_i2c.c **** 
1228:Libraries/STM32F4xx_StdPeriph_Driver/src/stm32f4xx_i2c.c **** /*
1229:Libraries/STM32F4xx_StdPeriph_Driver/src/stm32f4xx_i2c.c ****  ===============================================================================
1230:Libraries/STM32F4xx_StdPeriph_Driver/src/stm32f4xx_i2c.c ****                           3. Flag-based state monitoring                   
1231:Libraries/STM32F4xx_StdPeriph_Driver/src/stm32f4xx_i2c.c ****  ===============================================================================  
1232:Libraries/STM32F4xx_StdPeriph_Driver/src/stm32f4xx_i2c.c ****  */
ARM GAS  /tmp/cclEJd3j.s 			page 50


1233:Libraries/STM32F4xx_StdPeriph_Driver/src/stm32f4xx_i2c.c **** 
1234:Libraries/STM32F4xx_StdPeriph_Driver/src/stm32f4xx_i2c.c **** /**
1235:Libraries/STM32F4xx_StdPeriph_Driver/src/stm32f4xx_i2c.c ****   * @brief  Checks whether the specified I2C flag is set or not.
1236:Libraries/STM32F4xx_StdPeriph_Driver/src/stm32f4xx_i2c.c ****   * @param  I2Cx: where x can be 1, 2 or 3 to select the I2C peripheral.
1237:Libraries/STM32F4xx_StdPeriph_Driver/src/stm32f4xx_i2c.c ****   * @param  I2C_FLAG: specifies the flag to check. 
1238:Libraries/STM32F4xx_StdPeriph_Driver/src/stm32f4xx_i2c.c ****   *          This parameter can be one of the following values:
1239:Libraries/STM32F4xx_StdPeriph_Driver/src/stm32f4xx_i2c.c ****   *            @arg I2C_FLAG_DUALF: Dual flag (Slave mode)
1240:Libraries/STM32F4xx_StdPeriph_Driver/src/stm32f4xx_i2c.c ****   *            @arg I2C_FLAG_SMBHOST: SMBus host header (Slave mode)
1241:Libraries/STM32F4xx_StdPeriph_Driver/src/stm32f4xx_i2c.c ****   *            @arg I2C_FLAG_SMBDEFAULT: SMBus default header (Slave mode)
1242:Libraries/STM32F4xx_StdPeriph_Driver/src/stm32f4xx_i2c.c ****   *            @arg I2C_FLAG_GENCALL: General call header flag (Slave mode)
1243:Libraries/STM32F4xx_StdPeriph_Driver/src/stm32f4xx_i2c.c ****   *            @arg I2C_FLAG_TRA: Transmitter/Receiver flag
1244:Libraries/STM32F4xx_StdPeriph_Driver/src/stm32f4xx_i2c.c ****   *            @arg I2C_FLAG_BUSY: Bus busy flag
1245:Libraries/STM32F4xx_StdPeriph_Driver/src/stm32f4xx_i2c.c ****   *            @arg I2C_FLAG_MSL: Master/Slave flag
1246:Libraries/STM32F4xx_StdPeriph_Driver/src/stm32f4xx_i2c.c ****   *            @arg I2C_FLAG_SMBALERT: SMBus Alert flag
1247:Libraries/STM32F4xx_StdPeriph_Driver/src/stm32f4xx_i2c.c ****   *            @arg I2C_FLAG_TIMEOUT: Timeout or Tlow error flag
1248:Libraries/STM32F4xx_StdPeriph_Driver/src/stm32f4xx_i2c.c ****   *            @arg I2C_FLAG_PECERR: PEC error in reception flag
1249:Libraries/STM32F4xx_StdPeriph_Driver/src/stm32f4xx_i2c.c ****   *            @arg I2C_FLAG_OVR: Overrun/Underrun flag (Slave mode)
1250:Libraries/STM32F4xx_StdPeriph_Driver/src/stm32f4xx_i2c.c ****   *            @arg I2C_FLAG_AF: Acknowledge failure flag
1251:Libraries/STM32F4xx_StdPeriph_Driver/src/stm32f4xx_i2c.c ****   *            @arg I2C_FLAG_ARLO: Arbitration lost flag (Master mode)
1252:Libraries/STM32F4xx_StdPeriph_Driver/src/stm32f4xx_i2c.c ****   *            @arg I2C_FLAG_BERR: Bus error flag
1253:Libraries/STM32F4xx_StdPeriph_Driver/src/stm32f4xx_i2c.c ****   *            @arg I2C_FLAG_TXE: Data register empty flag (Transmitter)
1254:Libraries/STM32F4xx_StdPeriph_Driver/src/stm32f4xx_i2c.c ****   *            @arg I2C_FLAG_RXNE: Data register not empty (Receiver) flag
1255:Libraries/STM32F4xx_StdPeriph_Driver/src/stm32f4xx_i2c.c ****   *            @arg I2C_FLAG_STOPF: Stop detection flag (Slave mode)
1256:Libraries/STM32F4xx_StdPeriph_Driver/src/stm32f4xx_i2c.c ****   *            @arg I2C_FLAG_ADD10: 10-bit header sent flag (Master mode)
1257:Libraries/STM32F4xx_StdPeriph_Driver/src/stm32f4xx_i2c.c ****   *            @arg I2C_FLAG_BTF: Byte transfer finished flag
1258:Libraries/STM32F4xx_StdPeriph_Driver/src/stm32f4xx_i2c.c ****   *            @arg I2C_FLAG_ADDR: Address sent flag (Master mode) "ADSL"
1259:Libraries/STM32F4xx_StdPeriph_Driver/src/stm32f4xx_i2c.c ****   *                                Address matched flag (Slave mode)"ENDAD"
1260:Libraries/STM32F4xx_StdPeriph_Driver/src/stm32f4xx_i2c.c ****   *            @arg I2C_FLAG_SB: Start bit flag (Master mode)
1261:Libraries/STM32F4xx_StdPeriph_Driver/src/stm32f4xx_i2c.c ****   * @retval The new state of I2C_FLAG (SET or RESET).
1262:Libraries/STM32F4xx_StdPeriph_Driver/src/stm32f4xx_i2c.c ****   */
1263:Libraries/STM32F4xx_StdPeriph_Driver/src/stm32f4xx_i2c.c **** FlagStatus I2C_GetFlagStatus(I2C_TypeDef* I2Cx, uint32_t I2C_FLAG)
1264:Libraries/STM32F4xx_StdPeriph_Driver/src/stm32f4xx_i2c.c **** {
 1577              		.loc 1 1264 1 is_stmt 1 view -0
 1578              		.cfi_startproc
 1579              		@ args = 0, pretend = 0, frame = 8
 1580              		@ frame_needed = 0, uses_anonymous_args = 0
 1581              		@ link register save eliminated.
 1582              		.loc 1 1264 1 is_stmt 0 view .LVU433
 1583 0000 82B0     		sub	sp, sp, #8
 1584              	.LCFI7:
 1585              		.cfi_def_cfa_offset 8
1265:Libraries/STM32F4xx_StdPeriph_Driver/src/stm32f4xx_i2c.c ****   FlagStatus bitstatus = RESET;
 1586              		.loc 1 1265 3 is_stmt 1 view .LVU434
 1587              	.LVL107:
1266:Libraries/STM32F4xx_StdPeriph_Driver/src/stm32f4xx_i2c.c ****   __IO uint32_t i2creg = 0, i2cxbase = 0;
 1588              		.loc 1 1266 3 view .LVU435
 1589              		.loc 1 1266 17 is_stmt 0 view .LVU436
 1590 0002 0023     		movs	r3, #0
 1591 0004 0193     		str	r3, [sp, #4]
 1592              		.loc 1 1266 29 view .LVU437
 1593 0006 0093     		str	r3, [sp]
1267:Libraries/STM32F4xx_StdPeriph_Driver/src/stm32f4xx_i2c.c **** 
1268:Libraries/STM32F4xx_StdPeriph_Driver/src/stm32f4xx_i2c.c ****   /* Check the parameters */
1269:Libraries/STM32F4xx_StdPeriph_Driver/src/stm32f4xx_i2c.c ****   assert_param(IS_I2C_ALL_PERIPH(I2Cx));
 1594              		.loc 1 1269 3 is_stmt 1 view .LVU438
1270:Libraries/STM32F4xx_StdPeriph_Driver/src/stm32f4xx_i2c.c ****   assert_param(IS_I2C_GET_FLAG(I2C_FLAG));
 1595              		.loc 1 1270 3 view .LVU439
ARM GAS  /tmp/cclEJd3j.s 			page 51


1271:Libraries/STM32F4xx_StdPeriph_Driver/src/stm32f4xx_i2c.c **** 
1272:Libraries/STM32F4xx_StdPeriph_Driver/src/stm32f4xx_i2c.c ****   /* Get the I2Cx peripheral base address */
1273:Libraries/STM32F4xx_StdPeriph_Driver/src/stm32f4xx_i2c.c ****   i2cxbase = (uint32_t)I2Cx;
 1596              		.loc 1 1273 3 view .LVU440
 1597              		.loc 1 1273 12 is_stmt 0 view .LVU441
 1598 0008 0090     		str	r0, [sp]
1274:Libraries/STM32F4xx_StdPeriph_Driver/src/stm32f4xx_i2c.c ****   
1275:Libraries/STM32F4xx_StdPeriph_Driver/src/stm32f4xx_i2c.c ****   /* Read flag register index */
1276:Libraries/STM32F4xx_StdPeriph_Driver/src/stm32f4xx_i2c.c ****   i2creg = I2C_FLAG >> 28;
 1599              		.loc 1 1276 3 is_stmt 1 view .LVU442
 1600              		.loc 1 1276 21 is_stmt 0 view .LVU443
 1601 000a 0B0F     		lsrs	r3, r1, #28
 1602              		.loc 1 1276 10 view .LVU444
 1603 000c 0193     		str	r3, [sp, #4]
1277:Libraries/STM32F4xx_StdPeriph_Driver/src/stm32f4xx_i2c.c ****   
1278:Libraries/STM32F4xx_StdPeriph_Driver/src/stm32f4xx_i2c.c ****   /* Get bit[23:0] of the flag */
1279:Libraries/STM32F4xx_StdPeriph_Driver/src/stm32f4xx_i2c.c ****   I2C_FLAG &= FLAG_MASK;
 1604              		.loc 1 1279 3 is_stmt 1 view .LVU445
 1605              		.loc 1 1279 12 is_stmt 0 view .LVU446
 1606 000e 21F07F41 		bic	r1, r1, #-16777216
 1607              	.LVL108:
1280:Libraries/STM32F4xx_StdPeriph_Driver/src/stm32f4xx_i2c.c ****   
1281:Libraries/STM32F4xx_StdPeriph_Driver/src/stm32f4xx_i2c.c ****   if(i2creg != 0)
 1608              		.loc 1 1281 3 is_stmt 1 view .LVU447
 1609              		.loc 1 1281 13 is_stmt 0 view .LVU448
 1610 0012 019B     		ldr	r3, [sp, #4]
 1611              		.loc 1 1281 5 view .LVU449
 1612 0014 4BB1     		cbz	r3, .L101
1282:Libraries/STM32F4xx_StdPeriph_Driver/src/stm32f4xx_i2c.c ****   {
1283:Libraries/STM32F4xx_StdPeriph_Driver/src/stm32f4xx_i2c.c ****     /* Get the I2Cx SR1 register address */
1284:Libraries/STM32F4xx_StdPeriph_Driver/src/stm32f4xx_i2c.c ****     i2cxbase += 0x14;
 1613              		.loc 1 1284 5 is_stmt 1 view .LVU450
 1614              		.loc 1 1284 14 is_stmt 0 view .LVU451
 1615 0016 009B     		ldr	r3, [sp]
 1616 0018 1433     		adds	r3, r3, #20
 1617 001a 0093     		str	r3, [sp]
 1618              	.L102:
1285:Libraries/STM32F4xx_StdPeriph_Driver/src/stm32f4xx_i2c.c ****   }
1286:Libraries/STM32F4xx_StdPeriph_Driver/src/stm32f4xx_i2c.c ****   else
1287:Libraries/STM32F4xx_StdPeriph_Driver/src/stm32f4xx_i2c.c ****   {
1288:Libraries/STM32F4xx_StdPeriph_Driver/src/stm32f4xx_i2c.c ****     /* Flag in I2Cx SR2 Register */
1289:Libraries/STM32F4xx_StdPeriph_Driver/src/stm32f4xx_i2c.c ****     I2C_FLAG = (uint32_t)(I2C_FLAG >> 16);
1290:Libraries/STM32F4xx_StdPeriph_Driver/src/stm32f4xx_i2c.c ****     /* Get the I2Cx SR2 register address */
1291:Libraries/STM32F4xx_StdPeriph_Driver/src/stm32f4xx_i2c.c ****     i2cxbase += 0x18;
1292:Libraries/STM32F4xx_StdPeriph_Driver/src/stm32f4xx_i2c.c ****   }
1293:Libraries/STM32F4xx_StdPeriph_Driver/src/stm32f4xx_i2c.c ****   
1294:Libraries/STM32F4xx_StdPeriph_Driver/src/stm32f4xx_i2c.c ****   if(((*(__IO uint32_t *)i2cxbase) & I2C_FLAG) != (uint32_t)RESET)
 1619              		.loc 1 1294 3 is_stmt 1 view .LVU452
 1620              		.loc 1 1294 9 is_stmt 0 view .LVU453
 1621 001c 009B     		ldr	r3, [sp]
 1622              		.loc 1 1294 8 view .LVU454
 1623 001e 1B68     		ldr	r3, [r3]
 1624              		.loc 1 1294 5 view .LVU455
 1625 0020 0B42     		tst	r3, r1
 1626 0022 07D0     		beq	.L104
1295:Libraries/STM32F4xx_StdPeriph_Driver/src/stm32f4xx_i2c.c ****   {
1296:Libraries/STM32F4xx_StdPeriph_Driver/src/stm32f4xx_i2c.c ****     /* I2C_FLAG is set */
ARM GAS  /tmp/cclEJd3j.s 			page 52


1297:Libraries/STM32F4xx_StdPeriph_Driver/src/stm32f4xx_i2c.c ****     bitstatus = SET;
 1627              		.loc 1 1297 15 view .LVU456
 1628 0024 0120     		movs	r0, #1
 1629              	.LVL109:
 1630              	.L103:
1298:Libraries/STM32F4xx_StdPeriph_Driver/src/stm32f4xx_i2c.c ****   }
1299:Libraries/STM32F4xx_StdPeriph_Driver/src/stm32f4xx_i2c.c ****   else
1300:Libraries/STM32F4xx_StdPeriph_Driver/src/stm32f4xx_i2c.c ****   {
1301:Libraries/STM32F4xx_StdPeriph_Driver/src/stm32f4xx_i2c.c ****     /* I2C_FLAG is reset */
1302:Libraries/STM32F4xx_StdPeriph_Driver/src/stm32f4xx_i2c.c ****     bitstatus = RESET;
1303:Libraries/STM32F4xx_StdPeriph_Driver/src/stm32f4xx_i2c.c ****   }
1304:Libraries/STM32F4xx_StdPeriph_Driver/src/stm32f4xx_i2c.c ****   
1305:Libraries/STM32F4xx_StdPeriph_Driver/src/stm32f4xx_i2c.c ****   /* Return the I2C_FLAG status */
1306:Libraries/STM32F4xx_StdPeriph_Driver/src/stm32f4xx_i2c.c ****   return  bitstatus;
 1631              		.loc 1 1306 3 is_stmt 1 view .LVU457
1307:Libraries/STM32F4xx_StdPeriph_Driver/src/stm32f4xx_i2c.c **** }
 1632              		.loc 1 1307 1 is_stmt 0 view .LVU458
 1633 0026 02B0     		add	sp, sp, #8
 1634              	.LCFI8:
 1635              		.cfi_remember_state
 1636              		.cfi_def_cfa_offset 0
 1637              		@ sp needed
 1638 0028 7047     		bx	lr
 1639              	.LVL110:
 1640              	.L101:
 1641              	.LCFI9:
 1642              		.cfi_restore_state
1289:Libraries/STM32F4xx_StdPeriph_Driver/src/stm32f4xx_i2c.c ****     /* Get the I2Cx SR2 register address */
 1643              		.loc 1 1289 5 is_stmt 1 view .LVU459
1289:Libraries/STM32F4xx_StdPeriph_Driver/src/stm32f4xx_i2c.c ****     /* Get the I2Cx SR2 register address */
 1644              		.loc 1 1289 14 is_stmt 0 view .LVU460
 1645 002a 090C     		lsrs	r1, r1, #16
 1646              	.LVL111:
1291:Libraries/STM32F4xx_StdPeriph_Driver/src/stm32f4xx_i2c.c ****   }
 1647              		.loc 1 1291 5 is_stmt 1 view .LVU461
1291:Libraries/STM32F4xx_StdPeriph_Driver/src/stm32f4xx_i2c.c ****   }
 1648              		.loc 1 1291 14 is_stmt 0 view .LVU462
 1649 002c 009B     		ldr	r3, [sp]
 1650 002e 1833     		adds	r3, r3, #24
 1651 0030 0093     		str	r3, [sp]
 1652 0032 F3E7     		b	.L102
 1653              	.L104:
1302:Libraries/STM32F4xx_StdPeriph_Driver/src/stm32f4xx_i2c.c ****   }
 1654              		.loc 1 1302 15 view .LVU463
 1655 0034 0020     		movs	r0, #0
 1656              	.LVL112:
1302:Libraries/STM32F4xx_StdPeriph_Driver/src/stm32f4xx_i2c.c ****   }
 1657              		.loc 1 1302 15 view .LVU464
 1658 0036 F6E7     		b	.L103
 1659              		.cfi_endproc
 1660              	.LFE154:
 1662              		.section	.text.I2C_ClearFlag,"ax",%progbits
 1663              		.align	1
 1664              		.global	I2C_ClearFlag
 1665              		.syntax unified
 1666              		.thumb
 1667              		.thumb_func
ARM GAS  /tmp/cclEJd3j.s 			page 53


 1668              		.fpu fpv4-sp-d16
 1670              	I2C_ClearFlag:
 1671              	.LVL113:
 1672              	.LFB155:
1308:Libraries/STM32F4xx_StdPeriph_Driver/src/stm32f4xx_i2c.c **** 
1309:Libraries/STM32F4xx_StdPeriph_Driver/src/stm32f4xx_i2c.c **** /**
1310:Libraries/STM32F4xx_StdPeriph_Driver/src/stm32f4xx_i2c.c ****   * @brief  Clears the I2Cx's pending flags.
1311:Libraries/STM32F4xx_StdPeriph_Driver/src/stm32f4xx_i2c.c ****   * @param  I2Cx: where x can be 1, 2 or 3 to select the I2C peripheral.
1312:Libraries/STM32F4xx_StdPeriph_Driver/src/stm32f4xx_i2c.c ****   * @param  I2C_FLAG: specifies the flag to clear. 
1313:Libraries/STM32F4xx_StdPeriph_Driver/src/stm32f4xx_i2c.c ****   *          This parameter can be any combination of the following values:
1314:Libraries/STM32F4xx_StdPeriph_Driver/src/stm32f4xx_i2c.c ****   *            @arg I2C_FLAG_SMBALERT: SMBus Alert flag
1315:Libraries/STM32F4xx_StdPeriph_Driver/src/stm32f4xx_i2c.c ****   *            @arg I2C_FLAG_TIMEOUT: Timeout or Tlow error flag
1316:Libraries/STM32F4xx_StdPeriph_Driver/src/stm32f4xx_i2c.c ****   *            @arg I2C_FLAG_PECERR: PEC error in reception flag
1317:Libraries/STM32F4xx_StdPeriph_Driver/src/stm32f4xx_i2c.c ****   *            @arg I2C_FLAG_OVR: Overrun/Underrun flag (Slave mode)
1318:Libraries/STM32F4xx_StdPeriph_Driver/src/stm32f4xx_i2c.c ****   *            @arg I2C_FLAG_AF: Acknowledge failure flag
1319:Libraries/STM32F4xx_StdPeriph_Driver/src/stm32f4xx_i2c.c ****   *            @arg I2C_FLAG_ARLO: Arbitration lost flag (Master mode)
1320:Libraries/STM32F4xx_StdPeriph_Driver/src/stm32f4xx_i2c.c ****   *            @arg I2C_FLAG_BERR: Bus error flag
1321:Libraries/STM32F4xx_StdPeriph_Driver/src/stm32f4xx_i2c.c ****   *   
1322:Libraries/STM32F4xx_StdPeriph_Driver/src/stm32f4xx_i2c.c ****   * @note   STOPF (STOP detection) is cleared by software sequence: a read operation 
1323:Libraries/STM32F4xx_StdPeriph_Driver/src/stm32f4xx_i2c.c ****   *          to I2C_SR1 register (I2C_GetFlagStatus()) followed by a write operation 
1324:Libraries/STM32F4xx_StdPeriph_Driver/src/stm32f4xx_i2c.c ****   *          to I2C_CR1 register (I2C_Cmd() to re-enable the I2C peripheral).
1325:Libraries/STM32F4xx_StdPeriph_Driver/src/stm32f4xx_i2c.c ****   * @note   ADD10 (10-bit header sent) is cleared by software sequence: a read 
1326:Libraries/STM32F4xx_StdPeriph_Driver/src/stm32f4xx_i2c.c ****   *          operation to I2C_SR1 (I2C_GetFlagStatus()) followed by writing the 
1327:Libraries/STM32F4xx_StdPeriph_Driver/src/stm32f4xx_i2c.c ****   *          second byte of the address in DR register.
1328:Libraries/STM32F4xx_StdPeriph_Driver/src/stm32f4xx_i2c.c ****   * @note   BTF (Byte Transfer Finished) is cleared by software sequence: a read 
1329:Libraries/STM32F4xx_StdPeriph_Driver/src/stm32f4xx_i2c.c ****   *          operation to I2C_SR1 register (I2C_GetFlagStatus()) followed by a 
1330:Libraries/STM32F4xx_StdPeriph_Driver/src/stm32f4xx_i2c.c ****   *          read/write to I2C_DR register (I2C_SendData()).
1331:Libraries/STM32F4xx_StdPeriph_Driver/src/stm32f4xx_i2c.c ****   * @note   ADDR (Address sent) is cleared by software sequence: a read operation to 
1332:Libraries/STM32F4xx_StdPeriph_Driver/src/stm32f4xx_i2c.c ****   *          I2C_SR1 register (I2C_GetFlagStatus()) followed by a read operation to 
1333:Libraries/STM32F4xx_StdPeriph_Driver/src/stm32f4xx_i2c.c ****   *          I2C_SR2 register ((void)(I2Cx->SR2)).
1334:Libraries/STM32F4xx_StdPeriph_Driver/src/stm32f4xx_i2c.c ****   * @note   SB (Start Bit) is cleared software sequence: a read operation to I2C_SR1
1335:Libraries/STM32F4xx_StdPeriph_Driver/src/stm32f4xx_i2c.c ****   *          register (I2C_GetFlagStatus()) followed by a write operation to I2C_DR
1336:Libraries/STM32F4xx_StdPeriph_Driver/src/stm32f4xx_i2c.c ****   *          register (I2C_SendData()).
1337:Libraries/STM32F4xx_StdPeriph_Driver/src/stm32f4xx_i2c.c ****   *  
1338:Libraries/STM32F4xx_StdPeriph_Driver/src/stm32f4xx_i2c.c ****   * @retval None
1339:Libraries/STM32F4xx_StdPeriph_Driver/src/stm32f4xx_i2c.c ****   */
1340:Libraries/STM32F4xx_StdPeriph_Driver/src/stm32f4xx_i2c.c **** void I2C_ClearFlag(I2C_TypeDef* I2Cx, uint32_t I2C_FLAG)
1341:Libraries/STM32F4xx_StdPeriph_Driver/src/stm32f4xx_i2c.c **** {
 1673              		.loc 1 1341 1 is_stmt 1 view -0
 1674              		.cfi_startproc
 1675              		@ args = 0, pretend = 0, frame = 0
 1676              		@ frame_needed = 0, uses_anonymous_args = 0
 1677              		@ link register save eliminated.
1342:Libraries/STM32F4xx_StdPeriph_Driver/src/stm32f4xx_i2c.c ****   uint32_t flagpos = 0;
 1678              		.loc 1 1342 3 view .LVU466
1343:Libraries/STM32F4xx_StdPeriph_Driver/src/stm32f4xx_i2c.c ****   /* Check the parameters */
1344:Libraries/STM32F4xx_StdPeriph_Driver/src/stm32f4xx_i2c.c ****   assert_param(IS_I2C_ALL_PERIPH(I2Cx));
 1679              		.loc 1 1344 3 view .LVU467
1345:Libraries/STM32F4xx_StdPeriph_Driver/src/stm32f4xx_i2c.c ****   assert_param(IS_I2C_CLEAR_FLAG(I2C_FLAG));
 1680              		.loc 1 1345 3 view .LVU468
1346:Libraries/STM32F4xx_StdPeriph_Driver/src/stm32f4xx_i2c.c ****   /* Get the I2C flag position */
1347:Libraries/STM32F4xx_StdPeriph_Driver/src/stm32f4xx_i2c.c ****   flagpos = I2C_FLAG & FLAG_MASK;
 1681              		.loc 1 1347 3 view .LVU469
 1682              		.loc 1 1347 11 is_stmt 0 view .LVU470
 1683 0000 21F07F41 		bic	r1, r1, #-16777216
 1684              	.LVL114:
1348:Libraries/STM32F4xx_StdPeriph_Driver/src/stm32f4xx_i2c.c ****   /* Clear the selected I2C flag */
ARM GAS  /tmp/cclEJd3j.s 			page 54


1349:Libraries/STM32F4xx_StdPeriph_Driver/src/stm32f4xx_i2c.c ****   I2Cx->SR1 = (uint16_t)~flagpos;
 1685              		.loc 1 1349 3 is_stmt 1 view .LVU471
 1686              		.loc 1 1349 15 is_stmt 0 view .LVU472
 1687 0004 C943     		mvns	r1, r1
 1688              	.LVL115:
 1689              		.loc 1 1349 15 view .LVU473
 1690 0006 89B2     		uxth	r1, r1
 1691              	.LVL116:
 1692              		.loc 1 1349 13 view .LVU474
 1693 0008 8182     		strh	r1, [r0, #20]	@ movhi
1350:Libraries/STM32F4xx_StdPeriph_Driver/src/stm32f4xx_i2c.c **** }
 1694              		.loc 1 1350 1 view .LVU475
 1695 000a 7047     		bx	lr
 1696              		.cfi_endproc
 1697              	.LFE155:
 1699              		.section	.text.I2C_GetITStatus,"ax",%progbits
 1700              		.align	1
 1701              		.global	I2C_GetITStatus
 1702              		.syntax unified
 1703              		.thumb
 1704              		.thumb_func
 1705              		.fpu fpv4-sp-d16
 1707              	I2C_GetITStatus:
 1708              	.LVL117:
 1709              	.LFB156:
1351:Libraries/STM32F4xx_StdPeriph_Driver/src/stm32f4xx_i2c.c **** 
1352:Libraries/STM32F4xx_StdPeriph_Driver/src/stm32f4xx_i2c.c **** /**
1353:Libraries/STM32F4xx_StdPeriph_Driver/src/stm32f4xx_i2c.c ****   * @brief  Checks whether the specified I2C interrupt has occurred or not.
1354:Libraries/STM32F4xx_StdPeriph_Driver/src/stm32f4xx_i2c.c ****   * @param  I2Cx: where x can be 1, 2 or 3 to select the I2C peripheral.
1355:Libraries/STM32F4xx_StdPeriph_Driver/src/stm32f4xx_i2c.c ****   * @param  I2C_IT: specifies the interrupt source to check. 
1356:Libraries/STM32F4xx_StdPeriph_Driver/src/stm32f4xx_i2c.c ****   *          This parameter can be one of the following values:
1357:Libraries/STM32F4xx_StdPeriph_Driver/src/stm32f4xx_i2c.c ****   *            @arg I2C_IT_SMBALERT: SMBus Alert flag
1358:Libraries/STM32F4xx_StdPeriph_Driver/src/stm32f4xx_i2c.c ****   *            @arg I2C_IT_TIMEOUT: Timeout or Tlow error flag
1359:Libraries/STM32F4xx_StdPeriph_Driver/src/stm32f4xx_i2c.c ****   *            @arg I2C_IT_PECERR: PEC error in reception flag
1360:Libraries/STM32F4xx_StdPeriph_Driver/src/stm32f4xx_i2c.c ****   *            @arg I2C_IT_OVR: Overrun/Underrun flag (Slave mode)
1361:Libraries/STM32F4xx_StdPeriph_Driver/src/stm32f4xx_i2c.c ****   *            @arg I2C_IT_AF: Acknowledge failure flag
1362:Libraries/STM32F4xx_StdPeriph_Driver/src/stm32f4xx_i2c.c ****   *            @arg I2C_IT_ARLO: Arbitration lost flag (Master mode)
1363:Libraries/STM32F4xx_StdPeriph_Driver/src/stm32f4xx_i2c.c ****   *            @arg I2C_IT_BERR: Bus error flag
1364:Libraries/STM32F4xx_StdPeriph_Driver/src/stm32f4xx_i2c.c ****   *            @arg I2C_IT_TXE: Data register empty flag (Transmitter)
1365:Libraries/STM32F4xx_StdPeriph_Driver/src/stm32f4xx_i2c.c ****   *            @arg I2C_IT_RXNE: Data register not empty (Receiver) flag
1366:Libraries/STM32F4xx_StdPeriph_Driver/src/stm32f4xx_i2c.c ****   *            @arg I2C_IT_STOPF: Stop detection flag (Slave mode)
1367:Libraries/STM32F4xx_StdPeriph_Driver/src/stm32f4xx_i2c.c ****   *            @arg I2C_IT_ADD10: 10-bit header sent flag (Master mode)
1368:Libraries/STM32F4xx_StdPeriph_Driver/src/stm32f4xx_i2c.c ****   *            @arg I2C_IT_BTF: Byte transfer finished flag
1369:Libraries/STM32F4xx_StdPeriph_Driver/src/stm32f4xx_i2c.c ****   *            @arg I2C_IT_ADDR: Address sent flag (Master mode) "ADSL"
1370:Libraries/STM32F4xx_StdPeriph_Driver/src/stm32f4xx_i2c.c ****   *                              Address matched flag (Slave mode)"ENDAD"
1371:Libraries/STM32F4xx_StdPeriph_Driver/src/stm32f4xx_i2c.c ****   *            @arg I2C_IT_SB: Start bit flag (Master mode)
1372:Libraries/STM32F4xx_StdPeriph_Driver/src/stm32f4xx_i2c.c ****   * @retval The new state of I2C_IT (SET or RESET).
1373:Libraries/STM32F4xx_StdPeriph_Driver/src/stm32f4xx_i2c.c ****   */
1374:Libraries/STM32F4xx_StdPeriph_Driver/src/stm32f4xx_i2c.c **** ITStatus I2C_GetITStatus(I2C_TypeDef* I2Cx, uint32_t I2C_IT)
1375:Libraries/STM32F4xx_StdPeriph_Driver/src/stm32f4xx_i2c.c **** {
 1710              		.loc 1 1375 1 is_stmt 1 view -0
 1711              		.cfi_startproc
 1712              		@ args = 0, pretend = 0, frame = 0
 1713              		@ frame_needed = 0, uses_anonymous_args = 0
 1714              		@ link register save eliminated.
1376:Libraries/STM32F4xx_StdPeriph_Driver/src/stm32f4xx_i2c.c ****   ITStatus bitstatus = RESET;
 1715              		.loc 1 1376 3 view .LVU477
ARM GAS  /tmp/cclEJd3j.s 			page 55


1377:Libraries/STM32F4xx_StdPeriph_Driver/src/stm32f4xx_i2c.c ****   uint32_t enablestatus = 0;
 1716              		.loc 1 1377 3 view .LVU478
1378:Libraries/STM32F4xx_StdPeriph_Driver/src/stm32f4xx_i2c.c **** 
1379:Libraries/STM32F4xx_StdPeriph_Driver/src/stm32f4xx_i2c.c ****   /* Check the parameters */
1380:Libraries/STM32F4xx_StdPeriph_Driver/src/stm32f4xx_i2c.c ****   assert_param(IS_I2C_ALL_PERIPH(I2Cx));
 1717              		.loc 1 1380 3 view .LVU479
1381:Libraries/STM32F4xx_StdPeriph_Driver/src/stm32f4xx_i2c.c ****   assert_param(IS_I2C_GET_IT(I2C_IT));
 1718              		.loc 1 1381 3 view .LVU480
1382:Libraries/STM32F4xx_StdPeriph_Driver/src/stm32f4xx_i2c.c **** 
1383:Libraries/STM32F4xx_StdPeriph_Driver/src/stm32f4xx_i2c.c ****   /* Check if the interrupt source is enabled or not */
1384:Libraries/STM32F4xx_StdPeriph_Driver/src/stm32f4xx_i2c.c ****   enablestatus = (uint32_t)(((I2C_IT & ITEN_MASK) >> 16) & (I2Cx->CR2)) ;
 1719              		.loc 1 1384 3 view .LVU481
 1720              		.loc 1 1384 65 is_stmt 0 view .LVU482
 1721 0000 8388     		ldrh	r3, [r0, #4]
 1722              		.loc 1 1384 18 view .LVU483
 1723 0002 03EA1143 		and	r3, r3, r1, lsr #16
 1724              		.loc 1 1384 16 view .LVU484
 1725 0006 03F4E063 		and	r3, r3, #1792
 1726              	.LVL118:
1385:Libraries/STM32F4xx_StdPeriph_Driver/src/stm32f4xx_i2c.c ****   
1386:Libraries/STM32F4xx_StdPeriph_Driver/src/stm32f4xx_i2c.c ****   /* Get bit[23:0] of the flag */
1387:Libraries/STM32F4xx_StdPeriph_Driver/src/stm32f4xx_i2c.c ****   I2C_IT &= FLAG_MASK;
 1727              		.loc 1 1387 3 is_stmt 1 view .LVU485
1388:Libraries/STM32F4xx_StdPeriph_Driver/src/stm32f4xx_i2c.c **** 
1389:Libraries/STM32F4xx_StdPeriph_Driver/src/stm32f4xx_i2c.c ****   /* Check the status of the specified I2C flag */
1390:Libraries/STM32F4xx_StdPeriph_Driver/src/stm32f4xx_i2c.c ****   if (((I2Cx->SR1 & I2C_IT) != (uint32_t)RESET) && enablestatus)
 1728              		.loc 1 1390 3 view .LVU486
 1729              		.loc 1 1390 13 is_stmt 0 view .LVU487
 1730 000a 828A     		ldrh	r2, [r0, #20]
 1731 000c 92B2     		uxth	r2, r2
 1732              		.loc 1 1390 6 view .LVU488
 1733 000e 1142     		tst	r1, r2
 1734 0010 02D0     		beq	.L109
 1735              		.loc 1 1390 49 discriminator 1 view .LVU489
 1736 0012 1BB9     		cbnz	r3, .L110
1391:Libraries/STM32F4xx_StdPeriph_Driver/src/stm32f4xx_i2c.c ****   {
1392:Libraries/STM32F4xx_StdPeriph_Driver/src/stm32f4xx_i2c.c ****     /* I2C_IT is set */
1393:Libraries/STM32F4xx_StdPeriph_Driver/src/stm32f4xx_i2c.c ****     bitstatus = SET;
1394:Libraries/STM32F4xx_StdPeriph_Driver/src/stm32f4xx_i2c.c ****   }
1395:Libraries/STM32F4xx_StdPeriph_Driver/src/stm32f4xx_i2c.c ****   else
1396:Libraries/STM32F4xx_StdPeriph_Driver/src/stm32f4xx_i2c.c ****   {
1397:Libraries/STM32F4xx_StdPeriph_Driver/src/stm32f4xx_i2c.c ****     /* I2C_IT is reset */
1398:Libraries/STM32F4xx_StdPeriph_Driver/src/stm32f4xx_i2c.c ****     bitstatus = RESET;
 1737              		.loc 1 1398 15 view .LVU490
 1738 0014 0020     		movs	r0, #0
 1739              	.LVL119:
 1740              		.loc 1 1398 15 view .LVU491
 1741 0016 7047     		bx	lr
 1742              	.LVL120:
 1743              	.L109:
 1744              		.loc 1 1398 15 view .LVU492
 1745 0018 0020     		movs	r0, #0
 1746              	.LVL121:
 1747              		.loc 1 1398 15 view .LVU493
 1748 001a 7047     		bx	lr
 1749              	.LVL122:
 1750              	.L110:
ARM GAS  /tmp/cclEJd3j.s 			page 56


1393:Libraries/STM32F4xx_StdPeriph_Driver/src/stm32f4xx_i2c.c ****   }
 1751              		.loc 1 1393 15 view .LVU494
 1752 001c 0120     		movs	r0, #1
 1753              	.LVL123:
1399:Libraries/STM32F4xx_StdPeriph_Driver/src/stm32f4xx_i2c.c ****   }
1400:Libraries/STM32F4xx_StdPeriph_Driver/src/stm32f4xx_i2c.c ****   /* Return the I2C_IT status */
1401:Libraries/STM32F4xx_StdPeriph_Driver/src/stm32f4xx_i2c.c ****   return  bitstatus;
 1754              		.loc 1 1401 3 is_stmt 1 view .LVU495
1402:Libraries/STM32F4xx_StdPeriph_Driver/src/stm32f4xx_i2c.c **** }
 1755              		.loc 1 1402 1 is_stmt 0 view .LVU496
 1756 001e 7047     		bx	lr
 1757              		.cfi_endproc
 1758              	.LFE156:
 1760              		.section	.text.I2C_ClearITPendingBit,"ax",%progbits
 1761              		.align	1
 1762              		.global	I2C_ClearITPendingBit
 1763              		.syntax unified
 1764              		.thumb
 1765              		.thumb_func
 1766              		.fpu fpv4-sp-d16
 1768              	I2C_ClearITPendingBit:
 1769              	.LVL124:
 1770              	.LFB157:
1403:Libraries/STM32F4xx_StdPeriph_Driver/src/stm32f4xx_i2c.c **** 
1404:Libraries/STM32F4xx_StdPeriph_Driver/src/stm32f4xx_i2c.c **** /**
1405:Libraries/STM32F4xx_StdPeriph_Driver/src/stm32f4xx_i2c.c ****   * @brief  Clears the I2Cx's interrupt pending bits.
1406:Libraries/STM32F4xx_StdPeriph_Driver/src/stm32f4xx_i2c.c ****   * @param  I2Cx: where x can be 1, 2 or 3 to select the I2C peripheral.
1407:Libraries/STM32F4xx_StdPeriph_Driver/src/stm32f4xx_i2c.c ****   * @param  I2C_IT: specifies the interrupt pending bit to clear. 
1408:Libraries/STM32F4xx_StdPeriph_Driver/src/stm32f4xx_i2c.c ****   *          This parameter can be any combination of the following values:
1409:Libraries/STM32F4xx_StdPeriph_Driver/src/stm32f4xx_i2c.c ****   *            @arg I2C_IT_SMBALERT: SMBus Alert interrupt
1410:Libraries/STM32F4xx_StdPeriph_Driver/src/stm32f4xx_i2c.c ****   *            @arg I2C_IT_TIMEOUT: Timeout or Tlow error interrupt
1411:Libraries/STM32F4xx_StdPeriph_Driver/src/stm32f4xx_i2c.c ****   *            @arg I2C_IT_PECERR: PEC error in reception  interrupt
1412:Libraries/STM32F4xx_StdPeriph_Driver/src/stm32f4xx_i2c.c ****   *            @arg I2C_IT_OVR: Overrun/Underrun interrupt (Slave mode)
1413:Libraries/STM32F4xx_StdPeriph_Driver/src/stm32f4xx_i2c.c ****   *            @arg I2C_IT_AF: Acknowledge failure interrupt
1414:Libraries/STM32F4xx_StdPeriph_Driver/src/stm32f4xx_i2c.c ****   *            @arg I2C_IT_ARLO: Arbitration lost interrupt (Master mode)
1415:Libraries/STM32F4xx_StdPeriph_Driver/src/stm32f4xx_i2c.c ****   *            @arg I2C_IT_BERR: Bus error interrupt
1416:Libraries/STM32F4xx_StdPeriph_Driver/src/stm32f4xx_i2c.c ****   * 
1417:Libraries/STM32F4xx_StdPeriph_Driver/src/stm32f4xx_i2c.c ****   * @note   STOPF (STOP detection) is cleared by software sequence: a read operation 
1418:Libraries/STM32F4xx_StdPeriph_Driver/src/stm32f4xx_i2c.c ****   *          to I2C_SR1 register (I2C_GetITStatus()) followed by a write operation to 
1419:Libraries/STM32F4xx_StdPeriph_Driver/src/stm32f4xx_i2c.c ****   *          I2C_CR1 register (I2C_Cmd() to re-enable the I2C peripheral).
1420:Libraries/STM32F4xx_StdPeriph_Driver/src/stm32f4xx_i2c.c ****   * @note   ADD10 (10-bit header sent) is cleared by software sequence: a read 
1421:Libraries/STM32F4xx_StdPeriph_Driver/src/stm32f4xx_i2c.c ****   *          operation to I2C_SR1 (I2C_GetITStatus()) followed by writing the second 
1422:Libraries/STM32F4xx_StdPeriph_Driver/src/stm32f4xx_i2c.c ****   *          byte of the address in I2C_DR register.
1423:Libraries/STM32F4xx_StdPeriph_Driver/src/stm32f4xx_i2c.c ****   * @note   BTF (Byte Transfer Finished) is cleared by software sequence: a read 
1424:Libraries/STM32F4xx_StdPeriph_Driver/src/stm32f4xx_i2c.c ****   *          operation to I2C_SR1 register (I2C_GetITStatus()) followed by a 
1425:Libraries/STM32F4xx_StdPeriph_Driver/src/stm32f4xx_i2c.c ****   *          read/write to I2C_DR register (I2C_SendData()).
1426:Libraries/STM32F4xx_StdPeriph_Driver/src/stm32f4xx_i2c.c ****   * @note   ADDR (Address sent) is cleared by software sequence: a read operation to 
1427:Libraries/STM32F4xx_StdPeriph_Driver/src/stm32f4xx_i2c.c ****   *          I2C_SR1 register (I2C_GetITStatus()) followed by a read operation to 
1428:Libraries/STM32F4xx_StdPeriph_Driver/src/stm32f4xx_i2c.c ****   *          I2C_SR2 register ((void)(I2Cx->SR2)).
1429:Libraries/STM32F4xx_StdPeriph_Driver/src/stm32f4xx_i2c.c ****   * @note   SB (Start Bit) is cleared by software sequence: a read operation to 
1430:Libraries/STM32F4xx_StdPeriph_Driver/src/stm32f4xx_i2c.c ****   *          I2C_SR1 register (I2C_GetITStatus()) followed by a write operation to 
1431:Libraries/STM32F4xx_StdPeriph_Driver/src/stm32f4xx_i2c.c ****   *          I2C_DR register (I2C_SendData()).
1432:Libraries/STM32F4xx_StdPeriph_Driver/src/stm32f4xx_i2c.c ****   * @retval None
1433:Libraries/STM32F4xx_StdPeriph_Driver/src/stm32f4xx_i2c.c ****   */
1434:Libraries/STM32F4xx_StdPeriph_Driver/src/stm32f4xx_i2c.c **** void I2C_ClearITPendingBit(I2C_TypeDef* I2Cx, uint32_t I2C_IT)
1435:Libraries/STM32F4xx_StdPeriph_Driver/src/stm32f4xx_i2c.c **** {
 1771              		.loc 1 1435 1 is_stmt 1 view -0
ARM GAS  /tmp/cclEJd3j.s 			page 57


 1772              		.cfi_startproc
 1773              		@ args = 0, pretend = 0, frame = 0
 1774              		@ frame_needed = 0, uses_anonymous_args = 0
 1775              		@ link register save eliminated.
1436:Libraries/STM32F4xx_StdPeriph_Driver/src/stm32f4xx_i2c.c ****   uint32_t flagpos = 0;
 1776              		.loc 1 1436 3 view .LVU498
1437:Libraries/STM32F4xx_StdPeriph_Driver/src/stm32f4xx_i2c.c ****   /* Check the parameters */
1438:Libraries/STM32F4xx_StdPeriph_Driver/src/stm32f4xx_i2c.c ****   assert_param(IS_I2C_ALL_PERIPH(I2Cx));
 1777              		.loc 1 1438 3 view .LVU499
1439:Libraries/STM32F4xx_StdPeriph_Driver/src/stm32f4xx_i2c.c ****   assert_param(IS_I2C_CLEAR_IT(I2C_IT));
 1778              		.loc 1 1439 3 view .LVU500
1440:Libraries/STM32F4xx_StdPeriph_Driver/src/stm32f4xx_i2c.c **** 
1441:Libraries/STM32F4xx_StdPeriph_Driver/src/stm32f4xx_i2c.c ****   /* Get the I2C flag position */
1442:Libraries/STM32F4xx_StdPeriph_Driver/src/stm32f4xx_i2c.c ****   flagpos = I2C_IT & FLAG_MASK;
 1779              		.loc 1 1442 3 view .LVU501
 1780              		.loc 1 1442 11 is_stmt 0 view .LVU502
 1781 0000 21F07F41 		bic	r1, r1, #-16777216
 1782              	.LVL125:
1443:Libraries/STM32F4xx_StdPeriph_Driver/src/stm32f4xx_i2c.c **** 
1444:Libraries/STM32F4xx_StdPeriph_Driver/src/stm32f4xx_i2c.c ****   /* Clear the selected I2C flag */
1445:Libraries/STM32F4xx_StdPeriph_Driver/src/stm32f4xx_i2c.c ****   I2Cx->SR1 = (uint16_t)~flagpos;
 1783              		.loc 1 1445 3 is_stmt 1 view .LVU503
 1784              		.loc 1 1445 15 is_stmt 0 view .LVU504
 1785 0004 C943     		mvns	r1, r1
 1786              	.LVL126:
 1787              		.loc 1 1445 15 view .LVU505
 1788 0006 89B2     		uxth	r1, r1
 1789              	.LVL127:
 1790              		.loc 1 1445 13 view .LVU506
 1791 0008 8182     		strh	r1, [r0, #20]	@ movhi
1446:Libraries/STM32F4xx_StdPeriph_Driver/src/stm32f4xx_i2c.c **** }
 1792              		.loc 1 1446 1 view .LVU507
 1793 000a 7047     		bx	lr
 1794              		.cfi_endproc
 1795              	.LFE157:
 1797              		.text
 1798              	.Letext0:
 1799              		.file 2 "/home/ktkuri/arm-gcc-tools/arm-none-eabi/include/machine/_default_types.h"
 1800              		.file 3 "/home/ktkuri/arm-gcc-tools/arm-none-eabi/include/sys/_stdint.h"
 1801              		.file 4 "Libraries/CMSIS/Device/ST/STM32F4xx/Include/stm32f4xx.h"
 1802              		.file 5 "Libraries/STM32F4xx_StdPeriph_Driver/inc/stm32f4xx_rcc.h"
 1803              		.file 6 "Libraries/STM32F4xx_StdPeriph_Driver/inc/stm32f4xx_i2c.h"
ARM GAS  /tmp/cclEJd3j.s 			page 58

