ARM GAS  /tmp/ccocAaWP.s 			page 1


   1              		.cpu cortex-m4
   2              		.eabi_attribute 27, 1
   3              		.eabi_attribute 28, 1
   4              		.eabi_attribute 20, 1
   5              		.eabi_attribute 21, 1
   6              		.eabi_attribute 23, 3
   7              		.eabi_attribute 24, 1
   8              		.eabi_attribute 25, 1
   9              		.eabi_attribute 26, 1
  10              		.eabi_attribute 30, 1
  11              		.eabi_attribute 34, 1
  12              		.eabi_attribute 18, 4
  13              		.file	"stm32f4xx_exti.c"
  14              		.text
  15              	.Ltext0:
  16              		.cfi_sections	.debug_frame
  17              		.section	.text.EXTI_DeInit,"ax",%progbits
  18              		.align	1
  19              		.global	EXTI_DeInit
  20              		.arch armv7e-m
  21              		.syntax unified
  22              		.thumb
  23              		.thumb_func
  24              		.fpu fpv4-sp-d16
  26              	EXTI_DeInit:
  27              	.LFB123:
  28              		.file 1 "Libraries/STM32F4xx_StdPeriph_Driver/src/stm32f4xx_exti.c"
   1:Libraries/STM32F4xx_StdPeriph_Driver/src/stm32f4xx_exti.c **** /**
   2:Libraries/STM32F4xx_StdPeriph_Driver/src/stm32f4xx_exti.c ****   ******************************************************************************
   3:Libraries/STM32F4xx_StdPeriph_Driver/src/stm32f4xx_exti.c ****   * @file    stm32f4xx_exti.c
   4:Libraries/STM32F4xx_StdPeriph_Driver/src/stm32f4xx_exti.c ****   * @author  MCD Application Team
   5:Libraries/STM32F4xx_StdPeriph_Driver/src/stm32f4xx_exti.c ****   * @version V1.8.1
   6:Libraries/STM32F4xx_StdPeriph_Driver/src/stm32f4xx_exti.c ****   * @date    27-January-2022
   7:Libraries/STM32F4xx_StdPeriph_Driver/src/stm32f4xx_exti.c ****   * @brief   This file provides firmware functions to manage the following 
   8:Libraries/STM32F4xx_StdPeriph_Driver/src/stm32f4xx_exti.c ****   *          functionalities of the EXTI peripheral:
   9:Libraries/STM32F4xx_StdPeriph_Driver/src/stm32f4xx_exti.c ****   *           + Initialization and Configuration
  10:Libraries/STM32F4xx_StdPeriph_Driver/src/stm32f4xx_exti.c ****   *           + Interrupts and flags management
  11:Libraries/STM32F4xx_StdPeriph_Driver/src/stm32f4xx_exti.c ****   *
  12:Libraries/STM32F4xx_StdPeriph_Driver/src/stm32f4xx_exti.c **** @verbatim  
  13:Libraries/STM32F4xx_StdPeriph_Driver/src/stm32f4xx_exti.c **** 
  14:Libraries/STM32F4xx_StdPeriph_Driver/src/stm32f4xx_exti.c ****  ===============================================================================
  15:Libraries/STM32F4xx_StdPeriph_Driver/src/stm32f4xx_exti.c ****                               ##### EXTI features #####
  16:Libraries/STM32F4xx_StdPeriph_Driver/src/stm32f4xx_exti.c ****  ===============================================================================
  17:Libraries/STM32F4xx_StdPeriph_Driver/src/stm32f4xx_exti.c **** 
  18:Libraries/STM32F4xx_StdPeriph_Driver/src/stm32f4xx_exti.c ****  [..] External interrupt/event lines are mapped as following:
  19:Libraries/STM32F4xx_StdPeriph_Driver/src/stm32f4xx_exti.c ****    (#) All available GPIO pins are connected to the 16 external 
  20:Libraries/STM32F4xx_StdPeriph_Driver/src/stm32f4xx_exti.c ****        interrupt/event lines from EXTI0 to EXTI15.
  21:Libraries/STM32F4xx_StdPeriph_Driver/src/stm32f4xx_exti.c ****    (#) EXTI line 16 is connected to the PVD Output
  22:Libraries/STM32F4xx_StdPeriph_Driver/src/stm32f4xx_exti.c ****    (#) EXTI line 17 is connected to the RTC Alarm event
  23:Libraries/STM32F4xx_StdPeriph_Driver/src/stm32f4xx_exti.c ****    (#) EXTI line 18 is connected to the USB OTG FS Wakeup from suspend event
  24:Libraries/STM32F4xx_StdPeriph_Driver/src/stm32f4xx_exti.c ****    (#) EXTI line 19 is connected to the Ethernet Wakeup event
  25:Libraries/STM32F4xx_StdPeriph_Driver/src/stm32f4xx_exti.c ****    (#) EXTI line 20 is connected to the USB OTG HS (configured in FS) Wakeup event 
  26:Libraries/STM32F4xx_StdPeriph_Driver/src/stm32f4xx_exti.c ****    (#) EXTI line 21 is connected to the RTC Tamper and Time Stamp events
  27:Libraries/STM32F4xx_StdPeriph_Driver/src/stm32f4xx_exti.c ****    (#) EXTI line 22 is connected to the RTC Wakeup event
  28:Libraries/STM32F4xx_StdPeriph_Driver/src/stm32f4xx_exti.c ****    (#) EXTI line 23 is connected to the LPTIM Wakeup event 
  29:Libraries/STM32F4xx_StdPeriph_Driver/src/stm32f4xx_exti.c **** 
  30:Libraries/STM32F4xx_StdPeriph_Driver/src/stm32f4xx_exti.c ****                        ##### How to use this driver #####
ARM GAS  /tmp/ccocAaWP.s 			page 2


  31:Libraries/STM32F4xx_StdPeriph_Driver/src/stm32f4xx_exti.c ****  ===============================================================================
  32:Libraries/STM32F4xx_StdPeriph_Driver/src/stm32f4xx_exti.c ****  
  33:Libraries/STM32F4xx_StdPeriph_Driver/src/stm32f4xx_exti.c ****  [..] In order to use an I/O pin as an external interrupt source, follow steps 
  34:Libraries/STM32F4xx_StdPeriph_Driver/src/stm32f4xx_exti.c ****       below:
  35:Libraries/STM32F4xx_StdPeriph_Driver/src/stm32f4xx_exti.c ****    (#) Configure the I/O in input mode using GPIO_Init()
  36:Libraries/STM32F4xx_StdPeriph_Driver/src/stm32f4xx_exti.c ****    (#) Select the input source pin for the EXTI line using SYSCFG_EXTILineConfig()
  37:Libraries/STM32F4xx_StdPeriph_Driver/src/stm32f4xx_exti.c ****    (#) Select the mode(interrupt, event) and configure the trigger 
  38:Libraries/STM32F4xx_StdPeriph_Driver/src/stm32f4xx_exti.c ****        selection (Rising, falling or both) using EXTI_Init()
  39:Libraries/STM32F4xx_StdPeriph_Driver/src/stm32f4xx_exti.c ****    (#) Configure NVIC IRQ channel mapped to the EXTI line using NVIC_Init()
  40:Libraries/STM32F4xx_StdPeriph_Driver/src/stm32f4xx_exti.c **** 
  41:Libraries/STM32F4xx_StdPeriph_Driver/src/stm32f4xx_exti.c ****  [..]     
  42:Libraries/STM32F4xx_StdPeriph_Driver/src/stm32f4xx_exti.c ****    (@) SYSCFG APB clock must be enabled to get write access to SYSCFG_EXTICRx
  43:Libraries/STM32F4xx_StdPeriph_Driver/src/stm32f4xx_exti.c ****        registers using RCC_APB2PeriphClockCmd(RCC_APB2Periph_SYSCFG, ENABLE);
  44:Libraries/STM32F4xx_StdPeriph_Driver/src/stm32f4xx_exti.c **** 
  45:Libraries/STM32F4xx_StdPeriph_Driver/src/stm32f4xx_exti.c **** @endverbatim
  46:Libraries/STM32F4xx_StdPeriph_Driver/src/stm32f4xx_exti.c ****   *
  47:Libraries/STM32F4xx_StdPeriph_Driver/src/stm32f4xx_exti.c ****   ******************************************************************************
  48:Libraries/STM32F4xx_StdPeriph_Driver/src/stm32f4xx_exti.c ****   * @attention
  49:Libraries/STM32F4xx_StdPeriph_Driver/src/stm32f4xx_exti.c ****   *
  50:Libraries/STM32F4xx_StdPeriph_Driver/src/stm32f4xx_exti.c ****   * Copyright (c) 2016 STMicroelectronics.
  51:Libraries/STM32F4xx_StdPeriph_Driver/src/stm32f4xx_exti.c ****   * All rights reserved.
  52:Libraries/STM32F4xx_StdPeriph_Driver/src/stm32f4xx_exti.c ****   *
  53:Libraries/STM32F4xx_StdPeriph_Driver/src/stm32f4xx_exti.c ****   * This software is licensed under terms that can be found in the LICENSE file
  54:Libraries/STM32F4xx_StdPeriph_Driver/src/stm32f4xx_exti.c ****   * in the root directory of this software component.
  55:Libraries/STM32F4xx_StdPeriph_Driver/src/stm32f4xx_exti.c ****   * If no LICENSE file comes with this software, it is provided AS-IS.
  56:Libraries/STM32F4xx_StdPeriph_Driver/src/stm32f4xx_exti.c ****   *
  57:Libraries/STM32F4xx_StdPeriph_Driver/src/stm32f4xx_exti.c ****   ******************************************************************************
  58:Libraries/STM32F4xx_StdPeriph_Driver/src/stm32f4xx_exti.c ****   */
  59:Libraries/STM32F4xx_StdPeriph_Driver/src/stm32f4xx_exti.c **** 
  60:Libraries/STM32F4xx_StdPeriph_Driver/src/stm32f4xx_exti.c **** /* Includes ------------------------------------------------------------------*/
  61:Libraries/STM32F4xx_StdPeriph_Driver/src/stm32f4xx_exti.c **** #include "stm32f4xx_exti.h"
  62:Libraries/STM32F4xx_StdPeriph_Driver/src/stm32f4xx_exti.c **** 
  63:Libraries/STM32F4xx_StdPeriph_Driver/src/stm32f4xx_exti.c **** /** @addtogroup STM32F4xx_StdPeriph_Driver
  64:Libraries/STM32F4xx_StdPeriph_Driver/src/stm32f4xx_exti.c ****   * @{
  65:Libraries/STM32F4xx_StdPeriph_Driver/src/stm32f4xx_exti.c ****   */
  66:Libraries/STM32F4xx_StdPeriph_Driver/src/stm32f4xx_exti.c **** 
  67:Libraries/STM32F4xx_StdPeriph_Driver/src/stm32f4xx_exti.c **** /** @defgroup EXTI 
  68:Libraries/STM32F4xx_StdPeriph_Driver/src/stm32f4xx_exti.c ****   * @brief EXTI driver modules
  69:Libraries/STM32F4xx_StdPeriph_Driver/src/stm32f4xx_exti.c ****   * @{
  70:Libraries/STM32F4xx_StdPeriph_Driver/src/stm32f4xx_exti.c ****   */
  71:Libraries/STM32F4xx_StdPeriph_Driver/src/stm32f4xx_exti.c **** 
  72:Libraries/STM32F4xx_StdPeriph_Driver/src/stm32f4xx_exti.c **** /* Private typedef -----------------------------------------------------------*/
  73:Libraries/STM32F4xx_StdPeriph_Driver/src/stm32f4xx_exti.c **** /* Private define ------------------------------------------------------------*/
  74:Libraries/STM32F4xx_StdPeriph_Driver/src/stm32f4xx_exti.c **** 
  75:Libraries/STM32F4xx_StdPeriph_Driver/src/stm32f4xx_exti.c **** #define EXTI_LINENONE    ((uint32_t)0x00000)  /* No interrupt selected */
  76:Libraries/STM32F4xx_StdPeriph_Driver/src/stm32f4xx_exti.c **** 
  77:Libraries/STM32F4xx_StdPeriph_Driver/src/stm32f4xx_exti.c **** /* Private macro -------------------------------------------------------------*/
  78:Libraries/STM32F4xx_StdPeriph_Driver/src/stm32f4xx_exti.c **** /* Private variables ---------------------------------------------------------*/
  79:Libraries/STM32F4xx_StdPeriph_Driver/src/stm32f4xx_exti.c **** /* Private function prototypes -----------------------------------------------*/
  80:Libraries/STM32F4xx_StdPeriph_Driver/src/stm32f4xx_exti.c **** /* Private functions ---------------------------------------------------------*/
  81:Libraries/STM32F4xx_StdPeriph_Driver/src/stm32f4xx_exti.c **** 
  82:Libraries/STM32F4xx_StdPeriph_Driver/src/stm32f4xx_exti.c **** /** @defgroup EXTI_Private_Functions
  83:Libraries/STM32F4xx_StdPeriph_Driver/src/stm32f4xx_exti.c ****   * @{
  84:Libraries/STM32F4xx_StdPeriph_Driver/src/stm32f4xx_exti.c ****   */
  85:Libraries/STM32F4xx_StdPeriph_Driver/src/stm32f4xx_exti.c **** 
  86:Libraries/STM32F4xx_StdPeriph_Driver/src/stm32f4xx_exti.c **** /** @defgroup EXTI_Group1 Initialization and Configuration functions
  87:Libraries/STM32F4xx_StdPeriph_Driver/src/stm32f4xx_exti.c ****  *  @brief   Initialization and Configuration functions 
ARM GAS  /tmp/ccocAaWP.s 			page 3


  88:Libraries/STM32F4xx_StdPeriph_Driver/src/stm32f4xx_exti.c ****  *
  89:Libraries/STM32F4xx_StdPeriph_Driver/src/stm32f4xx_exti.c **** @verbatim   
  90:Libraries/STM32F4xx_StdPeriph_Driver/src/stm32f4xx_exti.c ****  ===============================================================================
  91:Libraries/STM32F4xx_StdPeriph_Driver/src/stm32f4xx_exti.c ****              ##### Initialization and Configuration functions #####
  92:Libraries/STM32F4xx_StdPeriph_Driver/src/stm32f4xx_exti.c ****  ===============================================================================
  93:Libraries/STM32F4xx_StdPeriph_Driver/src/stm32f4xx_exti.c **** 
  94:Libraries/STM32F4xx_StdPeriph_Driver/src/stm32f4xx_exti.c **** @endverbatim
  95:Libraries/STM32F4xx_StdPeriph_Driver/src/stm32f4xx_exti.c ****   * @{
  96:Libraries/STM32F4xx_StdPeriph_Driver/src/stm32f4xx_exti.c ****   */
  97:Libraries/STM32F4xx_StdPeriph_Driver/src/stm32f4xx_exti.c **** 
  98:Libraries/STM32F4xx_StdPeriph_Driver/src/stm32f4xx_exti.c **** /**
  99:Libraries/STM32F4xx_StdPeriph_Driver/src/stm32f4xx_exti.c ****   * @brief  Deinitializes the EXTI peripheral registers to their default reset values.
 100:Libraries/STM32F4xx_StdPeriph_Driver/src/stm32f4xx_exti.c ****   * @param  None
 101:Libraries/STM32F4xx_StdPeriph_Driver/src/stm32f4xx_exti.c ****   * @retval None
 102:Libraries/STM32F4xx_StdPeriph_Driver/src/stm32f4xx_exti.c ****   */
 103:Libraries/STM32F4xx_StdPeriph_Driver/src/stm32f4xx_exti.c **** void EXTI_DeInit(void)
 104:Libraries/STM32F4xx_StdPeriph_Driver/src/stm32f4xx_exti.c **** {
  29              		.loc 1 104 1 view -0
  30              		.cfi_startproc
  31              		@ args = 0, pretend = 0, frame = 0
  32              		@ frame_needed = 0, uses_anonymous_args = 0
  33              		@ link register save eliminated.
 105:Libraries/STM32F4xx_StdPeriph_Driver/src/stm32f4xx_exti.c ****   EXTI->IMR = 0x00000000;
  34              		.loc 1 105 3 view .LVU1
  35              		.loc 1 105 13 is_stmt 0 view .LVU2
  36 0000 044B     		ldr	r3, .L2
  37 0002 0022     		movs	r2, #0
  38 0004 1A60     		str	r2, [r3]
 106:Libraries/STM32F4xx_StdPeriph_Driver/src/stm32f4xx_exti.c ****   EXTI->EMR = 0x00000000;
  39              		.loc 1 106 3 is_stmt 1 view .LVU3
  40              		.loc 1 106 13 is_stmt 0 view .LVU4
  41 0006 5A60     		str	r2, [r3, #4]
 107:Libraries/STM32F4xx_StdPeriph_Driver/src/stm32f4xx_exti.c ****   EXTI->RTSR = 0x00000000;
  42              		.loc 1 107 3 is_stmt 1 view .LVU5
  43              		.loc 1 107 14 is_stmt 0 view .LVU6
  44 0008 9A60     		str	r2, [r3, #8]
 108:Libraries/STM32F4xx_StdPeriph_Driver/src/stm32f4xx_exti.c ****   EXTI->FTSR = 0x00000000;
  45              		.loc 1 108 3 is_stmt 1 view .LVU7
  46              		.loc 1 108 14 is_stmt 0 view .LVU8
  47 000a DA60     		str	r2, [r3, #12]
 109:Libraries/STM32F4xx_StdPeriph_Driver/src/stm32f4xx_exti.c ****   EXTI->PR = 0x007FFFFF;
  48              		.loc 1 109 3 is_stmt 1 view .LVU9
  49              		.loc 1 109 12 is_stmt 0 view .LVU10
  50 000c 024A     		ldr	r2, .L2+4
  51 000e 5A61     		str	r2, [r3, #20]
 110:Libraries/STM32F4xx_StdPeriph_Driver/src/stm32f4xx_exti.c **** }
  52              		.loc 1 110 1 view .LVU11
  53 0010 7047     		bx	lr
  54              	.L3:
  55 0012 00BF     		.align	2
  56              	.L2:
  57 0014 003C0140 		.word	1073822720
  58 0018 FFFF7F00 		.word	8388607
  59              		.cfi_endproc
  60              	.LFE123:
  62              		.section	.text.EXTI_Init,"ax",%progbits
  63              		.align	1
ARM GAS  /tmp/ccocAaWP.s 			page 4


  64              		.global	EXTI_Init
  65              		.syntax unified
  66              		.thumb
  67              		.thumb_func
  68              		.fpu fpv4-sp-d16
  70              	EXTI_Init:
  71              	.LVL0:
  72              	.LFB124:
 111:Libraries/STM32F4xx_StdPeriph_Driver/src/stm32f4xx_exti.c **** 
 112:Libraries/STM32F4xx_StdPeriph_Driver/src/stm32f4xx_exti.c **** /**
 113:Libraries/STM32F4xx_StdPeriph_Driver/src/stm32f4xx_exti.c ****   * @brief  Initializes the EXTI peripheral according to the specified
 114:Libraries/STM32F4xx_StdPeriph_Driver/src/stm32f4xx_exti.c ****   *         parameters in the EXTI_InitStruct.
 115:Libraries/STM32F4xx_StdPeriph_Driver/src/stm32f4xx_exti.c ****   * @param  EXTI_InitStruct: pointer to a EXTI_InitTypeDef structure
 116:Libraries/STM32F4xx_StdPeriph_Driver/src/stm32f4xx_exti.c ****   *         that contains the configuration information for the EXTI peripheral.
 117:Libraries/STM32F4xx_StdPeriph_Driver/src/stm32f4xx_exti.c ****   * @retval None
 118:Libraries/STM32F4xx_StdPeriph_Driver/src/stm32f4xx_exti.c ****   */
 119:Libraries/STM32F4xx_StdPeriph_Driver/src/stm32f4xx_exti.c **** void EXTI_Init(EXTI_InitTypeDef* EXTI_InitStruct)
 120:Libraries/STM32F4xx_StdPeriph_Driver/src/stm32f4xx_exti.c **** {
  73              		.loc 1 120 1 is_stmt 1 view -0
  74              		.cfi_startproc
  75              		@ args = 0, pretend = 0, frame = 0
  76              		@ frame_needed = 0, uses_anonymous_args = 0
  77              		@ link register save eliminated.
 121:Libraries/STM32F4xx_StdPeriph_Driver/src/stm32f4xx_exti.c ****   uint32_t tmp = 0;
  78              		.loc 1 121 3 view .LVU13
 122:Libraries/STM32F4xx_StdPeriph_Driver/src/stm32f4xx_exti.c **** 
 123:Libraries/STM32F4xx_StdPeriph_Driver/src/stm32f4xx_exti.c ****   /* Check the parameters */
 124:Libraries/STM32F4xx_StdPeriph_Driver/src/stm32f4xx_exti.c ****   assert_param(IS_EXTI_MODE(EXTI_InitStruct->EXTI_Mode));
  79              		.loc 1 124 3 view .LVU14
 125:Libraries/STM32F4xx_StdPeriph_Driver/src/stm32f4xx_exti.c ****   assert_param(IS_EXTI_TRIGGER(EXTI_InitStruct->EXTI_Trigger));
  80              		.loc 1 125 3 view .LVU15
 126:Libraries/STM32F4xx_StdPeriph_Driver/src/stm32f4xx_exti.c ****   assert_param(IS_EXTI_LINE(EXTI_InitStruct->EXTI_Line));  
  81              		.loc 1 126 3 view .LVU16
 127:Libraries/STM32F4xx_StdPeriph_Driver/src/stm32f4xx_exti.c ****   assert_param(IS_FUNCTIONAL_STATE(EXTI_InitStruct->EXTI_LineCmd));
  82              		.loc 1 127 3 view .LVU17
 128:Libraries/STM32F4xx_StdPeriph_Driver/src/stm32f4xx_exti.c **** 
 129:Libraries/STM32F4xx_StdPeriph_Driver/src/stm32f4xx_exti.c ****   tmp = (uint32_t)EXTI_BASE;
  83              		.loc 1 129 3 view .LVU18
 130:Libraries/STM32F4xx_StdPeriph_Driver/src/stm32f4xx_exti.c ****      
 131:Libraries/STM32F4xx_StdPeriph_Driver/src/stm32f4xx_exti.c ****   if (EXTI_InitStruct->EXTI_LineCmd != DISABLE)
  84              		.loc 1 131 3 view .LVU19
  85              		.loc 1 131 22 is_stmt 0 view .LVU20
  86 0000 8379     		ldrb	r3, [r0, #6]	@ zero_extendqisi2
  87              		.loc 1 131 6 view .LVU21
  88 0002 002B     		cmp	r3, #0
  89 0004 36D0     		beq	.L5
 120:Libraries/STM32F4xx_StdPeriph_Driver/src/stm32f4xx_exti.c ****   uint32_t tmp = 0;
  90              		.loc 1 120 1 view .LVU22
  91 0006 10B4     		push	{r4}
  92              	.LCFI0:
  93              		.cfi_def_cfa_offset 4
  94              		.cfi_offset 4, -4
 132:Libraries/STM32F4xx_StdPeriph_Driver/src/stm32f4xx_exti.c ****   {
 133:Libraries/STM32F4xx_StdPeriph_Driver/src/stm32f4xx_exti.c ****     /* Clear EXTI line configuration */
 134:Libraries/STM32F4xx_StdPeriph_Driver/src/stm32f4xx_exti.c ****     EXTI->IMR &= ~EXTI_InitStruct->EXTI_Line;
  95              		.loc 1 134 5 is_stmt 1 view .LVU23
  96              		.loc 1 134 15 is_stmt 0 view .LVU24
ARM GAS  /tmp/ccocAaWP.s 			page 5


  97 0008 204B     		ldr	r3, .L13
  98 000a 1A68     		ldr	r2, [r3]
  99              		.loc 1 134 34 view .LVU25
 100 000c 0168     		ldr	r1, [r0]
 101              		.loc 1 134 15 view .LVU26
 102 000e 22EA0102 		bic	r2, r2, r1
 103 0012 1A60     		str	r2, [r3]
 135:Libraries/STM32F4xx_StdPeriph_Driver/src/stm32f4xx_exti.c ****     EXTI->EMR &= ~EXTI_InitStruct->EXTI_Line;
 104              		.loc 1 135 5 is_stmt 1 view .LVU27
 105              		.loc 1 135 15 is_stmt 0 view .LVU28
 106 0014 5A68     		ldr	r2, [r3, #4]
 107              		.loc 1 135 34 view .LVU29
 108 0016 0168     		ldr	r1, [r0]
 109              		.loc 1 135 15 view .LVU30
 110 0018 22EA0102 		bic	r2, r2, r1
 111 001c 5A60     		str	r2, [r3, #4]
 136:Libraries/STM32F4xx_StdPeriph_Driver/src/stm32f4xx_exti.c ****     
 137:Libraries/STM32F4xx_StdPeriph_Driver/src/stm32f4xx_exti.c ****     tmp += EXTI_InitStruct->EXTI_Mode;
 112              		.loc 1 137 5 is_stmt 1 view .LVU31
 113              		.loc 1 137 27 is_stmt 0 view .LVU32
 114 001e 0279     		ldrb	r2, [r0, #4]	@ zero_extendqisi2
 115              		.loc 1 137 9 view .LVU33
 116 0020 02F18042 		add	r2, r2, #1073741824
 117 0024 02F59E32 		add	r2, r2, #80896
 118              	.LVL1:
 138:Libraries/STM32F4xx_StdPeriph_Driver/src/stm32f4xx_exti.c **** 
 139:Libraries/STM32F4xx_StdPeriph_Driver/src/stm32f4xx_exti.c ****     *(__IO uint32_t *) tmp |= EXTI_InitStruct->EXTI_Line;
 119              		.loc 1 139 5 is_stmt 1 view .LVU34
 120              		.loc 1 139 28 is_stmt 0 view .LVU35
 121 0028 1168     		ldr	r1, [r2]
 122 002a 0468     		ldr	r4, [r0]
 123 002c 2143     		orrs	r1, r1, r4
 124 002e 1160     		str	r1, [r2]
 140:Libraries/STM32F4xx_StdPeriph_Driver/src/stm32f4xx_exti.c **** 
 141:Libraries/STM32F4xx_StdPeriph_Driver/src/stm32f4xx_exti.c ****     /* Clear Rising Falling edge configuration */
 142:Libraries/STM32F4xx_StdPeriph_Driver/src/stm32f4xx_exti.c ****     EXTI->RTSR &= ~EXTI_InitStruct->EXTI_Line;
 125              		.loc 1 142 5 is_stmt 1 view .LVU36
 126              		.loc 1 142 16 is_stmt 0 view .LVU37
 127 0030 9A68     		ldr	r2, [r3, #8]
 128              	.LVL2:
 129              		.loc 1 142 35 view .LVU38
 130 0032 0168     		ldr	r1, [r0]
 131              		.loc 1 142 16 view .LVU39
 132 0034 22EA0102 		bic	r2, r2, r1
 133 0038 9A60     		str	r2, [r3, #8]
 143:Libraries/STM32F4xx_StdPeriph_Driver/src/stm32f4xx_exti.c ****     EXTI->FTSR &= ~EXTI_InitStruct->EXTI_Line;
 134              		.loc 1 143 5 is_stmt 1 view .LVU40
 135              		.loc 1 143 16 is_stmt 0 view .LVU41
 136 003a DA68     		ldr	r2, [r3, #12]
 137              		.loc 1 143 35 view .LVU42
 138 003c 0168     		ldr	r1, [r0]
 139              		.loc 1 143 16 view .LVU43
 140 003e 22EA0102 		bic	r2, r2, r1
 141 0042 DA60     		str	r2, [r3, #12]
 144:Libraries/STM32F4xx_StdPeriph_Driver/src/stm32f4xx_exti.c ****     
 145:Libraries/STM32F4xx_StdPeriph_Driver/src/stm32f4xx_exti.c ****     /* Select the trigger for the selected external interrupts */
 146:Libraries/STM32F4xx_StdPeriph_Driver/src/stm32f4xx_exti.c ****     if (EXTI_InitStruct->EXTI_Trigger == EXTI_Trigger_Rising_Falling)
ARM GAS  /tmp/ccocAaWP.s 			page 6


 142              		.loc 1 146 5 is_stmt 1 view .LVU44
 143              		.loc 1 146 24 is_stmt 0 view .LVU45
 144 0044 4379     		ldrb	r3, [r0, #5]	@ zero_extendqisi2
 145              		.loc 1 146 8 view .LVU46
 146 0046 102B     		cmp	r3, #16
 147 0048 0AD0     		beq	.L12
 147:Libraries/STM32F4xx_StdPeriph_Driver/src/stm32f4xx_exti.c ****     {
 148:Libraries/STM32F4xx_StdPeriph_Driver/src/stm32f4xx_exti.c ****       /* Rising Falling edge */
 149:Libraries/STM32F4xx_StdPeriph_Driver/src/stm32f4xx_exti.c ****       EXTI->RTSR |= EXTI_InitStruct->EXTI_Line;
 150:Libraries/STM32F4xx_StdPeriph_Driver/src/stm32f4xx_exti.c ****       EXTI->FTSR |= EXTI_InitStruct->EXTI_Line;
 151:Libraries/STM32F4xx_StdPeriph_Driver/src/stm32f4xx_exti.c ****     }
 152:Libraries/STM32F4xx_StdPeriph_Driver/src/stm32f4xx_exti.c ****     else
 153:Libraries/STM32F4xx_StdPeriph_Driver/src/stm32f4xx_exti.c ****     {
 154:Libraries/STM32F4xx_StdPeriph_Driver/src/stm32f4xx_exti.c ****       tmp = (uint32_t)EXTI_BASE;
 148              		.loc 1 154 7 is_stmt 1 view .LVU47
 149              	.LVL3:
 155:Libraries/STM32F4xx_StdPeriph_Driver/src/stm32f4xx_exti.c ****       tmp += EXTI_InitStruct->EXTI_Trigger;
 150              		.loc 1 155 7 view .LVU48
 151              		.loc 1 155 11 is_stmt 0 view .LVU49
 152 004a 03F18043 		add	r3, r3, #1073741824
 153 004e 03F59E33 		add	r3, r3, #80896
 154              	.LVL4:
 156:Libraries/STM32F4xx_StdPeriph_Driver/src/stm32f4xx_exti.c **** 
 157:Libraries/STM32F4xx_StdPeriph_Driver/src/stm32f4xx_exti.c ****       *(__IO uint32_t *) tmp |= EXTI_InitStruct->EXTI_Line;
 155              		.loc 1 157 7 is_stmt 1 view .LVU50
 156              		.loc 1 157 30 is_stmt 0 view .LVU51
 157 0052 1A68     		ldr	r2, [r3]
 158              		.loc 1 157 48 view .LVU52
 159 0054 0168     		ldr	r1, [r0]
 160              		.loc 1 157 30 view .LVU53
 161 0056 0A43     		orrs	r2, r2, r1
 162 0058 1A60     		str	r2, [r3]
 163              	.LVL5:
 164              	.L4:
 158:Libraries/STM32F4xx_StdPeriph_Driver/src/stm32f4xx_exti.c ****     }
 159:Libraries/STM32F4xx_StdPeriph_Driver/src/stm32f4xx_exti.c ****   }
 160:Libraries/STM32F4xx_StdPeriph_Driver/src/stm32f4xx_exti.c ****   else
 161:Libraries/STM32F4xx_StdPeriph_Driver/src/stm32f4xx_exti.c ****   {
 162:Libraries/STM32F4xx_StdPeriph_Driver/src/stm32f4xx_exti.c ****     tmp += EXTI_InitStruct->EXTI_Mode;
 163:Libraries/STM32F4xx_StdPeriph_Driver/src/stm32f4xx_exti.c **** 
 164:Libraries/STM32F4xx_StdPeriph_Driver/src/stm32f4xx_exti.c ****     /* Disable the selected external lines */
 165:Libraries/STM32F4xx_StdPeriph_Driver/src/stm32f4xx_exti.c ****     *(__IO uint32_t *) tmp &= ~EXTI_InitStruct->EXTI_Line;
 166:Libraries/STM32F4xx_StdPeriph_Driver/src/stm32f4xx_exti.c ****   }
 167:Libraries/STM32F4xx_StdPeriph_Driver/src/stm32f4xx_exti.c **** }
 165              		.loc 1 167 1 view .LVU54
 166 005a 5DF8044B 		ldr	r4, [sp], #4
 167              	.LCFI1:
 168              		.cfi_remember_state
 169              		.cfi_restore 4
 170              		.cfi_def_cfa_offset 0
 171 005e 7047     		bx	lr
 172              	.L12:
 173              	.LCFI2:
 174              		.cfi_restore_state
 149:Libraries/STM32F4xx_StdPeriph_Driver/src/stm32f4xx_exti.c ****       EXTI->FTSR |= EXTI_InitStruct->EXTI_Line;
 175              		.loc 1 149 7 is_stmt 1 view .LVU55
 149:Libraries/STM32F4xx_StdPeriph_Driver/src/stm32f4xx_exti.c ****       EXTI->FTSR |= EXTI_InitStruct->EXTI_Line;
ARM GAS  /tmp/ccocAaWP.s 			page 7


 176              		.loc 1 149 18 is_stmt 0 view .LVU56
 177 0060 0A4B     		ldr	r3, .L13
 178 0062 9A68     		ldr	r2, [r3, #8]
 149:Libraries/STM32F4xx_StdPeriph_Driver/src/stm32f4xx_exti.c ****       EXTI->FTSR |= EXTI_InitStruct->EXTI_Line;
 179              		.loc 1 149 36 view .LVU57
 180 0064 0168     		ldr	r1, [r0]
 149:Libraries/STM32F4xx_StdPeriph_Driver/src/stm32f4xx_exti.c ****       EXTI->FTSR |= EXTI_InitStruct->EXTI_Line;
 181              		.loc 1 149 18 view .LVU58
 182 0066 0A43     		orrs	r2, r2, r1
 183 0068 9A60     		str	r2, [r3, #8]
 150:Libraries/STM32F4xx_StdPeriph_Driver/src/stm32f4xx_exti.c ****     }
 184              		.loc 1 150 7 is_stmt 1 view .LVU59
 150:Libraries/STM32F4xx_StdPeriph_Driver/src/stm32f4xx_exti.c ****     }
 185              		.loc 1 150 18 is_stmt 0 view .LVU60
 186 006a DA68     		ldr	r2, [r3, #12]
 150:Libraries/STM32F4xx_StdPeriph_Driver/src/stm32f4xx_exti.c ****     }
 187              		.loc 1 150 36 view .LVU61
 188 006c 0168     		ldr	r1, [r0]
 150:Libraries/STM32F4xx_StdPeriph_Driver/src/stm32f4xx_exti.c ****     }
 189              		.loc 1 150 18 view .LVU62
 190 006e 0A43     		orrs	r2, r2, r1
 191 0070 DA60     		str	r2, [r3, #12]
 192 0072 F2E7     		b	.L4
 193              	.LVL6:
 194              	.L5:
 195              	.LCFI3:
 196              		.cfi_def_cfa_offset 0
 197              		.cfi_restore 4
 162:Libraries/STM32F4xx_StdPeriph_Driver/src/stm32f4xx_exti.c **** 
 198              		.loc 1 162 5 is_stmt 1 view .LVU63
 162:Libraries/STM32F4xx_StdPeriph_Driver/src/stm32f4xx_exti.c **** 
 199              		.loc 1 162 27 is_stmt 0 view .LVU64
 200 0074 0379     		ldrb	r3, [r0, #4]	@ zero_extendqisi2
 162:Libraries/STM32F4xx_StdPeriph_Driver/src/stm32f4xx_exti.c **** 
 201              		.loc 1 162 9 view .LVU65
 202 0076 03F18043 		add	r3, r3, #1073741824
 203 007a 03F59E33 		add	r3, r3, #80896
 204              	.LVL7:
 165:Libraries/STM32F4xx_StdPeriph_Driver/src/stm32f4xx_exti.c ****   }
 205              		.loc 1 165 5 is_stmt 1 view .LVU66
 165:Libraries/STM32F4xx_StdPeriph_Driver/src/stm32f4xx_exti.c ****   }
 206              		.loc 1 165 28 is_stmt 0 view .LVU67
 207 007e 1A68     		ldr	r2, [r3]
 165:Libraries/STM32F4xx_StdPeriph_Driver/src/stm32f4xx_exti.c ****   }
 208              		.loc 1 165 47 view .LVU68
 209 0080 0168     		ldr	r1, [r0]
 165:Libraries/STM32F4xx_StdPeriph_Driver/src/stm32f4xx_exti.c ****   }
 210              		.loc 1 165 28 view .LVU69
 211 0082 22EA0102 		bic	r2, r2, r1
 212 0086 1A60     		str	r2, [r3]
 213 0088 7047     		bx	lr
 214              	.L14:
 215 008a 00BF     		.align	2
 216              	.L13:
 217 008c 003C0140 		.word	1073822720
 218              		.cfi_endproc
 219              	.LFE124:
ARM GAS  /tmp/ccocAaWP.s 			page 8


 221              		.section	.text.EXTI_StructInit,"ax",%progbits
 222              		.align	1
 223              		.global	EXTI_StructInit
 224              		.syntax unified
 225              		.thumb
 226              		.thumb_func
 227              		.fpu fpv4-sp-d16
 229              	EXTI_StructInit:
 230              	.LVL8:
 231              	.LFB125:
 168:Libraries/STM32F4xx_StdPeriph_Driver/src/stm32f4xx_exti.c **** 
 169:Libraries/STM32F4xx_StdPeriph_Driver/src/stm32f4xx_exti.c **** /**
 170:Libraries/STM32F4xx_StdPeriph_Driver/src/stm32f4xx_exti.c ****   * @brief  Fills each EXTI_InitStruct member with its reset value.
 171:Libraries/STM32F4xx_StdPeriph_Driver/src/stm32f4xx_exti.c ****   * @param  EXTI_InitStruct: pointer to a EXTI_InitTypeDef structure which will
 172:Libraries/STM32F4xx_StdPeriph_Driver/src/stm32f4xx_exti.c ****   *         be initialized.
 173:Libraries/STM32F4xx_StdPeriph_Driver/src/stm32f4xx_exti.c ****   * @retval None
 174:Libraries/STM32F4xx_StdPeriph_Driver/src/stm32f4xx_exti.c ****   */
 175:Libraries/STM32F4xx_StdPeriph_Driver/src/stm32f4xx_exti.c **** void EXTI_StructInit(EXTI_InitTypeDef* EXTI_InitStruct)
 176:Libraries/STM32F4xx_StdPeriph_Driver/src/stm32f4xx_exti.c **** {
 232              		.loc 1 176 1 is_stmt 1 view -0
 233              		.cfi_startproc
 234              		@ args = 0, pretend = 0, frame = 0
 235              		@ frame_needed = 0, uses_anonymous_args = 0
 236              		@ link register save eliminated.
 177:Libraries/STM32F4xx_StdPeriph_Driver/src/stm32f4xx_exti.c ****   EXTI_InitStruct->EXTI_Line = EXTI_LINENONE;
 237              		.loc 1 177 3 view .LVU71
 238              		.loc 1 177 30 is_stmt 0 view .LVU72
 239 0000 0023     		movs	r3, #0
 240 0002 0360     		str	r3, [r0]
 178:Libraries/STM32F4xx_StdPeriph_Driver/src/stm32f4xx_exti.c ****   EXTI_InitStruct->EXTI_Mode = EXTI_Mode_Interrupt;
 241              		.loc 1 178 3 is_stmt 1 view .LVU73
 242              		.loc 1 178 30 is_stmt 0 view .LVU74
 243 0004 0371     		strb	r3, [r0, #4]
 179:Libraries/STM32F4xx_StdPeriph_Driver/src/stm32f4xx_exti.c ****   EXTI_InitStruct->EXTI_Trigger = EXTI_Trigger_Falling;
 244              		.loc 1 179 3 is_stmt 1 view .LVU75
 245              		.loc 1 179 33 is_stmt 0 view .LVU76
 246 0006 0C22     		movs	r2, #12
 247 0008 4271     		strb	r2, [r0, #5]
 180:Libraries/STM32F4xx_StdPeriph_Driver/src/stm32f4xx_exti.c ****   EXTI_InitStruct->EXTI_LineCmd = DISABLE;
 248              		.loc 1 180 3 is_stmt 1 view .LVU77
 249              		.loc 1 180 33 is_stmt 0 view .LVU78
 250 000a 8371     		strb	r3, [r0, #6]
 181:Libraries/STM32F4xx_StdPeriph_Driver/src/stm32f4xx_exti.c **** }
 251              		.loc 1 181 1 view .LVU79
 252 000c 7047     		bx	lr
 253              		.cfi_endproc
 254              	.LFE125:
 256              		.section	.text.EXTI_GenerateSWInterrupt,"ax",%progbits
 257              		.align	1
 258              		.global	EXTI_GenerateSWInterrupt
 259              		.syntax unified
 260              		.thumb
 261              		.thumb_func
 262              		.fpu fpv4-sp-d16
 264              	EXTI_GenerateSWInterrupt:
 265              	.LVL9:
 266              	.LFB126:
ARM GAS  /tmp/ccocAaWP.s 			page 9


 182:Libraries/STM32F4xx_StdPeriph_Driver/src/stm32f4xx_exti.c **** 
 183:Libraries/STM32F4xx_StdPeriph_Driver/src/stm32f4xx_exti.c **** /**
 184:Libraries/STM32F4xx_StdPeriph_Driver/src/stm32f4xx_exti.c ****   * @brief  Generates a Software interrupt on selected EXTI line.
 185:Libraries/STM32F4xx_StdPeriph_Driver/src/stm32f4xx_exti.c ****   * @param  EXTI_Line: specifies the EXTI line on which the software interrupt
 186:Libraries/STM32F4xx_StdPeriph_Driver/src/stm32f4xx_exti.c ****   *         will be generated.
 187:Libraries/STM32F4xx_StdPeriph_Driver/src/stm32f4xx_exti.c ****   *         This parameter can be any combination of EXTI_Linex where x can be (0..22)
 188:Libraries/STM32F4xx_StdPeriph_Driver/src/stm32f4xx_exti.c ****   * @retval None
 189:Libraries/STM32F4xx_StdPeriph_Driver/src/stm32f4xx_exti.c ****   */
 190:Libraries/STM32F4xx_StdPeriph_Driver/src/stm32f4xx_exti.c **** void EXTI_GenerateSWInterrupt(uint32_t EXTI_Line)
 191:Libraries/STM32F4xx_StdPeriph_Driver/src/stm32f4xx_exti.c **** {
 267              		.loc 1 191 1 is_stmt 1 view -0
 268              		.cfi_startproc
 269              		@ args = 0, pretend = 0, frame = 0
 270              		@ frame_needed = 0, uses_anonymous_args = 0
 271              		@ link register save eliminated.
 192:Libraries/STM32F4xx_StdPeriph_Driver/src/stm32f4xx_exti.c ****   /* Check the parameters */
 193:Libraries/STM32F4xx_StdPeriph_Driver/src/stm32f4xx_exti.c ****   assert_param(IS_EXTI_LINE(EXTI_Line));
 272              		.loc 1 193 3 view .LVU81
 194:Libraries/STM32F4xx_StdPeriph_Driver/src/stm32f4xx_exti.c ****   
 195:Libraries/STM32F4xx_StdPeriph_Driver/src/stm32f4xx_exti.c ****   EXTI->SWIER |= EXTI_Line;
 273              		.loc 1 195 3 view .LVU82
 274              		.loc 1 195 15 is_stmt 0 view .LVU83
 275 0000 024A     		ldr	r2, .L17
 276 0002 1369     		ldr	r3, [r2, #16]
 277 0004 0343     		orrs	r3, r3, r0
 278 0006 1361     		str	r3, [r2, #16]
 196:Libraries/STM32F4xx_StdPeriph_Driver/src/stm32f4xx_exti.c **** }
 279              		.loc 1 196 1 view .LVU84
 280 0008 7047     		bx	lr
 281              	.L18:
 282 000a 00BF     		.align	2
 283              	.L17:
 284 000c 003C0140 		.word	1073822720
 285              		.cfi_endproc
 286              	.LFE126:
 288              		.section	.text.EXTI_GetFlagStatus,"ax",%progbits
 289              		.align	1
 290              		.global	EXTI_GetFlagStatus
 291              		.syntax unified
 292              		.thumb
 293              		.thumb_func
 294              		.fpu fpv4-sp-d16
 296              	EXTI_GetFlagStatus:
 297              	.LVL10:
 298              	.LFB127:
 197:Libraries/STM32F4xx_StdPeriph_Driver/src/stm32f4xx_exti.c **** 
 198:Libraries/STM32F4xx_StdPeriph_Driver/src/stm32f4xx_exti.c **** /**
 199:Libraries/STM32F4xx_StdPeriph_Driver/src/stm32f4xx_exti.c ****   * @}
 200:Libraries/STM32F4xx_StdPeriph_Driver/src/stm32f4xx_exti.c ****   */
 201:Libraries/STM32F4xx_StdPeriph_Driver/src/stm32f4xx_exti.c **** 
 202:Libraries/STM32F4xx_StdPeriph_Driver/src/stm32f4xx_exti.c **** /** @defgroup EXTI_Group2 Interrupts and flags management functions
 203:Libraries/STM32F4xx_StdPeriph_Driver/src/stm32f4xx_exti.c ****  *  @brief   Interrupts and flags management functions 
 204:Libraries/STM32F4xx_StdPeriph_Driver/src/stm32f4xx_exti.c ****  *
 205:Libraries/STM32F4xx_StdPeriph_Driver/src/stm32f4xx_exti.c **** @verbatim   
 206:Libraries/STM32F4xx_StdPeriph_Driver/src/stm32f4xx_exti.c ****  ===============================================================================
 207:Libraries/STM32F4xx_StdPeriph_Driver/src/stm32f4xx_exti.c ****              ##### Interrupts and flags management functions #####
 208:Libraries/STM32F4xx_StdPeriph_Driver/src/stm32f4xx_exti.c ****  ===============================================================================
ARM GAS  /tmp/ccocAaWP.s 			page 10


 209:Libraries/STM32F4xx_StdPeriph_Driver/src/stm32f4xx_exti.c **** 
 210:Libraries/STM32F4xx_StdPeriph_Driver/src/stm32f4xx_exti.c **** @endverbatim
 211:Libraries/STM32F4xx_StdPeriph_Driver/src/stm32f4xx_exti.c ****   * @{
 212:Libraries/STM32F4xx_StdPeriph_Driver/src/stm32f4xx_exti.c ****   */
 213:Libraries/STM32F4xx_StdPeriph_Driver/src/stm32f4xx_exti.c **** 
 214:Libraries/STM32F4xx_StdPeriph_Driver/src/stm32f4xx_exti.c **** /**
 215:Libraries/STM32F4xx_StdPeriph_Driver/src/stm32f4xx_exti.c ****   * @brief  Checks whether the specified EXTI line flag is set or not.
 216:Libraries/STM32F4xx_StdPeriph_Driver/src/stm32f4xx_exti.c ****   * @param  EXTI_Line: specifies the EXTI line flag to check.
 217:Libraries/STM32F4xx_StdPeriph_Driver/src/stm32f4xx_exti.c ****   *          This parameter can be EXTI_Linex where x can be(0..22)
 218:Libraries/STM32F4xx_StdPeriph_Driver/src/stm32f4xx_exti.c ****   * @retval The new state of EXTI_Line (SET or RESET).
 219:Libraries/STM32F4xx_StdPeriph_Driver/src/stm32f4xx_exti.c ****   */
 220:Libraries/STM32F4xx_StdPeriph_Driver/src/stm32f4xx_exti.c **** FlagStatus EXTI_GetFlagStatus(uint32_t EXTI_Line)
 221:Libraries/STM32F4xx_StdPeriph_Driver/src/stm32f4xx_exti.c **** {
 299              		.loc 1 221 1 is_stmt 1 view -0
 300              		.cfi_startproc
 301              		@ args = 0, pretend = 0, frame = 0
 302              		@ frame_needed = 0, uses_anonymous_args = 0
 303              		@ link register save eliminated.
 222:Libraries/STM32F4xx_StdPeriph_Driver/src/stm32f4xx_exti.c ****   FlagStatus bitstatus = RESET;
 304              		.loc 1 222 3 view .LVU86
 223:Libraries/STM32F4xx_StdPeriph_Driver/src/stm32f4xx_exti.c ****   /* Check the parameters */
 224:Libraries/STM32F4xx_StdPeriph_Driver/src/stm32f4xx_exti.c ****   assert_param(IS_GET_EXTI_LINE(EXTI_Line));
 305              		.loc 1 224 3 view .LVU87
 225:Libraries/STM32F4xx_StdPeriph_Driver/src/stm32f4xx_exti.c ****   
 226:Libraries/STM32F4xx_StdPeriph_Driver/src/stm32f4xx_exti.c ****   if ((EXTI->PR & EXTI_Line) != (uint32_t)RESET)
 306              		.loc 1 226 3 view .LVU88
 307              		.loc 1 226 12 is_stmt 0 view .LVU89
 308 0000 034B     		ldr	r3, .L22
 309 0002 5B69     		ldr	r3, [r3, #20]
 310              		.loc 1 226 6 view .LVU90
 311 0004 0342     		tst	r3, r0
 312 0006 01D0     		beq	.L21
 227:Libraries/STM32F4xx_StdPeriph_Driver/src/stm32f4xx_exti.c ****   {
 228:Libraries/STM32F4xx_StdPeriph_Driver/src/stm32f4xx_exti.c ****     bitstatus = SET;
 313              		.loc 1 228 15 view .LVU91
 314 0008 0120     		movs	r0, #1
 315              	.LVL11:
 316              		.loc 1 228 15 view .LVU92
 317 000a 7047     		bx	lr
 318              	.LVL12:
 319              	.L21:
 229:Libraries/STM32F4xx_StdPeriph_Driver/src/stm32f4xx_exti.c ****   }
 230:Libraries/STM32F4xx_StdPeriph_Driver/src/stm32f4xx_exti.c ****   else
 231:Libraries/STM32F4xx_StdPeriph_Driver/src/stm32f4xx_exti.c ****   {
 232:Libraries/STM32F4xx_StdPeriph_Driver/src/stm32f4xx_exti.c ****     bitstatus = RESET;
 320              		.loc 1 232 15 view .LVU93
 321 000c 0020     		movs	r0, #0
 322              	.LVL13:
 233:Libraries/STM32F4xx_StdPeriph_Driver/src/stm32f4xx_exti.c ****   }
 234:Libraries/STM32F4xx_StdPeriph_Driver/src/stm32f4xx_exti.c ****   return bitstatus;
 323              		.loc 1 234 3 is_stmt 1 view .LVU94
 235:Libraries/STM32F4xx_StdPeriph_Driver/src/stm32f4xx_exti.c **** }
 324              		.loc 1 235 1 is_stmt 0 view .LVU95
 325 000e 7047     		bx	lr
 326              	.L23:
 327              		.align	2
 328              	.L22:
ARM GAS  /tmp/ccocAaWP.s 			page 11


 329 0010 003C0140 		.word	1073822720
 330              		.cfi_endproc
 331              	.LFE127:
 333              		.section	.text.EXTI_ClearFlag,"ax",%progbits
 334              		.align	1
 335              		.global	EXTI_ClearFlag
 336              		.syntax unified
 337              		.thumb
 338              		.thumb_func
 339              		.fpu fpv4-sp-d16
 341              	EXTI_ClearFlag:
 342              	.LVL14:
 343              	.LFB128:
 236:Libraries/STM32F4xx_StdPeriph_Driver/src/stm32f4xx_exti.c **** 
 237:Libraries/STM32F4xx_StdPeriph_Driver/src/stm32f4xx_exti.c **** /**
 238:Libraries/STM32F4xx_StdPeriph_Driver/src/stm32f4xx_exti.c ****   * @brief  Clears the EXTI's line pending flags.
 239:Libraries/STM32F4xx_StdPeriph_Driver/src/stm32f4xx_exti.c ****   * @param  EXTI_Line: specifies the EXTI lines flags to clear.
 240:Libraries/STM32F4xx_StdPeriph_Driver/src/stm32f4xx_exti.c ****   *          This parameter can be any combination of EXTI_Linex where x can be (0..22)
 241:Libraries/STM32F4xx_StdPeriph_Driver/src/stm32f4xx_exti.c ****   * @retval None
 242:Libraries/STM32F4xx_StdPeriph_Driver/src/stm32f4xx_exti.c ****   */
 243:Libraries/STM32F4xx_StdPeriph_Driver/src/stm32f4xx_exti.c **** void EXTI_ClearFlag(uint32_t EXTI_Line)
 244:Libraries/STM32F4xx_StdPeriph_Driver/src/stm32f4xx_exti.c **** {
 344              		.loc 1 244 1 is_stmt 1 view -0
 345              		.cfi_startproc
 346              		@ args = 0, pretend = 0, frame = 0
 347              		@ frame_needed = 0, uses_anonymous_args = 0
 348              		@ link register save eliminated.
 245:Libraries/STM32F4xx_StdPeriph_Driver/src/stm32f4xx_exti.c ****   /* Check the parameters */
 246:Libraries/STM32F4xx_StdPeriph_Driver/src/stm32f4xx_exti.c ****   assert_param(IS_EXTI_LINE(EXTI_Line));
 349              		.loc 1 246 3 view .LVU97
 247:Libraries/STM32F4xx_StdPeriph_Driver/src/stm32f4xx_exti.c ****   
 248:Libraries/STM32F4xx_StdPeriph_Driver/src/stm32f4xx_exti.c ****   EXTI->PR = EXTI_Line;
 350              		.loc 1 248 3 view .LVU98
 351              		.loc 1 248 12 is_stmt 0 view .LVU99
 352 0000 014B     		ldr	r3, .L25
 353 0002 5861     		str	r0, [r3, #20]
 249:Libraries/STM32F4xx_StdPeriph_Driver/src/stm32f4xx_exti.c **** }
 354              		.loc 1 249 1 view .LVU100
 355 0004 7047     		bx	lr
 356              	.L26:
 357 0006 00BF     		.align	2
 358              	.L25:
 359 0008 003C0140 		.word	1073822720
 360              		.cfi_endproc
 361              	.LFE128:
 363              		.section	.text.EXTI_GetITStatus,"ax",%progbits
 364              		.align	1
 365              		.global	EXTI_GetITStatus
 366              		.syntax unified
 367              		.thumb
 368              		.thumb_func
 369              		.fpu fpv4-sp-d16
 371              	EXTI_GetITStatus:
 372              	.LVL15:
 373              	.LFB129:
 250:Libraries/STM32F4xx_StdPeriph_Driver/src/stm32f4xx_exti.c **** 
 251:Libraries/STM32F4xx_StdPeriph_Driver/src/stm32f4xx_exti.c **** /**
ARM GAS  /tmp/ccocAaWP.s 			page 12


 252:Libraries/STM32F4xx_StdPeriph_Driver/src/stm32f4xx_exti.c ****   * @brief  Checks whether the specified EXTI line is asserted or not.
 253:Libraries/STM32F4xx_StdPeriph_Driver/src/stm32f4xx_exti.c ****   * @param  EXTI_Line: specifies the EXTI line to check.
 254:Libraries/STM32F4xx_StdPeriph_Driver/src/stm32f4xx_exti.c ****   *          This parameter can be EXTI_Linex where x can be(0..22)
 255:Libraries/STM32F4xx_StdPeriph_Driver/src/stm32f4xx_exti.c ****   * @retval The new state of EXTI_Line (SET or RESET).
 256:Libraries/STM32F4xx_StdPeriph_Driver/src/stm32f4xx_exti.c ****   */
 257:Libraries/STM32F4xx_StdPeriph_Driver/src/stm32f4xx_exti.c **** ITStatus EXTI_GetITStatus(uint32_t EXTI_Line)
 258:Libraries/STM32F4xx_StdPeriph_Driver/src/stm32f4xx_exti.c **** {
 374              		.loc 1 258 1 is_stmt 1 view -0
 375              		.cfi_startproc
 376              		@ args = 0, pretend = 0, frame = 0
 377              		@ frame_needed = 0, uses_anonymous_args = 0
 378              		@ link register save eliminated.
 259:Libraries/STM32F4xx_StdPeriph_Driver/src/stm32f4xx_exti.c ****   FlagStatus bitstatus = RESET;
 379              		.loc 1 259 3 view .LVU102
 260:Libraries/STM32F4xx_StdPeriph_Driver/src/stm32f4xx_exti.c ****   /* Check the parameters */
 261:Libraries/STM32F4xx_StdPeriph_Driver/src/stm32f4xx_exti.c ****   assert_param(IS_GET_EXTI_LINE(EXTI_Line));
 380              		.loc 1 261 3 view .LVU103
 262:Libraries/STM32F4xx_StdPeriph_Driver/src/stm32f4xx_exti.c ****   
 263:Libraries/STM32F4xx_StdPeriph_Driver/src/stm32f4xx_exti.c ****   if ((EXTI->PR & EXTI_Line) != (uint32_t)RESET)
 381              		.loc 1 263 3 view .LVU104
 382              		.loc 1 263 12 is_stmt 0 view .LVU105
 383 0000 034B     		ldr	r3, .L30
 384 0002 5B69     		ldr	r3, [r3, #20]
 385              		.loc 1 263 6 view .LVU106
 386 0004 0342     		tst	r3, r0
 387 0006 01D0     		beq	.L29
 264:Libraries/STM32F4xx_StdPeriph_Driver/src/stm32f4xx_exti.c ****   {
 265:Libraries/STM32F4xx_StdPeriph_Driver/src/stm32f4xx_exti.c ****     bitstatus = SET;
 388              		.loc 1 265 15 view .LVU107
 389 0008 0120     		movs	r0, #1
 390              	.LVL16:
 391              		.loc 1 265 15 view .LVU108
 392 000a 7047     		bx	lr
 393              	.LVL17:
 394              	.L29:
 266:Libraries/STM32F4xx_StdPeriph_Driver/src/stm32f4xx_exti.c ****   }
 267:Libraries/STM32F4xx_StdPeriph_Driver/src/stm32f4xx_exti.c ****   else
 268:Libraries/STM32F4xx_StdPeriph_Driver/src/stm32f4xx_exti.c ****   {
 269:Libraries/STM32F4xx_StdPeriph_Driver/src/stm32f4xx_exti.c ****     bitstatus = RESET;
 395              		.loc 1 269 15 view .LVU109
 396 000c 0020     		movs	r0, #0
 397              	.LVL18:
 270:Libraries/STM32F4xx_StdPeriph_Driver/src/stm32f4xx_exti.c ****   }
 271:Libraries/STM32F4xx_StdPeriph_Driver/src/stm32f4xx_exti.c ****   return bitstatus;
 398              		.loc 1 271 3 is_stmt 1 view .LVU110
 272:Libraries/STM32F4xx_StdPeriph_Driver/src/stm32f4xx_exti.c ****   
 273:Libraries/STM32F4xx_StdPeriph_Driver/src/stm32f4xx_exti.c **** }
 399              		.loc 1 273 1 is_stmt 0 view .LVU111
 400 000e 7047     		bx	lr
 401              	.L31:
 402              		.align	2
 403              	.L30:
 404 0010 003C0140 		.word	1073822720
 405              		.cfi_endproc
 406              	.LFE129:
 408              		.section	.text.EXTI_ClearITPendingBit,"ax",%progbits
 409              		.align	1
ARM GAS  /tmp/ccocAaWP.s 			page 13


 410              		.global	EXTI_ClearITPendingBit
 411              		.syntax unified
 412              		.thumb
 413              		.thumb_func
 414              		.fpu fpv4-sp-d16
 416              	EXTI_ClearITPendingBit:
 417              	.LVL19:
 418              	.LFB130:
 274:Libraries/STM32F4xx_StdPeriph_Driver/src/stm32f4xx_exti.c **** 
 275:Libraries/STM32F4xx_StdPeriph_Driver/src/stm32f4xx_exti.c **** /**
 276:Libraries/STM32F4xx_StdPeriph_Driver/src/stm32f4xx_exti.c ****   * @brief  Clears the EXTI's line pending bits.
 277:Libraries/STM32F4xx_StdPeriph_Driver/src/stm32f4xx_exti.c ****   * @param  EXTI_Line: specifies the EXTI lines to clear.
 278:Libraries/STM32F4xx_StdPeriph_Driver/src/stm32f4xx_exti.c ****   *          This parameter can be any combination of EXTI_Linex where x can be (0..22)
 279:Libraries/STM32F4xx_StdPeriph_Driver/src/stm32f4xx_exti.c ****   * @retval None
 280:Libraries/STM32F4xx_StdPeriph_Driver/src/stm32f4xx_exti.c ****   */
 281:Libraries/STM32F4xx_StdPeriph_Driver/src/stm32f4xx_exti.c **** void EXTI_ClearITPendingBit(uint32_t EXTI_Line)
 282:Libraries/STM32F4xx_StdPeriph_Driver/src/stm32f4xx_exti.c **** {
 419              		.loc 1 282 1 is_stmt 1 view -0
 420              		.cfi_startproc
 421              		@ args = 0, pretend = 0, frame = 0
 422              		@ frame_needed = 0, uses_anonymous_args = 0
 423              		@ link register save eliminated.
 283:Libraries/STM32F4xx_StdPeriph_Driver/src/stm32f4xx_exti.c ****   /* Check the parameters */
 284:Libraries/STM32F4xx_StdPeriph_Driver/src/stm32f4xx_exti.c ****   assert_param(IS_EXTI_LINE(EXTI_Line));
 424              		.loc 1 284 3 view .LVU113
 285:Libraries/STM32F4xx_StdPeriph_Driver/src/stm32f4xx_exti.c ****   
 286:Libraries/STM32F4xx_StdPeriph_Driver/src/stm32f4xx_exti.c ****   EXTI->PR = EXTI_Line;
 425              		.loc 1 286 3 view .LVU114
 426              		.loc 1 286 12 is_stmt 0 view .LVU115
 427 0000 014B     		ldr	r3, .L33
 428 0002 5861     		str	r0, [r3, #20]
 287:Libraries/STM32F4xx_StdPeriph_Driver/src/stm32f4xx_exti.c **** }
 429              		.loc 1 287 1 view .LVU116
 430 0004 7047     		bx	lr
 431              	.L34:
 432 0006 00BF     		.align	2
 433              	.L33:
 434 0008 003C0140 		.word	1073822720
 435              		.cfi_endproc
 436              	.LFE130:
 438              		.text
 439              	.Letext0:
 440              		.file 2 "/home/ktkuri/arm-gcc-tools/arm-none-eabi/include/machine/_default_types.h"
 441              		.file 3 "/home/ktkuri/arm-gcc-tools/arm-none-eabi/include/sys/_stdint.h"
 442              		.file 4 "Libraries/CMSIS/Device/ST/STM32F4xx/Include/stm32f4xx.h"
 443              		.file 5 "Libraries/STM32F4xx_StdPeriph_Driver/inc/stm32f4xx_exti.h"
ARM GAS  /tmp/ccocAaWP.s 			page 14

