ARM GAS  C:\Users\ktkuru\AppData\Local\Temp\cc04RWjJ.s 			page 1


   1              		.cpu cortex-m4
   2              		.arch armv7e-m
   3              		.fpu fpv4-sp-d16
   4              		.eabi_attribute 27, 1
   5              		.eabi_attribute 28, 1
   6              		.eabi_attribute 20, 1
   7              		.eabi_attribute 21, 1
   8              		.eabi_attribute 23, 3
   9              		.eabi_attribute 24, 1
  10              		.eabi_attribute 25, 1
  11              		.eabi_attribute 26, 1
  12              		.eabi_attribute 30, 1
  13              		.eabi_attribute 34, 1
  14              		.eabi_attribute 18, 4
  15              		.file	"stm32f4xx_fmc.c"
  16              		.text
  17              	.Ltext0:
  18              		.cfi_sections	.debug_frame
  19              		.file 1 "libraries/STM32F4xx_StdPeriph_Driver/src/stm32f4xx_fmc.c"
  20              		.section	.text.FMC_NORSRAMDeInit,"ax",%progbits
  21              		.align	1
  22              		.global	FMC_NORSRAMDeInit
  23              		.syntax unified
  24              		.thumb
  25              		.thumb_func
  27              	FMC_NORSRAMDeInit:
  28              	.LVL0:
  29              	.LFB123:
   1:libraries/STM32F4xx_StdPeriph_Driver/src/stm32f4xx_fmc.c **** /**
   2:libraries/STM32F4xx_StdPeriph_Driver/src/stm32f4xx_fmc.c ****   ******************************************************************************
   3:libraries/STM32F4xx_StdPeriph_Driver/src/stm32f4xx_fmc.c ****   * @file    stm32f4xx_fmc.c
   4:libraries/STM32F4xx_StdPeriph_Driver/src/stm32f4xx_fmc.c ****   * @author  MCD Application Team
   5:libraries/STM32F4xx_StdPeriph_Driver/src/stm32f4xx_fmc.c ****   * @version V1.8.1
   6:libraries/STM32F4xx_StdPeriph_Driver/src/stm32f4xx_fmc.c ****   * @date    27-January-2022
   7:libraries/STM32F4xx_StdPeriph_Driver/src/stm32f4xx_fmc.c ****   * @brief   This file provides firmware functions to manage the following 
   8:libraries/STM32F4xx_StdPeriph_Driver/src/stm32f4xx_fmc.c ****   *          functionalities of the FMC peripheral:           
   9:libraries/STM32F4xx_StdPeriph_Driver/src/stm32f4xx_fmc.c ****   *           + Interface with SRAM, PSRAM, NOR and OneNAND memories
  10:libraries/STM32F4xx_StdPeriph_Driver/src/stm32f4xx_fmc.c ****   *           + Interface with NAND memories
  11:libraries/STM32F4xx_StdPeriph_Driver/src/stm32f4xx_fmc.c ****   *           + Interface with 16-bit PC Card compatible memories 
  12:libraries/STM32F4xx_StdPeriph_Driver/src/stm32f4xx_fmc.c ****   *           + Interface with SDRAM memories    
  13:libraries/STM32F4xx_StdPeriph_Driver/src/stm32f4xx_fmc.c ****   *           + Interrupts and flags management   
  14:libraries/STM32F4xx_StdPeriph_Driver/src/stm32f4xx_fmc.c ****   *           
  15:libraries/STM32F4xx_StdPeriph_Driver/src/stm32f4xx_fmc.c ****   ******************************************************************************
  16:libraries/STM32F4xx_StdPeriph_Driver/src/stm32f4xx_fmc.c ****   * @attention
  17:libraries/STM32F4xx_StdPeriph_Driver/src/stm32f4xx_fmc.c ****   *
  18:libraries/STM32F4xx_StdPeriph_Driver/src/stm32f4xx_fmc.c ****   * Copyright (c) 2016 STMicroelectronics.
  19:libraries/STM32F4xx_StdPeriph_Driver/src/stm32f4xx_fmc.c ****   * All rights reserved.
  20:libraries/STM32F4xx_StdPeriph_Driver/src/stm32f4xx_fmc.c ****   *
  21:libraries/STM32F4xx_StdPeriph_Driver/src/stm32f4xx_fmc.c ****   * This software is licensed under terms that can be found in the LICENSE file
  22:libraries/STM32F4xx_StdPeriph_Driver/src/stm32f4xx_fmc.c ****   * in the root directory of this software component.
  23:libraries/STM32F4xx_StdPeriph_Driver/src/stm32f4xx_fmc.c ****   * If no LICENSE file comes with this software, it is provided AS-IS.
  24:libraries/STM32F4xx_StdPeriph_Driver/src/stm32f4xx_fmc.c ****   *
  25:libraries/STM32F4xx_StdPeriph_Driver/src/stm32f4xx_fmc.c ****   ******************************************************************************
  26:libraries/STM32F4xx_StdPeriph_Driver/src/stm32f4xx_fmc.c ****   */
  27:libraries/STM32F4xx_StdPeriph_Driver/src/stm32f4xx_fmc.c **** 
  28:libraries/STM32F4xx_StdPeriph_Driver/src/stm32f4xx_fmc.c **** /* Includes ------------------------------------------------------------------*/
  29:libraries/STM32F4xx_StdPeriph_Driver/src/stm32f4xx_fmc.c **** #include "stm32f4xx_fmc.h"
ARM GAS  C:\Users\ktkuru\AppData\Local\Temp\cc04RWjJ.s 			page 2


  30:libraries/STM32F4xx_StdPeriph_Driver/src/stm32f4xx_fmc.c **** #include "stm32f4xx_rcc.h"
  31:libraries/STM32F4xx_StdPeriph_Driver/src/stm32f4xx_fmc.c **** 
  32:libraries/STM32F4xx_StdPeriph_Driver/src/stm32f4xx_fmc.c **** /** @addtogroup STM32F4xx_StdPeriph_Driver
  33:libraries/STM32F4xx_StdPeriph_Driver/src/stm32f4xx_fmc.c ****   * @{
  34:libraries/STM32F4xx_StdPeriph_Driver/src/stm32f4xx_fmc.c ****   */
  35:libraries/STM32F4xx_StdPeriph_Driver/src/stm32f4xx_fmc.c **** 
  36:libraries/STM32F4xx_StdPeriph_Driver/src/stm32f4xx_fmc.c **** /** @defgroup FMC 
  37:libraries/STM32F4xx_StdPeriph_Driver/src/stm32f4xx_fmc.c ****   * @brief FMC driver modules
  38:libraries/STM32F4xx_StdPeriph_Driver/src/stm32f4xx_fmc.c ****   * @{
  39:libraries/STM32F4xx_StdPeriph_Driver/src/stm32f4xx_fmc.c ****   */ 
  40:libraries/STM32F4xx_StdPeriph_Driver/src/stm32f4xx_fmc.c **** 
  41:libraries/STM32F4xx_StdPeriph_Driver/src/stm32f4xx_fmc.c **** /* Private typedef -----------------------------------------------------------*/
  42:libraries/STM32F4xx_StdPeriph_Driver/src/stm32f4xx_fmc.c **** const FMC_NORSRAMTimingInitTypeDef FMC_DefaultTimingStruct = {0x0F, /* FMC_AddressSetupTime */
  43:libraries/STM32F4xx_StdPeriph_Driver/src/stm32f4xx_fmc.c ****                                                               0x0F, /* FMC_AddressHoldTime */
  44:libraries/STM32F4xx_StdPeriph_Driver/src/stm32f4xx_fmc.c ****                                                               0xFF, /* FMC_DataSetupTime */
  45:libraries/STM32F4xx_StdPeriph_Driver/src/stm32f4xx_fmc.c ****                                                               0x0F, /* FMC_BusTurnAroundDuration */
  46:libraries/STM32F4xx_StdPeriph_Driver/src/stm32f4xx_fmc.c ****                                                               0x0F, /* FMC_CLKDivision */
  47:libraries/STM32F4xx_StdPeriph_Driver/src/stm32f4xx_fmc.c ****                                                               0x0F, /* FMC_DataLatency */
  48:libraries/STM32F4xx_StdPeriph_Driver/src/stm32f4xx_fmc.c ****                                                               FMC_AccessMode_A /* FMC_AccessMode */
  49:libraries/STM32F4xx_StdPeriph_Driver/src/stm32f4xx_fmc.c ****                                                               };
  50:libraries/STM32F4xx_StdPeriph_Driver/src/stm32f4xx_fmc.c **** /* --------------------- FMC registers bit mask ---------------------------- */
  51:libraries/STM32F4xx_StdPeriph_Driver/src/stm32f4xx_fmc.c **** /* FMC BCRx Mask */
  52:libraries/STM32F4xx_StdPeriph_Driver/src/stm32f4xx_fmc.c **** #define BCR_MBKEN_SET              ((uint32_t)0x00000001)
  53:libraries/STM32F4xx_StdPeriph_Driver/src/stm32f4xx_fmc.c **** #define BCR_MBKEN_RESET            ((uint32_t)0x000FFFFE)
  54:libraries/STM32F4xx_StdPeriph_Driver/src/stm32f4xx_fmc.c **** #define BCR_FACCEN_SET             ((uint32_t)0x00000040)
  55:libraries/STM32F4xx_StdPeriph_Driver/src/stm32f4xx_fmc.c **** 
  56:libraries/STM32F4xx_StdPeriph_Driver/src/stm32f4xx_fmc.c **** /* FMC PCRx Mask */
  57:libraries/STM32F4xx_StdPeriph_Driver/src/stm32f4xx_fmc.c **** #define PCR_PBKEN_SET              ((uint32_t)0x00000004)
  58:libraries/STM32F4xx_StdPeriph_Driver/src/stm32f4xx_fmc.c **** #define PCR_PBKEN_RESET            ((uint32_t)0x000FFFFB)
  59:libraries/STM32F4xx_StdPeriph_Driver/src/stm32f4xx_fmc.c **** #define PCR_ECCEN_SET              ((uint32_t)0x00000040)
  60:libraries/STM32F4xx_StdPeriph_Driver/src/stm32f4xx_fmc.c **** #define PCR_ECCEN_RESET            ((uint32_t)0x000FFFBF)
  61:libraries/STM32F4xx_StdPeriph_Driver/src/stm32f4xx_fmc.c **** #define PCR_MEMORYTYPE_NAND        ((uint32_t)0x00000008)
  62:libraries/STM32F4xx_StdPeriph_Driver/src/stm32f4xx_fmc.c **** 
  63:libraries/STM32F4xx_StdPeriph_Driver/src/stm32f4xx_fmc.c **** /* FMC SDCRx write protection Mask*/
  64:libraries/STM32F4xx_StdPeriph_Driver/src/stm32f4xx_fmc.c **** #define SDCR_WriteProtection_RESET ((uint32_t)0x00007DFF) 
  65:libraries/STM32F4xx_StdPeriph_Driver/src/stm32f4xx_fmc.c **** 
  66:libraries/STM32F4xx_StdPeriph_Driver/src/stm32f4xx_fmc.c **** /* FMC SDCMR Mask*/
  67:libraries/STM32F4xx_StdPeriph_Driver/src/stm32f4xx_fmc.c **** #define SDCMR_CTB1_RESET           ((uint32_t)0x003FFFEF)
  68:libraries/STM32F4xx_StdPeriph_Driver/src/stm32f4xx_fmc.c **** #define SDCMR_CTB2_RESET           ((uint32_t)0x003FFFF7)
  69:libraries/STM32F4xx_StdPeriph_Driver/src/stm32f4xx_fmc.c **** #define SDCMR_CTB1_2_RESET         ((uint32_t)0x003FFFE7)
  70:libraries/STM32F4xx_StdPeriph_Driver/src/stm32f4xx_fmc.c **** 
  71:libraries/STM32F4xx_StdPeriph_Driver/src/stm32f4xx_fmc.c **** /* Private macro -------------------------------------------------------------*/
  72:libraries/STM32F4xx_StdPeriph_Driver/src/stm32f4xx_fmc.c **** /* Private variables ---------------------------------------------------------*/
  73:libraries/STM32F4xx_StdPeriph_Driver/src/stm32f4xx_fmc.c **** /* Private function prototypes -----------------------------------------------*/
  74:libraries/STM32F4xx_StdPeriph_Driver/src/stm32f4xx_fmc.c **** /* Private functions ---------------------------------------------------------*/
  75:libraries/STM32F4xx_StdPeriph_Driver/src/stm32f4xx_fmc.c **** 
  76:libraries/STM32F4xx_StdPeriph_Driver/src/stm32f4xx_fmc.c **** /** @defgroup FMC_Private_Functions
  77:libraries/STM32F4xx_StdPeriph_Driver/src/stm32f4xx_fmc.c ****   * @{
  78:libraries/STM32F4xx_StdPeriph_Driver/src/stm32f4xx_fmc.c ****   */
  79:libraries/STM32F4xx_StdPeriph_Driver/src/stm32f4xx_fmc.c **** 
  80:libraries/STM32F4xx_StdPeriph_Driver/src/stm32f4xx_fmc.c **** /** @defgroup FMC_Group1 NOR/SRAM Controller functions
  81:libraries/STM32F4xx_StdPeriph_Driver/src/stm32f4xx_fmc.c ****   * @brief    NOR/SRAM Controller functions 
  82:libraries/STM32F4xx_StdPeriph_Driver/src/stm32f4xx_fmc.c ****   *
  83:libraries/STM32F4xx_StdPeriph_Driver/src/stm32f4xx_fmc.c **** @verbatim   
  84:libraries/STM32F4xx_StdPeriph_Driver/src/stm32f4xx_fmc.c ****  ===============================================================================
  85:libraries/STM32F4xx_StdPeriph_Driver/src/stm32f4xx_fmc.c ****                     ##### NOR and SRAM Controller functions #####
  86:libraries/STM32F4xx_StdPeriph_Driver/src/stm32f4xx_fmc.c ****  ===============================================================================  
ARM GAS  C:\Users\ktkuru\AppData\Local\Temp\cc04RWjJ.s 			page 3


  87:libraries/STM32F4xx_StdPeriph_Driver/src/stm32f4xx_fmc.c **** 
  88:libraries/STM32F4xx_StdPeriph_Driver/src/stm32f4xx_fmc.c ****  [..] The following sequence should be followed to configure the FMC to interface
  89:libraries/STM32F4xx_StdPeriph_Driver/src/stm32f4xx_fmc.c ****       with SRAM, PSRAM, NOR or OneNAND memory connected to the NOR/SRAM Bank:
  90:libraries/STM32F4xx_StdPeriph_Driver/src/stm32f4xx_fmc.c ****  
  91:libraries/STM32F4xx_StdPeriph_Driver/src/stm32f4xx_fmc.c ****    (#) Enable the clock for the FMC and associated GPIOs using the following functions:
  92:libraries/STM32F4xx_StdPeriph_Driver/src/stm32f4xx_fmc.c ****           RCC_AHB3PeriphClockCmd(RCC_AHB3Periph_FMC, ENABLE);
  93:libraries/STM32F4xx_StdPeriph_Driver/src/stm32f4xx_fmc.c ****           RCC_AHB1PeriphClockCmd(RCC_AHB1Periph_GPIOx, ENABLE);
  94:libraries/STM32F4xx_StdPeriph_Driver/src/stm32f4xx_fmc.c **** 
  95:libraries/STM32F4xx_StdPeriph_Driver/src/stm32f4xx_fmc.c ****    (#) FMC pins configuration 
  96:libraries/STM32F4xx_StdPeriph_Driver/src/stm32f4xx_fmc.c ****        (++) Connect the involved FMC pins to AF12 using the following function 
  97:libraries/STM32F4xx_StdPeriph_Driver/src/stm32f4xx_fmc.c ****             GPIO_PinAFConfig(GPIOx, GPIO_PinSourcex, GPIO_AF_FMC); 
  98:libraries/STM32F4xx_StdPeriph_Driver/src/stm32f4xx_fmc.c ****        (++) Configure these FMC pins in alternate function mode by calling the function
  99:libraries/STM32F4xx_StdPeriph_Driver/src/stm32f4xx_fmc.c ****             GPIO_Init();    
 100:libraries/STM32F4xx_StdPeriph_Driver/src/stm32f4xx_fmc.c ****        
 101:libraries/STM32F4xx_StdPeriph_Driver/src/stm32f4xx_fmc.c ****    (#) Declare a FMC_NORSRAMInitTypeDef structure, for example:
 102:libraries/STM32F4xx_StdPeriph_Driver/src/stm32f4xx_fmc.c ****           FMC_NORSRAMInitTypeDef  FMC_NORSRAMInitStructure;
 103:libraries/STM32F4xx_StdPeriph_Driver/src/stm32f4xx_fmc.c ****       and fill the FMC_NORSRAMInitStructure variable with the allowed values of
 104:libraries/STM32F4xx_StdPeriph_Driver/src/stm32f4xx_fmc.c ****       the structure member.
 105:libraries/STM32F4xx_StdPeriph_Driver/src/stm32f4xx_fmc.c ****       
 106:libraries/STM32F4xx_StdPeriph_Driver/src/stm32f4xx_fmc.c ****    (#) Initialize the NOR/SRAM Controller by calling the function
 107:libraries/STM32F4xx_StdPeriph_Driver/src/stm32f4xx_fmc.c ****           FMC_NORSRAMInit(&FMC_NORSRAMInitStructure); 
 108:libraries/STM32F4xx_StdPeriph_Driver/src/stm32f4xx_fmc.c **** 
 109:libraries/STM32F4xx_StdPeriph_Driver/src/stm32f4xx_fmc.c ****    (#) Then enable the NOR/SRAM Bank, for example:
 110:libraries/STM32F4xx_StdPeriph_Driver/src/stm32f4xx_fmc.c ****           FMC_NORSRAMCmd(FMC_Bank1_NORSRAM2, ENABLE);  
 111:libraries/STM32F4xx_StdPeriph_Driver/src/stm32f4xx_fmc.c **** 
 112:libraries/STM32F4xx_StdPeriph_Driver/src/stm32f4xx_fmc.c ****    (#) At this stage you can read/write from/to the memory connected to the NOR/SRAM Bank. 
 113:libraries/STM32F4xx_StdPeriph_Driver/src/stm32f4xx_fmc.c ****    
 114:libraries/STM32F4xx_StdPeriph_Driver/src/stm32f4xx_fmc.c **** @endverbatim
 115:libraries/STM32F4xx_StdPeriph_Driver/src/stm32f4xx_fmc.c ****   * @{
 116:libraries/STM32F4xx_StdPeriph_Driver/src/stm32f4xx_fmc.c ****   */
 117:libraries/STM32F4xx_StdPeriph_Driver/src/stm32f4xx_fmc.c **** 
 118:libraries/STM32F4xx_StdPeriph_Driver/src/stm32f4xx_fmc.c **** /**
 119:libraries/STM32F4xx_StdPeriph_Driver/src/stm32f4xx_fmc.c ****   * @brief  De-initializes the FMC NOR/SRAM Banks registers to their default 
 120:libraries/STM32F4xx_StdPeriph_Driver/src/stm32f4xx_fmc.c ****   *   reset values.
 121:libraries/STM32F4xx_StdPeriph_Driver/src/stm32f4xx_fmc.c ****   * @param  FMC_Bank: specifies the FMC Bank to be used
 122:libraries/STM32F4xx_StdPeriph_Driver/src/stm32f4xx_fmc.c ****   *          This parameter can be one of the following values:
 123:libraries/STM32F4xx_StdPeriph_Driver/src/stm32f4xx_fmc.c ****   *            @arg FMC_Bank1_NORSRAM1: FMC Bank1 NOR/SRAM1  
 124:libraries/STM32F4xx_StdPeriph_Driver/src/stm32f4xx_fmc.c ****   *            @arg FMC_Bank1_NORSRAM2: FMC Bank1 NOR/SRAM2 
 125:libraries/STM32F4xx_StdPeriph_Driver/src/stm32f4xx_fmc.c ****   *            @arg FMC_Bank1_NORSRAM3: FMC Bank1 NOR/SRAM3 
 126:libraries/STM32F4xx_StdPeriph_Driver/src/stm32f4xx_fmc.c ****   *            @arg FMC_Bank1_NORSRAM4: FMC Bank1 NOR/SRAM4 
 127:libraries/STM32F4xx_StdPeriph_Driver/src/stm32f4xx_fmc.c ****   * @retval None
 128:libraries/STM32F4xx_StdPeriph_Driver/src/stm32f4xx_fmc.c ****   */
 129:libraries/STM32F4xx_StdPeriph_Driver/src/stm32f4xx_fmc.c **** void FMC_NORSRAMDeInit(uint32_t FMC_Bank)
 130:libraries/STM32F4xx_StdPeriph_Driver/src/stm32f4xx_fmc.c **** {
  30              		.loc 1 130 1 view -0
  31              		.cfi_startproc
  32              		@ args = 0, pretend = 0, frame = 0
  33              		@ frame_needed = 0, uses_anonymous_args = 0
  34              		@ link register save eliminated.
 131:libraries/STM32F4xx_StdPeriph_Driver/src/stm32f4xx_fmc.c ****   /* Check the parameter */
 132:libraries/STM32F4xx_StdPeriph_Driver/src/stm32f4xx_fmc.c ****   assert_param(IS_FMC_NORSRAM_BANK(FMC_Bank));
  35              		.loc 1 132 3 view .LVU1
 133:libraries/STM32F4xx_StdPeriph_Driver/src/stm32f4xx_fmc.c ****   
 134:libraries/STM32F4xx_StdPeriph_Driver/src/stm32f4xx_fmc.c ****   /* FMC_Bank1_NORSRAM1 */
 135:libraries/STM32F4xx_StdPeriph_Driver/src/stm32f4xx_fmc.c ****   if(FMC_Bank == FMC_Bank1_NORSRAM1)
  36              		.loc 1 135 3 view .LVU2
  37              		.loc 1 135 5 is_stmt 0 view .LVU3
ARM GAS  C:\Users\ktkuru\AppData\Local\Temp\cc04RWjJ.s 			page 4


  38 0000 0346     		mov	r3, r0
  39 0002 88B9     		cbnz	r0, .L2
 136:libraries/STM32F4xx_StdPeriph_Driver/src/stm32f4xx_fmc.c ****   {
 137:libraries/STM32F4xx_StdPeriph_Driver/src/stm32f4xx_fmc.c ****     FMC_Bank1->BTCR[FMC_Bank] = 0x000030DB;    
  40              		.loc 1 137 5 is_stmt 1 view .LVU4
  41              		.loc 1 137 31 is_stmt 0 view .LVU5
  42 0004 4FF02042 		mov	r2, #-1610612736
  43 0008 43F2DB01 		movw	r1, #12507
  44 000c 42F82010 		str	r1, [r2, r0, lsl #2]
  45              	.L3:
 138:libraries/STM32F4xx_StdPeriph_Driver/src/stm32f4xx_fmc.c ****   }
 139:libraries/STM32F4xx_StdPeriph_Driver/src/stm32f4xx_fmc.c ****   /* FMC_Bank1_NORSRAM2,  FMC_Bank1_NORSRAM3 or FMC_Bank1_NORSRAM4 */
 140:libraries/STM32F4xx_StdPeriph_Driver/src/stm32f4xx_fmc.c ****   else
 141:libraries/STM32F4xx_StdPeriph_Driver/src/stm32f4xx_fmc.c ****   {   
 142:libraries/STM32F4xx_StdPeriph_Driver/src/stm32f4xx_fmc.c ****     FMC_Bank1->BTCR[FMC_Bank] = 0x000030D2; 
 143:libraries/STM32F4xx_StdPeriph_Driver/src/stm32f4xx_fmc.c ****   }
 144:libraries/STM32F4xx_StdPeriph_Driver/src/stm32f4xx_fmc.c ****   FMC_Bank1->BTCR[FMC_Bank + 1] = 0x0FFFFFFF;
  46              		.loc 1 144 3 is_stmt 1 view .LVU6
  47              		.loc 1 144 28 is_stmt 0 view .LVU7
  48 0010 581C     		adds	r0, r3, #1
  49              	.LVL1:
  50              		.loc 1 144 33 view .LVU8
  51 0012 6FF07042 		mvn	r2, #-268435456
  52 0016 4FF02041 		mov	r1, #-1610612736
  53 001a 41F82020 		str	r2, [r1, r0, lsl #2]
 145:libraries/STM32F4xx_StdPeriph_Driver/src/stm32f4xx_fmc.c ****   FMC_Bank1E->BWTR[FMC_Bank] = 0x0FFFFFFF;  
  54              		.loc 1 145 3 is_stmt 1 view .LVU9
  55              		.loc 1 145 30 is_stmt 0 view .LVU10
  56 001e 9B00     		lsls	r3, r3, #2
  57              	.LVL2:
  58              		.loc 1 145 30 view .LVU11
  59 0020 0B44     		add	r3, r3, r1
  60 0022 C3F80421 		str	r2, [r3, #260]
 146:libraries/STM32F4xx_StdPeriph_Driver/src/stm32f4xx_fmc.c **** }
  61              		.loc 1 146 1 view .LVU12
  62 0026 7047     		bx	lr
  63              	.LVL3:
  64              	.L2:
 142:libraries/STM32F4xx_StdPeriph_Driver/src/stm32f4xx_fmc.c ****   }
  65              		.loc 1 142 5 is_stmt 1 view .LVU13
 142:libraries/STM32F4xx_StdPeriph_Driver/src/stm32f4xx_fmc.c ****   }
  66              		.loc 1 142 31 is_stmt 0 view .LVU14
  67 0028 4FF02042 		mov	r2, #-1610612736
  68 002c 43F2D201 		movw	r1, #12498
  69 0030 42F82010 		str	r1, [r2, r0, lsl #2]
  70 0034 ECE7     		b	.L3
  71              		.cfi_endproc
  72              	.LFE123:
  74              		.section	.text.FMC_NORSRAMInit,"ax",%progbits
  75              		.align	1
  76              		.global	FMC_NORSRAMInit
  77              		.syntax unified
  78              		.thumb
  79              		.thumb_func
  81              	FMC_NORSRAMInit:
  82              	.LVL4:
  83              	.LFB124:
ARM GAS  C:\Users\ktkuru\AppData\Local\Temp\cc04RWjJ.s 			page 5


 147:libraries/STM32F4xx_StdPeriph_Driver/src/stm32f4xx_fmc.c **** 
 148:libraries/STM32F4xx_StdPeriph_Driver/src/stm32f4xx_fmc.c **** /**
 149:libraries/STM32F4xx_StdPeriph_Driver/src/stm32f4xx_fmc.c ****   * @brief  Initializes the FMC NOR/SRAM Banks according to the specified
 150:libraries/STM32F4xx_StdPeriph_Driver/src/stm32f4xx_fmc.c ****   *         parameters in the FMC_NORSRAMInitStruct.
 151:libraries/STM32F4xx_StdPeriph_Driver/src/stm32f4xx_fmc.c ****   * @param  FMC_NORSRAMInitStruct : pointer to a FMC_NORSRAMInitTypeDef structure
 152:libraries/STM32F4xx_StdPeriph_Driver/src/stm32f4xx_fmc.c ****   *         that contains the configuration information for the FMC NOR/SRAM 
 153:libraries/STM32F4xx_StdPeriph_Driver/src/stm32f4xx_fmc.c ****   *         specified Banks.                       
 154:libraries/STM32F4xx_StdPeriph_Driver/src/stm32f4xx_fmc.c ****   * @retval None
 155:libraries/STM32F4xx_StdPeriph_Driver/src/stm32f4xx_fmc.c ****   */
 156:libraries/STM32F4xx_StdPeriph_Driver/src/stm32f4xx_fmc.c **** void FMC_NORSRAMInit(FMC_NORSRAMInitTypeDef* FMC_NORSRAMInitStruct)
 157:libraries/STM32F4xx_StdPeriph_Driver/src/stm32f4xx_fmc.c **** {
  84              		.loc 1 157 1 is_stmt 1 view -0
  85              		.cfi_startproc
  86              		@ args = 0, pretend = 0, frame = 0
  87              		@ frame_needed = 0, uses_anonymous_args = 0
  88              		@ link register save eliminated.
  89              		.loc 1 157 1 is_stmt 0 view .LVU16
  90 0000 30B4     		push	{r4, r5}
  91              	.LCFI0:
  92              		.cfi_def_cfa_offset 8
  93              		.cfi_offset 4, -8
  94              		.cfi_offset 5, -4
 158:libraries/STM32F4xx_StdPeriph_Driver/src/stm32f4xx_fmc.c ****   uint32_t tmpr = 0, tmpbcr = 0, tmpbwr = 0;
  95              		.loc 1 158 3 is_stmt 1 view .LVU17
  96              	.LVL5:
 159:libraries/STM32F4xx_StdPeriph_Driver/src/stm32f4xx_fmc.c ****   
 160:libraries/STM32F4xx_StdPeriph_Driver/src/stm32f4xx_fmc.c ****   /* Check the parameters */
 161:libraries/STM32F4xx_StdPeriph_Driver/src/stm32f4xx_fmc.c ****   assert_param(IS_FMC_NORSRAM_BANK(FMC_NORSRAMInitStruct->FMC_Bank));
  97              		.loc 1 161 3 view .LVU18
 162:libraries/STM32F4xx_StdPeriph_Driver/src/stm32f4xx_fmc.c ****   assert_param(IS_FMC_MUX(FMC_NORSRAMInitStruct->FMC_DataAddressMux));
  98              		.loc 1 162 3 view .LVU19
 163:libraries/STM32F4xx_StdPeriph_Driver/src/stm32f4xx_fmc.c ****   assert_param(IS_FMC_MEMORY(FMC_NORSRAMInitStruct->FMC_MemoryType));
  99              		.loc 1 163 3 view .LVU20
 164:libraries/STM32F4xx_StdPeriph_Driver/src/stm32f4xx_fmc.c ****   assert_param(IS_FMC_NORSRAM_MEMORY_WIDTH(FMC_NORSRAMInitStruct->FMC_MemoryDataWidth));
 100              		.loc 1 164 3 view .LVU21
 165:libraries/STM32F4xx_StdPeriph_Driver/src/stm32f4xx_fmc.c ****   assert_param(IS_FMC_BURSTMODE(FMC_NORSRAMInitStruct->FMC_BurstAccessMode));
 101              		.loc 1 165 3 view .LVU22
 166:libraries/STM32F4xx_StdPeriph_Driver/src/stm32f4xx_fmc.c ****   assert_param(IS_FMC_WAIT_POLARITY(FMC_NORSRAMInitStruct->FMC_WaitSignalPolarity));
 102              		.loc 1 166 3 view .LVU23
 167:libraries/STM32F4xx_StdPeriph_Driver/src/stm32f4xx_fmc.c ****   assert_param(IS_FMC_WRAP_MODE(FMC_NORSRAMInitStruct->FMC_WrapMode));
 103              		.loc 1 167 3 view .LVU24
 168:libraries/STM32F4xx_StdPeriph_Driver/src/stm32f4xx_fmc.c ****   assert_param(IS_FMC_WAIT_SIGNAL_ACTIVE(FMC_NORSRAMInitStruct->FMC_WaitSignalActive));
 104              		.loc 1 168 3 view .LVU25
 169:libraries/STM32F4xx_StdPeriph_Driver/src/stm32f4xx_fmc.c ****   assert_param(IS_FMC_WRITE_OPERATION(FMC_NORSRAMInitStruct->FMC_WriteOperation));
 105              		.loc 1 169 3 view .LVU26
 170:libraries/STM32F4xx_StdPeriph_Driver/src/stm32f4xx_fmc.c ****   assert_param(IS_FMC_WAITE_SIGNAL(FMC_NORSRAMInitStruct->FMC_WaitSignal));
 106              		.loc 1 170 3 view .LVU27
 171:libraries/STM32F4xx_StdPeriph_Driver/src/stm32f4xx_fmc.c ****   assert_param(IS_FMC_EXTENDED_MODE(FMC_NORSRAMInitStruct->FMC_ExtendedMode));
 107              		.loc 1 171 3 view .LVU28
 172:libraries/STM32F4xx_StdPeriph_Driver/src/stm32f4xx_fmc.c ****   assert_param(IS_FMC_ASYNWAIT(FMC_NORSRAMInitStruct->FMC_AsynchronousWait));
 108              		.loc 1 172 3 view .LVU29
 173:libraries/STM32F4xx_StdPeriph_Driver/src/stm32f4xx_fmc.c ****   assert_param(IS_FMC_WRITE_BURST(FMC_NORSRAMInitStruct->FMC_WriteBurst));
 109              		.loc 1 173 3 view .LVU30
 174:libraries/STM32F4xx_StdPeriph_Driver/src/stm32f4xx_fmc.c ****   assert_param(IS_FMC_CONTINOUS_CLOCK(FMC_NORSRAMInitStruct->FMC_ContinousClock));  
 110              		.loc 1 174 3 view .LVU31
 175:libraries/STM32F4xx_StdPeriph_Driver/src/stm32f4xx_fmc.c ****   assert_param(IS_FMC_ADDRESS_SETUP_TIME(FMC_NORSRAMInitStruct->FMC_ReadWriteTimingStruct->FMC_Addr
 111              		.loc 1 175 3 view .LVU32
ARM GAS  C:\Users\ktkuru\AppData\Local\Temp\cc04RWjJ.s 			page 6


 176:libraries/STM32F4xx_StdPeriph_Driver/src/stm32f4xx_fmc.c ****   assert_param(IS_FMC_ADDRESS_HOLD_TIME(FMC_NORSRAMInitStruct->FMC_ReadWriteTimingStruct->FMC_Addre
 112              		.loc 1 176 3 view .LVU33
 177:libraries/STM32F4xx_StdPeriph_Driver/src/stm32f4xx_fmc.c ****   assert_param(IS_FMC_DATASETUP_TIME(FMC_NORSRAMInitStruct->FMC_ReadWriteTimingStruct->FMC_DataSetu
 113              		.loc 1 177 3 view .LVU34
 178:libraries/STM32F4xx_StdPeriph_Driver/src/stm32f4xx_fmc.c ****   assert_param(IS_FMC_TURNAROUND_TIME(FMC_NORSRAMInitStruct->FMC_ReadWriteTimingStruct->FMC_BusTurn
 114              		.loc 1 178 3 view .LVU35
 179:libraries/STM32F4xx_StdPeriph_Driver/src/stm32f4xx_fmc.c ****   assert_param(IS_FMC_CLK_DIV(FMC_NORSRAMInitStruct->FMC_ReadWriteTimingStruct->FMC_CLKDivision));
 115              		.loc 1 179 3 view .LVU36
 180:libraries/STM32F4xx_StdPeriph_Driver/src/stm32f4xx_fmc.c ****   assert_param(IS_FMC_DATA_LATENCY(FMC_NORSRAMInitStruct->FMC_ReadWriteTimingStruct->FMC_DataLatenc
 116              		.loc 1 180 3 view .LVU37
 181:libraries/STM32F4xx_StdPeriph_Driver/src/stm32f4xx_fmc.c ****   assert_param(IS_FMC_ACCESS_MODE(FMC_NORSRAMInitStruct->FMC_ReadWriteTimingStruct->FMC_AccessMode)
 117              		.loc 1 181 3 view .LVU38
 182:libraries/STM32F4xx_StdPeriph_Driver/src/stm32f4xx_fmc.c ****   
 183:libraries/STM32F4xx_StdPeriph_Driver/src/stm32f4xx_fmc.c ****   /* Get the BTCR register value */
 184:libraries/STM32F4xx_StdPeriph_Driver/src/stm32f4xx_fmc.c ****   tmpbcr = FMC_Bank1->BTCR[FMC_NORSRAMInitStruct->FMC_Bank];
 118              		.loc 1 184 3 view .LVU39
 119              		.loc 1 184 49 is_stmt 0 view .LVU40
 120 0002 0168     		ldr	r1, [r0]
 121              		.loc 1 184 10 view .LVU41
 122 0004 4FF02042 		mov	r2, #-1610612736
 123 0008 52F82130 		ldr	r3, [r2, r1, lsl #2]
 124              	.LVL6:
 185:libraries/STM32F4xx_StdPeriph_Driver/src/stm32f4xx_fmc.c ****  
 186:libraries/STM32F4xx_StdPeriph_Driver/src/stm32f4xx_fmc.c ****   /* Clear MBKEN, MUXEN, MTYP, MWID, FACCEN, BURSTEN, WAITPOL, WRAPMOD, WAITCFG, WREN,
 187:libraries/STM32F4xx_StdPeriph_Driver/src/stm32f4xx_fmc.c ****            WAITEN, EXTMOD, ASYNCWAIT, CBURSTRW and CCLKEN bits */
 188:libraries/STM32F4xx_StdPeriph_Driver/src/stm32f4xx_fmc.c ****   tmpbcr &= ((uint32_t)~(FMC_BCR1_MBKEN   | FMC_BCR1_MUXEN    | FMC_BCR1_MTYP     | \
 125              		.loc 1 188 3 is_stmt 1 view .LVU42
 126              		.loc 1 188 10 is_stmt 0 view .LVU43
 127 000c 404C     		ldr	r4, .L13
 128 000e 1C40     		ands	r4, r4, r3
 129              	.LVL7:
 189:libraries/STM32F4xx_StdPeriph_Driver/src/stm32f4xx_fmc.c ****                          FMC_BCR1_MWID     | FMC_BCR1_FACCEN   | FMC_BCR1_BURSTEN  | \
 190:libraries/STM32F4xx_StdPeriph_Driver/src/stm32f4xx_fmc.c ****                          FMC_BCR1_WAITPOL  | FMC_BCR1_WRAPMOD  | FMC_BCR1_WAITCFG  | \
 191:libraries/STM32F4xx_StdPeriph_Driver/src/stm32f4xx_fmc.c ****                          FMC_BCR1_WREN     | FMC_BCR1_WAITEN   | FMC_BCR1_EXTMOD   | \
 192:libraries/STM32F4xx_StdPeriph_Driver/src/stm32f4xx_fmc.c ****                          FMC_BCR1_ASYNCWAIT| FMC_BCR1_CBURSTRW | FMC_BCR1_CCLKEN));
 193:libraries/STM32F4xx_StdPeriph_Driver/src/stm32f4xx_fmc.c **** 
 194:libraries/STM32F4xx_StdPeriph_Driver/src/stm32f4xx_fmc.c ****   /* NOR/SRAM Bank control register configuration */ 
 195:libraries/STM32F4xx_StdPeriph_Driver/src/stm32f4xx_fmc.c ****   tmpbcr |=  (uint32_t)FMC_NORSRAMInitStruct->FMC_DataAddressMux |
 130              		.loc 1 195 3 is_stmt 1 view .LVU44
 131              		.loc 1 195 45 is_stmt 0 view .LVU45
 132 0010 4368     		ldr	r3, [r0, #4]
 133              		.loc 1 195 66 view .LVU46
 134 0012 8568     		ldr	r5, [r0, #8]
 135 0014 2B43     		orrs	r3, r3, r5
 196:libraries/STM32F4xx_StdPeriph_Driver/src/stm32f4xx_fmc.c ****                        FMC_NORSRAMInitStruct->FMC_MemoryType |
 136              		.loc 1 196 62 view .LVU47
 137 0016 C568     		ldr	r5, [r0, #12]
 138 0018 2B43     		orrs	r3, r3, r5
 197:libraries/STM32F4xx_StdPeriph_Driver/src/stm32f4xx_fmc.c ****                        FMC_NORSRAMInitStruct->FMC_MemoryDataWidth |
 139              		.loc 1 197 67 view .LVU48
 140 001a 0569     		ldr	r5, [r0, #16]
 141 001c 2B43     		orrs	r3, r3, r5
 198:libraries/STM32F4xx_StdPeriph_Driver/src/stm32f4xx_fmc.c ****                        FMC_NORSRAMInitStruct->FMC_BurstAccessMode |
 142              		.loc 1 198 67 view .LVU49
 143 001e 4569     		ldr	r5, [r0, #20]
 144 0020 2B43     		orrs	r3, r3, r5
 199:libraries/STM32F4xx_StdPeriph_Driver/src/stm32f4xx_fmc.c ****                        FMC_NORSRAMInitStruct->FMC_WaitSignalPolarity |
ARM GAS  C:\Users\ktkuru\AppData\Local\Temp\cc04RWjJ.s 			page 7


 145              		.loc 1 199 70 view .LVU50
 146 0022 8569     		ldr	r5, [r0, #24]
 147 0024 2B43     		orrs	r3, r3, r5
 200:libraries/STM32F4xx_StdPeriph_Driver/src/stm32f4xx_fmc.c ****                        FMC_NORSRAMInitStruct->FMC_WrapMode |
 148              		.loc 1 200 60 view .LVU51
 149 0026 C569     		ldr	r5, [r0, #28]
 150 0028 2B43     		orrs	r3, r3, r5
 201:libraries/STM32F4xx_StdPeriph_Driver/src/stm32f4xx_fmc.c ****                        FMC_NORSRAMInitStruct->FMC_WaitSignalActive |
 151              		.loc 1 201 68 view .LVU52
 152 002a 056A     		ldr	r5, [r0, #32]
 153 002c 2B43     		orrs	r3, r3, r5
 202:libraries/STM32F4xx_StdPeriph_Driver/src/stm32f4xx_fmc.c ****                        FMC_NORSRAMInitStruct->FMC_WriteOperation |
 154              		.loc 1 202 66 view .LVU53
 155 002e 456A     		ldr	r5, [r0, #36]
 156 0030 2B43     		orrs	r3, r3, r5
 203:libraries/STM32F4xx_StdPeriph_Driver/src/stm32f4xx_fmc.c ****                        FMC_NORSRAMInitStruct->FMC_WaitSignal |
 157              		.loc 1 203 62 view .LVU54
 158 0032 856A     		ldr	r5, [r0, #40]
 159 0034 2B43     		orrs	r3, r3, r5
 204:libraries/STM32F4xx_StdPeriph_Driver/src/stm32f4xx_fmc.c ****                        FMC_NORSRAMInitStruct->FMC_ExtendedMode |
 160              		.loc 1 204 64 view .LVU55
 161 0036 C56A     		ldr	r5, [r0, #44]
 162 0038 2B43     		orrs	r3, r3, r5
 205:libraries/STM32F4xx_StdPeriph_Driver/src/stm32f4xx_fmc.c ****                        FMC_NORSRAMInitStruct->FMC_AsynchronousWait |
 163              		.loc 1 205 68 view .LVU56
 164 003a 056B     		ldr	r5, [r0, #48]
 165 003c 2B43     		orrs	r3, r3, r5
 206:libraries/STM32F4xx_StdPeriph_Driver/src/stm32f4xx_fmc.c ****                        FMC_NORSRAMInitStruct->FMC_WriteBurst |
 166              		.loc 1 206 62 view .LVU57
 167 003e 456B     		ldr	r5, [r0, #52]
 168 0040 2B43     		orrs	r3, r3, r5
 195:libraries/STM32F4xx_StdPeriph_Driver/src/stm32f4xx_fmc.c ****                        FMC_NORSRAMInitStruct->FMC_MemoryType |
 169              		.loc 1 195 10 view .LVU58
 170 0042 2343     		orrs	r3, r3, r4
 171              	.LVL8:
 207:libraries/STM32F4xx_StdPeriph_Driver/src/stm32f4xx_fmc.c ****                        FMC_NORSRAMInitStruct->FMC_ContinousClock;
 208:libraries/STM32F4xx_StdPeriph_Driver/src/stm32f4xx_fmc.c **** 
 209:libraries/STM32F4xx_StdPeriph_Driver/src/stm32f4xx_fmc.c ****   FMC_Bank1->BTCR[FMC_NORSRAMInitStruct->FMC_Bank] = tmpbcr;
 172              		.loc 1 209 3 is_stmt 1 view .LVU59
 173              		.loc 1 209 52 is_stmt 0 view .LVU60
 174 0044 42F82130 		str	r3, [r2, r1, lsl #2]
 210:libraries/STM32F4xx_StdPeriph_Driver/src/stm32f4xx_fmc.c **** 
 211:libraries/STM32F4xx_StdPeriph_Driver/src/stm32f4xx_fmc.c ****   if(FMC_NORSRAMInitStruct->FMC_MemoryType == FMC_MemoryType_NOR)
 175              		.loc 1 211 3 is_stmt 1 view .LVU61
 176              		.loc 1 211 27 is_stmt 0 view .LVU62
 177 0048 8368     		ldr	r3, [r0, #8]
 178              	.LVL9:
 179              		.loc 1 211 5 view .LVU63
 180 004a 082B     		cmp	r3, #8
 181 004c 2AD0     		beq	.L10
 182              	.LVL10:
 183              	.L5:
 212:libraries/STM32F4xx_StdPeriph_Driver/src/stm32f4xx_fmc.c ****   {
 213:libraries/STM32F4xx_StdPeriph_Driver/src/stm32f4xx_fmc.c ****     FMC_Bank1->BTCR[FMC_NORSRAMInitStruct->FMC_Bank] |= (uint32_t)BCR_FACCEN_SET;
 214:libraries/STM32F4xx_StdPeriph_Driver/src/stm32f4xx_fmc.c ****   }
 215:libraries/STM32F4xx_StdPeriph_Driver/src/stm32f4xx_fmc.c **** 
 216:libraries/STM32F4xx_StdPeriph_Driver/src/stm32f4xx_fmc.c ****   /* Configure Continuous clock feature when bank2..4 is used */
ARM GAS  C:\Users\ktkuru\AppData\Local\Temp\cc04RWjJ.s 			page 8


 217:libraries/STM32F4xx_StdPeriph_Driver/src/stm32f4xx_fmc.c ****   if((FMC_NORSRAMInitStruct->FMC_ContinousClock == FMC_CClock_SyncAsync) && (FMC_NORSRAMInitStruct-
 184              		.loc 1 217 3 is_stmt 1 view .LVU64
 185              		.loc 1 217 28 is_stmt 0 view .LVU65
 186 004e 436B     		ldr	r3, [r0, #52]
 187              		.loc 1 217 5 view .LVU66
 188 0050 B3F5801F 		cmp	r3, #1048576
 189 0054 2ED0     		beq	.L11
 190              	.LVL11:
 191              	.L6:
 218:libraries/STM32F4xx_StdPeriph_Driver/src/stm32f4xx_fmc.c ****   {
 219:libraries/STM32F4xx_StdPeriph_Driver/src/stm32f4xx_fmc.c ****     tmpr = (uint32_t)((FMC_Bank1->BTCR[FMC_Bank1_NORSRAM1+1]) & ~(((uint32_t)0x0F) << 20));    
 220:libraries/STM32F4xx_StdPeriph_Driver/src/stm32f4xx_fmc.c ****     
 221:libraries/STM32F4xx_StdPeriph_Driver/src/stm32f4xx_fmc.c ****     FMC_Bank1->BTCR[FMC_Bank1_NORSRAM1]  |= FMC_NORSRAMInitStruct->FMC_ContinousClock;
 222:libraries/STM32F4xx_StdPeriph_Driver/src/stm32f4xx_fmc.c ****     FMC_Bank1->BTCR[FMC_Bank1_NORSRAM1]  |= FMC_BurstAccessMode_Enable;
 223:libraries/STM32F4xx_StdPeriph_Driver/src/stm32f4xx_fmc.c ****     FMC_Bank1->BTCR[FMC_Bank1_NORSRAM1+1] = (uint32_t)(tmpr | (((FMC_NORSRAMInitStruct->FMC_ReadWri
 224:libraries/STM32F4xx_StdPeriph_Driver/src/stm32f4xx_fmc.c ****   }
 225:libraries/STM32F4xx_StdPeriph_Driver/src/stm32f4xx_fmc.c ****   
 226:libraries/STM32F4xx_StdPeriph_Driver/src/stm32f4xx_fmc.c ****   /* NOR/SRAM Bank timing register configuration */
 227:libraries/STM32F4xx_StdPeriph_Driver/src/stm32f4xx_fmc.c ****   FMC_Bank1->BTCR[FMC_NORSRAMInitStruct->FMC_Bank+1] =   
 192              		.loc 1 227 3 is_stmt 1 view .LVU67
 228:libraries/STM32F4xx_StdPeriph_Driver/src/stm32f4xx_fmc.c ****             (uint32_t)FMC_NORSRAMInitStruct->FMC_ReadWriteTimingStruct->FMC_AddressSetupTime |
 193              		.loc 1 228 44 is_stmt 0 view .LVU68
 194 0056 826B     		ldr	r2, [r0, #56]
 195              		.loc 1 228 71 view .LVU69
 196 0058 1368     		ldr	r3, [r2]
 229:libraries/STM32F4xx_StdPeriph_Driver/src/stm32f4xx_fmc.c ****                       (FMC_NORSRAMInitStruct->FMC_ReadWriteTimingStruct->FMC_AddressHoldTime << 4) 
 197              		.loc 1 229 72 view .LVU70
 198 005a 5168     		ldr	r1, [r2, #4]
 228:libraries/STM32F4xx_StdPeriph_Driver/src/stm32f4xx_fmc.c ****             (uint32_t)FMC_NORSRAMInitStruct->FMC_ReadWriteTimingStruct->FMC_AddressSetupTime |
 199              		.loc 1 228 94 view .LVU71
 200 005c 43EA0113 		orr	r3, r3, r1, lsl #4
 230:libraries/STM32F4xx_StdPeriph_Driver/src/stm32f4xx_fmc.c ****                       (FMC_NORSRAMInitStruct->FMC_ReadWriteTimingStruct->FMC_DataSetupTime << 8) |
 201              		.loc 1 230 72 view .LVU72
 202 0060 9168     		ldr	r1, [r2, #8]
 229:libraries/STM32F4xx_StdPeriph_Driver/src/stm32f4xx_fmc.c ****                       (FMC_NORSRAMInitStruct->FMC_ReadWriteTimingStruct->FMC_AddressHoldTime << 4) 
 203              		.loc 1 229 100 view .LVU73
 204 0062 43EA0123 		orr	r3, r3, r1, lsl #8
 231:libraries/STM32F4xx_StdPeriph_Driver/src/stm32f4xx_fmc.c ****                       (FMC_NORSRAMInitStruct->FMC_ReadWriteTimingStruct->FMC_BusTurnAroundDuration 
 205              		.loc 1 231 72 view .LVU74
 206 0066 D168     		ldr	r1, [r2, #12]
 230:libraries/STM32F4xx_StdPeriph_Driver/src/stm32f4xx_fmc.c ****                       (FMC_NORSRAMInitStruct->FMC_ReadWriteTimingStruct->FMC_DataSetupTime << 8) |
 207              		.loc 1 230 98 view .LVU75
 208 0068 43EA0143 		orr	r3, r3, r1, lsl #16
 232:libraries/STM32F4xx_StdPeriph_Driver/src/stm32f4xx_fmc.c ****                       (FMC_NORSRAMInitStruct->FMC_ReadWriteTimingStruct->FMC_CLKDivision << 20) |
 209              		.loc 1 232 72 view .LVU76
 210 006c 1169     		ldr	r1, [r2, #16]
 231:libraries/STM32F4xx_StdPeriph_Driver/src/stm32f4xx_fmc.c ****                       (FMC_NORSRAMInitStruct->FMC_ReadWriteTimingStruct->FMC_BusTurnAroundDuration 
 211              		.loc 1 231 107 view .LVU77
 212 006e 43EA0153 		orr	r3, r3, r1, lsl #20
 233:libraries/STM32F4xx_StdPeriph_Driver/src/stm32f4xx_fmc.c ****                       (FMC_NORSRAMInitStruct->FMC_ReadWriteTimingStruct->FMC_DataLatency << 24) |
 213              		.loc 1 233 72 view .LVU78
 214 0072 5169     		ldr	r1, [r2, #20]
 232:libraries/STM32F4xx_StdPeriph_Driver/src/stm32f4xx_fmc.c ****                       (FMC_NORSRAMInitStruct->FMC_ReadWriteTimingStruct->FMC_CLKDivision << 20) |
 215              		.loc 1 232 97 view .LVU79
 216 0074 43EA0163 		orr	r3, r3, r1, lsl #24
 234:libraries/STM32F4xx_StdPeriph_Driver/src/stm32f4xx_fmc.c ****                       FMC_NORSRAMInitStruct->FMC_ReadWriteTimingStruct->FMC_AccessMode;
 217              		.loc 1 234 71 view .LVU80
ARM GAS  C:\Users\ktkuru\AppData\Local\Temp\cc04RWjJ.s 			page 9


 218 0078 9169     		ldr	r1, [r2, #24]
 227:libraries/STM32F4xx_StdPeriph_Driver/src/stm32f4xx_fmc.c ****             (uint32_t)FMC_NORSRAMInitStruct->FMC_ReadWriteTimingStruct->FMC_AddressSetupTime |
 219              		.loc 1 227 40 view .LVU81
 220 007a 0268     		ldr	r2, [r0]
 227:libraries/STM32F4xx_StdPeriph_Driver/src/stm32f4xx_fmc.c ****             (uint32_t)FMC_NORSRAMInitStruct->FMC_ReadWriteTimingStruct->FMC_AddressSetupTime |
 221              		.loc 1 227 50 view .LVU82
 222 007c 0132     		adds	r2, r2, #1
 233:libraries/STM32F4xx_StdPeriph_Driver/src/stm32f4xx_fmc.c ****                       (FMC_NORSRAMInitStruct->FMC_ReadWriteTimingStruct->FMC_DataLatency << 24) |
 223              		.loc 1 233 97 view .LVU83
 224 007e 0B43     		orrs	r3, r3, r1
 227:libraries/STM32F4xx_StdPeriph_Driver/src/stm32f4xx_fmc.c ****             (uint32_t)FMC_NORSRAMInitStruct->FMC_ReadWriteTimingStruct->FMC_AddressSetupTime |
 225              		.loc 1 227 54 view .LVU84
 226 0080 4FF02041 		mov	r1, #-1610612736
 227 0084 41F82230 		str	r3, [r1, r2, lsl #2]
 235:libraries/STM32F4xx_StdPeriph_Driver/src/stm32f4xx_fmc.c ****      
 236:libraries/STM32F4xx_StdPeriph_Driver/src/stm32f4xx_fmc.c ****   /* NOR/SRAM Bank timing register for write configuration, if extended mode is used */
 237:libraries/STM32F4xx_StdPeriph_Driver/src/stm32f4xx_fmc.c ****   if(FMC_NORSRAMInitStruct->FMC_ExtendedMode == FMC_ExtendedMode_Enable)
 228              		.loc 1 237 3 is_stmt 1 view .LVU85
 229              		.loc 1 237 27 is_stmt 0 view .LVU86
 230 0088 836A     		ldr	r3, [r0, #40]
 231              		.loc 1 237 5 view .LVU87
 232 008a B3F5804F 		cmp	r3, #16384
 233 008e 27D0     		beq	.L12
 238:libraries/STM32F4xx_StdPeriph_Driver/src/stm32f4xx_fmc.c ****   {
 239:libraries/STM32F4xx_StdPeriph_Driver/src/stm32f4xx_fmc.c ****     assert_param(IS_FMC_ADDRESS_SETUP_TIME(FMC_NORSRAMInitStruct->FMC_WriteTimingStruct->FMC_Addres
 240:libraries/STM32F4xx_StdPeriph_Driver/src/stm32f4xx_fmc.c ****     assert_param(IS_FMC_ADDRESS_HOLD_TIME(FMC_NORSRAMInitStruct->FMC_WriteTimingStruct->FMC_Address
 241:libraries/STM32F4xx_StdPeriph_Driver/src/stm32f4xx_fmc.c ****     assert_param(IS_FMC_DATASETUP_TIME(FMC_NORSRAMInitStruct->FMC_WriteTimingStruct->FMC_DataSetupT
 242:libraries/STM32F4xx_StdPeriph_Driver/src/stm32f4xx_fmc.c ****     assert_param(IS_FMC_TURNAROUND_TIME(FMC_NORSRAMInitStruct->FMC_WriteTimingStruct->FMC_BusTurnAr
 243:libraries/STM32F4xx_StdPeriph_Driver/src/stm32f4xx_fmc.c ****     assert_param(IS_FMC_ACCESS_MODE(FMC_NORSRAMInitStruct->FMC_WriteTimingStruct->FMC_AccessMode));
 244:libraries/STM32F4xx_StdPeriph_Driver/src/stm32f4xx_fmc.c ****     
 245:libraries/STM32F4xx_StdPeriph_Driver/src/stm32f4xx_fmc.c ****     /* Get the BWTR register value */
 246:libraries/STM32F4xx_StdPeriph_Driver/src/stm32f4xx_fmc.c ****     tmpbwr = FMC_Bank1E->BWTR[FMC_NORSRAMInitStruct->FMC_Bank];
 247:libraries/STM32F4xx_StdPeriph_Driver/src/stm32f4xx_fmc.c **** 
 248:libraries/STM32F4xx_StdPeriph_Driver/src/stm32f4xx_fmc.c ****     /* Clear ADDSET, ADDHLD, DATAST, BUSTURN and ACCMOD bits */
 249:libraries/STM32F4xx_StdPeriph_Driver/src/stm32f4xx_fmc.c ****     tmpbwr &= ((uint32_t)~(FMC_BWTR1_ADDSET  | FMC_BWTR1_ADDHLD | FMC_BWTR1_DATAST | \
 250:libraries/STM32F4xx_StdPeriph_Driver/src/stm32f4xx_fmc.c ****                            FMC_BWTR1_BUSTURN | FMC_BWTR1_ACCMOD));
 251:libraries/STM32F4xx_StdPeriph_Driver/src/stm32f4xx_fmc.c ****     
 252:libraries/STM32F4xx_StdPeriph_Driver/src/stm32f4xx_fmc.c ****     tmpbwr |= (uint32_t)(FMC_NORSRAMInitStruct->FMC_WriteTimingStruct->FMC_AddressSetupTime |
 253:libraries/STM32F4xx_StdPeriph_Driver/src/stm32f4xx_fmc.c ****                         (FMC_NORSRAMInitStruct->FMC_WriteTimingStruct->FMC_AddressHoldTime << 4)|
 254:libraries/STM32F4xx_StdPeriph_Driver/src/stm32f4xx_fmc.c ****                         (FMC_NORSRAMInitStruct->FMC_WriteTimingStruct->FMC_DataSetupTime << 8) |
 255:libraries/STM32F4xx_StdPeriph_Driver/src/stm32f4xx_fmc.c ****                         (FMC_NORSRAMInitStruct->FMC_WriteTimingStruct->FMC_BusTurnAroundDuration <<
 256:libraries/STM32F4xx_StdPeriph_Driver/src/stm32f4xx_fmc.c ****                          FMC_NORSRAMInitStruct->FMC_WriteTimingStruct->FMC_AccessMode);
 257:libraries/STM32F4xx_StdPeriph_Driver/src/stm32f4xx_fmc.c **** 
 258:libraries/STM32F4xx_StdPeriph_Driver/src/stm32f4xx_fmc.c ****     FMC_Bank1E->BWTR[FMC_NORSRAMInitStruct->FMC_Bank] = tmpbwr;
 259:libraries/STM32F4xx_StdPeriph_Driver/src/stm32f4xx_fmc.c ****   }
 260:libraries/STM32F4xx_StdPeriph_Driver/src/stm32f4xx_fmc.c ****   else
 261:libraries/STM32F4xx_StdPeriph_Driver/src/stm32f4xx_fmc.c ****   {
 262:libraries/STM32F4xx_StdPeriph_Driver/src/stm32f4xx_fmc.c ****     FMC_Bank1E->BWTR[FMC_NORSRAMInitStruct->FMC_Bank] = 0x0FFFFFFF;
 234              		.loc 1 262 5 is_stmt 1 view .LVU88
 235              		.loc 1 262 43 is_stmt 0 view .LVU89
 236 0090 0368     		ldr	r3, [r0]
 237              		.loc 1 262 55 view .LVU90
 238 0092 9B00     		lsls	r3, r3, #2
 239 0094 03F12043 		add	r3, r3, #-1610612736
 240 0098 6FF07042 		mvn	r2, #-268435456
 241 009c C3F80421 		str	r2, [r3, #260]
 242              	.LVL12:
ARM GAS  C:\Users\ktkuru\AppData\Local\Temp\cc04RWjJ.s 			page 10


 243              	.L4:
 263:libraries/STM32F4xx_StdPeriph_Driver/src/stm32f4xx_fmc.c ****   }
 264:libraries/STM32F4xx_StdPeriph_Driver/src/stm32f4xx_fmc.c ****   
 265:libraries/STM32F4xx_StdPeriph_Driver/src/stm32f4xx_fmc.c **** }
 244              		.loc 1 265 1 view .LVU91
 245 00a0 30BC     		pop	{r4, r5}
 246              	.LCFI1:
 247              		.cfi_remember_state
 248              		.cfi_restore 5
 249              		.cfi_restore 4
 250              		.cfi_def_cfa_offset 0
 251 00a2 7047     		bx	lr
 252              	.LVL13:
 253              	.L10:
 254              	.LCFI2:
 255              		.cfi_restore_state
 213:libraries/STM32F4xx_StdPeriph_Driver/src/stm32f4xx_fmc.c ****   }
 256              		.loc 1 213 5 is_stmt 1 view .LVU92
 213:libraries/STM32F4xx_StdPeriph_Driver/src/stm32f4xx_fmc.c ****   }
 257              		.loc 1 213 42 is_stmt 0 view .LVU93
 258 00a4 0168     		ldr	r1, [r0]
 259              	.LVL14:
 213:libraries/STM32F4xx_StdPeriph_Driver/src/stm32f4xx_fmc.c ****   }
 260              		.loc 1 213 20 view .LVU94
 261 00a6 52F82130 		ldr	r3, [r2, r1, lsl #2]
 213:libraries/STM32F4xx_StdPeriph_Driver/src/stm32f4xx_fmc.c ****   }
 262              		.loc 1 213 54 view .LVU95
 263 00aa 43F04003 		orr	r3, r3, #64
 264 00ae 42F82130 		str	r3, [r2, r1, lsl #2]
 213:libraries/STM32F4xx_StdPeriph_Driver/src/stm32f4xx_fmc.c ****   }
 265              		.loc 1 213 54 view .LVU96
 266 00b2 CCE7     		b	.L5
 267              	.L11:
 217:libraries/STM32F4xx_StdPeriph_Driver/src/stm32f4xx_fmc.c ****   {
 268              		.loc 1 217 99 discriminator 1 view .LVU97
 269 00b4 0268     		ldr	r2, [r0]
 217:libraries/STM32F4xx_StdPeriph_Driver/src/stm32f4xx_fmc.c ****   {
 270              		.loc 1 217 74 discriminator 1 view .LVU98
 271 00b6 002A     		cmp	r2, #0
 272 00b8 CDD0     		beq	.L6
 219:libraries/STM32F4xx_StdPeriph_Driver/src/stm32f4xx_fmc.c ****     
 273              		.loc 1 219 5 is_stmt 1 view .LVU99
 219:libraries/STM32F4xx_StdPeriph_Driver/src/stm32f4xx_fmc.c ****     
 274              		.loc 1 219 39 is_stmt 0 view .LVU100
 275 00ba 4FF02042 		mov	r2, #-1610612736
 276 00be 5168     		ldr	r1, [r2, #4]
 219:libraries/STM32F4xx_StdPeriph_Driver/src/stm32f4xx_fmc.c ****     
 277              		.loc 1 219 10 view .LVU101
 278 00c0 21F47001 		bic	r1, r1, #15728640
 279              	.LVL15:
 221:libraries/STM32F4xx_StdPeriph_Driver/src/stm32f4xx_fmc.c ****     FMC_Bank1->BTCR[FMC_Bank1_NORSRAM1]  |= FMC_BurstAccessMode_Enable;
 280              		.loc 1 221 5 is_stmt 1 view .LVU102
 221:libraries/STM32F4xx_StdPeriph_Driver/src/stm32f4xx_fmc.c ****     FMC_Bank1->BTCR[FMC_Bank1_NORSRAM1]  |= FMC_BurstAccessMode_Enable;
 281              		.loc 1 221 20 is_stmt 0 view .LVU103
 282 00c4 1468     		ldr	r4, [r2]
 221:libraries/STM32F4xx_StdPeriph_Driver/src/stm32f4xx_fmc.c ****     FMC_Bank1->BTCR[FMC_Bank1_NORSRAM1]  |= FMC_BurstAccessMode_Enable;
 283              		.loc 1 221 42 view .LVU104
ARM GAS  C:\Users\ktkuru\AppData\Local\Temp\cc04RWjJ.s 			page 11


 284 00c6 2343     		orrs	r3, r3, r4
 285 00c8 1360     		str	r3, [r2]
 222:libraries/STM32F4xx_StdPeriph_Driver/src/stm32f4xx_fmc.c ****     FMC_Bank1->BTCR[FMC_Bank1_NORSRAM1+1] = (uint32_t)(tmpr | (((FMC_NORSRAMInitStruct->FMC_ReadWri
 286              		.loc 1 222 5 is_stmt 1 view .LVU105
 222:libraries/STM32F4xx_StdPeriph_Driver/src/stm32f4xx_fmc.c ****     FMC_Bank1->BTCR[FMC_Bank1_NORSRAM1+1] = (uint32_t)(tmpr | (((FMC_NORSRAMInitStruct->FMC_ReadWri
 287              		.loc 1 222 20 is_stmt 0 view .LVU106
 288 00ca 1368     		ldr	r3, [r2]
 222:libraries/STM32F4xx_StdPeriph_Driver/src/stm32f4xx_fmc.c ****     FMC_Bank1->BTCR[FMC_Bank1_NORSRAM1+1] = (uint32_t)(tmpr | (((FMC_NORSRAMInitStruct->FMC_ReadWri
 289              		.loc 1 222 42 view .LVU107
 290 00cc 43F48073 		orr	r3, r3, #256
 291 00d0 1360     		str	r3, [r2]
 223:libraries/STM32F4xx_StdPeriph_Driver/src/stm32f4xx_fmc.c ****   }
 292              		.loc 1 223 5 is_stmt 1 view .LVU108
 223:libraries/STM32F4xx_StdPeriph_Driver/src/stm32f4xx_fmc.c ****   }
 293              		.loc 1 223 87 is_stmt 0 view .LVU109
 294 00d2 836B     		ldr	r3, [r0, #56]
 223:libraries/STM32F4xx_StdPeriph_Driver/src/stm32f4xx_fmc.c ****   }
 295              		.loc 1 223 114 view .LVU110
 296 00d4 1B69     		ldr	r3, [r3, #16]
 223:libraries/STM32F4xx_StdPeriph_Driver/src/stm32f4xx_fmc.c ****   }
 297              		.loc 1 223 132 view .LVU111
 298 00d6 013B     		subs	r3, r3, #1
 223:libraries/STM32F4xx_StdPeriph_Driver/src/stm32f4xx_fmc.c ****   }
 299              		.loc 1 223 45 view .LVU112
 300 00d8 41EA0353 		orr	r3, r1, r3, lsl #20
 223:libraries/STM32F4xx_StdPeriph_Driver/src/stm32f4xx_fmc.c ****   }
 301              		.loc 1 223 43 view .LVU113
 302 00dc 5360     		str	r3, [r2, #4]
 303 00de BAE7     		b	.L6
 304              	.LVL16:
 305              	.L12:
 239:libraries/STM32F4xx_StdPeriph_Driver/src/stm32f4xx_fmc.c ****     assert_param(IS_FMC_ADDRESS_HOLD_TIME(FMC_NORSRAMInitStruct->FMC_WriteTimingStruct->FMC_Address
 306              		.loc 1 239 5 is_stmt 1 view .LVU114
 240:libraries/STM32F4xx_StdPeriph_Driver/src/stm32f4xx_fmc.c ****     assert_param(IS_FMC_DATASETUP_TIME(FMC_NORSRAMInitStruct->FMC_WriteTimingStruct->FMC_DataSetupT
 307              		.loc 1 240 5 view .LVU115
 241:libraries/STM32F4xx_StdPeriph_Driver/src/stm32f4xx_fmc.c ****     assert_param(IS_FMC_TURNAROUND_TIME(FMC_NORSRAMInitStruct->FMC_WriteTimingStruct->FMC_BusTurnAr
 308              		.loc 1 241 5 view .LVU116
 242:libraries/STM32F4xx_StdPeriph_Driver/src/stm32f4xx_fmc.c ****     assert_param(IS_FMC_ACCESS_MODE(FMC_NORSRAMInitStruct->FMC_WriteTimingStruct->FMC_AccessMode));
 309              		.loc 1 242 5 view .LVU117
 243:libraries/STM32F4xx_StdPeriph_Driver/src/stm32f4xx_fmc.c ****     
 310              		.loc 1 243 5 view .LVU118
 246:libraries/STM32F4xx_StdPeriph_Driver/src/stm32f4xx_fmc.c **** 
 311              		.loc 1 246 5 view .LVU119
 246:libraries/STM32F4xx_StdPeriph_Driver/src/stm32f4xx_fmc.c **** 
 312              		.loc 1 246 52 is_stmt 0 view .LVU120
 313 00e0 0268     		ldr	r2, [r0]
 246:libraries/STM32F4xx_StdPeriph_Driver/src/stm32f4xx_fmc.c **** 
 314              		.loc 1 246 12 view .LVU121
 315 00e2 9200     		lsls	r2, r2, #2
 316 00e4 0A44     		add	r2, r2, r1
 317 00e6 D2F80431 		ldr	r3, [r2, #260]
 318              	.LVL17:
 249:libraries/STM32F4xx_StdPeriph_Driver/src/stm32f4xx_fmc.c ****                            FMC_BWTR1_BUSTURN | FMC_BWTR1_ACCMOD));
 319              		.loc 1 249 5 is_stmt 1 view .LVU122
 249:libraries/STM32F4xx_StdPeriph_Driver/src/stm32f4xx_fmc.c ****                            FMC_BWTR1_BUSTURN | FMC_BWTR1_ACCMOD));
 320              		.loc 1 249 12 is_stmt 0 view .LVU123
 321 00ea 0A4C     		ldr	r4, .L13+4
ARM GAS  C:\Users\ktkuru\AppData\Local\Temp\cc04RWjJ.s 			page 12


 322 00ec 1C40     		ands	r4, r4, r3
 323              	.LVL18:
 252:libraries/STM32F4xx_StdPeriph_Driver/src/stm32f4xx_fmc.c ****                         (FMC_NORSRAMInitStruct->FMC_WriteTimingStruct->FMC_AddressHoldTime << 4)|
 324              		.loc 1 252 5 is_stmt 1 view .LVU124
 252:libraries/STM32F4xx_StdPeriph_Driver/src/stm32f4xx_fmc.c ****                         (FMC_NORSRAMInitStruct->FMC_WriteTimingStruct->FMC_AddressHoldTime << 4)|
 325              		.loc 1 252 47 is_stmt 0 view .LVU125
 326 00ee C16B     		ldr	r1, [r0, #60]
 252:libraries/STM32F4xx_StdPeriph_Driver/src/stm32f4xx_fmc.c ****                         (FMC_NORSRAMInitStruct->FMC_WriteTimingStruct->FMC_AddressHoldTime << 4)|
 327              		.loc 1 252 70 view .LVU126
 328 00f0 0B68     		ldr	r3, [r1]
 253:libraries/STM32F4xx_StdPeriph_Driver/src/stm32f4xx_fmc.c ****                         (FMC_NORSRAMInitStruct->FMC_WriteTimingStruct->FMC_DataSetupTime << 8) |
 329              		.loc 1 253 70 view .LVU127
 330 00f2 4868     		ldr	r0, [r1, #4]
 331              	.LVL19:
 252:libraries/STM32F4xx_StdPeriph_Driver/src/stm32f4xx_fmc.c ****                         (FMC_NORSRAMInitStruct->FMC_WriteTimingStruct->FMC_AddressHoldTime << 4)|
 332              		.loc 1 252 93 view .LVU128
 333 00f4 43EA0013 		orr	r3, r3, r0, lsl #4
 254:libraries/STM32F4xx_StdPeriph_Driver/src/stm32f4xx_fmc.c ****                         (FMC_NORSRAMInitStruct->FMC_WriteTimingStruct->FMC_BusTurnAroundDuration <<
 334              		.loc 1 254 70 view .LVU129
 335 00f8 8868     		ldr	r0, [r1, #8]
 253:libraries/STM32F4xx_StdPeriph_Driver/src/stm32f4xx_fmc.c ****                         (FMC_NORSRAMInitStruct->FMC_WriteTimingStruct->FMC_DataSetupTime << 8) |
 336              		.loc 1 253 97 view .LVU130
 337 00fa 43EA0023 		orr	r3, r3, r0, lsl #8
 255:libraries/STM32F4xx_StdPeriph_Driver/src/stm32f4xx_fmc.c ****                          FMC_NORSRAMInitStruct->FMC_WriteTimingStruct->FMC_AccessMode);
 338              		.loc 1 255 70 view .LVU131
 339 00fe C868     		ldr	r0, [r1, #12]
 254:libraries/STM32F4xx_StdPeriph_Driver/src/stm32f4xx_fmc.c ****                         (FMC_NORSRAMInitStruct->FMC_WriteTimingStruct->FMC_BusTurnAroundDuration <<
 340              		.loc 1 254 96 view .LVU132
 341 0100 43EA0043 		orr	r3, r3, r0, lsl #16
 256:libraries/STM32F4xx_StdPeriph_Driver/src/stm32f4xx_fmc.c **** 
 342              		.loc 1 256 70 view .LVU133
 343 0104 8969     		ldr	r1, [r1, #24]
 255:libraries/STM32F4xx_StdPeriph_Driver/src/stm32f4xx_fmc.c ****                          FMC_NORSRAMInitStruct->FMC_WriteTimingStruct->FMC_AccessMode);
 344              		.loc 1 255 105 view .LVU134
 345 0106 0B43     		orrs	r3, r3, r1
 252:libraries/STM32F4xx_StdPeriph_Driver/src/stm32f4xx_fmc.c ****                         (FMC_NORSRAMInitStruct->FMC_WriteTimingStruct->FMC_AddressHoldTime << 4)|
 346              		.loc 1 252 12 view .LVU135
 347 0108 2343     		orrs	r3, r3, r4
 348              	.LVL20:
 258:libraries/STM32F4xx_StdPeriph_Driver/src/stm32f4xx_fmc.c ****   }
 349              		.loc 1 258 5 is_stmt 1 view .LVU136
 258:libraries/STM32F4xx_StdPeriph_Driver/src/stm32f4xx_fmc.c ****   }
 350              		.loc 1 258 55 is_stmt 0 view .LVU137
 351 010a C2F80431 		str	r3, [r2, #260]
 352 010e C7E7     		b	.L4
 353              	.L14:
 354              		.align	2
 355              	.L13:
 356 0110 8000E7FF 		.word	-1638272
 357 0114 0000F0CF 		.word	-806354944
 358              		.cfi_endproc
 359              	.LFE124:
 361              		.section	.text.FMC_NORSRAMStructInit,"ax",%progbits
 362              		.align	1
 363              		.global	FMC_NORSRAMStructInit
 364              		.syntax unified
 365              		.thumb
ARM GAS  C:\Users\ktkuru\AppData\Local\Temp\cc04RWjJ.s 			page 13


 366              		.thumb_func
 368              	FMC_NORSRAMStructInit:
 369              	.LVL21:
 370              	.LFB125:
 266:libraries/STM32F4xx_StdPeriph_Driver/src/stm32f4xx_fmc.c **** 
 267:libraries/STM32F4xx_StdPeriph_Driver/src/stm32f4xx_fmc.c **** /**
 268:libraries/STM32F4xx_StdPeriph_Driver/src/stm32f4xx_fmc.c ****   * @brief  Fills each FMC_NORSRAMInitStruct member with its default value.
 269:libraries/STM32F4xx_StdPeriph_Driver/src/stm32f4xx_fmc.c ****   * @param  FMC_NORSRAMInitStruct: pointer to a FMC_NORSRAMInitTypeDef structure 
 270:libraries/STM32F4xx_StdPeriph_Driver/src/stm32f4xx_fmc.c ****   *         which will be initialized.
 271:libraries/STM32F4xx_StdPeriph_Driver/src/stm32f4xx_fmc.c ****   * @retval None
 272:libraries/STM32F4xx_StdPeriph_Driver/src/stm32f4xx_fmc.c ****   */
 273:libraries/STM32F4xx_StdPeriph_Driver/src/stm32f4xx_fmc.c **** void FMC_NORSRAMStructInit(FMC_NORSRAMInitTypeDef* FMC_NORSRAMInitStruct)
 274:libraries/STM32F4xx_StdPeriph_Driver/src/stm32f4xx_fmc.c **** {  
 371              		.loc 1 274 1 is_stmt 1 view -0
 372              		.cfi_startproc
 373              		@ args = 0, pretend = 0, frame = 0
 374              		@ frame_needed = 0, uses_anonymous_args = 0
 375              		@ link register save eliminated.
 275:libraries/STM32F4xx_StdPeriph_Driver/src/stm32f4xx_fmc.c ****   /* Reset NOR/SRAM Init structure parameters values */
 276:libraries/STM32F4xx_StdPeriph_Driver/src/stm32f4xx_fmc.c ****   FMC_NORSRAMInitStruct->FMC_Bank = FMC_Bank1_NORSRAM1;
 376              		.loc 1 276 3 view .LVU139
 377              		.loc 1 276 35 is_stmt 0 view .LVU140
 378 0000 0023     		movs	r3, #0
 379 0002 0360     		str	r3, [r0]
 277:libraries/STM32F4xx_StdPeriph_Driver/src/stm32f4xx_fmc.c ****   FMC_NORSRAMInitStruct->FMC_DataAddressMux = FMC_DataAddressMux_Enable;
 380              		.loc 1 277 3 is_stmt 1 view .LVU141
 381              		.loc 1 277 45 is_stmt 0 view .LVU142
 382 0004 0222     		movs	r2, #2
 383 0006 4260     		str	r2, [r0, #4]
 278:libraries/STM32F4xx_StdPeriph_Driver/src/stm32f4xx_fmc.c ****   FMC_NORSRAMInitStruct->FMC_MemoryType = FMC_MemoryType_SRAM;
 384              		.loc 1 278 3 is_stmt 1 view .LVU143
 385              		.loc 1 278 41 is_stmt 0 view .LVU144
 386 0008 8360     		str	r3, [r0, #8]
 279:libraries/STM32F4xx_StdPeriph_Driver/src/stm32f4xx_fmc.c ****   FMC_NORSRAMInitStruct->FMC_MemoryDataWidth = FMC_NORSRAM_MemoryDataWidth_16b;
 387              		.loc 1 279 3 is_stmt 1 view .LVU145
 388              		.loc 1 279 46 is_stmt 0 view .LVU146
 389 000a 1022     		movs	r2, #16
 390 000c C260     		str	r2, [r0, #12]
 280:libraries/STM32F4xx_StdPeriph_Driver/src/stm32f4xx_fmc.c ****   FMC_NORSRAMInitStruct->FMC_BurstAccessMode = FMC_BurstAccessMode_Disable;
 391              		.loc 1 280 3 is_stmt 1 view .LVU147
 392              		.loc 1 280 46 is_stmt 0 view .LVU148
 393 000e 0361     		str	r3, [r0, #16]
 281:libraries/STM32F4xx_StdPeriph_Driver/src/stm32f4xx_fmc.c ****   FMC_NORSRAMInitStruct->FMC_AsynchronousWait = FMC_AsynchronousWait_Disable;
 394              		.loc 1 281 3 is_stmt 1 view .LVU149
 395              		.loc 1 281 47 is_stmt 0 view .LVU150
 396 0010 C362     		str	r3, [r0, #44]
 282:libraries/STM32F4xx_StdPeriph_Driver/src/stm32f4xx_fmc.c ****   FMC_NORSRAMInitStruct->FMC_WaitSignalPolarity = FMC_WaitSignalPolarity_Low;
 397              		.loc 1 282 3 is_stmt 1 view .LVU151
 398              		.loc 1 282 49 is_stmt 0 view .LVU152
 399 0012 4361     		str	r3, [r0, #20]
 283:libraries/STM32F4xx_StdPeriph_Driver/src/stm32f4xx_fmc.c ****   FMC_NORSRAMInitStruct->FMC_WrapMode = FMC_WrapMode_Disable;
 400              		.loc 1 283 3 is_stmt 1 view .LVU153
 401              		.loc 1 283 39 is_stmt 0 view .LVU154
 402 0014 8361     		str	r3, [r0, #24]
 284:libraries/STM32F4xx_StdPeriph_Driver/src/stm32f4xx_fmc.c ****   FMC_NORSRAMInitStruct->FMC_WaitSignalActive = FMC_WaitSignalActive_BeforeWaitState;
 403              		.loc 1 284 3 is_stmt 1 view .LVU155
 404              		.loc 1 284 47 is_stmt 0 view .LVU156
ARM GAS  C:\Users\ktkuru\AppData\Local\Temp\cc04RWjJ.s 			page 14


 405 0016 C361     		str	r3, [r0, #28]
 285:libraries/STM32F4xx_StdPeriph_Driver/src/stm32f4xx_fmc.c ****   FMC_NORSRAMInitStruct->FMC_WriteOperation = FMC_WriteOperation_Enable;
 406              		.loc 1 285 3 is_stmt 1 view .LVU157
 407              		.loc 1 285 45 is_stmt 0 view .LVU158
 408 0018 4FF48052 		mov	r2, #4096
 409 001c 0262     		str	r2, [r0, #32]
 286:libraries/STM32F4xx_StdPeriph_Driver/src/stm32f4xx_fmc.c ****   FMC_NORSRAMInitStruct->FMC_WaitSignal = FMC_WaitSignal_Enable;
 410              		.loc 1 286 3 is_stmt 1 view .LVU159
 411              		.loc 1 286 41 is_stmt 0 view .LVU160
 412 001e 4FF40052 		mov	r2, #8192
 413 0022 4262     		str	r2, [r0, #36]
 287:libraries/STM32F4xx_StdPeriph_Driver/src/stm32f4xx_fmc.c ****   FMC_NORSRAMInitStruct->FMC_ExtendedMode = FMC_ExtendedMode_Disable;
 414              		.loc 1 287 3 is_stmt 1 view .LVU161
 415              		.loc 1 287 43 is_stmt 0 view .LVU162
 416 0024 8362     		str	r3, [r0, #40]
 288:libraries/STM32F4xx_StdPeriph_Driver/src/stm32f4xx_fmc.c ****   FMC_NORSRAMInitStruct->FMC_WriteBurst = FMC_WriteBurst_Disable;
 417              		.loc 1 288 3 is_stmt 1 view .LVU163
 418              		.loc 1 288 41 is_stmt 0 view .LVU164
 419 0026 0363     		str	r3, [r0, #48]
 289:libraries/STM32F4xx_StdPeriph_Driver/src/stm32f4xx_fmc.c ****   FMC_NORSRAMInitStruct->FMC_ContinousClock = FMC_CClock_SyncOnly;
 420              		.loc 1 289 3 is_stmt 1 view .LVU165
 421              		.loc 1 289 45 is_stmt 0 view .LVU166
 422 0028 4363     		str	r3, [r0, #52]
 290:libraries/STM32F4xx_StdPeriph_Driver/src/stm32f4xx_fmc.c ****   
 291:libraries/STM32F4xx_StdPeriph_Driver/src/stm32f4xx_fmc.c ****   FMC_NORSRAMInitStruct->FMC_ReadWriteTimingStruct = (FMC_NORSRAMTimingInitTypeDef*)((uint32_t)&FMC
 423              		.loc 1 291 3 is_stmt 1 view .LVU167
 424              		.loc 1 291 52 is_stmt 0 view .LVU168
 425 002a 024B     		ldr	r3, .L16
 426 002c 8363     		str	r3, [r0, #56]
 292:libraries/STM32F4xx_StdPeriph_Driver/src/stm32f4xx_fmc.c ****   FMC_NORSRAMInitStruct->FMC_WriteTimingStruct = (FMC_NORSRAMTimingInitTypeDef*)((uint32_t)&FMC_Def
 427              		.loc 1 292 3 is_stmt 1 view .LVU169
 428              		.loc 1 292 48 is_stmt 0 view .LVU170
 429 002e C363     		str	r3, [r0, #60]
 293:libraries/STM32F4xx_StdPeriph_Driver/src/stm32f4xx_fmc.c **** }
 430              		.loc 1 293 1 view .LVU171
 431 0030 7047     		bx	lr
 432              	.L17:
 433 0032 00BF     		.align	2
 434              	.L16:
 435 0034 00000000 		.word	FMC_DefaultTimingStruct
 436              		.cfi_endproc
 437              	.LFE125:
 439              		.section	.text.FMC_NORSRAMCmd,"ax",%progbits
 440              		.align	1
 441              		.global	FMC_NORSRAMCmd
 442              		.syntax unified
 443              		.thumb
 444              		.thumb_func
 446              	FMC_NORSRAMCmd:
 447              	.LVL22:
 448              	.LFB126:
 294:libraries/STM32F4xx_StdPeriph_Driver/src/stm32f4xx_fmc.c **** 
 295:libraries/STM32F4xx_StdPeriph_Driver/src/stm32f4xx_fmc.c **** /**
 296:libraries/STM32F4xx_StdPeriph_Driver/src/stm32f4xx_fmc.c ****   * @brief  Enables or disables the specified NOR/SRAM Memory Bank.
 297:libraries/STM32F4xx_StdPeriph_Driver/src/stm32f4xx_fmc.c ****   * @param  FMC_Bank: specifies the FMC Bank to be used
 298:libraries/STM32F4xx_StdPeriph_Driver/src/stm32f4xx_fmc.c ****   *          This parameter can be one of the following values:
 299:libraries/STM32F4xx_StdPeriph_Driver/src/stm32f4xx_fmc.c ****   *            @arg FMC_Bank1_NORSRAM1: FMC Bank1 NOR/SRAM1  
ARM GAS  C:\Users\ktkuru\AppData\Local\Temp\cc04RWjJ.s 			page 15


 300:libraries/STM32F4xx_StdPeriph_Driver/src/stm32f4xx_fmc.c ****   *            @arg FMC_Bank1_NORSRAM2: FMC Bank1 NOR/SRAM2 
 301:libraries/STM32F4xx_StdPeriph_Driver/src/stm32f4xx_fmc.c ****   *            @arg FMC_Bank1_NORSRAM3: FMC Bank1 NOR/SRAM3 
 302:libraries/STM32F4xx_StdPeriph_Driver/src/stm32f4xx_fmc.c ****   *            @arg FMC_Bank1_NORSRAM4: FMC Bank1 NOR/SRAM4 
 303:libraries/STM32F4xx_StdPeriph_Driver/src/stm32f4xx_fmc.c ****   * @param  NewState: new state of the FMC_Bank. This parameter can be: ENABLE or DISABLE.
 304:libraries/STM32F4xx_StdPeriph_Driver/src/stm32f4xx_fmc.c ****   * @retval None
 305:libraries/STM32F4xx_StdPeriph_Driver/src/stm32f4xx_fmc.c ****   */
 306:libraries/STM32F4xx_StdPeriph_Driver/src/stm32f4xx_fmc.c **** void FMC_NORSRAMCmd(uint32_t FMC_Bank, FunctionalState NewState)
 307:libraries/STM32F4xx_StdPeriph_Driver/src/stm32f4xx_fmc.c **** {
 449              		.loc 1 307 1 is_stmt 1 view -0
 450              		.cfi_startproc
 451              		@ args = 0, pretend = 0, frame = 0
 452              		@ frame_needed = 0, uses_anonymous_args = 0
 453              		@ link register save eliminated.
 308:libraries/STM32F4xx_StdPeriph_Driver/src/stm32f4xx_fmc.c ****   assert_param(IS_FMC_NORSRAM_BANK(FMC_Bank));
 454              		.loc 1 308 3 view .LVU173
 309:libraries/STM32F4xx_StdPeriph_Driver/src/stm32f4xx_fmc.c ****   assert_param(IS_FUNCTIONAL_STATE(NewState));
 455              		.loc 1 309 3 view .LVU174
 310:libraries/STM32F4xx_StdPeriph_Driver/src/stm32f4xx_fmc.c ****   
 311:libraries/STM32F4xx_StdPeriph_Driver/src/stm32f4xx_fmc.c ****   if (NewState != DISABLE)
 456              		.loc 1 311 3 view .LVU175
 457              		.loc 1 311 6 is_stmt 0 view .LVU176
 458 0000 41B1     		cbz	r1, .L19
 312:libraries/STM32F4xx_StdPeriph_Driver/src/stm32f4xx_fmc.c ****   {
 313:libraries/STM32F4xx_StdPeriph_Driver/src/stm32f4xx_fmc.c ****     /* Enable the selected NOR/SRAM Bank by setting the PBKEN bit in the BCRx register */
 314:libraries/STM32F4xx_StdPeriph_Driver/src/stm32f4xx_fmc.c ****     FMC_Bank1->BTCR[FMC_Bank] |= BCR_MBKEN_SET;
 459              		.loc 1 314 5 is_stmt 1 view .LVU177
 460              		.loc 1 314 20 is_stmt 0 view .LVU178
 461 0002 4FF02042 		mov	r2, #-1610612736
 462 0006 52F82030 		ldr	r3, [r2, r0, lsl #2]
 463              		.loc 1 314 31 view .LVU179
 464 000a 43F00103 		orr	r3, r3, #1
 465 000e 42F82030 		str	r3, [r2, r0, lsl #2]
 466 0012 7047     		bx	lr
 467              	.L19:
 315:libraries/STM32F4xx_StdPeriph_Driver/src/stm32f4xx_fmc.c ****   }
 316:libraries/STM32F4xx_StdPeriph_Driver/src/stm32f4xx_fmc.c ****   else
 317:libraries/STM32F4xx_StdPeriph_Driver/src/stm32f4xx_fmc.c ****   {
 318:libraries/STM32F4xx_StdPeriph_Driver/src/stm32f4xx_fmc.c ****     /* Disable the selected NOR/SRAM Bank by clearing the PBKEN bit in the BCRx register */
 319:libraries/STM32F4xx_StdPeriph_Driver/src/stm32f4xx_fmc.c ****     FMC_Bank1->BTCR[FMC_Bank] &= BCR_MBKEN_RESET;
 468              		.loc 1 319 5 is_stmt 1 view .LVU180
 469              		.loc 1 319 20 is_stmt 0 view .LVU181
 470 0014 4FF02042 		mov	r2, #-1610612736
 471 0018 52F82010 		ldr	r1, [r2, r0, lsl #2]
 472              	.LVL23:
 473              		.loc 1 319 31 view .LVU182
 474 001c 024B     		ldr	r3, .L21
 475 001e 0B40     		ands	r3, r3, r1
 476 0020 42F82030 		str	r3, [r2, r0, lsl #2]
 320:libraries/STM32F4xx_StdPeriph_Driver/src/stm32f4xx_fmc.c ****   }
 321:libraries/STM32F4xx_StdPeriph_Driver/src/stm32f4xx_fmc.c **** }
 477              		.loc 1 321 1 view .LVU183
 478 0024 7047     		bx	lr
 479              	.L22:
 480 0026 00BF     		.align	2
 481              	.L21:
 482 0028 FEFF0F00 		.word	1048574
 483              		.cfi_endproc
ARM GAS  C:\Users\ktkuru\AppData\Local\Temp\cc04RWjJ.s 			page 16


 484              	.LFE126:
 486              		.section	.text.FMC_NANDDeInit,"ax",%progbits
 487              		.align	1
 488              		.global	FMC_NANDDeInit
 489              		.syntax unified
 490              		.thumb
 491              		.thumb_func
 493              	FMC_NANDDeInit:
 494              	.LVL24:
 495              	.LFB127:
 322:libraries/STM32F4xx_StdPeriph_Driver/src/stm32f4xx_fmc.c **** /**
 323:libraries/STM32F4xx_StdPeriph_Driver/src/stm32f4xx_fmc.c ****   * @}
 324:libraries/STM32F4xx_StdPeriph_Driver/src/stm32f4xx_fmc.c ****   */
 325:libraries/STM32F4xx_StdPeriph_Driver/src/stm32f4xx_fmc.c **** 
 326:libraries/STM32F4xx_StdPeriph_Driver/src/stm32f4xx_fmc.c **** /** @defgroup FMC_Group2 NAND Controller functions
 327:libraries/STM32F4xx_StdPeriph_Driver/src/stm32f4xx_fmc.c ****   * @brief    NAND Controller functions 
 328:libraries/STM32F4xx_StdPeriph_Driver/src/stm32f4xx_fmc.c ****   *
 329:libraries/STM32F4xx_StdPeriph_Driver/src/stm32f4xx_fmc.c **** @verbatim   
 330:libraries/STM32F4xx_StdPeriph_Driver/src/stm32f4xx_fmc.c ****  ===============================================================================
 331:libraries/STM32F4xx_StdPeriph_Driver/src/stm32f4xx_fmc.c ****                     ##### NAND Controller functions #####
 332:libraries/STM32F4xx_StdPeriph_Driver/src/stm32f4xx_fmc.c ****  ===============================================================================  
 333:libraries/STM32F4xx_StdPeriph_Driver/src/stm32f4xx_fmc.c **** 
 334:libraries/STM32F4xx_StdPeriph_Driver/src/stm32f4xx_fmc.c ****  [..]  The following sequence should be followed to configure the FMC to interface 
 335:libraries/STM32F4xx_StdPeriph_Driver/src/stm32f4xx_fmc.c ****        with 8-bit or 16-bit NAND memory connected to the NAND Bank:
 336:libraries/STM32F4xx_StdPeriph_Driver/src/stm32f4xx_fmc.c ****  
 337:libraries/STM32F4xx_StdPeriph_Driver/src/stm32f4xx_fmc.c ****   (#) Enable the clock for the FMC and associated GPIOs using the following functions:
 338:libraries/STM32F4xx_StdPeriph_Driver/src/stm32f4xx_fmc.c ****       (++)  RCC_AHB3PeriphClockCmd(RCC_AHB3Periph_FMC, ENABLE);
 339:libraries/STM32F4xx_StdPeriph_Driver/src/stm32f4xx_fmc.c ****       (++)  RCC_AHB1PeriphClockCmd(RCC_AHB1Periph_GPIOx, ENABLE);
 340:libraries/STM32F4xx_StdPeriph_Driver/src/stm32f4xx_fmc.c **** 
 341:libraries/STM32F4xx_StdPeriph_Driver/src/stm32f4xx_fmc.c ****   (#) FMC pins configuration 
 342:libraries/STM32F4xx_StdPeriph_Driver/src/stm32f4xx_fmc.c ****       (++) Connect the involved FMC pins to AF12 using the following function 
 343:libraries/STM32F4xx_StdPeriph_Driver/src/stm32f4xx_fmc.c ****            GPIO_PinAFConfig(GPIOx, GPIO_PinSourcex, GPIO_AF_FMC); 
 344:libraries/STM32F4xx_StdPeriph_Driver/src/stm32f4xx_fmc.c ****       (++) Configure these FMC pins in alternate function mode by calling the function
 345:libraries/STM32F4xx_StdPeriph_Driver/src/stm32f4xx_fmc.c ****            GPIO_Init();    
 346:libraries/STM32F4xx_StdPeriph_Driver/src/stm32f4xx_fmc.c ****        
 347:libraries/STM32F4xx_StdPeriph_Driver/src/stm32f4xx_fmc.c ****   (#) Declare a FMC_NANDInitTypeDef structure, for example:
 348:libraries/STM32F4xx_StdPeriph_Driver/src/stm32f4xx_fmc.c ****       FMC_NANDInitTypeDef  FMC_NANDInitStructure;
 349:libraries/STM32F4xx_StdPeriph_Driver/src/stm32f4xx_fmc.c ****       and fill the FMC_NANDInitStructure variable with the allowed values of
 350:libraries/STM32F4xx_StdPeriph_Driver/src/stm32f4xx_fmc.c ****       the structure member.
 351:libraries/STM32F4xx_StdPeriph_Driver/src/stm32f4xx_fmc.c ****       
 352:libraries/STM32F4xx_StdPeriph_Driver/src/stm32f4xx_fmc.c ****   (#) Initialize the NAND Controller by calling the function
 353:libraries/STM32F4xx_StdPeriph_Driver/src/stm32f4xx_fmc.c ****       FMC_NANDInit(&FMC_NANDInitStructure); 
 354:libraries/STM32F4xx_StdPeriph_Driver/src/stm32f4xx_fmc.c **** 
 355:libraries/STM32F4xx_StdPeriph_Driver/src/stm32f4xx_fmc.c ****   (#) Then enable the NAND Bank, for example:
 356:libraries/STM32F4xx_StdPeriph_Driver/src/stm32f4xx_fmc.c ****       FMC_NANDCmd(FMC_Bank3_NAND, ENABLE);  
 357:libraries/STM32F4xx_StdPeriph_Driver/src/stm32f4xx_fmc.c **** 
 358:libraries/STM32F4xx_StdPeriph_Driver/src/stm32f4xx_fmc.c ****   (#) At this stage you can read/write from/to the memory connected to the NAND Bank. 
 359:libraries/STM32F4xx_StdPeriph_Driver/src/stm32f4xx_fmc.c ****    
 360:libraries/STM32F4xx_StdPeriph_Driver/src/stm32f4xx_fmc.c ****  [..]
 361:libraries/STM32F4xx_StdPeriph_Driver/src/stm32f4xx_fmc.c ****   (@) To enable the Error Correction Code (ECC), you have to use the function
 362:libraries/STM32F4xx_StdPeriph_Driver/src/stm32f4xx_fmc.c ****       FMC_NANDECCCmd(FMC_Bank3_NAND, ENABLE);  
 363:libraries/STM32F4xx_StdPeriph_Driver/src/stm32f4xx_fmc.c ****  [..]
 364:libraries/STM32F4xx_StdPeriph_Driver/src/stm32f4xx_fmc.c ****   (@) and to get the current ECC value you have to use the function
 365:libraries/STM32F4xx_StdPeriph_Driver/src/stm32f4xx_fmc.c ****       ECCval = FMC_GetECC(FMC_Bank3_NAND); 
 366:libraries/STM32F4xx_StdPeriph_Driver/src/stm32f4xx_fmc.c **** 
 367:libraries/STM32F4xx_StdPeriph_Driver/src/stm32f4xx_fmc.c **** @endverbatim
 368:libraries/STM32F4xx_StdPeriph_Driver/src/stm32f4xx_fmc.c ****   * @{
ARM GAS  C:\Users\ktkuru\AppData\Local\Temp\cc04RWjJ.s 			page 17


 369:libraries/STM32F4xx_StdPeriph_Driver/src/stm32f4xx_fmc.c ****   */
 370:libraries/STM32F4xx_StdPeriph_Driver/src/stm32f4xx_fmc.c ****   
 371:libraries/STM32F4xx_StdPeriph_Driver/src/stm32f4xx_fmc.c **** /**
 372:libraries/STM32F4xx_StdPeriph_Driver/src/stm32f4xx_fmc.c ****   * @brief  De-initializes the FMC NAND Banks registers to their default reset values.
 373:libraries/STM32F4xx_StdPeriph_Driver/src/stm32f4xx_fmc.c ****   * @param  FMC_Bank: specifies the FMC Bank to be used
 374:libraries/STM32F4xx_StdPeriph_Driver/src/stm32f4xx_fmc.c ****   *          This parameter can be one of the following values:
 375:libraries/STM32F4xx_StdPeriph_Driver/src/stm32f4xx_fmc.c ****   *            @arg FMC_Bank2_NAND: FMC Bank2 NAND 
 376:libraries/STM32F4xx_StdPeriph_Driver/src/stm32f4xx_fmc.c ****   *            @arg FMC_Bank3_NAND: FMC Bank3 NAND 
 377:libraries/STM32F4xx_StdPeriph_Driver/src/stm32f4xx_fmc.c ****   * @retval None
 378:libraries/STM32F4xx_StdPeriph_Driver/src/stm32f4xx_fmc.c ****   */
 379:libraries/STM32F4xx_StdPeriph_Driver/src/stm32f4xx_fmc.c **** void FMC_NANDDeInit(uint32_t FMC_Bank)
 380:libraries/STM32F4xx_StdPeriph_Driver/src/stm32f4xx_fmc.c **** {
 496              		.loc 1 380 1 is_stmt 1 view -0
 497              		.cfi_startproc
 498              		@ args = 0, pretend = 0, frame = 0
 499              		@ frame_needed = 0, uses_anonymous_args = 0
 500              		@ link register save eliminated.
 381:libraries/STM32F4xx_StdPeriph_Driver/src/stm32f4xx_fmc.c ****   /* Check the parameter */
 382:libraries/STM32F4xx_StdPeriph_Driver/src/stm32f4xx_fmc.c ****   assert_param(IS_FMC_NAND_BANK(FMC_Bank));
 501              		.loc 1 382 3 view .LVU185
 383:libraries/STM32F4xx_StdPeriph_Driver/src/stm32f4xx_fmc.c ****   
 384:libraries/STM32F4xx_StdPeriph_Driver/src/stm32f4xx_fmc.c ****   if(FMC_Bank == FMC_Bank2_NAND)
 502              		.loc 1 384 3 view .LVU186
 503              		.loc 1 384 5 is_stmt 0 view .LVU187
 504 0000 1028     		cmp	r0, #16
 505 0002 0ED0     		beq	.L26
 385:libraries/STM32F4xx_StdPeriph_Driver/src/stm32f4xx_fmc.c ****   {
 386:libraries/STM32F4xx_StdPeriph_Driver/src/stm32f4xx_fmc.c ****     /* Set the FMC_Bank2 registers to their reset values */
 387:libraries/STM32F4xx_StdPeriph_Driver/src/stm32f4xx_fmc.c ****     FMC_Bank2->PCR2 = 0x00000018;
 388:libraries/STM32F4xx_StdPeriph_Driver/src/stm32f4xx_fmc.c ****     FMC_Bank2->SR2 = 0x00000040;
 389:libraries/STM32F4xx_StdPeriph_Driver/src/stm32f4xx_fmc.c ****     FMC_Bank2->PMEM2 = 0xFCFCFCFC;
 390:libraries/STM32F4xx_StdPeriph_Driver/src/stm32f4xx_fmc.c ****     FMC_Bank2->PATT2 = 0xFCFCFCFC;  
 391:libraries/STM32F4xx_StdPeriph_Driver/src/stm32f4xx_fmc.c ****   }
 392:libraries/STM32F4xx_StdPeriph_Driver/src/stm32f4xx_fmc.c ****   /* FMC_Bank3_NAND */  
 393:libraries/STM32F4xx_StdPeriph_Driver/src/stm32f4xx_fmc.c ****   else
 394:libraries/STM32F4xx_StdPeriph_Driver/src/stm32f4xx_fmc.c ****   {
 395:libraries/STM32F4xx_StdPeriph_Driver/src/stm32f4xx_fmc.c ****     /* Set the FMC_Bank3 registers to their reset values */
 396:libraries/STM32F4xx_StdPeriph_Driver/src/stm32f4xx_fmc.c ****     FMC_Bank3->PCR3 = 0x00000018;
 506              		.loc 1 396 5 is_stmt 1 view .LVU188
 507              		.loc 1 396 21 is_stmt 0 view .LVU189
 508 0004 4FF02043 		mov	r3, #-1610612736
 509 0008 1822     		movs	r2, #24
 510 000a C3F88020 		str	r2, [r3, #128]
 397:libraries/STM32F4xx_StdPeriph_Driver/src/stm32f4xx_fmc.c ****     FMC_Bank3->SR3 = 0x00000040;
 511              		.loc 1 397 5 is_stmt 1 view .LVU190
 512              		.loc 1 397 20 is_stmt 0 view .LVU191
 513 000e 4022     		movs	r2, #64
 514 0010 C3F88420 		str	r2, [r3, #132]
 398:libraries/STM32F4xx_StdPeriph_Driver/src/stm32f4xx_fmc.c ****     FMC_Bank3->PMEM3 = 0xFCFCFCFC;
 515              		.loc 1 398 5 is_stmt 1 view .LVU192
 516              		.loc 1 398 22 is_stmt 0 view .LVU193
 517 0014 4FF0FC32 		mov	r2, #-50529028
 518 0018 C3F88820 		str	r2, [r3, #136]
 399:libraries/STM32F4xx_StdPeriph_Driver/src/stm32f4xx_fmc.c ****     FMC_Bank3->PATT3 = 0xFCFCFCFC; 
 519              		.loc 1 399 5 is_stmt 1 view .LVU194
 520              		.loc 1 399 22 is_stmt 0 view .LVU195
 521 001c C3F88C20 		str	r2, [r3, #140]
ARM GAS  C:\Users\ktkuru\AppData\Local\Temp\cc04RWjJ.s 			page 18


 400:libraries/STM32F4xx_StdPeriph_Driver/src/stm32f4xx_fmc.c ****   }  
 401:libraries/STM32F4xx_StdPeriph_Driver/src/stm32f4xx_fmc.c **** }
 522              		.loc 1 401 1 view .LVU196
 523 0020 7047     		bx	lr
 524              	.L26:
 387:libraries/STM32F4xx_StdPeriph_Driver/src/stm32f4xx_fmc.c ****     FMC_Bank2->SR2 = 0x00000040;
 525              		.loc 1 387 5 is_stmt 1 view .LVU197
 387:libraries/STM32F4xx_StdPeriph_Driver/src/stm32f4xx_fmc.c ****     FMC_Bank2->SR2 = 0x00000040;
 526              		.loc 1 387 21 is_stmt 0 view .LVU198
 527 0022 4FF02043 		mov	r3, #-1610612736
 528 0026 1822     		movs	r2, #24
 529 0028 1A66     		str	r2, [r3, #96]
 388:libraries/STM32F4xx_StdPeriph_Driver/src/stm32f4xx_fmc.c ****     FMC_Bank2->PMEM2 = 0xFCFCFCFC;
 530              		.loc 1 388 5 is_stmt 1 view .LVU199
 388:libraries/STM32F4xx_StdPeriph_Driver/src/stm32f4xx_fmc.c ****     FMC_Bank2->PMEM2 = 0xFCFCFCFC;
 531              		.loc 1 388 20 is_stmt 0 view .LVU200
 532 002a 4022     		movs	r2, #64
 533 002c 5A66     		str	r2, [r3, #100]
 389:libraries/STM32F4xx_StdPeriph_Driver/src/stm32f4xx_fmc.c ****     FMC_Bank2->PATT2 = 0xFCFCFCFC;  
 534              		.loc 1 389 5 is_stmt 1 view .LVU201
 389:libraries/STM32F4xx_StdPeriph_Driver/src/stm32f4xx_fmc.c ****     FMC_Bank2->PATT2 = 0xFCFCFCFC;  
 535              		.loc 1 389 22 is_stmt 0 view .LVU202
 536 002e 4FF0FC32 		mov	r2, #-50529028
 537 0032 9A66     		str	r2, [r3, #104]
 390:libraries/STM32F4xx_StdPeriph_Driver/src/stm32f4xx_fmc.c ****   }
 538              		.loc 1 390 5 is_stmt 1 view .LVU203
 390:libraries/STM32F4xx_StdPeriph_Driver/src/stm32f4xx_fmc.c ****   }
 539              		.loc 1 390 22 is_stmt 0 view .LVU204
 540 0034 DA66     		str	r2, [r3, #108]
 541 0036 7047     		bx	lr
 542              		.cfi_endproc
 543              	.LFE127:
 545              		.section	.text.FMC_NANDInit,"ax",%progbits
 546              		.align	1
 547              		.global	FMC_NANDInit
 548              		.syntax unified
 549              		.thumb
 550              		.thumb_func
 552              	FMC_NANDInit:
 553              	.LVL25:
 554              	.LFB128:
 402:libraries/STM32F4xx_StdPeriph_Driver/src/stm32f4xx_fmc.c **** 
 403:libraries/STM32F4xx_StdPeriph_Driver/src/stm32f4xx_fmc.c **** /**
 404:libraries/STM32F4xx_StdPeriph_Driver/src/stm32f4xx_fmc.c ****   * @brief  Initializes the FMC NAND Banks according to the specified parameters
 405:libraries/STM32F4xx_StdPeriph_Driver/src/stm32f4xx_fmc.c ****   *         in the FMC_NANDInitStruct.
 406:libraries/STM32F4xx_StdPeriph_Driver/src/stm32f4xx_fmc.c ****   * @param  FMC_NANDInitStruct : pointer to a FMC_NANDInitTypeDef structure that
 407:libraries/STM32F4xx_StdPeriph_Driver/src/stm32f4xx_fmc.c ****   *         contains the configuration information for the FMC NAND specified Banks.               
 408:libraries/STM32F4xx_StdPeriph_Driver/src/stm32f4xx_fmc.c ****   * @retval None
 409:libraries/STM32F4xx_StdPeriph_Driver/src/stm32f4xx_fmc.c ****   */
 410:libraries/STM32F4xx_StdPeriph_Driver/src/stm32f4xx_fmc.c **** void FMC_NANDInit(FMC_NANDInitTypeDef* FMC_NANDInitStruct)
 411:libraries/STM32F4xx_StdPeriph_Driver/src/stm32f4xx_fmc.c **** {
 555              		.loc 1 411 1 is_stmt 1 view -0
 556              		.cfi_startproc
 557              		@ args = 0, pretend = 0, frame = 0
 558              		@ frame_needed = 0, uses_anonymous_args = 0
 559              		@ link register save eliminated.
 560              		.loc 1 411 1 is_stmt 0 view .LVU206
ARM GAS  C:\Users\ktkuru\AppData\Local\Temp\cc04RWjJ.s 			page 19


 561 0000 30B4     		push	{r4, r5}
 562              	.LCFI3:
 563              		.cfi_def_cfa_offset 8
 564              		.cfi_offset 4, -8
 565              		.cfi_offset 5, -4
 412:libraries/STM32F4xx_StdPeriph_Driver/src/stm32f4xx_fmc.c ****   uint32_t tmppcr = 0x00000000, tmppmem = 0x00000000, tmppatt = 0x00000000; 
 566              		.loc 1 412 3 is_stmt 1 view .LVU207
 567              	.LVL26:
 413:libraries/STM32F4xx_StdPeriph_Driver/src/stm32f4xx_fmc.c ****     
 414:libraries/STM32F4xx_StdPeriph_Driver/src/stm32f4xx_fmc.c ****   /* Check the parameters */
 415:libraries/STM32F4xx_StdPeriph_Driver/src/stm32f4xx_fmc.c ****   assert_param(IS_FMC_NAND_BANK(FMC_NANDInitStruct->FMC_Bank));
 568              		.loc 1 415 3 view .LVU208
 416:libraries/STM32F4xx_StdPeriph_Driver/src/stm32f4xx_fmc.c ****   assert_param(IS_FMC_WAIT_FEATURE(FMC_NANDInitStruct->FMC_Waitfeature));
 569              		.loc 1 416 3 view .LVU209
 417:libraries/STM32F4xx_StdPeriph_Driver/src/stm32f4xx_fmc.c ****   assert_param(IS_FMC_NAND_MEMORY_WIDTH(FMC_NANDInitStruct->FMC_MemoryDataWidth));
 570              		.loc 1 417 3 view .LVU210
 418:libraries/STM32F4xx_StdPeriph_Driver/src/stm32f4xx_fmc.c ****   assert_param(IS_FMC_ECC_STATE(FMC_NANDInitStruct->FMC_ECC));
 571              		.loc 1 418 3 view .LVU211
 419:libraries/STM32F4xx_StdPeriph_Driver/src/stm32f4xx_fmc.c ****   assert_param(IS_FMC_ECCPAGE_SIZE(FMC_NANDInitStruct->FMC_ECCPageSize));
 572              		.loc 1 419 3 view .LVU212
 420:libraries/STM32F4xx_StdPeriph_Driver/src/stm32f4xx_fmc.c ****   assert_param(IS_FMC_TCLR_TIME(FMC_NANDInitStruct->FMC_TCLRSetupTime));
 573              		.loc 1 420 3 view .LVU213
 421:libraries/STM32F4xx_StdPeriph_Driver/src/stm32f4xx_fmc.c ****   assert_param(IS_FMC_TAR_TIME(FMC_NANDInitStruct->FMC_TARSetupTime));
 574              		.loc 1 421 3 view .LVU214
 422:libraries/STM32F4xx_StdPeriph_Driver/src/stm32f4xx_fmc.c ****   assert_param(IS_FMC_SETUP_TIME(FMC_NANDInitStruct->FMC_CommonSpaceTimingStruct->FMC_SetupTime));
 575              		.loc 1 422 3 view .LVU215
 423:libraries/STM32F4xx_StdPeriph_Driver/src/stm32f4xx_fmc.c ****   assert_param(IS_FMC_WAIT_TIME(FMC_NANDInitStruct->FMC_CommonSpaceTimingStruct->FMC_WaitSetupTime)
 576              		.loc 1 423 3 view .LVU216
 424:libraries/STM32F4xx_StdPeriph_Driver/src/stm32f4xx_fmc.c ****   assert_param(IS_FMC_HOLD_TIME(FMC_NANDInitStruct->FMC_CommonSpaceTimingStruct->FMC_HoldSetupTime)
 577              		.loc 1 424 3 view .LVU217
 425:libraries/STM32F4xx_StdPeriph_Driver/src/stm32f4xx_fmc.c ****   assert_param(IS_FMC_HIZ_TIME(FMC_NANDInitStruct->FMC_CommonSpaceTimingStruct->FMC_HiZSetupTime));
 578              		.loc 1 425 3 view .LVU218
 426:libraries/STM32F4xx_StdPeriph_Driver/src/stm32f4xx_fmc.c ****   assert_param(IS_FMC_SETUP_TIME(FMC_NANDInitStruct->FMC_AttributeSpaceTimingStruct->FMC_SetupTime)
 579              		.loc 1 426 3 view .LVU219
 427:libraries/STM32F4xx_StdPeriph_Driver/src/stm32f4xx_fmc.c ****   assert_param(IS_FMC_WAIT_TIME(FMC_NANDInitStruct->FMC_AttributeSpaceTimingStruct->FMC_WaitSetupTi
 580              		.loc 1 427 3 view .LVU220
 428:libraries/STM32F4xx_StdPeriph_Driver/src/stm32f4xx_fmc.c ****   assert_param(IS_FMC_HOLD_TIME(FMC_NANDInitStruct->FMC_AttributeSpaceTimingStruct->FMC_HoldSetupTi
 581              		.loc 1 428 3 view .LVU221
 429:libraries/STM32F4xx_StdPeriph_Driver/src/stm32f4xx_fmc.c ****   assert_param(IS_FMC_HIZ_TIME(FMC_NANDInitStruct->FMC_AttributeSpaceTimingStruct->FMC_HiZSetupTime
 582              		.loc 1 429 3 view .LVU222
 430:libraries/STM32F4xx_StdPeriph_Driver/src/stm32f4xx_fmc.c **** 
 431:libraries/STM32F4xx_StdPeriph_Driver/src/stm32f4xx_fmc.c ****   if(FMC_NANDInitStruct->FMC_Bank == FMC_Bank2_NAND)
 583              		.loc 1 431 3 view .LVU223
 584              		.loc 1 431 24 is_stmt 0 view .LVU224
 585 0002 0168     		ldr	r1, [r0]
 586              		.loc 1 431 5 view .LVU225
 587 0004 1029     		cmp	r1, #16
 588 0006 43D0     		beq	.L37
 432:libraries/STM32F4xx_StdPeriph_Driver/src/stm32f4xx_fmc.c ****   {
 433:libraries/STM32F4xx_StdPeriph_Driver/src/stm32f4xx_fmc.c ****     /* Get the NAND bank 2 register value */
 434:libraries/STM32F4xx_StdPeriph_Driver/src/stm32f4xx_fmc.c ****     tmppcr = FMC_Bank2->PCR2;
 435:libraries/STM32F4xx_StdPeriph_Driver/src/stm32f4xx_fmc.c ****   }
 436:libraries/STM32F4xx_StdPeriph_Driver/src/stm32f4xx_fmc.c ****   else
 437:libraries/STM32F4xx_StdPeriph_Driver/src/stm32f4xx_fmc.c ****   {
 438:libraries/STM32F4xx_StdPeriph_Driver/src/stm32f4xx_fmc.c ****     /* Get the NAND bank 3 register value */
 439:libraries/STM32F4xx_StdPeriph_Driver/src/stm32f4xx_fmc.c ****     tmppcr = FMC_Bank3->PCR3;
 589              		.loc 1 439 5 is_stmt 1 view .LVU226
ARM GAS  C:\Users\ktkuru\AppData\Local\Temp\cc04RWjJ.s 			page 20


 590              		.loc 1 439 12 is_stmt 0 view .LVU227
 591 0008 4FF02043 		mov	r3, #-1610612736
 592 000c D3F88030 		ldr	r3, [r3, #128]
 593              	.LVL27:
 594              	.L29:
 440:libraries/STM32F4xx_StdPeriph_Driver/src/stm32f4xx_fmc.c ****   }
 441:libraries/STM32F4xx_StdPeriph_Driver/src/stm32f4xx_fmc.c ****   
 442:libraries/STM32F4xx_StdPeriph_Driver/src/stm32f4xx_fmc.c ****   /* Clear PWAITEN, PBKEN, PTYP, PWID, ECCEN, TCLR, TAR and ECCPS bits */
 443:libraries/STM32F4xx_StdPeriph_Driver/src/stm32f4xx_fmc.c ****   tmppcr &= ((uint32_t)~(FMC_PCR2_PWAITEN  | FMC_PCR2_PBKEN | FMC_PCR2_PTYP | \
 595              		.loc 1 443 3 is_stmt 1 view .LVU228
 596              		.loc 1 443 10 is_stmt 0 view .LVU229
 597 0010 284A     		ldr	r2, .L41
 598 0012 1A40     		ands	r2, r2, r3
 599              	.LVL28:
 444:libraries/STM32F4xx_StdPeriph_Driver/src/stm32f4xx_fmc.c ****                        FMC_PCR2_PWID | FMC_PCR2_ECCEN | FMC_PCR2_TCLR | \
 445:libraries/STM32F4xx_StdPeriph_Driver/src/stm32f4xx_fmc.c ****                        FMC_PCR2_TAR | FMC_PCR2_ECCPS)); 
 446:libraries/STM32F4xx_StdPeriph_Driver/src/stm32f4xx_fmc.c **** 
 447:libraries/STM32F4xx_StdPeriph_Driver/src/stm32f4xx_fmc.c ****   /* Set the tmppcr value according to FMC_NANDInitStruct parameters */
 448:libraries/STM32F4xx_StdPeriph_Driver/src/stm32f4xx_fmc.c ****   tmppcr |= (uint32_t)FMC_NANDInitStruct->FMC_Waitfeature |
 600              		.loc 1 448 3 is_stmt 1 view .LVU230
 601              		.loc 1 448 41 is_stmt 0 view .LVU231
 602 0014 4368     		ldr	r3, [r0, #4]
 449:libraries/STM32F4xx_StdPeriph_Driver/src/stm32f4xx_fmc.c ****                       PCR_MEMORYTYPE_NAND |
 450:libraries/STM32F4xx_StdPeriph_Driver/src/stm32f4xx_fmc.c ****                       FMC_NANDInitStruct->FMC_MemoryDataWidth |
 603              		.loc 1 450 41 view .LVU232
 604 0016 8468     		ldr	r4, [r0, #8]
 449:libraries/STM32F4xx_StdPeriph_Driver/src/stm32f4xx_fmc.c ****                       PCR_MEMORYTYPE_NAND |
 605              		.loc 1 449 43 view .LVU233
 606 0018 2343     		orrs	r3, r3, r4
 451:libraries/STM32F4xx_StdPeriph_Driver/src/stm32f4xx_fmc.c ****                       FMC_NANDInitStruct->FMC_ECC |
 607              		.loc 1 451 41 view .LVU234
 608 001a C468     		ldr	r4, [r0, #12]
 450:libraries/STM32F4xx_StdPeriph_Driver/src/stm32f4xx_fmc.c ****                       FMC_NANDInitStruct->FMC_ECC |
 609              		.loc 1 450 63 view .LVU235
 610 001c 2343     		orrs	r3, r3, r4
 452:libraries/STM32F4xx_StdPeriph_Driver/src/stm32f4xx_fmc.c ****                       FMC_NANDInitStruct->FMC_ECCPageSize |
 611              		.loc 1 452 41 view .LVU236
 612 001e 0469     		ldr	r4, [r0, #16]
 451:libraries/STM32F4xx_StdPeriph_Driver/src/stm32f4xx_fmc.c ****                       FMC_NANDInitStruct->FMC_ECC |
 613              		.loc 1 451 51 view .LVU237
 614 0020 2343     		orrs	r3, r3, r4
 453:libraries/STM32F4xx_StdPeriph_Driver/src/stm32f4xx_fmc.c ****                       (FMC_NANDInitStruct->FMC_TCLRSetupTime << 9 )|
 615              		.loc 1 453 42 view .LVU238
 616 0022 4469     		ldr	r4, [r0, #20]
 452:libraries/STM32F4xx_StdPeriph_Driver/src/stm32f4xx_fmc.c ****                       FMC_NANDInitStruct->FMC_ECCPageSize |
 617              		.loc 1 452 59 view .LVU239
 618 0024 43EA4423 		orr	r3, r3, r4, lsl #9
 454:libraries/STM32F4xx_StdPeriph_Driver/src/stm32f4xx_fmc.c ****                       (FMC_NANDInitStruct->FMC_TARSetupTime << 13);
 619              		.loc 1 454 42 view .LVU240
 620 0028 8469     		ldr	r4, [r0, #24]
 453:libraries/STM32F4xx_StdPeriph_Driver/src/stm32f4xx_fmc.c ****                       (FMC_NANDInitStruct->FMC_TCLRSetupTime << 9 )|
 621              		.loc 1 453 68 view .LVU241
 622 002a 43EA4433 		orr	r3, r3, r4, lsl #13
 448:libraries/STM32F4xx_StdPeriph_Driver/src/stm32f4xx_fmc.c ****                       PCR_MEMORYTYPE_NAND |
 623              		.loc 1 448 10 view .LVU242
 624 002e 1343     		orrs	r3, r3, r2
 625 0030 43F00803 		orr	r3, r3, #8
ARM GAS  C:\Users\ktkuru\AppData\Local\Temp\cc04RWjJ.s 			page 21


 626              	.LVL29:
 455:libraries/STM32F4xx_StdPeriph_Driver/src/stm32f4xx_fmc.c ****     
 456:libraries/STM32F4xx_StdPeriph_Driver/src/stm32f4xx_fmc.c ****   if(FMC_NANDInitStruct->FMC_Bank == FMC_Bank2_NAND)
 627              		.loc 1 456 3 is_stmt 1 view .LVU243
 628              		.loc 1 456 5 is_stmt 0 view .LVU244
 629 0034 1029     		cmp	r1, #16
 630 0036 2FD0     		beq	.L38
 457:libraries/STM32F4xx_StdPeriph_Driver/src/stm32f4xx_fmc.c ****   {
 458:libraries/STM32F4xx_StdPeriph_Driver/src/stm32f4xx_fmc.c ****     /* Get the NAND bank 2 register value */
 459:libraries/STM32F4xx_StdPeriph_Driver/src/stm32f4xx_fmc.c ****     tmppmem = FMC_Bank2->PMEM2;
 460:libraries/STM32F4xx_StdPeriph_Driver/src/stm32f4xx_fmc.c ****   }
 461:libraries/STM32F4xx_StdPeriph_Driver/src/stm32f4xx_fmc.c ****   else
 462:libraries/STM32F4xx_StdPeriph_Driver/src/stm32f4xx_fmc.c ****   {
 463:libraries/STM32F4xx_StdPeriph_Driver/src/stm32f4xx_fmc.c ****     /* Get the NAND bank 3 register value */
 464:libraries/STM32F4xx_StdPeriph_Driver/src/stm32f4xx_fmc.c ****     tmppmem = FMC_Bank3->PMEM3;
 631              		.loc 1 464 5 is_stmt 1 view .LVU245
 632              		.loc 1 464 13 is_stmt 0 view .LVU246
 633 0038 4FF02042 		mov	r2, #-1610612736
 634 003c D2F88820 		ldr	r2, [r2, #136]
 635              	.LVL30:
 636              	.L31:
 465:libraries/STM32F4xx_StdPeriph_Driver/src/stm32f4xx_fmc.c ****   } 
 466:libraries/STM32F4xx_StdPeriph_Driver/src/stm32f4xx_fmc.c ****   
 467:libraries/STM32F4xx_StdPeriph_Driver/src/stm32f4xx_fmc.c ****   /* Clear MEMSETx, MEMWAITx, MEMHOLDx and MEMHIZx bits */
 468:libraries/STM32F4xx_StdPeriph_Driver/src/stm32f4xx_fmc.c ****   tmppmem &= ((uint32_t)~(FMC_PMEM2_MEMSET2  | FMC_PMEM2_MEMWAIT2 | FMC_PMEM2_MEMHOLD2 | \
 637              		.loc 1 468 3 is_stmt 1 view .LVU247
 469:libraries/STM32F4xx_StdPeriph_Driver/src/stm32f4xx_fmc.c ****                           FMC_PMEM2_MEMHIZ2)); 
 470:libraries/STM32F4xx_StdPeriph_Driver/src/stm32f4xx_fmc.c **** 
 471:libraries/STM32F4xx_StdPeriph_Driver/src/stm32f4xx_fmc.c ****   /* Set tmppmem value according to FMC_CommonSpaceTimingStructure parameters */
 472:libraries/STM32F4xx_StdPeriph_Driver/src/stm32f4xx_fmc.c ****   tmppmem |= (uint32_t)FMC_NANDInitStruct->FMC_CommonSpaceTimingStruct->FMC_SetupTime |
 638              		.loc 1 472 3 view .LVU248
 639              		.loc 1 472 42 is_stmt 0 view .LVU249
 640 0040 C569     		ldr	r5, [r0, #28]
 641              		.loc 1 472 71 view .LVU250
 642 0042 2A68     		ldr	r2, [r5]
 473:libraries/STM32F4xx_StdPeriph_Driver/src/stm32f4xx_fmc.c ****                        (FMC_NANDInitStruct->FMC_CommonSpaceTimingStruct->FMC_WaitSetupTime << 8) |
 643              		.loc 1 473 72 view .LVU251
 644 0044 6C68     		ldr	r4, [r5, #4]
 472:libraries/STM32F4xx_StdPeriph_Driver/src/stm32f4xx_fmc.c ****                        (FMC_NANDInitStruct->FMC_CommonSpaceTimingStruct->FMC_WaitSetupTime << 8) |
 645              		.loc 1 472 87 view .LVU252
 646 0046 42EA0424 		orr	r4, r2, r4, lsl #8
 474:libraries/STM32F4xx_StdPeriph_Driver/src/stm32f4xx_fmc.c ****                        (FMC_NANDInitStruct->FMC_CommonSpaceTimingStruct->FMC_HoldSetupTime << 16)|
 647              		.loc 1 474 72 view .LVU253
 648 004a AA68     		ldr	r2, [r5, #8]
 473:libraries/STM32F4xx_StdPeriph_Driver/src/stm32f4xx_fmc.c ****                        (FMC_NANDInitStruct->FMC_CommonSpaceTimingStruct->FMC_WaitSetupTime << 8) |
 649              		.loc 1 473 98 view .LVU254
 650 004c 44EA0244 		orr	r4, r4, r2, lsl #16
 475:libraries/STM32F4xx_StdPeriph_Driver/src/stm32f4xx_fmc.c ****                        (FMC_NANDInitStruct->FMC_CommonSpaceTimingStruct->FMC_HiZSetupTime << 24); 
 651              		.loc 1 475 72 view .LVU255
 652 0050 EA68     		ldr	r2, [r5, #12]
 474:libraries/STM32F4xx_StdPeriph_Driver/src/stm32f4xx_fmc.c ****                        (FMC_NANDInitStruct->FMC_CommonSpaceTimingStruct->FMC_HoldSetupTime << 16)|
 653              		.loc 1 474 98 view .LVU256
 654 0052 44EA0264 		orr	r4, r4, r2, lsl #24
 655              	.LVL31:
 476:libraries/STM32F4xx_StdPeriph_Driver/src/stm32f4xx_fmc.c **** 
 477:libraries/STM32F4xx_StdPeriph_Driver/src/stm32f4xx_fmc.c ****   if(FMC_NANDInitStruct->FMC_Bank == FMC_Bank2_NAND)
 656              		.loc 1 477 3 is_stmt 1 view .LVU257
ARM GAS  C:\Users\ktkuru\AppData\Local\Temp\cc04RWjJ.s 			page 22


 657              		.loc 1 477 5 is_stmt 0 view .LVU258
 658 0056 1029     		cmp	r1, #16
 659 0058 22D0     		beq	.L39
 478:libraries/STM32F4xx_StdPeriph_Driver/src/stm32f4xx_fmc.c ****   {
 479:libraries/STM32F4xx_StdPeriph_Driver/src/stm32f4xx_fmc.c ****     /* Get the NAND bank 2 register value */
 480:libraries/STM32F4xx_StdPeriph_Driver/src/stm32f4xx_fmc.c ****     tmppatt = FMC_Bank2->PATT2;
 481:libraries/STM32F4xx_StdPeriph_Driver/src/stm32f4xx_fmc.c ****   }
 482:libraries/STM32F4xx_StdPeriph_Driver/src/stm32f4xx_fmc.c ****   else
 483:libraries/STM32F4xx_StdPeriph_Driver/src/stm32f4xx_fmc.c ****   {
 484:libraries/STM32F4xx_StdPeriph_Driver/src/stm32f4xx_fmc.c ****     /* Get the NAND bank 3 register value */
 485:libraries/STM32F4xx_StdPeriph_Driver/src/stm32f4xx_fmc.c ****     tmppatt = FMC_Bank3->PATT3;
 660              		.loc 1 485 5 is_stmt 1 view .LVU259
 661              		.loc 1 485 13 is_stmt 0 view .LVU260
 662 005a 4FF02042 		mov	r2, #-1610612736
 663 005e D2F88C20 		ldr	r2, [r2, #140]
 664              	.LVL32:
 665              	.L33:
 486:libraries/STM32F4xx_StdPeriph_Driver/src/stm32f4xx_fmc.c ****   } 
 487:libraries/STM32F4xx_StdPeriph_Driver/src/stm32f4xx_fmc.c ****   
 488:libraries/STM32F4xx_StdPeriph_Driver/src/stm32f4xx_fmc.c ****   /* Clear ATTSETx, ATTWAITx, ATTHOLDx and ATTHIZx bits */
 489:libraries/STM32F4xx_StdPeriph_Driver/src/stm32f4xx_fmc.c ****   tmppatt &= ((uint32_t)~(FMC_PATT2_ATTSET2  | FMC_PATT2_ATTWAIT2 | FMC_PATT2_ATTHOLD2 | \
 666              		.loc 1 489 3 is_stmt 1 view .LVU261
 490:libraries/STM32F4xx_StdPeriph_Driver/src/stm32f4xx_fmc.c ****                        FMC_PATT2_ATTHIZ2)); 
 491:libraries/STM32F4xx_StdPeriph_Driver/src/stm32f4xx_fmc.c **** 
 492:libraries/STM32F4xx_StdPeriph_Driver/src/stm32f4xx_fmc.c ****   /* Set tmppatt value according to FMC_AttributeSpaceTimingStructure parameters */
 493:libraries/STM32F4xx_StdPeriph_Driver/src/stm32f4xx_fmc.c ****   tmppatt |= (uint32_t)FMC_NANDInitStruct->FMC_AttributeSpaceTimingStruct->FMC_SetupTime |
 667              		.loc 1 493 3 view .LVU262
 668              		.loc 1 493 42 is_stmt 0 view .LVU263
 669 0062 006A     		ldr	r0, [r0, #32]
 670              	.LVL33:
 671              		.loc 1 493 74 view .LVU264
 672 0064 0268     		ldr	r2, [r0]
 494:libraries/STM32F4xx_StdPeriph_Driver/src/stm32f4xx_fmc.c ****                       (FMC_NANDInitStruct->FMC_AttributeSpaceTimingStruct->FMC_WaitSetupTime << 8) 
 673              		.loc 1 494 74 view .LVU265
 674 0066 4568     		ldr	r5, [r0, #4]
 493:libraries/STM32F4xx_StdPeriph_Driver/src/stm32f4xx_fmc.c ****                       (FMC_NANDInitStruct->FMC_AttributeSpaceTimingStruct->FMC_WaitSetupTime << 8) 
 675              		.loc 1 493 90 view .LVU266
 676 0068 42EA0522 		orr	r2, r2, r5, lsl #8
 495:libraries/STM32F4xx_StdPeriph_Driver/src/stm32f4xx_fmc.c ****                       (FMC_NANDInitStruct->FMC_AttributeSpaceTimingStruct->FMC_HoldSetupTime << 16)
 677              		.loc 1 495 74 view .LVU267
 678 006c 8568     		ldr	r5, [r0, #8]
 494:libraries/STM32F4xx_StdPeriph_Driver/src/stm32f4xx_fmc.c ****                       (FMC_NANDInitStruct->FMC_AttributeSpaceTimingStruct->FMC_WaitSetupTime << 8) 
 679              		.loc 1 494 100 view .LVU268
 680 006e 42EA0542 		orr	r2, r2, r5, lsl #16
 496:libraries/STM32F4xx_StdPeriph_Driver/src/stm32f4xx_fmc.c ****                       (FMC_NANDInitStruct->FMC_AttributeSpaceTimingStruct->FMC_HiZSetupTime << 24);
 681              		.loc 1 496 74 view .LVU269
 682 0072 C068     		ldr	r0, [r0, #12]
 495:libraries/STM32F4xx_StdPeriph_Driver/src/stm32f4xx_fmc.c ****                       (FMC_NANDInitStruct->FMC_AttributeSpaceTimingStruct->FMC_HoldSetupTime << 16)
 683              		.loc 1 495 100 view .LVU270
 684 0074 42EA0062 		orr	r2, r2, r0, lsl #24
 685              	.LVL34:
 497:libraries/STM32F4xx_StdPeriph_Driver/src/stm32f4xx_fmc.c **** 
 498:libraries/STM32F4xx_StdPeriph_Driver/src/stm32f4xx_fmc.c ****   if(FMC_NANDInitStruct->FMC_Bank == FMC_Bank2_NAND)
 686              		.loc 1 498 3 is_stmt 1 view .LVU271
 687              		.loc 1 498 5 is_stmt 0 view .LVU272
 688 0078 1029     		cmp	r1, #16
 689 007a 15D0     		beq	.L40
ARM GAS  C:\Users\ktkuru\AppData\Local\Temp\cc04RWjJ.s 			page 23


 499:libraries/STM32F4xx_StdPeriph_Driver/src/stm32f4xx_fmc.c ****   {
 500:libraries/STM32F4xx_StdPeriph_Driver/src/stm32f4xx_fmc.c ****     /* FMC_Bank2_NAND registers configuration */
 501:libraries/STM32F4xx_StdPeriph_Driver/src/stm32f4xx_fmc.c ****     FMC_Bank2->PCR2 = tmppcr;
 502:libraries/STM32F4xx_StdPeriph_Driver/src/stm32f4xx_fmc.c ****     FMC_Bank2->PMEM2 = tmppmem;
 503:libraries/STM32F4xx_StdPeriph_Driver/src/stm32f4xx_fmc.c ****     FMC_Bank2->PATT2 = tmppatt;
 504:libraries/STM32F4xx_StdPeriph_Driver/src/stm32f4xx_fmc.c ****   }
 505:libraries/STM32F4xx_StdPeriph_Driver/src/stm32f4xx_fmc.c ****   else
 506:libraries/STM32F4xx_StdPeriph_Driver/src/stm32f4xx_fmc.c ****   {
 507:libraries/STM32F4xx_StdPeriph_Driver/src/stm32f4xx_fmc.c ****     /* FMC_Bank3_NAND registers configuration */
 508:libraries/STM32F4xx_StdPeriph_Driver/src/stm32f4xx_fmc.c ****     FMC_Bank3->PCR3 = tmppcr;
 690              		.loc 1 508 5 is_stmt 1 view .LVU273
 691              		.loc 1 508 21 is_stmt 0 view .LVU274
 692 007c 4FF02041 		mov	r1, #-1610612736
 693 0080 C1F88030 		str	r3, [r1, #128]
 509:libraries/STM32F4xx_StdPeriph_Driver/src/stm32f4xx_fmc.c ****     FMC_Bank3->PMEM3 = tmppmem;
 694              		.loc 1 509 5 is_stmt 1 view .LVU275
 695              		.loc 1 509 22 is_stmt 0 view .LVU276
 696 0084 C1F88840 		str	r4, [r1, #136]
 510:libraries/STM32F4xx_StdPeriph_Driver/src/stm32f4xx_fmc.c ****     FMC_Bank3->PATT3 = tmppatt;
 697              		.loc 1 510 5 is_stmt 1 view .LVU277
 698              		.loc 1 510 22 is_stmt 0 view .LVU278
 699 0088 C1F88C20 		str	r2, [r1, #140]
 700              	.L27:
 511:libraries/STM32F4xx_StdPeriph_Driver/src/stm32f4xx_fmc.c ****   }
 512:libraries/STM32F4xx_StdPeriph_Driver/src/stm32f4xx_fmc.c **** }
 701              		.loc 1 512 1 view .LVU279
 702 008c 30BC     		pop	{r4, r5}
 703              	.LCFI4:
 704              		.cfi_remember_state
 705              		.cfi_restore 5
 706              		.cfi_restore 4
 707              		.cfi_def_cfa_offset 0
 708              	.LVL35:
 709              		.loc 1 512 1 view .LVU280
 710 008e 7047     		bx	lr
 711              	.LVL36:
 712              	.L37:
 713              	.LCFI5:
 714              		.cfi_restore_state
 434:libraries/STM32F4xx_StdPeriph_Driver/src/stm32f4xx_fmc.c ****   }
 715              		.loc 1 434 5 is_stmt 1 view .LVU281
 434:libraries/STM32F4xx_StdPeriph_Driver/src/stm32f4xx_fmc.c ****   }
 716              		.loc 1 434 12 is_stmt 0 view .LVU282
 717 0090 4FF02043 		mov	r3, #-1610612736
 718 0094 1B6E     		ldr	r3, [r3, #96]
 719              	.LVL37:
 434:libraries/STM32F4xx_StdPeriph_Driver/src/stm32f4xx_fmc.c ****   }
 720              		.loc 1 434 12 view .LVU283
 721 0096 BBE7     		b	.L29
 722              	.L38:
 459:libraries/STM32F4xx_StdPeriph_Driver/src/stm32f4xx_fmc.c ****   }
 723              		.loc 1 459 5 is_stmt 1 view .LVU284
 459:libraries/STM32F4xx_StdPeriph_Driver/src/stm32f4xx_fmc.c ****   }
 724              		.loc 1 459 13 is_stmt 0 view .LVU285
 725 0098 4FF02042 		mov	r2, #-1610612736
 726 009c 926E     		ldr	r2, [r2, #104]
 727              	.LVL38:
ARM GAS  C:\Users\ktkuru\AppData\Local\Temp\cc04RWjJ.s 			page 24


 459:libraries/STM32F4xx_StdPeriph_Driver/src/stm32f4xx_fmc.c ****   }
 728              		.loc 1 459 13 view .LVU286
 729 009e CFE7     		b	.L31
 730              	.LVL39:
 731              	.L39:
 480:libraries/STM32F4xx_StdPeriph_Driver/src/stm32f4xx_fmc.c ****   }
 732              		.loc 1 480 5 is_stmt 1 view .LVU287
 480:libraries/STM32F4xx_StdPeriph_Driver/src/stm32f4xx_fmc.c ****   }
 733              		.loc 1 480 13 is_stmt 0 view .LVU288
 734 00a0 4FF02042 		mov	r2, #-1610612736
 735 00a4 D26E     		ldr	r2, [r2, #108]
 736              	.LVL40:
 480:libraries/STM32F4xx_StdPeriph_Driver/src/stm32f4xx_fmc.c ****   }
 737              		.loc 1 480 13 view .LVU289
 738 00a6 DCE7     		b	.L33
 739              	.LVL41:
 740              	.L40:
 501:libraries/STM32F4xx_StdPeriph_Driver/src/stm32f4xx_fmc.c ****     FMC_Bank2->PMEM2 = tmppmem;
 741              		.loc 1 501 5 is_stmt 1 view .LVU290
 501:libraries/STM32F4xx_StdPeriph_Driver/src/stm32f4xx_fmc.c ****     FMC_Bank2->PMEM2 = tmppmem;
 742              		.loc 1 501 21 is_stmt 0 view .LVU291
 743 00a8 4FF02041 		mov	r1, #-1610612736
 744 00ac 0B66     		str	r3, [r1, #96]
 502:libraries/STM32F4xx_StdPeriph_Driver/src/stm32f4xx_fmc.c ****     FMC_Bank2->PATT2 = tmppatt;
 745              		.loc 1 502 5 is_stmt 1 view .LVU292
 502:libraries/STM32F4xx_StdPeriph_Driver/src/stm32f4xx_fmc.c ****     FMC_Bank2->PATT2 = tmppatt;
 746              		.loc 1 502 22 is_stmt 0 view .LVU293
 747 00ae 8C66     		str	r4, [r1, #104]
 503:libraries/STM32F4xx_StdPeriph_Driver/src/stm32f4xx_fmc.c ****   }
 748              		.loc 1 503 5 is_stmt 1 view .LVU294
 503:libraries/STM32F4xx_StdPeriph_Driver/src/stm32f4xx_fmc.c ****   }
 749              		.loc 1 503 22 is_stmt 0 view .LVU295
 750 00b0 CA66     		str	r2, [r1, #108]
 751 00b2 EBE7     		b	.L27
 752              	.L42:
 753              		.align	2
 754              	.L41:
 755 00b4 8101F0FF 		.word	-1048191
 756              		.cfi_endproc
 757              	.LFE128:
 759              		.section	.text.FMC_NANDStructInit,"ax",%progbits
 760              		.align	1
 761              		.global	FMC_NANDStructInit
 762              		.syntax unified
 763              		.thumb
 764              		.thumb_func
 766              	FMC_NANDStructInit:
 767              	.LVL42:
 768              	.LFB129:
 513:libraries/STM32F4xx_StdPeriph_Driver/src/stm32f4xx_fmc.c **** 
 514:libraries/STM32F4xx_StdPeriph_Driver/src/stm32f4xx_fmc.c **** 
 515:libraries/STM32F4xx_StdPeriph_Driver/src/stm32f4xx_fmc.c **** /**
 516:libraries/STM32F4xx_StdPeriph_Driver/src/stm32f4xx_fmc.c ****   * @brief  Fills each FMC_NANDInitStruct member with its default value.
 517:libraries/STM32F4xx_StdPeriph_Driver/src/stm32f4xx_fmc.c ****   * @param  FMC_NANDInitStruct: pointer to a FMC_NANDInitTypeDef structure which
 518:libraries/STM32F4xx_StdPeriph_Driver/src/stm32f4xx_fmc.c ****   *         will be initialized.
 519:libraries/STM32F4xx_StdPeriph_Driver/src/stm32f4xx_fmc.c ****   * @retval None
 520:libraries/STM32F4xx_StdPeriph_Driver/src/stm32f4xx_fmc.c ****   */
ARM GAS  C:\Users\ktkuru\AppData\Local\Temp\cc04RWjJ.s 			page 25


 521:libraries/STM32F4xx_StdPeriph_Driver/src/stm32f4xx_fmc.c **** void FMC_NANDStructInit(FMC_NANDInitTypeDef* FMC_NANDInitStruct)
 522:libraries/STM32F4xx_StdPeriph_Driver/src/stm32f4xx_fmc.c **** { 
 769              		.loc 1 522 1 is_stmt 1 view -0
 770              		.cfi_startproc
 771              		@ args = 0, pretend = 0, frame = 0
 772              		@ frame_needed = 0, uses_anonymous_args = 0
 773              		@ link register save eliminated.
 523:libraries/STM32F4xx_StdPeriph_Driver/src/stm32f4xx_fmc.c ****   /* Reset NAND Init structure parameters values */
 524:libraries/STM32F4xx_StdPeriph_Driver/src/stm32f4xx_fmc.c ****   FMC_NANDInitStruct->FMC_Bank = FMC_Bank2_NAND;
 774              		.loc 1 524 3 view .LVU297
 775              		.loc 1 524 32 is_stmt 0 view .LVU298
 776 0000 1022     		movs	r2, #16
 777 0002 0260     		str	r2, [r0]
 525:libraries/STM32F4xx_StdPeriph_Driver/src/stm32f4xx_fmc.c ****   FMC_NANDInitStruct->FMC_Waitfeature = FMC_Waitfeature_Disable;
 778              		.loc 1 525 3 is_stmt 1 view .LVU299
 779              		.loc 1 525 39 is_stmt 0 view .LVU300
 780 0004 0023     		movs	r3, #0
 781 0006 4360     		str	r3, [r0, #4]
 526:libraries/STM32F4xx_StdPeriph_Driver/src/stm32f4xx_fmc.c ****   FMC_NANDInitStruct->FMC_MemoryDataWidth = FMC_NAND_MemoryDataWidth_16b;
 782              		.loc 1 526 3 is_stmt 1 view .LVU301
 783              		.loc 1 526 43 is_stmt 0 view .LVU302
 784 0008 8260     		str	r2, [r0, #8]
 527:libraries/STM32F4xx_StdPeriph_Driver/src/stm32f4xx_fmc.c ****   FMC_NANDInitStruct->FMC_ECC = FMC_ECC_Disable;
 785              		.loc 1 527 3 is_stmt 1 view .LVU303
 786              		.loc 1 527 31 is_stmt 0 view .LVU304
 787 000a C360     		str	r3, [r0, #12]
 528:libraries/STM32F4xx_StdPeriph_Driver/src/stm32f4xx_fmc.c ****   FMC_NANDInitStruct->FMC_ECCPageSize = FMC_ECCPageSize_256Bytes;
 788              		.loc 1 528 3 is_stmt 1 view .LVU305
 789              		.loc 1 528 39 is_stmt 0 view .LVU306
 790 000c 0361     		str	r3, [r0, #16]
 529:libraries/STM32F4xx_StdPeriph_Driver/src/stm32f4xx_fmc.c ****   FMC_NANDInitStruct->FMC_TCLRSetupTime = 0x0;
 791              		.loc 1 529 3 is_stmt 1 view .LVU307
 792              		.loc 1 529 41 is_stmt 0 view .LVU308
 793 000e 4361     		str	r3, [r0, #20]
 530:libraries/STM32F4xx_StdPeriph_Driver/src/stm32f4xx_fmc.c ****   FMC_NANDInitStruct->FMC_TARSetupTime = 0x0;
 794              		.loc 1 530 3 is_stmt 1 view .LVU309
 795              		.loc 1 530 40 is_stmt 0 view .LVU310
 796 0010 8361     		str	r3, [r0, #24]
 531:libraries/STM32F4xx_StdPeriph_Driver/src/stm32f4xx_fmc.c ****   FMC_NANDInitStruct->FMC_CommonSpaceTimingStruct->FMC_SetupTime = 252;
 797              		.loc 1 531 3 is_stmt 1 view .LVU311
 798              		.loc 1 531 21 is_stmt 0 view .LVU312
 799 0012 C269     		ldr	r2, [r0, #28]
 800              		.loc 1 531 66 view .LVU313
 801 0014 FC23     		movs	r3, #252
 802 0016 1360     		str	r3, [r2]
 532:libraries/STM32F4xx_StdPeriph_Driver/src/stm32f4xx_fmc.c ****   FMC_NANDInitStruct->FMC_CommonSpaceTimingStruct->FMC_WaitSetupTime = 252;
 803              		.loc 1 532 3 is_stmt 1 view .LVU314
 804              		.loc 1 532 21 is_stmt 0 view .LVU315
 805 0018 C269     		ldr	r2, [r0, #28]
 806              		.loc 1 532 70 view .LVU316
 807 001a 5360     		str	r3, [r2, #4]
 533:libraries/STM32F4xx_StdPeriph_Driver/src/stm32f4xx_fmc.c ****   FMC_NANDInitStruct->FMC_CommonSpaceTimingStruct->FMC_HoldSetupTime = 252;
 808              		.loc 1 533 3 is_stmt 1 view .LVU317
 809              		.loc 1 533 21 is_stmt 0 view .LVU318
 810 001c C269     		ldr	r2, [r0, #28]
 811              		.loc 1 533 70 view .LVU319
 812 001e 9360     		str	r3, [r2, #8]
ARM GAS  C:\Users\ktkuru\AppData\Local\Temp\cc04RWjJ.s 			page 26


 534:libraries/STM32F4xx_StdPeriph_Driver/src/stm32f4xx_fmc.c ****   FMC_NANDInitStruct->FMC_CommonSpaceTimingStruct->FMC_HiZSetupTime = 252;
 813              		.loc 1 534 3 is_stmt 1 view .LVU320
 814              		.loc 1 534 21 is_stmt 0 view .LVU321
 815 0020 C269     		ldr	r2, [r0, #28]
 816              		.loc 1 534 69 view .LVU322
 817 0022 D360     		str	r3, [r2, #12]
 535:libraries/STM32F4xx_StdPeriph_Driver/src/stm32f4xx_fmc.c ****   FMC_NANDInitStruct->FMC_AttributeSpaceTimingStruct->FMC_SetupTime = 252;
 818              		.loc 1 535 3 is_stmt 1 view .LVU323
 819              		.loc 1 535 21 is_stmt 0 view .LVU324
 820 0024 026A     		ldr	r2, [r0, #32]
 821              		.loc 1 535 69 view .LVU325
 822 0026 1360     		str	r3, [r2]
 536:libraries/STM32F4xx_StdPeriph_Driver/src/stm32f4xx_fmc.c ****   FMC_NANDInitStruct->FMC_AttributeSpaceTimingStruct->FMC_WaitSetupTime = 252;
 823              		.loc 1 536 3 is_stmt 1 view .LVU326
 824              		.loc 1 536 21 is_stmt 0 view .LVU327
 825 0028 026A     		ldr	r2, [r0, #32]
 826              		.loc 1 536 73 view .LVU328
 827 002a 5360     		str	r3, [r2, #4]
 537:libraries/STM32F4xx_StdPeriph_Driver/src/stm32f4xx_fmc.c ****   FMC_NANDInitStruct->FMC_AttributeSpaceTimingStruct->FMC_HoldSetupTime = 252;
 828              		.loc 1 537 3 is_stmt 1 view .LVU329
 829              		.loc 1 537 21 is_stmt 0 view .LVU330
 830 002c 026A     		ldr	r2, [r0, #32]
 831              		.loc 1 537 73 view .LVU331
 832 002e 9360     		str	r3, [r2, #8]
 538:libraries/STM32F4xx_StdPeriph_Driver/src/stm32f4xx_fmc.c ****   FMC_NANDInitStruct->FMC_AttributeSpaceTimingStruct->FMC_HiZSetupTime = 252;	  
 833              		.loc 1 538 3 is_stmt 1 view .LVU332
 834              		.loc 1 538 21 is_stmt 0 view .LVU333
 835 0030 026A     		ldr	r2, [r0, #32]
 836              		.loc 1 538 72 view .LVU334
 837 0032 D360     		str	r3, [r2, #12]
 539:libraries/STM32F4xx_StdPeriph_Driver/src/stm32f4xx_fmc.c **** }
 838              		.loc 1 539 1 view .LVU335
 839 0034 7047     		bx	lr
 840              		.cfi_endproc
 841              	.LFE129:
 843              		.section	.text.FMC_NANDCmd,"ax",%progbits
 844              		.align	1
 845              		.global	FMC_NANDCmd
 846              		.syntax unified
 847              		.thumb
 848              		.thumb_func
 850              	FMC_NANDCmd:
 851              	.LVL43:
 852              	.LFB130:
 540:libraries/STM32F4xx_StdPeriph_Driver/src/stm32f4xx_fmc.c **** 
 541:libraries/STM32F4xx_StdPeriph_Driver/src/stm32f4xx_fmc.c **** /**
 542:libraries/STM32F4xx_StdPeriph_Driver/src/stm32f4xx_fmc.c ****   * @brief  Enables or disables the specified NAND Memory Bank.
 543:libraries/STM32F4xx_StdPeriph_Driver/src/stm32f4xx_fmc.c ****   * @param  FMC_Bank: specifies the FMC Bank to be used
 544:libraries/STM32F4xx_StdPeriph_Driver/src/stm32f4xx_fmc.c ****   *          This parameter can be one of the following values:
 545:libraries/STM32F4xx_StdPeriph_Driver/src/stm32f4xx_fmc.c ****   *            @arg FMC_Bank2_NAND: FMC Bank2 NAND 
 546:libraries/STM32F4xx_StdPeriph_Driver/src/stm32f4xx_fmc.c ****   *            @arg FMC_Bank3_NAND: FMC Bank3 NAND
 547:libraries/STM32F4xx_StdPeriph_Driver/src/stm32f4xx_fmc.c ****   * @param  NewState: new state of the FMC_Bank. This parameter can be: ENABLE or DISABLE.
 548:libraries/STM32F4xx_StdPeriph_Driver/src/stm32f4xx_fmc.c ****   * @retval None
 549:libraries/STM32F4xx_StdPeriph_Driver/src/stm32f4xx_fmc.c ****   */
 550:libraries/STM32F4xx_StdPeriph_Driver/src/stm32f4xx_fmc.c **** void FMC_NANDCmd(uint32_t FMC_Bank, FunctionalState NewState)
 551:libraries/STM32F4xx_StdPeriph_Driver/src/stm32f4xx_fmc.c **** {
 853              		.loc 1 551 1 is_stmt 1 view -0
ARM GAS  C:\Users\ktkuru\AppData\Local\Temp\cc04RWjJ.s 			page 27


 854              		.cfi_startproc
 855              		@ args = 0, pretend = 0, frame = 0
 856              		@ frame_needed = 0, uses_anonymous_args = 0
 857              		@ link register save eliminated.
 552:libraries/STM32F4xx_StdPeriph_Driver/src/stm32f4xx_fmc.c ****   assert_param(IS_FMC_NAND_BANK(FMC_Bank));
 858              		.loc 1 552 3 view .LVU337
 553:libraries/STM32F4xx_StdPeriph_Driver/src/stm32f4xx_fmc.c ****   assert_param(IS_FUNCTIONAL_STATE(NewState));
 859              		.loc 1 553 3 view .LVU338
 554:libraries/STM32F4xx_StdPeriph_Driver/src/stm32f4xx_fmc.c ****   
 555:libraries/STM32F4xx_StdPeriph_Driver/src/stm32f4xx_fmc.c ****   if (NewState != DISABLE)
 860              		.loc 1 555 3 view .LVU339
 861              		.loc 1 555 6 is_stmt 0 view .LVU340
 862 0000 89B1     		cbz	r1, .L45
 556:libraries/STM32F4xx_StdPeriph_Driver/src/stm32f4xx_fmc.c ****   {
 557:libraries/STM32F4xx_StdPeriph_Driver/src/stm32f4xx_fmc.c ****     /* Enable the selected NAND Bank by setting the PBKEN bit in the PCRx register */
 558:libraries/STM32F4xx_StdPeriph_Driver/src/stm32f4xx_fmc.c ****     if(FMC_Bank == FMC_Bank2_NAND)
 863              		.loc 1 558 5 is_stmt 1 view .LVU341
 864              		.loc 1 558 7 is_stmt 0 view .LVU342
 865 0002 1028     		cmp	r0, #16
 866 0004 08D0     		beq	.L49
 559:libraries/STM32F4xx_StdPeriph_Driver/src/stm32f4xx_fmc.c ****     {
 560:libraries/STM32F4xx_StdPeriph_Driver/src/stm32f4xx_fmc.c ****       FMC_Bank2->PCR2 |= PCR_PBKEN_SET;
 561:libraries/STM32F4xx_StdPeriph_Driver/src/stm32f4xx_fmc.c ****     }
 562:libraries/STM32F4xx_StdPeriph_Driver/src/stm32f4xx_fmc.c ****     else
 563:libraries/STM32F4xx_StdPeriph_Driver/src/stm32f4xx_fmc.c ****     {
 564:libraries/STM32F4xx_StdPeriph_Driver/src/stm32f4xx_fmc.c ****       FMC_Bank3->PCR3 |= PCR_PBKEN_SET;
 867              		.loc 1 564 7 is_stmt 1 view .LVU343
 868              		.loc 1 564 16 is_stmt 0 view .LVU344
 869 0006 4FF02042 		mov	r2, #-1610612736
 870 000a D2F88030 		ldr	r3, [r2, #128]
 871              		.loc 1 564 23 view .LVU345
 872 000e 43F00403 		orr	r3, r3, #4
 873 0012 C2F88030 		str	r3, [r2, #128]
 874 0016 7047     		bx	lr
 875              	.L49:
 560:libraries/STM32F4xx_StdPeriph_Driver/src/stm32f4xx_fmc.c ****     }
 876              		.loc 1 560 7 is_stmt 1 view .LVU346
 560:libraries/STM32F4xx_StdPeriph_Driver/src/stm32f4xx_fmc.c ****     }
 877              		.loc 1 560 16 is_stmt 0 view .LVU347
 878 0018 4FF02042 		mov	r2, #-1610612736
 879 001c 136E     		ldr	r3, [r2, #96]
 560:libraries/STM32F4xx_StdPeriph_Driver/src/stm32f4xx_fmc.c ****     }
 880              		.loc 1 560 23 view .LVU348
 881 001e 43F00403 		orr	r3, r3, #4
 882 0022 1366     		str	r3, [r2, #96]
 883 0024 7047     		bx	lr
 884              	.L45:
 565:libraries/STM32F4xx_StdPeriph_Driver/src/stm32f4xx_fmc.c ****     }
 566:libraries/STM32F4xx_StdPeriph_Driver/src/stm32f4xx_fmc.c ****   }
 567:libraries/STM32F4xx_StdPeriph_Driver/src/stm32f4xx_fmc.c ****   else
 568:libraries/STM32F4xx_StdPeriph_Driver/src/stm32f4xx_fmc.c ****   {
 569:libraries/STM32F4xx_StdPeriph_Driver/src/stm32f4xx_fmc.c ****     /* Disable the selected NAND Bank by clearing the PBKEN bit in the PCRx register */
 570:libraries/STM32F4xx_StdPeriph_Driver/src/stm32f4xx_fmc.c ****     if(FMC_Bank == FMC_Bank2_NAND)
 885              		.loc 1 570 5 is_stmt 1 view .LVU349
 886              		.loc 1 570 7 is_stmt 0 view .LVU350
 887 0026 1028     		cmp	r0, #16
 888 0028 08D0     		beq	.L50
ARM GAS  C:\Users\ktkuru\AppData\Local\Temp\cc04RWjJ.s 			page 28


 571:libraries/STM32F4xx_StdPeriph_Driver/src/stm32f4xx_fmc.c ****     {
 572:libraries/STM32F4xx_StdPeriph_Driver/src/stm32f4xx_fmc.c ****       FMC_Bank2->PCR2 &= PCR_PBKEN_RESET;
 573:libraries/STM32F4xx_StdPeriph_Driver/src/stm32f4xx_fmc.c ****     }
 574:libraries/STM32F4xx_StdPeriph_Driver/src/stm32f4xx_fmc.c ****     else
 575:libraries/STM32F4xx_StdPeriph_Driver/src/stm32f4xx_fmc.c ****     {
 576:libraries/STM32F4xx_StdPeriph_Driver/src/stm32f4xx_fmc.c ****       FMC_Bank3->PCR3 &= PCR_PBKEN_RESET;
 889              		.loc 1 576 7 is_stmt 1 view .LVU351
 890              		.loc 1 576 16 is_stmt 0 view .LVU352
 891 002a 4FF02042 		mov	r2, #-1610612736
 892 002e D2F88010 		ldr	r1, [r2, #128]
 893              	.LVL44:
 894              		.loc 1 576 23 view .LVU353
 895 0032 064B     		ldr	r3, .L51
 896 0034 0B40     		ands	r3, r3, r1
 897 0036 C2F88030 		str	r3, [r2, #128]
 577:libraries/STM32F4xx_StdPeriph_Driver/src/stm32f4xx_fmc.c ****     }
 578:libraries/STM32F4xx_StdPeriph_Driver/src/stm32f4xx_fmc.c ****   }
 579:libraries/STM32F4xx_StdPeriph_Driver/src/stm32f4xx_fmc.c **** }
 898              		.loc 1 579 1 view .LVU354
 899 003a 7047     		bx	lr
 900              	.LVL45:
 901              	.L50:
 572:libraries/STM32F4xx_StdPeriph_Driver/src/stm32f4xx_fmc.c ****     }
 902              		.loc 1 572 7 is_stmt 1 view .LVU355
 572:libraries/STM32F4xx_StdPeriph_Driver/src/stm32f4xx_fmc.c ****     }
 903              		.loc 1 572 16 is_stmt 0 view .LVU356
 904 003c 4FF02042 		mov	r2, #-1610612736
 905 0040 116E     		ldr	r1, [r2, #96]
 906              	.LVL46:
 572:libraries/STM32F4xx_StdPeriph_Driver/src/stm32f4xx_fmc.c ****     }
 907              		.loc 1 572 23 view .LVU357
 908 0042 024B     		ldr	r3, .L51
 909 0044 0B40     		ands	r3, r3, r1
 910 0046 1366     		str	r3, [r2, #96]
 911 0048 7047     		bx	lr
 912              	.L52:
 913 004a 00BF     		.align	2
 914              	.L51:
 915 004c FBFF0F00 		.word	1048571
 916              		.cfi_endproc
 917              	.LFE130:
 919              		.section	.text.FMC_NANDECCCmd,"ax",%progbits
 920              		.align	1
 921              		.global	FMC_NANDECCCmd
 922              		.syntax unified
 923              		.thumb
 924              		.thumb_func
 926              	FMC_NANDECCCmd:
 927              	.LVL47:
 928              	.LFB131:
 580:libraries/STM32F4xx_StdPeriph_Driver/src/stm32f4xx_fmc.c **** /**
 581:libraries/STM32F4xx_StdPeriph_Driver/src/stm32f4xx_fmc.c ****   * @brief  Enables or disables the FMC NAND ECC feature.
 582:libraries/STM32F4xx_StdPeriph_Driver/src/stm32f4xx_fmc.c ****   * @param  FMC_Bank: specifies the FMC Bank to be used
 583:libraries/STM32F4xx_StdPeriph_Driver/src/stm32f4xx_fmc.c ****   *          This parameter can be one of the following values:
 584:libraries/STM32F4xx_StdPeriph_Driver/src/stm32f4xx_fmc.c ****   *            @arg FMC_Bank2_NAND: FMC Bank2 NAND 
 585:libraries/STM32F4xx_StdPeriph_Driver/src/stm32f4xx_fmc.c ****   *            @arg FMC_Bank3_NAND: FMC Bank3 NAND
 586:libraries/STM32F4xx_StdPeriph_Driver/src/stm32f4xx_fmc.c ****   * @param  NewState: new state of the FMC NAND ECC feature.  
ARM GAS  C:\Users\ktkuru\AppData\Local\Temp\cc04RWjJ.s 			page 29


 587:libraries/STM32F4xx_StdPeriph_Driver/src/stm32f4xx_fmc.c ****   *          This parameter can be: ENABLE or DISABLE.
 588:libraries/STM32F4xx_StdPeriph_Driver/src/stm32f4xx_fmc.c ****   * @retval None
 589:libraries/STM32F4xx_StdPeriph_Driver/src/stm32f4xx_fmc.c ****   */
 590:libraries/STM32F4xx_StdPeriph_Driver/src/stm32f4xx_fmc.c **** void FMC_NANDECCCmd(uint32_t FMC_Bank, FunctionalState NewState)
 591:libraries/STM32F4xx_StdPeriph_Driver/src/stm32f4xx_fmc.c **** {
 929              		.loc 1 591 1 is_stmt 1 view -0
 930              		.cfi_startproc
 931              		@ args = 0, pretend = 0, frame = 0
 932              		@ frame_needed = 0, uses_anonymous_args = 0
 933              		@ link register save eliminated.
 592:libraries/STM32F4xx_StdPeriph_Driver/src/stm32f4xx_fmc.c ****   assert_param(IS_FMC_NAND_BANK(FMC_Bank));
 934              		.loc 1 592 3 view .LVU359
 593:libraries/STM32F4xx_StdPeriph_Driver/src/stm32f4xx_fmc.c ****   assert_param(IS_FUNCTIONAL_STATE(NewState));
 935              		.loc 1 593 3 view .LVU360
 594:libraries/STM32F4xx_StdPeriph_Driver/src/stm32f4xx_fmc.c ****   
 595:libraries/STM32F4xx_StdPeriph_Driver/src/stm32f4xx_fmc.c ****   if (NewState != DISABLE)
 936              		.loc 1 595 3 view .LVU361
 937              		.loc 1 595 6 is_stmt 0 view .LVU362
 938 0000 89B1     		cbz	r1, .L54
 596:libraries/STM32F4xx_StdPeriph_Driver/src/stm32f4xx_fmc.c ****   {
 597:libraries/STM32F4xx_StdPeriph_Driver/src/stm32f4xx_fmc.c ****     /* Enable the selected NAND Bank ECC function by setting the ECCEN bit in the PCRx register */
 598:libraries/STM32F4xx_StdPeriph_Driver/src/stm32f4xx_fmc.c ****     if(FMC_Bank == FMC_Bank2_NAND)
 939              		.loc 1 598 5 is_stmt 1 view .LVU363
 940              		.loc 1 598 7 is_stmt 0 view .LVU364
 941 0002 1028     		cmp	r0, #16
 942 0004 08D0     		beq	.L58
 599:libraries/STM32F4xx_StdPeriph_Driver/src/stm32f4xx_fmc.c ****     {
 600:libraries/STM32F4xx_StdPeriph_Driver/src/stm32f4xx_fmc.c ****       FMC_Bank2->PCR2 |= PCR_ECCEN_SET;
 601:libraries/STM32F4xx_StdPeriph_Driver/src/stm32f4xx_fmc.c ****     }
 602:libraries/STM32F4xx_StdPeriph_Driver/src/stm32f4xx_fmc.c ****     else
 603:libraries/STM32F4xx_StdPeriph_Driver/src/stm32f4xx_fmc.c ****     {
 604:libraries/STM32F4xx_StdPeriph_Driver/src/stm32f4xx_fmc.c ****       FMC_Bank3->PCR3 |= PCR_ECCEN_SET;
 943              		.loc 1 604 7 is_stmt 1 view .LVU365
 944              		.loc 1 604 16 is_stmt 0 view .LVU366
 945 0006 4FF02042 		mov	r2, #-1610612736
 946 000a D2F88030 		ldr	r3, [r2, #128]
 947              		.loc 1 604 23 view .LVU367
 948 000e 43F04003 		orr	r3, r3, #64
 949 0012 C2F88030 		str	r3, [r2, #128]
 950 0016 7047     		bx	lr
 951              	.L58:
 600:libraries/STM32F4xx_StdPeriph_Driver/src/stm32f4xx_fmc.c ****     }
 952              		.loc 1 600 7 is_stmt 1 view .LVU368
 600:libraries/STM32F4xx_StdPeriph_Driver/src/stm32f4xx_fmc.c ****     }
 953              		.loc 1 600 16 is_stmt 0 view .LVU369
 954 0018 4FF02042 		mov	r2, #-1610612736
 955 001c 136E     		ldr	r3, [r2, #96]
 600:libraries/STM32F4xx_StdPeriph_Driver/src/stm32f4xx_fmc.c ****     }
 956              		.loc 1 600 23 view .LVU370
 957 001e 43F04003 		orr	r3, r3, #64
 958 0022 1366     		str	r3, [r2, #96]
 959 0024 7047     		bx	lr
 960              	.L54:
 605:libraries/STM32F4xx_StdPeriph_Driver/src/stm32f4xx_fmc.c ****     }
 606:libraries/STM32F4xx_StdPeriph_Driver/src/stm32f4xx_fmc.c ****   }
 607:libraries/STM32F4xx_StdPeriph_Driver/src/stm32f4xx_fmc.c ****   else
 608:libraries/STM32F4xx_StdPeriph_Driver/src/stm32f4xx_fmc.c ****   {
ARM GAS  C:\Users\ktkuru\AppData\Local\Temp\cc04RWjJ.s 			page 30


 609:libraries/STM32F4xx_StdPeriph_Driver/src/stm32f4xx_fmc.c ****     /* Disable the selected NAND Bank ECC function by clearing the ECCEN bit in the PCRx register *
 610:libraries/STM32F4xx_StdPeriph_Driver/src/stm32f4xx_fmc.c ****     if(FMC_Bank == FMC_Bank2_NAND)
 961              		.loc 1 610 5 is_stmt 1 view .LVU371
 962              		.loc 1 610 7 is_stmt 0 view .LVU372
 963 0026 1028     		cmp	r0, #16
 964 0028 08D0     		beq	.L59
 611:libraries/STM32F4xx_StdPeriph_Driver/src/stm32f4xx_fmc.c ****     {
 612:libraries/STM32F4xx_StdPeriph_Driver/src/stm32f4xx_fmc.c ****       FMC_Bank2->PCR2 &= PCR_ECCEN_RESET;
 613:libraries/STM32F4xx_StdPeriph_Driver/src/stm32f4xx_fmc.c ****     }
 614:libraries/STM32F4xx_StdPeriph_Driver/src/stm32f4xx_fmc.c ****     else
 615:libraries/STM32F4xx_StdPeriph_Driver/src/stm32f4xx_fmc.c ****     {
 616:libraries/STM32F4xx_StdPeriph_Driver/src/stm32f4xx_fmc.c ****       FMC_Bank3->PCR3 &= PCR_ECCEN_RESET;
 965              		.loc 1 616 7 is_stmt 1 view .LVU373
 966              		.loc 1 616 16 is_stmt 0 view .LVU374
 967 002a 4FF02042 		mov	r2, #-1610612736
 968 002e D2F88010 		ldr	r1, [r2, #128]
 969              	.LVL48:
 970              		.loc 1 616 23 view .LVU375
 971 0032 064B     		ldr	r3, .L60
 972 0034 0B40     		ands	r3, r3, r1
 973 0036 C2F88030 		str	r3, [r2, #128]
 617:libraries/STM32F4xx_StdPeriph_Driver/src/stm32f4xx_fmc.c ****     }
 618:libraries/STM32F4xx_StdPeriph_Driver/src/stm32f4xx_fmc.c ****   }
 619:libraries/STM32F4xx_StdPeriph_Driver/src/stm32f4xx_fmc.c **** }
 974              		.loc 1 619 1 view .LVU376
 975 003a 7047     		bx	lr
 976              	.LVL49:
 977              	.L59:
 612:libraries/STM32F4xx_StdPeriph_Driver/src/stm32f4xx_fmc.c ****     }
 978              		.loc 1 612 7 is_stmt 1 view .LVU377
 612:libraries/STM32F4xx_StdPeriph_Driver/src/stm32f4xx_fmc.c ****     }
 979              		.loc 1 612 16 is_stmt 0 view .LVU378
 980 003c 4FF02042 		mov	r2, #-1610612736
 981 0040 116E     		ldr	r1, [r2, #96]
 982              	.LVL50:
 612:libraries/STM32F4xx_StdPeriph_Driver/src/stm32f4xx_fmc.c ****     }
 983              		.loc 1 612 23 view .LVU379
 984 0042 024B     		ldr	r3, .L60
 985 0044 0B40     		ands	r3, r3, r1
 986 0046 1366     		str	r3, [r2, #96]
 987 0048 7047     		bx	lr
 988              	.L61:
 989 004a 00BF     		.align	2
 990              	.L60:
 991 004c BFFF0F00 		.word	1048511
 992              		.cfi_endproc
 993              	.LFE131:
 995              		.section	.text.FMC_GetECC,"ax",%progbits
 996              		.align	1
 997              		.global	FMC_GetECC
 998              		.syntax unified
 999              		.thumb
 1000              		.thumb_func
 1002              	FMC_GetECC:
 1003              	.LVL51:
 1004              	.LFB132:
 620:libraries/STM32F4xx_StdPeriph_Driver/src/stm32f4xx_fmc.c **** 
ARM GAS  C:\Users\ktkuru\AppData\Local\Temp\cc04RWjJ.s 			page 31


 621:libraries/STM32F4xx_StdPeriph_Driver/src/stm32f4xx_fmc.c **** /**
 622:libraries/STM32F4xx_StdPeriph_Driver/src/stm32f4xx_fmc.c ****   * @brief  Returns the error correction code register value.
 623:libraries/STM32F4xx_StdPeriph_Driver/src/stm32f4xx_fmc.c ****   * @param  FMC_Bank: specifies the FMC Bank to be used
 624:libraries/STM32F4xx_StdPeriph_Driver/src/stm32f4xx_fmc.c ****   *          This parameter can be one of the following values:
 625:libraries/STM32F4xx_StdPeriph_Driver/src/stm32f4xx_fmc.c ****   *            @arg FMC_Bank2_NAND: FMC Bank2 NAND 
 626:libraries/STM32F4xx_StdPeriph_Driver/src/stm32f4xx_fmc.c ****   *            @arg FMC_Bank3_NAND: FMC Bank3 NAND
 627:libraries/STM32F4xx_StdPeriph_Driver/src/stm32f4xx_fmc.c ****   * @retval The Error Correction Code (ECC) value.
 628:libraries/STM32F4xx_StdPeriph_Driver/src/stm32f4xx_fmc.c ****   */
 629:libraries/STM32F4xx_StdPeriph_Driver/src/stm32f4xx_fmc.c **** uint32_t FMC_GetECC(uint32_t FMC_Bank)
 630:libraries/STM32F4xx_StdPeriph_Driver/src/stm32f4xx_fmc.c **** {
 1005              		.loc 1 630 1 is_stmt 1 view -0
 1006              		.cfi_startproc
 1007              		@ args = 0, pretend = 0, frame = 0
 1008              		@ frame_needed = 0, uses_anonymous_args = 0
 1009              		@ link register save eliminated.
 631:libraries/STM32F4xx_StdPeriph_Driver/src/stm32f4xx_fmc.c ****   uint32_t eccval = 0x00000000;
 1010              		.loc 1 631 3 view .LVU381
 632:libraries/STM32F4xx_StdPeriph_Driver/src/stm32f4xx_fmc.c ****   
 633:libraries/STM32F4xx_StdPeriph_Driver/src/stm32f4xx_fmc.c ****   if(FMC_Bank == FMC_Bank2_NAND)
 1011              		.loc 1 633 3 view .LVU382
 1012              		.loc 1 633 5 is_stmt 0 view .LVU383
 1013 0000 1028     		cmp	r0, #16
 1014 0002 04D0     		beq	.L65
 634:libraries/STM32F4xx_StdPeriph_Driver/src/stm32f4xx_fmc.c ****   {
 635:libraries/STM32F4xx_StdPeriph_Driver/src/stm32f4xx_fmc.c ****     /* Get the ECCR2 register value */
 636:libraries/STM32F4xx_StdPeriph_Driver/src/stm32f4xx_fmc.c ****     eccval = FMC_Bank2->ECCR2;
 637:libraries/STM32F4xx_StdPeriph_Driver/src/stm32f4xx_fmc.c ****   }
 638:libraries/STM32F4xx_StdPeriph_Driver/src/stm32f4xx_fmc.c ****   else
 639:libraries/STM32F4xx_StdPeriph_Driver/src/stm32f4xx_fmc.c ****   {
 640:libraries/STM32F4xx_StdPeriph_Driver/src/stm32f4xx_fmc.c ****     /* Get the ECCR3 register value */
 641:libraries/STM32F4xx_StdPeriph_Driver/src/stm32f4xx_fmc.c ****     eccval = FMC_Bank3->ECCR3;
 1015              		.loc 1 641 5 is_stmt 1 view .LVU384
 1016              		.loc 1 641 12 is_stmt 0 view .LVU385
 1017 0004 4FF02043 		mov	r3, #-1610612736
 1018 0008 D3F89400 		ldr	r0, [r3, #148]
 1019              	.LVL52:
 642:libraries/STM32F4xx_StdPeriph_Driver/src/stm32f4xx_fmc.c ****   }
 643:libraries/STM32F4xx_StdPeriph_Driver/src/stm32f4xx_fmc.c ****   /* Return the error correction code value */
 644:libraries/STM32F4xx_StdPeriph_Driver/src/stm32f4xx_fmc.c ****   return(eccval);
 1020              		.loc 1 644 3 is_stmt 1 view .LVU386
 645:libraries/STM32F4xx_StdPeriph_Driver/src/stm32f4xx_fmc.c **** }
 1021              		.loc 1 645 1 is_stmt 0 view .LVU387
 1022 000c 7047     		bx	lr
 1023              	.LVL53:
 1024              	.L65:
 636:libraries/STM32F4xx_StdPeriph_Driver/src/stm32f4xx_fmc.c ****   }
 1025              		.loc 1 636 5 is_stmt 1 view .LVU388
 636:libraries/STM32F4xx_StdPeriph_Driver/src/stm32f4xx_fmc.c ****   }
 1026              		.loc 1 636 12 is_stmt 0 view .LVU389
 1027 000e 4FF02043 		mov	r3, #-1610612736
 1028 0012 586F     		ldr	r0, [r3, #116]
 1029              	.LVL54:
 636:libraries/STM32F4xx_StdPeriph_Driver/src/stm32f4xx_fmc.c ****   }
 1030              		.loc 1 636 12 view .LVU390
 1031 0014 7047     		bx	lr
 1032              		.cfi_endproc
 1033              	.LFE132:
ARM GAS  C:\Users\ktkuru\AppData\Local\Temp\cc04RWjJ.s 			page 32


 1035              		.section	.text.FMC_PCCARDDeInit,"ax",%progbits
 1036              		.align	1
 1037              		.global	FMC_PCCARDDeInit
 1038              		.syntax unified
 1039              		.thumb
 1040              		.thumb_func
 1042              	FMC_PCCARDDeInit:
 1043              	.LFB133:
 646:libraries/STM32F4xx_StdPeriph_Driver/src/stm32f4xx_fmc.c **** /**
 647:libraries/STM32F4xx_StdPeriph_Driver/src/stm32f4xx_fmc.c ****   * @}
 648:libraries/STM32F4xx_StdPeriph_Driver/src/stm32f4xx_fmc.c ****   */
 649:libraries/STM32F4xx_StdPeriph_Driver/src/stm32f4xx_fmc.c **** 
 650:libraries/STM32F4xx_StdPeriph_Driver/src/stm32f4xx_fmc.c **** /** @defgroup FMC_Group3 PCCARD Controller functions
 651:libraries/STM32F4xx_StdPeriph_Driver/src/stm32f4xx_fmc.c ****   * @brief    PCCARD Controller functions 
 652:libraries/STM32F4xx_StdPeriph_Driver/src/stm32f4xx_fmc.c ****   *
 653:libraries/STM32F4xx_StdPeriph_Driver/src/stm32f4xx_fmc.c **** @verbatim   
 654:libraries/STM32F4xx_StdPeriph_Driver/src/stm32f4xx_fmc.c ****  ===============================================================================
 655:libraries/STM32F4xx_StdPeriph_Driver/src/stm32f4xx_fmc.c ****                     ##### PCCARD Controller functions #####
 656:libraries/STM32F4xx_StdPeriph_Driver/src/stm32f4xx_fmc.c ****  ===============================================================================  
 657:libraries/STM32F4xx_StdPeriph_Driver/src/stm32f4xx_fmc.c **** 
 658:libraries/STM32F4xx_StdPeriph_Driver/src/stm32f4xx_fmc.c ****  [..]  he following sequence should be followed to configure the FMC to interface 
 659:libraries/STM32F4xx_StdPeriph_Driver/src/stm32f4xx_fmc.c ****        with 16-bit PC Card compatible memory connected to the PCCARD Bank:
 660:libraries/STM32F4xx_StdPeriph_Driver/src/stm32f4xx_fmc.c ****  
 661:libraries/STM32F4xx_StdPeriph_Driver/src/stm32f4xx_fmc.c ****   (#)  Enable the clock for the FMC and associated GPIOs using the following functions:
 662:libraries/STM32F4xx_StdPeriph_Driver/src/stm32f4xx_fmc.c ****        (++)  RCC_AHB3PeriphClockCmd(RCC_AHB3Periph_FMC, ENABLE);
 663:libraries/STM32F4xx_StdPeriph_Driver/src/stm32f4xx_fmc.c ****        (++)  RCC_AHB1PeriphClockCmd(RCC_AHB1Periph_GPIOx, ENABLE);
 664:libraries/STM32F4xx_StdPeriph_Driver/src/stm32f4xx_fmc.c **** 
 665:libraries/STM32F4xx_StdPeriph_Driver/src/stm32f4xx_fmc.c ****   (#) FMC pins configuration 
 666:libraries/STM32F4xx_StdPeriph_Driver/src/stm32f4xx_fmc.c ****        (++) Connect the involved FMC pins to AF12 using the following function 
 667:libraries/STM32F4xx_StdPeriph_Driver/src/stm32f4xx_fmc.c ****             GPIO_PinAFConfig(GPIOx, GPIO_PinSourcex, GPIO_AF_FMC); 
 668:libraries/STM32F4xx_StdPeriph_Driver/src/stm32f4xx_fmc.c ****        (++) Configure these FMC pins in alternate function mode by calling the function
 669:libraries/STM32F4xx_StdPeriph_Driver/src/stm32f4xx_fmc.c ****             GPIO_Init();    
 670:libraries/STM32F4xx_StdPeriph_Driver/src/stm32f4xx_fmc.c ****        
 671:libraries/STM32F4xx_StdPeriph_Driver/src/stm32f4xx_fmc.c ****   (#) Declare a FMC_PCCARDInitTypeDef structure, for example:
 672:libraries/STM32F4xx_StdPeriph_Driver/src/stm32f4xx_fmc.c ****       FMC_PCCARDInitTypeDef  FMC_PCCARDInitStructure;
 673:libraries/STM32F4xx_StdPeriph_Driver/src/stm32f4xx_fmc.c ****       and fill the FMC_PCCARDInitStructure variable with the allowed values of
 674:libraries/STM32F4xx_StdPeriph_Driver/src/stm32f4xx_fmc.c ****       the structure member.
 675:libraries/STM32F4xx_StdPeriph_Driver/src/stm32f4xx_fmc.c ****       
 676:libraries/STM32F4xx_StdPeriph_Driver/src/stm32f4xx_fmc.c ****   (#) Initialize the PCCARD Controller by calling the function
 677:libraries/STM32F4xx_StdPeriph_Driver/src/stm32f4xx_fmc.c ****       FMC_PCCARDInit(&FMC_PCCARDInitStructure); 
 678:libraries/STM32F4xx_StdPeriph_Driver/src/stm32f4xx_fmc.c **** 
 679:libraries/STM32F4xx_StdPeriph_Driver/src/stm32f4xx_fmc.c ****   (#) Then enable the PCCARD Bank:
 680:libraries/STM32F4xx_StdPeriph_Driver/src/stm32f4xx_fmc.c ****       FMC_PCCARDCmd(ENABLE);  
 681:libraries/STM32F4xx_StdPeriph_Driver/src/stm32f4xx_fmc.c **** 
 682:libraries/STM32F4xx_StdPeriph_Driver/src/stm32f4xx_fmc.c ****   (#) At this stage you can read/write from/to the memory connected to the PCCARD Bank. 
 683:libraries/STM32F4xx_StdPeriph_Driver/src/stm32f4xx_fmc.c ****  
 684:libraries/STM32F4xx_StdPeriph_Driver/src/stm32f4xx_fmc.c **** @endverbatim
 685:libraries/STM32F4xx_StdPeriph_Driver/src/stm32f4xx_fmc.c ****   * @{
 686:libraries/STM32F4xx_StdPeriph_Driver/src/stm32f4xx_fmc.c ****   */
 687:libraries/STM32F4xx_StdPeriph_Driver/src/stm32f4xx_fmc.c **** 
 688:libraries/STM32F4xx_StdPeriph_Driver/src/stm32f4xx_fmc.c **** /**
 689:libraries/STM32F4xx_StdPeriph_Driver/src/stm32f4xx_fmc.c ****   * @brief  De-initializes the FMC PCCARD Bank registers to their default reset values.
 690:libraries/STM32F4xx_StdPeriph_Driver/src/stm32f4xx_fmc.c ****   * @param  None                       
 691:libraries/STM32F4xx_StdPeriph_Driver/src/stm32f4xx_fmc.c ****   * @retval None
 692:libraries/STM32F4xx_StdPeriph_Driver/src/stm32f4xx_fmc.c ****   */
 693:libraries/STM32F4xx_StdPeriph_Driver/src/stm32f4xx_fmc.c **** void FMC_PCCARDDeInit(void)
 694:libraries/STM32F4xx_StdPeriph_Driver/src/stm32f4xx_fmc.c **** {
ARM GAS  C:\Users\ktkuru\AppData\Local\Temp\cc04RWjJ.s 			page 33


 1044              		.loc 1 694 1 is_stmt 1 view -0
 1045              		.cfi_startproc
 1046              		@ args = 0, pretend = 0, frame = 0
 1047              		@ frame_needed = 0, uses_anonymous_args = 0
 1048              		@ link register save eliminated.
 695:libraries/STM32F4xx_StdPeriph_Driver/src/stm32f4xx_fmc.c ****   /* Set the FMC_Bank4 registers to their reset values */
 696:libraries/STM32F4xx_StdPeriph_Driver/src/stm32f4xx_fmc.c ****   FMC_Bank4->PCR4 = 0x00000018; 
 1049              		.loc 1 696 3 view .LVU392
 1050              		.loc 1 696 19 is_stmt 0 view .LVU393
 1051 0000 4FF02043 		mov	r3, #-1610612736
 1052 0004 1822     		movs	r2, #24
 1053 0006 C3F8A020 		str	r2, [r3, #160]
 697:libraries/STM32F4xx_StdPeriph_Driver/src/stm32f4xx_fmc.c ****   FMC_Bank4->SR4 = 0x00000000;	
 1054              		.loc 1 697 3 is_stmt 1 view .LVU394
 1055              		.loc 1 697 18 is_stmt 0 view .LVU395
 1056 000a 0022     		movs	r2, #0
 1057 000c C3F8A420 		str	r2, [r3, #164]
 698:libraries/STM32F4xx_StdPeriph_Driver/src/stm32f4xx_fmc.c ****   FMC_Bank4->PMEM4 = 0xFCFCFCFC;
 1058              		.loc 1 698 3 is_stmt 1 view .LVU396
 1059              		.loc 1 698 20 is_stmt 0 view .LVU397
 1060 0010 4FF0FC32 		mov	r2, #-50529028
 1061 0014 C3F8A820 		str	r2, [r3, #168]
 699:libraries/STM32F4xx_StdPeriph_Driver/src/stm32f4xx_fmc.c ****   FMC_Bank4->PATT4 = 0xFCFCFCFC;
 1062              		.loc 1 699 3 is_stmt 1 view .LVU398
 1063              		.loc 1 699 20 is_stmt 0 view .LVU399
 1064 0018 C3F8AC20 		str	r2, [r3, #172]
 700:libraries/STM32F4xx_StdPeriph_Driver/src/stm32f4xx_fmc.c ****   FMC_Bank4->PIO4 = 0xFCFCFCFC;
 1065              		.loc 1 700 3 is_stmt 1 view .LVU400
 1066              		.loc 1 700 19 is_stmt 0 view .LVU401
 1067 001c C3F8B020 		str	r2, [r3, #176]
 701:libraries/STM32F4xx_StdPeriph_Driver/src/stm32f4xx_fmc.c **** }
 1068              		.loc 1 701 1 view .LVU402
 1069 0020 7047     		bx	lr
 1070              		.cfi_endproc
 1071              	.LFE133:
 1073              		.section	.text.FMC_PCCARDInit,"ax",%progbits
 1074              		.align	1
 1075              		.global	FMC_PCCARDInit
 1076              		.syntax unified
 1077              		.thumb
 1078              		.thumb_func
 1080              	FMC_PCCARDInit:
 1081              	.LVL55:
 1082              	.LFB134:
 702:libraries/STM32F4xx_StdPeriph_Driver/src/stm32f4xx_fmc.c **** 
 703:libraries/STM32F4xx_StdPeriph_Driver/src/stm32f4xx_fmc.c **** /**
 704:libraries/STM32F4xx_StdPeriph_Driver/src/stm32f4xx_fmc.c ****   * @brief  Initializes the FMC PCCARD Bank according to the specified parameters
 705:libraries/STM32F4xx_StdPeriph_Driver/src/stm32f4xx_fmc.c ****   *         in the FMC_PCCARDInitStruct.
 706:libraries/STM32F4xx_StdPeriph_Driver/src/stm32f4xx_fmc.c ****   * @param  FMC_PCCARDInitStruct : pointer to a FMC_PCCARDInitTypeDef structure
 707:libraries/STM32F4xx_StdPeriph_Driver/src/stm32f4xx_fmc.c ****   *         that contains the configuration information for the FMC PCCARD Bank.                   
 708:libraries/STM32F4xx_StdPeriph_Driver/src/stm32f4xx_fmc.c ****   * @retval None
 709:libraries/STM32F4xx_StdPeriph_Driver/src/stm32f4xx_fmc.c ****   */
 710:libraries/STM32F4xx_StdPeriph_Driver/src/stm32f4xx_fmc.c **** void FMC_PCCARDInit(FMC_PCCARDInitTypeDef* FMC_PCCARDInitStruct)
 711:libraries/STM32F4xx_StdPeriph_Driver/src/stm32f4xx_fmc.c **** {
 1083              		.loc 1 711 1 is_stmt 1 view -0
 1084              		.cfi_startproc
 1085              		@ args = 0, pretend = 0, frame = 0
ARM GAS  C:\Users\ktkuru\AppData\Local\Temp\cc04RWjJ.s 			page 34


 1086              		@ frame_needed = 0, uses_anonymous_args = 0
 1087              		@ link register save eliminated.
 1088              		.loc 1 711 1 is_stmt 0 view .LVU404
 1089 0000 10B4     		push	{r4}
 1090              	.LCFI6:
 1091              		.cfi_def_cfa_offset 4
 1092              		.cfi_offset 4, -4
 712:libraries/STM32F4xx_StdPeriph_Driver/src/stm32f4xx_fmc.c ****   /* temporary registers */
 713:libraries/STM32F4xx_StdPeriph_Driver/src/stm32f4xx_fmc.c ****   uint32_t tmppcr = 0, tmpmem = 0, tmppatt = 0, tmppio = 0;
 1093              		.loc 1 713 3 is_stmt 1 view .LVU405
 1094              	.LVL56:
 714:libraries/STM32F4xx_StdPeriph_Driver/src/stm32f4xx_fmc.c ****   
 715:libraries/STM32F4xx_StdPeriph_Driver/src/stm32f4xx_fmc.c ****   /* Check the parameters */
 716:libraries/STM32F4xx_StdPeriph_Driver/src/stm32f4xx_fmc.c ****   assert_param(IS_FMC_WAIT_FEATURE(FMC_PCCARDInitStruct->FMC_Waitfeature));
 1095              		.loc 1 716 3 view .LVU406
 717:libraries/STM32F4xx_StdPeriph_Driver/src/stm32f4xx_fmc.c ****   assert_param(IS_FMC_TCLR_TIME(FMC_PCCARDInitStruct->FMC_TCLRSetupTime));
 1096              		.loc 1 717 3 view .LVU407
 718:libraries/STM32F4xx_StdPeriph_Driver/src/stm32f4xx_fmc.c ****   assert_param(IS_FMC_TAR_TIME(FMC_PCCARDInitStruct->FMC_TARSetupTime));
 1097              		.loc 1 718 3 view .LVU408
 719:libraries/STM32F4xx_StdPeriph_Driver/src/stm32f4xx_fmc.c ****  
 720:libraries/STM32F4xx_StdPeriph_Driver/src/stm32f4xx_fmc.c ****   assert_param(IS_FMC_SETUP_TIME(FMC_PCCARDInitStruct->FMC_CommonSpaceTimingStruct->FMC_SetupTime))
 1098              		.loc 1 720 3 view .LVU409
 721:libraries/STM32F4xx_StdPeriph_Driver/src/stm32f4xx_fmc.c ****   assert_param(IS_FMC_WAIT_TIME(FMC_PCCARDInitStruct->FMC_CommonSpaceTimingStruct->FMC_WaitSetupTim
 1099              		.loc 1 721 3 view .LVU410
 722:libraries/STM32F4xx_StdPeriph_Driver/src/stm32f4xx_fmc.c ****   assert_param(IS_FMC_HOLD_TIME(FMC_PCCARDInitStruct->FMC_CommonSpaceTimingStruct->FMC_HoldSetupTim
 1100              		.loc 1 722 3 view .LVU411
 723:libraries/STM32F4xx_StdPeriph_Driver/src/stm32f4xx_fmc.c ****   assert_param(IS_FMC_HIZ_TIME(FMC_PCCARDInitStruct->FMC_CommonSpaceTimingStruct->FMC_HiZSetupTime)
 1101              		.loc 1 723 3 view .LVU412
 724:libraries/STM32F4xx_StdPeriph_Driver/src/stm32f4xx_fmc.c ****   
 725:libraries/STM32F4xx_StdPeriph_Driver/src/stm32f4xx_fmc.c ****   assert_param(IS_FMC_SETUP_TIME(FMC_PCCARDInitStruct->FMC_AttributeSpaceTimingStruct->FMC_SetupTim
 1102              		.loc 1 725 3 view .LVU413
 726:libraries/STM32F4xx_StdPeriph_Driver/src/stm32f4xx_fmc.c ****   assert_param(IS_FMC_WAIT_TIME(FMC_PCCARDInitStruct->FMC_AttributeSpaceTimingStruct->FMC_WaitSetup
 1103              		.loc 1 726 3 view .LVU414
 727:libraries/STM32F4xx_StdPeriph_Driver/src/stm32f4xx_fmc.c ****   assert_param(IS_FMC_HOLD_TIME(FMC_PCCARDInitStruct->FMC_AttributeSpaceTimingStruct->FMC_HoldSetup
 1104              		.loc 1 727 3 view .LVU415
 728:libraries/STM32F4xx_StdPeriph_Driver/src/stm32f4xx_fmc.c ****   assert_param(IS_FMC_HIZ_TIME(FMC_PCCARDInitStruct->FMC_AttributeSpaceTimingStruct->FMC_HiZSetupTi
 1105              		.loc 1 728 3 view .LVU416
 729:libraries/STM32F4xx_StdPeriph_Driver/src/stm32f4xx_fmc.c ****   assert_param(IS_FMC_SETUP_TIME(FMC_PCCARDInitStruct->FMC_IOSpaceTimingStruct->FMC_SetupTime));
 1106              		.loc 1 729 3 view .LVU417
 730:libraries/STM32F4xx_StdPeriph_Driver/src/stm32f4xx_fmc.c ****   assert_param(IS_FMC_WAIT_TIME(FMC_PCCARDInitStruct->FMC_IOSpaceTimingStruct->FMC_WaitSetupTime));
 1107              		.loc 1 730 3 view .LVU418
 731:libraries/STM32F4xx_StdPeriph_Driver/src/stm32f4xx_fmc.c ****   assert_param(IS_FMC_HOLD_TIME(FMC_PCCARDInitStruct->FMC_IOSpaceTimingStruct->FMC_HoldSetupTime));
 1108              		.loc 1 731 3 view .LVU419
 732:libraries/STM32F4xx_StdPeriph_Driver/src/stm32f4xx_fmc.c ****   assert_param(IS_FMC_HIZ_TIME(FMC_PCCARDInitStruct->FMC_IOSpaceTimingStruct->FMC_HiZSetupTime));
 1109              		.loc 1 732 3 view .LVU420
 733:libraries/STM32F4xx_StdPeriph_Driver/src/stm32f4xx_fmc.c ****   
 734:libraries/STM32F4xx_StdPeriph_Driver/src/stm32f4xx_fmc.c ****   /* Get PCCARD control register value */
 735:libraries/STM32F4xx_StdPeriph_Driver/src/stm32f4xx_fmc.c ****   tmppcr = FMC_Bank4->PCR4;
 1110              		.loc 1 735 3 view .LVU421
 1111              		.loc 1 735 10 is_stmt 0 view .LVU422
 1112 0002 4FF02042 		mov	r2, #-1610612736
 1113 0006 D2F8A010 		ldr	r1, [r2, #160]
 1114              	.LVL57:
 736:libraries/STM32F4xx_StdPeriph_Driver/src/stm32f4xx_fmc.c ****   
 737:libraries/STM32F4xx_StdPeriph_Driver/src/stm32f4xx_fmc.c ****   /* Clear TAR, TCLR, PWAITEN and PWID bits */
 738:libraries/STM32F4xx_StdPeriph_Driver/src/stm32f4xx_fmc.c ****   tmppcr &= ((uint32_t)~(FMC_PCR4_TAR  | FMC_PCR4_TCLR | FMC_PCR4_PWAITEN | \
 1115              		.loc 1 738 3 is_stmt 1 view .LVU423
ARM GAS  C:\Users\ktkuru\AppData\Local\Temp\cc04RWjJ.s 			page 35


 1116              		.loc 1 738 10 is_stmt 0 view .LVU424
 1117 000a 21F4FF31 		bic	r1, r1, #130560
 1118              	.LVL58:
 1119              		.loc 1 738 10 view .LVU425
 1120 000e 21F03201 		bic	r1, r1, #50
 1121              	.LVL59:
 739:libraries/STM32F4xx_StdPeriph_Driver/src/stm32f4xx_fmc.c ****                          FMC_PCR4_PWID));
 740:libraries/STM32F4xx_StdPeriph_Driver/src/stm32f4xx_fmc.c **** 
 741:libraries/STM32F4xx_StdPeriph_Driver/src/stm32f4xx_fmc.c ****   /* Set the PCR4 register value according to FMC_PCCARDInitStruct parameters */
 742:libraries/STM32F4xx_StdPeriph_Driver/src/stm32f4xx_fmc.c ****   tmppcr |= (uint32_t)FMC_PCCARDInitStruct->FMC_Waitfeature |
 1122              		.loc 1 742 3 is_stmt 1 view .LVU426
 1123              		.loc 1 742 43 is_stmt 0 view .LVU427
 1124 0012 0368     		ldr	r3, [r0]
 743:libraries/STM32F4xx_StdPeriph_Driver/src/stm32f4xx_fmc.c ****                       FMC_NAND_MemoryDataWidth_16b |  
 1125              		.loc 1 743 52 view .LVU428
 1126 0014 4468     		ldr	r4, [r0, #4]
 1127 0016 43EA4423 		orr	r3, r3, r4, lsl #9
 744:libraries/STM32F4xx_StdPeriph_Driver/src/stm32f4xx_fmc.c ****                       (FMC_PCCARDInitStruct->FMC_TCLRSetupTime << 9) |
 1128              		.loc 1 744 70 view .LVU429
 1129 001a 8468     		ldr	r4, [r0, #8]
 1130 001c 43EA4433 		orr	r3, r3, r4, lsl #13
 742:libraries/STM32F4xx_StdPeriph_Driver/src/stm32f4xx_fmc.c ****                       FMC_NAND_MemoryDataWidth_16b |  
 1131              		.loc 1 742 10 view .LVU430
 1132 0020 0B43     		orrs	r3, r3, r1
 1133 0022 43F01003 		orr	r3, r3, #16
 1134              	.LVL60:
 745:libraries/STM32F4xx_StdPeriph_Driver/src/stm32f4xx_fmc.c ****                       (FMC_PCCARDInitStruct->FMC_TARSetupTime << 13);
 746:libraries/STM32F4xx_StdPeriph_Driver/src/stm32f4xx_fmc.c **** 
 747:libraries/STM32F4xx_StdPeriph_Driver/src/stm32f4xx_fmc.c ****   FMC_Bank4->PCR4 = tmppcr;
 1135              		.loc 1 747 3 is_stmt 1 view .LVU431
 1136              		.loc 1 747 19 is_stmt 0 view .LVU432
 1137 0026 C2F8A030 		str	r3, [r2, #160]
 748:libraries/STM32F4xx_StdPeriph_Driver/src/stm32f4xx_fmc.c **** 
 749:libraries/STM32F4xx_StdPeriph_Driver/src/stm32f4xx_fmc.c ****   /* Get PCCARD common space timing register value */
 750:libraries/STM32F4xx_StdPeriph_Driver/src/stm32f4xx_fmc.c ****   tmpmem = FMC_Bank4->PMEM4;
 1138              		.loc 1 750 3 is_stmt 1 view .LVU433
 1139              		.loc 1 750 10 is_stmt 0 view .LVU434
 1140 002a D2F8A830 		ldr	r3, [r2, #168]
 1141              	.LVL61:
 751:libraries/STM32F4xx_StdPeriph_Driver/src/stm32f4xx_fmc.c ****   
 752:libraries/STM32F4xx_StdPeriph_Driver/src/stm32f4xx_fmc.c ****   /* Clear MEMSETx, MEMWAITx, MEMHOLDx and MEMHIZx bits */
 753:libraries/STM32F4xx_StdPeriph_Driver/src/stm32f4xx_fmc.c ****   tmpmem &= ((uint32_t)~(FMC_PMEM4_MEMSET4  | FMC_PMEM4_MEMWAIT4 | FMC_PMEM4_MEMHOLD4 | \
 1142              		.loc 1 753 3 is_stmt 1 view .LVU435
 754:libraries/STM32F4xx_StdPeriph_Driver/src/stm32f4xx_fmc.c ****                          FMC_PMEM4_MEMHIZ4));
 755:libraries/STM32F4xx_StdPeriph_Driver/src/stm32f4xx_fmc.c **** 
 756:libraries/STM32F4xx_StdPeriph_Driver/src/stm32f4xx_fmc.c ****   /* Set PMEM4 register value according to FMC_CommonSpaceTimingStructure parameters */
 757:libraries/STM32F4xx_StdPeriph_Driver/src/stm32f4xx_fmc.c ****   tmpmem |= (uint32_t)FMC_PCCARDInitStruct->FMC_CommonSpaceTimingStruct->FMC_SetupTime |
 1143              		.loc 1 757 3 view .LVU436
 1144              		.loc 1 757 43 is_stmt 0 view .LVU437
 1145 002e C168     		ldr	r1, [r0, #12]
 1146              		.loc 1 757 72 view .LVU438
 1147 0030 0B68     		ldr	r3, [r1]
 1148              		.loc 1 757 88 view .LVU439
 1149 0032 4C68     		ldr	r4, [r1, #4]
 1150 0034 43EA0423 		orr	r3, r3, r4, lsl #8
 758:libraries/STM32F4xx_StdPeriph_Driver/src/stm32f4xx_fmc.c ****                       (FMC_PCCARDInitStruct->FMC_CommonSpaceTimingStruct->FMC_WaitSetupTime << 8) |
 1151              		.loc 1 758 99 view .LVU440
ARM GAS  C:\Users\ktkuru\AppData\Local\Temp\cc04RWjJ.s 			page 36


 1152 0038 8C68     		ldr	r4, [r1, #8]
 1153 003a 43EA0443 		orr	r3, r3, r4, lsl #16
 759:libraries/STM32F4xx_StdPeriph_Driver/src/stm32f4xx_fmc.c ****                       (FMC_PCCARDInitStruct->FMC_CommonSpaceTimingStruct->FMC_HoldSetupTime << 16)|
 760:libraries/STM32F4xx_StdPeriph_Driver/src/stm32f4xx_fmc.c ****                       (FMC_PCCARDInitStruct->FMC_CommonSpaceTimingStruct->FMC_HiZSetupTime << 24); 
 1154              		.loc 1 760 73 view .LVU441
 1155 003e C968     		ldr	r1, [r1, #12]
 759:libraries/STM32F4xx_StdPeriph_Driver/src/stm32f4xx_fmc.c ****                       (FMC_PCCARDInitStruct->FMC_CommonSpaceTimingStruct->FMC_HoldSetupTime << 16)|
 1156              		.loc 1 759 99 view .LVU442
 1157 0040 43EA0163 		orr	r3, r3, r1, lsl #24
 1158              	.LVL62:
 761:libraries/STM32F4xx_StdPeriph_Driver/src/stm32f4xx_fmc.c **** 
 762:libraries/STM32F4xx_StdPeriph_Driver/src/stm32f4xx_fmc.c ****   FMC_Bank4->PMEM4 = tmpmem; 
 1159              		.loc 1 762 3 is_stmt 1 view .LVU443
 1160              		.loc 1 762 20 is_stmt 0 view .LVU444
 1161 0044 C2F8A830 		str	r3, [r2, #168]
 1162              	.LVL63:
 763:libraries/STM32F4xx_StdPeriph_Driver/src/stm32f4xx_fmc.c **** 
 764:libraries/STM32F4xx_StdPeriph_Driver/src/stm32f4xx_fmc.c ****   /* Get PCCARD timing parameters */
 765:libraries/STM32F4xx_StdPeriph_Driver/src/stm32f4xx_fmc.c ****   tmppatt = FMC_Bank4->PATT4;
 1163              		.loc 1 765 3 is_stmt 1 view .LVU445
 1164              		.loc 1 765 11 is_stmt 0 view .LVU446
 1165 0048 D2F8AC30 		ldr	r3, [r2, #172]
 1166              	.LVL64:
 766:libraries/STM32F4xx_StdPeriph_Driver/src/stm32f4xx_fmc.c ****   
 767:libraries/STM32F4xx_StdPeriph_Driver/src/stm32f4xx_fmc.c ****   /* Clear ATTSETx, ATTWAITx, ATTHOLDx and ATTHIZx bits */
 768:libraries/STM32F4xx_StdPeriph_Driver/src/stm32f4xx_fmc.c ****   tmppatt &= ((uint32_t)~(FMC_PATT4_ATTSET4  | FMC_PATT4_ATTWAIT4 | FMC_PATT4_ATTHOLD4 | \
 1167              		.loc 1 768 3 is_stmt 1 view .LVU447
 769:libraries/STM32F4xx_StdPeriph_Driver/src/stm32f4xx_fmc.c ****                           FMC_PATT4_ATTHIZ4));
 770:libraries/STM32F4xx_StdPeriph_Driver/src/stm32f4xx_fmc.c **** 
 771:libraries/STM32F4xx_StdPeriph_Driver/src/stm32f4xx_fmc.c ****   /* Set PATT4 register value according to FMC_AttributeSpaceTimingStructure parameters */
 772:libraries/STM32F4xx_StdPeriph_Driver/src/stm32f4xx_fmc.c ****   tmppatt |= (uint32_t)FMC_PCCARDInitStruct->FMC_AttributeSpaceTimingStruct->FMC_SetupTime |
 1168              		.loc 1 772 3 view .LVU448
 1169              		.loc 1 772 44 is_stmt 0 view .LVU449
 1170 004c 0169     		ldr	r1, [r0, #16]
 1171              		.loc 1 772 76 view .LVU450
 1172 004e 0B68     		ldr	r3, [r1]
 1173              		.loc 1 772 92 view .LVU451
 1174 0050 4C68     		ldr	r4, [r1, #4]
 1175 0052 43EA0423 		orr	r3, r3, r4, lsl #8
 773:libraries/STM32F4xx_StdPeriph_Driver/src/stm32f4xx_fmc.c ****                        (FMC_PCCARDInitStruct->FMC_AttributeSpaceTimingStruct->FMC_WaitSetupTime << 
 1176              		.loc 1 773 103 view .LVU452
 1177 0056 8C68     		ldr	r4, [r1, #8]
 1178 0058 43EA0443 		orr	r3, r3, r4, lsl #16
 774:libraries/STM32F4xx_StdPeriph_Driver/src/stm32f4xx_fmc.c ****                        (FMC_PCCARDInitStruct->FMC_AttributeSpaceTimingStruct->FMC_HoldSetupTime << 
 775:libraries/STM32F4xx_StdPeriph_Driver/src/stm32f4xx_fmc.c ****                        (FMC_PCCARDInitStruct->FMC_AttributeSpaceTimingStruct->FMC_HiZSetupTime << 2
 1179              		.loc 1 775 77 view .LVU453
 1180 005c C968     		ldr	r1, [r1, #12]
 774:libraries/STM32F4xx_StdPeriph_Driver/src/stm32f4xx_fmc.c ****                        (FMC_PCCARDInitStruct->FMC_AttributeSpaceTimingStruct->FMC_HoldSetupTime << 
 1181              		.loc 1 774 103 view .LVU454
 1182 005e 43EA0163 		orr	r3, r3, r1, lsl #24
 1183              	.LVL65:
 776:libraries/STM32F4xx_StdPeriph_Driver/src/stm32f4xx_fmc.c **** 
 777:libraries/STM32F4xx_StdPeriph_Driver/src/stm32f4xx_fmc.c ****   FMC_Bank4->PATT4 = tmppatt;
 1184              		.loc 1 777 3 is_stmt 1 view .LVU455
 1185              		.loc 1 777 20 is_stmt 0 view .LVU456
 1186 0062 C2F8AC30 		str	r3, [r2, #172]
 1187              	.LVL66:
ARM GAS  C:\Users\ktkuru\AppData\Local\Temp\cc04RWjJ.s 			page 37


 778:libraries/STM32F4xx_StdPeriph_Driver/src/stm32f4xx_fmc.c **** 
 779:libraries/STM32F4xx_StdPeriph_Driver/src/stm32f4xx_fmc.c ****   /* Get FMC_PCCARD device timing parameters */
 780:libraries/STM32F4xx_StdPeriph_Driver/src/stm32f4xx_fmc.c ****   tmppio = FMC_Bank4->PIO4;
 1188              		.loc 1 780 3 is_stmt 1 view .LVU457
 1189              		.loc 1 780 10 is_stmt 0 view .LVU458
 1190 0066 D2F8B030 		ldr	r3, [r2, #176]
 1191              	.LVL67:
 781:libraries/STM32F4xx_StdPeriph_Driver/src/stm32f4xx_fmc.c **** 
 782:libraries/STM32F4xx_StdPeriph_Driver/src/stm32f4xx_fmc.c ****   /* Clear IOSET4, IOWAIT4, IOHOLD4 and IOHIZ4 bits */
 783:libraries/STM32F4xx_StdPeriph_Driver/src/stm32f4xx_fmc.c ****   tmppio &= ((uint32_t)~(FMC_PIO4_IOSET4  | FMC_PIO4_IOWAIT4 | FMC_PIO4_IOHOLD4 | \
 1192              		.loc 1 783 3 is_stmt 1 view .LVU459
 784:libraries/STM32F4xx_StdPeriph_Driver/src/stm32f4xx_fmc.c ****                          FMC_PIO4_IOHIZ4));
 785:libraries/STM32F4xx_StdPeriph_Driver/src/stm32f4xx_fmc.c **** 
 786:libraries/STM32F4xx_StdPeriph_Driver/src/stm32f4xx_fmc.c ****   /* Set PIO4 register value according to FMC_IOSpaceTimingStructure parameters */
 787:libraries/STM32F4xx_StdPeriph_Driver/src/stm32f4xx_fmc.c ****   tmppio |= (uint32_t)FMC_PCCARDInitStruct->FMC_IOSpaceTimingStruct->FMC_SetupTime |
 1193              		.loc 1 787 3 view .LVU460
 1194              		.loc 1 787 43 is_stmt 0 view .LVU461
 1195 006a 4169     		ldr	r1, [r0, #20]
 1196              		.loc 1 787 68 view .LVU462
 1197 006c 0B68     		ldr	r3, [r1]
 788:libraries/STM32F4xx_StdPeriph_Driver/src/stm32f4xx_fmc.c ****                       (FMC_PCCARDInitStruct->FMC_IOSpaceTimingStruct->FMC_WaitSetupTime << 8) |
 1198              		.loc 1 788 69 view .LVU463
 1199 006e 4868     		ldr	r0, [r1, #4]
 1200              	.LVL68:
 787:libraries/STM32F4xx_StdPeriph_Driver/src/stm32f4xx_fmc.c ****                       (FMC_PCCARDInitStruct->FMC_IOSpaceTimingStruct->FMC_WaitSetupTime << 8) |
 1201              		.loc 1 787 84 view .LVU464
 1202 0070 43EA0023 		orr	r3, r3, r0, lsl #8
 789:libraries/STM32F4xx_StdPeriph_Driver/src/stm32f4xx_fmc.c ****                       (FMC_PCCARDInitStruct->FMC_IOSpaceTimingStruct->FMC_HoldSetupTime << 16)|
 1203              		.loc 1 789 69 view .LVU465
 1204 0074 8868     		ldr	r0, [r1, #8]
 788:libraries/STM32F4xx_StdPeriph_Driver/src/stm32f4xx_fmc.c ****                       (FMC_PCCARDInitStruct->FMC_IOSpaceTimingStruct->FMC_WaitSetupTime << 8) |
 1205              		.loc 1 788 95 view .LVU466
 1206 0076 43EA0043 		orr	r3, r3, r0, lsl #16
 790:libraries/STM32F4xx_StdPeriph_Driver/src/stm32f4xx_fmc.c ****                       (FMC_PCCARDInitStruct->FMC_IOSpaceTimingStruct->FMC_HiZSetupTime << 24);     
 1207              		.loc 1 790 69 view .LVU467
 1208 007a C968     		ldr	r1, [r1, #12]
 789:libraries/STM32F4xx_StdPeriph_Driver/src/stm32f4xx_fmc.c ****                       (FMC_PCCARDInitStruct->FMC_IOSpaceTimingStruct->FMC_HoldSetupTime << 16)|
 1209              		.loc 1 789 95 view .LVU468
 1210 007c 43EA0163 		orr	r3, r3, r1, lsl #24
 1211              	.LVL69:
 791:libraries/STM32F4xx_StdPeriph_Driver/src/stm32f4xx_fmc.c ****   
 792:libraries/STM32F4xx_StdPeriph_Driver/src/stm32f4xx_fmc.c ****   FMC_Bank4->PIO4 = tmppio;
 1212              		.loc 1 792 3 is_stmt 1 view .LVU469
 1213              		.loc 1 792 19 is_stmt 0 view .LVU470
 1214 0080 C2F8B030 		str	r3, [r2, #176]
 1215              	.LVL70:
 793:libraries/STM32F4xx_StdPeriph_Driver/src/stm32f4xx_fmc.c **** }
 1216              		.loc 1 793 1 view .LVU471
 1217 0084 5DF8044B 		ldr	r4, [sp], #4
 1218              	.LCFI7:
 1219              		.cfi_restore 4
 1220              		.cfi_def_cfa_offset 0
 1221 0088 7047     		bx	lr
 1222              		.cfi_endproc
 1223              	.LFE134:
 1225              		.section	.text.FMC_PCCARDStructInit,"ax",%progbits
 1226              		.align	1
ARM GAS  C:\Users\ktkuru\AppData\Local\Temp\cc04RWjJ.s 			page 38


 1227              		.global	FMC_PCCARDStructInit
 1228              		.syntax unified
 1229              		.thumb
 1230              		.thumb_func
 1232              	FMC_PCCARDStructInit:
 1233              	.LVL71:
 1234              	.LFB135:
 794:libraries/STM32F4xx_StdPeriph_Driver/src/stm32f4xx_fmc.c **** 
 795:libraries/STM32F4xx_StdPeriph_Driver/src/stm32f4xx_fmc.c **** /**
 796:libraries/STM32F4xx_StdPeriph_Driver/src/stm32f4xx_fmc.c ****   * @brief  Fills each FMC_PCCARDInitStruct member with its default value.
 797:libraries/STM32F4xx_StdPeriph_Driver/src/stm32f4xx_fmc.c ****   * @param  FMC_PCCARDInitStruct: pointer to a FMC_PCCARDInitTypeDef structure
 798:libraries/STM32F4xx_StdPeriph_Driver/src/stm32f4xx_fmc.c ****   *         which will be initialized.
 799:libraries/STM32F4xx_StdPeriph_Driver/src/stm32f4xx_fmc.c ****   * @retval None
 800:libraries/STM32F4xx_StdPeriph_Driver/src/stm32f4xx_fmc.c ****   */
 801:libraries/STM32F4xx_StdPeriph_Driver/src/stm32f4xx_fmc.c **** void FMC_PCCARDStructInit(FMC_PCCARDInitTypeDef* FMC_PCCARDInitStruct)
 802:libraries/STM32F4xx_StdPeriph_Driver/src/stm32f4xx_fmc.c **** {
 1235              		.loc 1 802 1 is_stmt 1 view -0
 1236              		.cfi_startproc
 1237              		@ args = 0, pretend = 0, frame = 0
 1238              		@ frame_needed = 0, uses_anonymous_args = 0
 1239              		@ link register save eliminated.
 803:libraries/STM32F4xx_StdPeriph_Driver/src/stm32f4xx_fmc.c ****   /* Reset PCCARD Init structure parameters values */
 804:libraries/STM32F4xx_StdPeriph_Driver/src/stm32f4xx_fmc.c ****   FMC_PCCARDInitStruct->FMC_Waitfeature = FMC_Waitfeature_Disable;
 1240              		.loc 1 804 3 view .LVU473
 1241              		.loc 1 804 41 is_stmt 0 view .LVU474
 1242 0000 0023     		movs	r3, #0
 1243 0002 0360     		str	r3, [r0]
 805:libraries/STM32F4xx_StdPeriph_Driver/src/stm32f4xx_fmc.c ****   FMC_PCCARDInitStruct->FMC_TCLRSetupTime = 0;
 1244              		.loc 1 805 3 is_stmt 1 view .LVU475
 1245              		.loc 1 805 43 is_stmt 0 view .LVU476
 1246 0004 4360     		str	r3, [r0, #4]
 806:libraries/STM32F4xx_StdPeriph_Driver/src/stm32f4xx_fmc.c ****   FMC_PCCARDInitStruct->FMC_TARSetupTime = 0;
 1247              		.loc 1 806 3 is_stmt 1 view .LVU477
 1248              		.loc 1 806 42 is_stmt 0 view .LVU478
 1249 0006 8360     		str	r3, [r0, #8]
 807:libraries/STM32F4xx_StdPeriph_Driver/src/stm32f4xx_fmc.c ****   FMC_PCCARDInitStruct->FMC_CommonSpaceTimingStruct->FMC_SetupTime = 252;
 1250              		.loc 1 807 3 is_stmt 1 view .LVU479
 1251              		.loc 1 807 23 is_stmt 0 view .LVU480
 1252 0008 C268     		ldr	r2, [r0, #12]
 1253              		.loc 1 807 68 view .LVU481
 1254 000a FC23     		movs	r3, #252
 1255 000c 1360     		str	r3, [r2]
 808:libraries/STM32F4xx_StdPeriph_Driver/src/stm32f4xx_fmc.c ****   FMC_PCCARDInitStruct->FMC_CommonSpaceTimingStruct->FMC_WaitSetupTime = 252;
 1256              		.loc 1 808 3 is_stmt 1 view .LVU482
 1257              		.loc 1 808 23 is_stmt 0 view .LVU483
 1258 000e C268     		ldr	r2, [r0, #12]
 1259              		.loc 1 808 72 view .LVU484
 1260 0010 5360     		str	r3, [r2, #4]
 809:libraries/STM32F4xx_StdPeriph_Driver/src/stm32f4xx_fmc.c ****   FMC_PCCARDInitStruct->FMC_CommonSpaceTimingStruct->FMC_HoldSetupTime = 252;
 1261              		.loc 1 809 3 is_stmt 1 view .LVU485
 1262              		.loc 1 809 23 is_stmt 0 view .LVU486
 1263 0012 C268     		ldr	r2, [r0, #12]
 1264              		.loc 1 809 72 view .LVU487
 1265 0014 9360     		str	r3, [r2, #8]
 810:libraries/STM32F4xx_StdPeriph_Driver/src/stm32f4xx_fmc.c ****   FMC_PCCARDInitStruct->FMC_CommonSpaceTimingStruct->FMC_HiZSetupTime = 252;
 1266              		.loc 1 810 3 is_stmt 1 view .LVU488
 1267              		.loc 1 810 23 is_stmt 0 view .LVU489
ARM GAS  C:\Users\ktkuru\AppData\Local\Temp\cc04RWjJ.s 			page 39


 1268 0016 C268     		ldr	r2, [r0, #12]
 1269              		.loc 1 810 71 view .LVU490
 1270 0018 D360     		str	r3, [r2, #12]
 811:libraries/STM32F4xx_StdPeriph_Driver/src/stm32f4xx_fmc.c ****   FMC_PCCARDInitStruct->FMC_AttributeSpaceTimingStruct->FMC_SetupTime = 252;
 1271              		.loc 1 811 3 is_stmt 1 view .LVU491
 1272              		.loc 1 811 23 is_stmt 0 view .LVU492
 1273 001a 0269     		ldr	r2, [r0, #16]
 1274              		.loc 1 811 71 view .LVU493
 1275 001c 1360     		str	r3, [r2]
 812:libraries/STM32F4xx_StdPeriph_Driver/src/stm32f4xx_fmc.c ****   FMC_PCCARDInitStruct->FMC_AttributeSpaceTimingStruct->FMC_WaitSetupTime = 252;
 1276              		.loc 1 812 3 is_stmt 1 view .LVU494
 1277              		.loc 1 812 23 is_stmt 0 view .LVU495
 1278 001e 0269     		ldr	r2, [r0, #16]
 1279              		.loc 1 812 75 view .LVU496
 1280 0020 5360     		str	r3, [r2, #4]
 813:libraries/STM32F4xx_StdPeriph_Driver/src/stm32f4xx_fmc.c ****   FMC_PCCARDInitStruct->FMC_AttributeSpaceTimingStruct->FMC_HoldSetupTime = 252;
 1281              		.loc 1 813 3 is_stmt 1 view .LVU497
 1282              		.loc 1 813 23 is_stmt 0 view .LVU498
 1283 0022 0269     		ldr	r2, [r0, #16]
 1284              		.loc 1 813 75 view .LVU499
 1285 0024 9360     		str	r3, [r2, #8]
 814:libraries/STM32F4xx_StdPeriph_Driver/src/stm32f4xx_fmc.c ****   FMC_PCCARDInitStruct->FMC_AttributeSpaceTimingStruct->FMC_HiZSetupTime = 252;	
 1286              		.loc 1 814 3 is_stmt 1 view .LVU500
 1287              		.loc 1 814 23 is_stmt 0 view .LVU501
 1288 0026 0269     		ldr	r2, [r0, #16]
 1289              		.loc 1 814 74 view .LVU502
 1290 0028 D360     		str	r3, [r2, #12]
 815:libraries/STM32F4xx_StdPeriph_Driver/src/stm32f4xx_fmc.c ****   FMC_PCCARDInitStruct->FMC_IOSpaceTimingStruct->FMC_SetupTime = 252;
 1291              		.loc 1 815 3 is_stmt 1 view .LVU503
 1292              		.loc 1 815 23 is_stmt 0 view .LVU504
 1293 002a 4269     		ldr	r2, [r0, #20]
 1294              		.loc 1 815 64 view .LVU505
 1295 002c 1360     		str	r3, [r2]
 816:libraries/STM32F4xx_StdPeriph_Driver/src/stm32f4xx_fmc.c ****   FMC_PCCARDInitStruct->FMC_IOSpaceTimingStruct->FMC_WaitSetupTime = 252;
 1296              		.loc 1 816 3 is_stmt 1 view .LVU506
 1297              		.loc 1 816 23 is_stmt 0 view .LVU507
 1298 002e 4269     		ldr	r2, [r0, #20]
 1299              		.loc 1 816 68 view .LVU508
 1300 0030 5360     		str	r3, [r2, #4]
 817:libraries/STM32F4xx_StdPeriph_Driver/src/stm32f4xx_fmc.c ****   FMC_PCCARDInitStruct->FMC_IOSpaceTimingStruct->FMC_HoldSetupTime = 252;
 1301              		.loc 1 817 3 is_stmt 1 view .LVU509
 1302              		.loc 1 817 23 is_stmt 0 view .LVU510
 1303 0032 4269     		ldr	r2, [r0, #20]
 1304              		.loc 1 817 68 view .LVU511
 1305 0034 9360     		str	r3, [r2, #8]
 818:libraries/STM32F4xx_StdPeriph_Driver/src/stm32f4xx_fmc.c ****   FMC_PCCARDInitStruct->FMC_IOSpaceTimingStruct->FMC_HiZSetupTime = 252;
 1306              		.loc 1 818 3 is_stmt 1 view .LVU512
 1307              		.loc 1 818 23 is_stmt 0 view .LVU513
 1308 0036 4269     		ldr	r2, [r0, #20]
 1309              		.loc 1 818 67 view .LVU514
 1310 0038 D360     		str	r3, [r2, #12]
 819:libraries/STM32F4xx_StdPeriph_Driver/src/stm32f4xx_fmc.c **** }
 1311              		.loc 1 819 1 view .LVU515
 1312 003a 7047     		bx	lr
 1313              		.cfi_endproc
 1314              	.LFE135:
 1316              		.section	.text.FMC_PCCARDCmd,"ax",%progbits
ARM GAS  C:\Users\ktkuru\AppData\Local\Temp\cc04RWjJ.s 			page 40


 1317              		.align	1
 1318              		.global	FMC_PCCARDCmd
 1319              		.syntax unified
 1320              		.thumb
 1321              		.thumb_func
 1323              	FMC_PCCARDCmd:
 1324              	.LVL72:
 1325              	.LFB136:
 820:libraries/STM32F4xx_StdPeriph_Driver/src/stm32f4xx_fmc.c **** 
 821:libraries/STM32F4xx_StdPeriph_Driver/src/stm32f4xx_fmc.c **** /**
 822:libraries/STM32F4xx_StdPeriph_Driver/src/stm32f4xx_fmc.c ****   * @brief  Enables or disables the PCCARD Memory Bank.
 823:libraries/STM32F4xx_StdPeriph_Driver/src/stm32f4xx_fmc.c ****   * @param  NewState: new state of the PCCARD Memory Bank.  
 824:libraries/STM32F4xx_StdPeriph_Driver/src/stm32f4xx_fmc.c ****   *          This parameter can be: ENABLE or DISABLE.
 825:libraries/STM32F4xx_StdPeriph_Driver/src/stm32f4xx_fmc.c ****   * @retval None
 826:libraries/STM32F4xx_StdPeriph_Driver/src/stm32f4xx_fmc.c ****   */
 827:libraries/STM32F4xx_StdPeriph_Driver/src/stm32f4xx_fmc.c **** void FMC_PCCARDCmd(FunctionalState NewState)
 828:libraries/STM32F4xx_StdPeriph_Driver/src/stm32f4xx_fmc.c **** {
 1326              		.loc 1 828 1 is_stmt 1 view -0
 1327              		.cfi_startproc
 1328              		@ args = 0, pretend = 0, frame = 0
 1329              		@ frame_needed = 0, uses_anonymous_args = 0
 1330              		@ link register save eliminated.
 829:libraries/STM32F4xx_StdPeriph_Driver/src/stm32f4xx_fmc.c ****   assert_param(IS_FUNCTIONAL_STATE(NewState));
 1331              		.loc 1 829 3 view .LVU517
 830:libraries/STM32F4xx_StdPeriph_Driver/src/stm32f4xx_fmc.c ****   
 831:libraries/STM32F4xx_StdPeriph_Driver/src/stm32f4xx_fmc.c ****   if (NewState != DISABLE)
 1332              		.loc 1 831 3 view .LVU518
 1333              		.loc 1 831 6 is_stmt 0 view .LVU519
 1334 0000 40B1     		cbz	r0, .L71
 832:libraries/STM32F4xx_StdPeriph_Driver/src/stm32f4xx_fmc.c ****   {
 833:libraries/STM32F4xx_StdPeriph_Driver/src/stm32f4xx_fmc.c ****     /* Enable the PCCARD Bank by setting the PBKEN bit in the PCR4 register */
 834:libraries/STM32F4xx_StdPeriph_Driver/src/stm32f4xx_fmc.c ****     FMC_Bank4->PCR4 |= PCR_PBKEN_SET;
 1335              		.loc 1 834 5 is_stmt 1 view .LVU520
 1336              		.loc 1 834 14 is_stmt 0 view .LVU521
 1337 0002 4FF02042 		mov	r2, #-1610612736
 1338 0006 D2F8A030 		ldr	r3, [r2, #160]
 1339              		.loc 1 834 21 view .LVU522
 1340 000a 43F00403 		orr	r3, r3, #4
 1341 000e C2F8A030 		str	r3, [r2, #160]
 1342 0012 7047     		bx	lr
 1343              	.L71:
 835:libraries/STM32F4xx_StdPeriph_Driver/src/stm32f4xx_fmc.c ****   }
 836:libraries/STM32F4xx_StdPeriph_Driver/src/stm32f4xx_fmc.c ****   else
 837:libraries/STM32F4xx_StdPeriph_Driver/src/stm32f4xx_fmc.c ****   {
 838:libraries/STM32F4xx_StdPeriph_Driver/src/stm32f4xx_fmc.c ****     /* Disable the PCCARD Bank by clearing the PBKEN bit in the PCR4 register */
 839:libraries/STM32F4xx_StdPeriph_Driver/src/stm32f4xx_fmc.c ****     FMC_Bank4->PCR4 &= PCR_PBKEN_RESET;
 1344              		.loc 1 839 5 is_stmt 1 view .LVU523
 1345              		.loc 1 839 14 is_stmt 0 view .LVU524
 1346 0014 4FF02042 		mov	r2, #-1610612736
 1347 0018 D2F8A010 		ldr	r1, [r2, #160]
 1348              		.loc 1 839 21 view .LVU525
 1349 001c 024B     		ldr	r3, .L73
 1350 001e 0B40     		ands	r3, r3, r1
 1351 0020 C2F8A030 		str	r3, [r2, #160]
 840:libraries/STM32F4xx_StdPeriph_Driver/src/stm32f4xx_fmc.c ****   }
 841:libraries/STM32F4xx_StdPeriph_Driver/src/stm32f4xx_fmc.c **** }
 1352              		.loc 1 841 1 view .LVU526
ARM GAS  C:\Users\ktkuru\AppData\Local\Temp\cc04RWjJ.s 			page 41


 1353 0024 7047     		bx	lr
 1354              	.L74:
 1355 0026 00BF     		.align	2
 1356              	.L73:
 1357 0028 FBFF0F00 		.word	1048571
 1358              		.cfi_endproc
 1359              	.LFE136:
 1361              		.section	.text.FMC_SDRAMDeInit,"ax",%progbits
 1362              		.align	1
 1363              		.global	FMC_SDRAMDeInit
 1364              		.syntax unified
 1365              		.thumb
 1366              		.thumb_func
 1368              	FMC_SDRAMDeInit:
 1369              	.LVL73:
 1370              	.LFB137:
 842:libraries/STM32F4xx_StdPeriph_Driver/src/stm32f4xx_fmc.c **** 
 843:libraries/STM32F4xx_StdPeriph_Driver/src/stm32f4xx_fmc.c **** /**
 844:libraries/STM32F4xx_StdPeriph_Driver/src/stm32f4xx_fmc.c ****   * @}
 845:libraries/STM32F4xx_StdPeriph_Driver/src/stm32f4xx_fmc.c ****   */
 846:libraries/STM32F4xx_StdPeriph_Driver/src/stm32f4xx_fmc.c **** 
 847:libraries/STM32F4xx_StdPeriph_Driver/src/stm32f4xx_fmc.c **** /** @defgroup FMC_Group4  SDRAM Controller functions
 848:libraries/STM32F4xx_StdPeriph_Driver/src/stm32f4xx_fmc.c ****   * @brief    SDRAM Controller functions
 849:libraries/STM32F4xx_StdPeriph_Driver/src/stm32f4xx_fmc.c ****   *
 850:libraries/STM32F4xx_StdPeriph_Driver/src/stm32f4xx_fmc.c **** @verbatim   
 851:libraries/STM32F4xx_StdPeriph_Driver/src/stm32f4xx_fmc.c ****  ===============================================================================
 852:libraries/STM32F4xx_StdPeriph_Driver/src/stm32f4xx_fmc.c ****                      ##### SDRAM Controller functions ##### 
 853:libraries/STM32F4xx_StdPeriph_Driver/src/stm32f4xx_fmc.c ****  ===============================================================================  
 854:libraries/STM32F4xx_StdPeriph_Driver/src/stm32f4xx_fmc.c ****   
 855:libraries/STM32F4xx_StdPeriph_Driver/src/stm32f4xx_fmc.c ****  [..]  The following sequence should be followed to configure the FMC to interface
 856:libraries/STM32F4xx_StdPeriph_Driver/src/stm32f4xx_fmc.c ****        with SDRAM memory connected to the SDRAM Bank 1 or SDRAM bank 2:
 857:libraries/STM32F4xx_StdPeriph_Driver/src/stm32f4xx_fmc.c ****  
 858:libraries/STM32F4xx_StdPeriph_Driver/src/stm32f4xx_fmc.c ****   (#) Enable the clock for the FMC and associated GPIOs using the following functions:
 859:libraries/STM32F4xx_StdPeriph_Driver/src/stm32f4xx_fmc.c ****       (++) RCC_AHB3PeriphClockCmd(RCC_AHB3Periph_FMC, ENABLE);
 860:libraries/STM32F4xx_StdPeriph_Driver/src/stm32f4xx_fmc.c ****       (++) RCC_AHB1PeriphClockCmd(RCC_AHB1Periph_GPIOx, ENABLE);
 861:libraries/STM32F4xx_StdPeriph_Driver/src/stm32f4xx_fmc.c **** 
 862:libraries/STM32F4xx_StdPeriph_Driver/src/stm32f4xx_fmc.c ****   (#) FMC pins configuration 
 863:libraries/STM32F4xx_StdPeriph_Driver/src/stm32f4xx_fmc.c ****       (++) Connect the involved FMC pins to AF12 using the following function 
 864:libraries/STM32F4xx_StdPeriph_Driver/src/stm32f4xx_fmc.c ****            GPIO_PinAFConfig(GPIOx, GPIO_PinSourcex, GPIO_AF_FMC); 
 865:libraries/STM32F4xx_StdPeriph_Driver/src/stm32f4xx_fmc.c ****       (++) Configure these FMC pins in alternate function mode by calling the function
 866:libraries/STM32F4xx_StdPeriph_Driver/src/stm32f4xx_fmc.c ****            GPIO_Init();    
 867:libraries/STM32F4xx_StdPeriph_Driver/src/stm32f4xx_fmc.c ****        
 868:libraries/STM32F4xx_StdPeriph_Driver/src/stm32f4xx_fmc.c ****   (#) Declare a FMC_SDRAMInitTypeDef structure, for example:
 869:libraries/STM32F4xx_StdPeriph_Driver/src/stm32f4xx_fmc.c ****        FMC_SDRAMInitTypeDef  FMC_SDRAMInitStructure;
 870:libraries/STM32F4xx_StdPeriph_Driver/src/stm32f4xx_fmc.c ****       and fill the FMC_SDRAMInitStructure variable with the allowed values of
 871:libraries/STM32F4xx_StdPeriph_Driver/src/stm32f4xx_fmc.c ****       the structure member.  
 872:libraries/STM32F4xx_StdPeriph_Driver/src/stm32f4xx_fmc.c ****       
 873:libraries/STM32F4xx_StdPeriph_Driver/src/stm32f4xx_fmc.c ****   (#) Initialize the SDRAM Controller by calling the function
 874:libraries/STM32F4xx_StdPeriph_Driver/src/stm32f4xx_fmc.c ****           FMC_SDRAMInit(&FMC_SDRAMInitStructure);
 875:libraries/STM32F4xx_StdPeriph_Driver/src/stm32f4xx_fmc.c ****           
 876:libraries/STM32F4xx_StdPeriph_Driver/src/stm32f4xx_fmc.c ****   (#) Declare a FMC_SDRAMCommandTypeDef structure, for example:
 877:libraries/STM32F4xx_StdPeriph_Driver/src/stm32f4xx_fmc.c ****         FMC_SDRAMCommandTypeDef  FMC_SDRAMCommandStructure;
 878:libraries/STM32F4xx_StdPeriph_Driver/src/stm32f4xx_fmc.c ****       and fill the FMC_SDRAMCommandStructure variable with the allowed values of
 879:libraries/STM32F4xx_StdPeriph_Driver/src/stm32f4xx_fmc.c ****       the structure member.        
 880:libraries/STM32F4xx_StdPeriph_Driver/src/stm32f4xx_fmc.c **** 
 881:libraries/STM32F4xx_StdPeriph_Driver/src/stm32f4xx_fmc.c ****   (#) Configure the SDCMR register with the desired command parameters by calling 
 882:libraries/STM32F4xx_StdPeriph_Driver/src/stm32f4xx_fmc.c ****       the function FMC_SDRAMCmdConfig(&FMC_SDRAMCommandStructure);  
ARM GAS  C:\Users\ktkuru\AppData\Local\Temp\cc04RWjJ.s 			page 42


 883:libraries/STM32F4xx_StdPeriph_Driver/src/stm32f4xx_fmc.c **** 
 884:libraries/STM32F4xx_StdPeriph_Driver/src/stm32f4xx_fmc.c ****   (#) At this stage, the SDRAM memory is ready for any valid command.
 885:libraries/STM32F4xx_StdPeriph_Driver/src/stm32f4xx_fmc.c ****    
 886:libraries/STM32F4xx_StdPeriph_Driver/src/stm32f4xx_fmc.c **** @endverbatim
 887:libraries/STM32F4xx_StdPeriph_Driver/src/stm32f4xx_fmc.c ****   * @{
 888:libraries/STM32F4xx_StdPeriph_Driver/src/stm32f4xx_fmc.c ****   */
 889:libraries/STM32F4xx_StdPeriph_Driver/src/stm32f4xx_fmc.c **** 
 890:libraries/STM32F4xx_StdPeriph_Driver/src/stm32f4xx_fmc.c **** /**
 891:libraries/STM32F4xx_StdPeriph_Driver/src/stm32f4xx_fmc.c ****   * @brief  De-initializes the FMC SDRAM Banks registers to their default 
 892:libraries/STM32F4xx_StdPeriph_Driver/src/stm32f4xx_fmc.c ****   *         reset values.
 893:libraries/STM32F4xx_StdPeriph_Driver/src/stm32f4xx_fmc.c ****   * @param  FMC_Bank: specifies the FMC Bank to be used
 894:libraries/STM32F4xx_StdPeriph_Driver/src/stm32f4xx_fmc.c ****   *          This parameter can be one of the following values:
 895:libraries/STM32F4xx_StdPeriph_Driver/src/stm32f4xx_fmc.c ****   *            @arg FMC_Bank1_SDRAM: FMC Bank1 SDRAM 
 896:libraries/STM32F4xx_StdPeriph_Driver/src/stm32f4xx_fmc.c ****   *            @arg FMC_Bank2_SDRAM: FMC Bank2 SDRAM 
 897:libraries/STM32F4xx_StdPeriph_Driver/src/stm32f4xx_fmc.c ****   * @retval None
 898:libraries/STM32F4xx_StdPeriph_Driver/src/stm32f4xx_fmc.c ****   */
 899:libraries/STM32F4xx_StdPeriph_Driver/src/stm32f4xx_fmc.c **** void FMC_SDRAMDeInit(uint32_t FMC_Bank)
 900:libraries/STM32F4xx_StdPeriph_Driver/src/stm32f4xx_fmc.c **** {
 1371              		.loc 1 900 1 is_stmt 1 view -0
 1372              		.cfi_startproc
 1373              		@ args = 0, pretend = 0, frame = 0
 1374              		@ frame_needed = 0, uses_anonymous_args = 0
 1375              		@ link register save eliminated.
 901:libraries/STM32F4xx_StdPeriph_Driver/src/stm32f4xx_fmc.c ****   /* Check the parameter */
 902:libraries/STM32F4xx_StdPeriph_Driver/src/stm32f4xx_fmc.c ****   assert_param(IS_FMC_SDRAM_BANK(FMC_Bank));
 1376              		.loc 1 902 3 view .LVU528
 903:libraries/STM32F4xx_StdPeriph_Driver/src/stm32f4xx_fmc.c ****   
 904:libraries/STM32F4xx_StdPeriph_Driver/src/stm32f4xx_fmc.c ****   FMC_Bank5_6->SDCR[FMC_Bank] = 0x000002D0;
 1377              		.loc 1 904 3 view .LVU529
 1378              		.loc 1 904 31 is_stmt 0 view .LVU530
 1379 0000 084B     		ldr	r3, .L76
 1380 0002 03EB8002 		add	r2, r3, r0, lsl #2
 1381 0006 4FF43471 		mov	r1, #720
 1382 000a 1164     		str	r1, [r2, #64]
 905:libraries/STM32F4xx_StdPeriph_Driver/src/stm32f4xx_fmc.c ****   FMC_Bank5_6->SDTR[FMC_Bank] = 0x0FFFFFFF;    
 1383              		.loc 1 905 3 is_stmt 1 view .LVU531
 1384              		.loc 1 905 31 is_stmt 0 view .LVU532
 1385 000c 0230     		adds	r0, r0, #2
 1386              	.LVL74:
 1387              		.loc 1 905 31 view .LVU533
 1388 000e 03EB8000 		add	r0, r3, r0, lsl #2
 1389              	.LVL75:
 1390              		.loc 1 905 31 view .LVU534
 1391 0012 6FF07042 		mvn	r2, #-268435456
 1392 0016 0264     		str	r2, [r0, #64]
 906:libraries/STM32F4xx_StdPeriph_Driver/src/stm32f4xx_fmc.c ****   FMC_Bank5_6->SDCMR = 0x00000000;
 1393              		.loc 1 906 3 is_stmt 1 view .LVU535
 1394              		.loc 1 906 22 is_stmt 0 view .LVU536
 1395 0018 0022     		movs	r2, #0
 1396 001a 1A65     		str	r2, [r3, #80]
 907:libraries/STM32F4xx_StdPeriph_Driver/src/stm32f4xx_fmc.c ****   FMC_Bank5_6->SDRTR = 0x00000000;
 1397              		.loc 1 907 3 is_stmt 1 view .LVU537
 1398              		.loc 1 907 22 is_stmt 0 view .LVU538
 1399 001c 5A65     		str	r2, [r3, #84]
 908:libraries/STM32F4xx_StdPeriph_Driver/src/stm32f4xx_fmc.c ****   FMC_Bank5_6->SDSR = 0x00000000; 
 1400              		.loc 1 908 3 is_stmt 1 view .LVU539
 1401              		.loc 1 908 21 is_stmt 0 view .LVU540
ARM GAS  C:\Users\ktkuru\AppData\Local\Temp\cc04RWjJ.s 			page 43


 1402 001e 9A65     		str	r2, [r3, #88]
 909:libraries/STM32F4xx_StdPeriph_Driver/src/stm32f4xx_fmc.c **** }  
 1403              		.loc 1 909 1 view .LVU541
 1404 0020 7047     		bx	lr
 1405              	.L77:
 1406 0022 00BF     		.align	2
 1407              	.L76:
 1408 0024 000100A0 		.word	-1610612480
 1409              		.cfi_endproc
 1410              	.LFE137:
 1412              		.section	.text.FMC_SDRAMInit,"ax",%progbits
 1413              		.align	1
 1414              		.global	FMC_SDRAMInit
 1415              		.syntax unified
 1416              		.thumb
 1417              		.thumb_func
 1419              	FMC_SDRAMInit:
 1420              	.LVL76:
 1421              	.LFB138:
 910:libraries/STM32F4xx_StdPeriph_Driver/src/stm32f4xx_fmc.c **** 
 911:libraries/STM32F4xx_StdPeriph_Driver/src/stm32f4xx_fmc.c **** /**
 912:libraries/STM32F4xx_StdPeriph_Driver/src/stm32f4xx_fmc.c ****   * @brief  Initializes the FMC SDRAM Banks according to the specified
 913:libraries/STM32F4xx_StdPeriph_Driver/src/stm32f4xx_fmc.c ****   *         parameters in the FMC_SDRAMInitStruct.
 914:libraries/STM32F4xx_StdPeriph_Driver/src/stm32f4xx_fmc.c ****   * @param  FMC_SDRAMInitStruct : pointer to a FMC_SDRAMInitTypeDef structure
 915:libraries/STM32F4xx_StdPeriph_Driver/src/stm32f4xx_fmc.c ****   *         that contains the configuration information for the FMC SDRAM 
 916:libraries/STM32F4xx_StdPeriph_Driver/src/stm32f4xx_fmc.c ****   *         specified Banks.                       
 917:libraries/STM32F4xx_StdPeriph_Driver/src/stm32f4xx_fmc.c ****   * @retval None
 918:libraries/STM32F4xx_StdPeriph_Driver/src/stm32f4xx_fmc.c ****   */
 919:libraries/STM32F4xx_StdPeriph_Driver/src/stm32f4xx_fmc.c **** void FMC_SDRAMInit(FMC_SDRAMInitTypeDef* FMC_SDRAMInitStruct)
 920:libraries/STM32F4xx_StdPeriph_Driver/src/stm32f4xx_fmc.c **** { 
 1422              		.loc 1 920 1 is_stmt 1 view -0
 1423              		.cfi_startproc
 1424              		@ args = 0, pretend = 0, frame = 0
 1425              		@ frame_needed = 0, uses_anonymous_args = 0
 1426              		@ link register save eliminated.
 1427              		.loc 1 920 1 is_stmt 0 view .LVU543
 1428 0000 70B4     		push	{r4, r5, r6}
 1429              	.LCFI8:
 1430              		.cfi_def_cfa_offset 12
 1431              		.cfi_offset 4, -12
 1432              		.cfi_offset 5, -8
 1433              		.cfi_offset 6, -4
 921:libraries/STM32F4xx_StdPeriph_Driver/src/stm32f4xx_fmc.c ****   /* temporary registers */
 922:libraries/STM32F4xx_StdPeriph_Driver/src/stm32f4xx_fmc.c ****   uint32_t tmpr1 = 0, tmpr2 = 0, tmpr3 = 0, tmpr4 = 0;
 1434              		.loc 1 922 3 is_stmt 1 view .LVU544
 1435              	.LVL77:
 923:libraries/STM32F4xx_StdPeriph_Driver/src/stm32f4xx_fmc.c ****   
 924:libraries/STM32F4xx_StdPeriph_Driver/src/stm32f4xx_fmc.c ****   /* Check the parameters */
 925:libraries/STM32F4xx_StdPeriph_Driver/src/stm32f4xx_fmc.c ****   
 926:libraries/STM32F4xx_StdPeriph_Driver/src/stm32f4xx_fmc.c ****   /* Control parameters */
 927:libraries/STM32F4xx_StdPeriph_Driver/src/stm32f4xx_fmc.c ****   assert_param(IS_FMC_SDRAM_BANK(FMC_SDRAMInitStruct->FMC_Bank));
 1436              		.loc 1 927 3 view .LVU545
 928:libraries/STM32F4xx_StdPeriph_Driver/src/stm32f4xx_fmc.c ****   assert_param(IS_FMC_COLUMNBITS_NUMBER(FMC_SDRAMInitStruct->FMC_ColumnBitsNumber)); 
 1437              		.loc 1 928 3 view .LVU546
 929:libraries/STM32F4xx_StdPeriph_Driver/src/stm32f4xx_fmc.c ****   assert_param(IS_FMC_ROWBITS_NUMBER(FMC_SDRAMInitStruct->FMC_RowBitsNumber));
 1438              		.loc 1 929 3 view .LVU547
 930:libraries/STM32F4xx_StdPeriph_Driver/src/stm32f4xx_fmc.c ****   assert_param(IS_FMC_SDMEMORY_WIDTH(FMC_SDRAMInitStruct->FMC_SDMemoryDataWidth));
ARM GAS  C:\Users\ktkuru\AppData\Local\Temp\cc04RWjJ.s 			page 44


 1439              		.loc 1 930 3 view .LVU548
 931:libraries/STM32F4xx_StdPeriph_Driver/src/stm32f4xx_fmc.c ****   assert_param(IS_FMC_INTERNALBANK_NUMBER(FMC_SDRAMInitStruct->FMC_InternalBankNumber)); 
 1440              		.loc 1 931 3 view .LVU549
 932:libraries/STM32F4xx_StdPeriph_Driver/src/stm32f4xx_fmc.c ****   assert_param(IS_FMC_CAS_LATENCY(FMC_SDRAMInitStruct->FMC_CASLatency));
 1441              		.loc 1 932 3 view .LVU550
 933:libraries/STM32F4xx_StdPeriph_Driver/src/stm32f4xx_fmc.c ****   assert_param(IS_FMC_WRITE_PROTECTION(FMC_SDRAMInitStruct->FMC_WriteProtection));
 1442              		.loc 1 933 3 view .LVU551
 934:libraries/STM32F4xx_StdPeriph_Driver/src/stm32f4xx_fmc.c ****   assert_param(IS_FMC_SDCLOCK_PERIOD(FMC_SDRAMInitStruct->FMC_SDClockPeriod));
 1443              		.loc 1 934 3 view .LVU552
 935:libraries/STM32F4xx_StdPeriph_Driver/src/stm32f4xx_fmc.c ****   assert_param(IS_FMC_READ_BURST(FMC_SDRAMInitStruct->FMC_ReadBurst));
 1444              		.loc 1 935 3 view .LVU553
 936:libraries/STM32F4xx_StdPeriph_Driver/src/stm32f4xx_fmc.c ****   assert_param(IS_FMC_READPIPE_DELAY(FMC_SDRAMInitStruct->FMC_ReadPipeDelay));   
 1445              		.loc 1 936 3 view .LVU554
 937:libraries/STM32F4xx_StdPeriph_Driver/src/stm32f4xx_fmc.c ****   
 938:libraries/STM32F4xx_StdPeriph_Driver/src/stm32f4xx_fmc.c ****   /* Timing parameters */
 939:libraries/STM32F4xx_StdPeriph_Driver/src/stm32f4xx_fmc.c ****   assert_param(IS_FMC_LOADTOACTIVE_DELAY(FMC_SDRAMInitStruct->FMC_SDRAMTimingStruct->FMC_LoadToActi
 1446              		.loc 1 939 3 view .LVU555
 940:libraries/STM32F4xx_StdPeriph_Driver/src/stm32f4xx_fmc.c ****   assert_param(IS_FMC_EXITSELFREFRESH_DELAY(FMC_SDRAMInitStruct->FMC_SDRAMTimingStruct->FMC_ExitSel
 1447              		.loc 1 940 3 view .LVU556
 941:libraries/STM32F4xx_StdPeriph_Driver/src/stm32f4xx_fmc.c ****   assert_param(IS_FMC_SELFREFRESH_TIME(FMC_SDRAMInitStruct->FMC_SDRAMTimingStruct->FMC_SelfRefreshT
 1448              		.loc 1 941 3 view .LVU557
 942:libraries/STM32F4xx_StdPeriph_Driver/src/stm32f4xx_fmc.c ****   assert_param(IS_FMC_ROWCYCLE_DELAY(FMC_SDRAMInitStruct->FMC_SDRAMTimingStruct->FMC_RowCycleDelay)
 1449              		.loc 1 942 3 view .LVU558
 943:libraries/STM32F4xx_StdPeriph_Driver/src/stm32f4xx_fmc.c ****   assert_param(IS_FMC_WRITE_RECOVERY_TIME(FMC_SDRAMInitStruct->FMC_SDRAMTimingStruct->FMC_WriteReco
 1450              		.loc 1 943 3 view .LVU559
 944:libraries/STM32F4xx_StdPeriph_Driver/src/stm32f4xx_fmc.c ****   assert_param(IS_FMC_RP_DELAY(FMC_SDRAMInitStruct->FMC_SDRAMTimingStruct->FMC_RPDelay)); 
 1451              		.loc 1 944 3 view .LVU560
 945:libraries/STM32F4xx_StdPeriph_Driver/src/stm32f4xx_fmc.c ****   assert_param(IS_FMC_RCD_DELAY(FMC_SDRAMInitStruct->FMC_SDRAMTimingStruct->FMC_RCDDelay));    
 1452              		.loc 1 945 3 view .LVU561
 946:libraries/STM32F4xx_StdPeriph_Driver/src/stm32f4xx_fmc.c ****   
 947:libraries/STM32F4xx_StdPeriph_Driver/src/stm32f4xx_fmc.c ****   /* Get SDRAM register value */
 948:libraries/STM32F4xx_StdPeriph_Driver/src/stm32f4xx_fmc.c ****   tmpr1 = FMC_Bank5_6->SDCR[FMC_SDRAMInitStruct->FMC_Bank];
 1453              		.loc 1 948 3 view .LVU562
 1454              		.loc 1 948 48 is_stmt 0 view .LVU563
 1455 0002 0268     		ldr	r2, [r0]
 1456              		.loc 1 948 9 view .LVU564
 1457 0004 9300     		lsls	r3, r2, #2
 1458 0006 03F12043 		add	r3, r3, #-1610612736
 1459 000a 03F58073 		add	r3, r3, #256
 1460 000e 1B6C     		ldr	r3, [r3, #64]
 1461              	.LVL78:
 949:libraries/STM32F4xx_StdPeriph_Driver/src/stm32f4xx_fmc.c **** 
 950:libraries/STM32F4xx_StdPeriph_Driver/src/stm32f4xx_fmc.c ****   /* Clear NC, NR, MWID, NB, CAS, WP, SDCLK, RBURST, and RPIPE bits */
 951:libraries/STM32F4xx_StdPeriph_Driver/src/stm32f4xx_fmc.c ****   tmpr1 &= ((uint32_t)~(FMC_SDCR1_NC | FMC_SDCR1_NR | FMC_SDCR1_MWID | \
 1462              		.loc 1 951 3 is_stmt 1 view .LVU565
 1463              		.loc 1 951 9 is_stmt 0 view .LVU566
 1464 0010 23F4FF4C 		bic	ip, r3, #32640
 1465 0014 2CF07F0C 		bic	ip, ip, #127
 1466              	.LVL79:
 952:libraries/STM32F4xx_StdPeriph_Driver/src/stm32f4xx_fmc.c ****                         FMC_SDCR1_NB | FMC_SDCR1_CAS | FMC_SDCR1_WP | \
 953:libraries/STM32F4xx_StdPeriph_Driver/src/stm32f4xx_fmc.c ****                         FMC_SDCR1_SDCLK | FMC_SDCR1_RBURST | FMC_SDCR1_RPIPE));
 954:libraries/STM32F4xx_StdPeriph_Driver/src/stm32f4xx_fmc.c **** 
 955:libraries/STM32F4xx_StdPeriph_Driver/src/stm32f4xx_fmc.c ****   /* SDRAM bank control register configuration */ 
 956:libraries/STM32F4xx_StdPeriph_Driver/src/stm32f4xx_fmc.c ****   tmpr1 |=   (uint32_t)FMC_SDRAMInitStruct->FMC_ColumnBitsNumber |
 1467              		.loc 1 956 3 is_stmt 1 view .LVU567
 1468              		.loc 1 956 43 is_stmt 0 view .LVU568
 1469 0018 4368     		ldr	r3, [r0, #4]
ARM GAS  C:\Users\ktkuru\AppData\Local\Temp\cc04RWjJ.s 			page 45


 957:libraries/STM32F4xx_StdPeriph_Driver/src/stm32f4xx_fmc.c ****                        FMC_SDRAMInitStruct->FMC_RowBitsNumber |
 1470              		.loc 1 957 43 view .LVU569
 1471 001a 8168     		ldr	r1, [r0, #8]
 956:libraries/STM32F4xx_StdPeriph_Driver/src/stm32f4xx_fmc.c ****                        FMC_SDRAMInitStruct->FMC_RowBitsNumber |
 1472              		.loc 1 956 66 view .LVU570
 1473 001c 0B43     		orrs	r3, r3, r1
 958:libraries/STM32F4xx_StdPeriph_Driver/src/stm32f4xx_fmc.c ****                        FMC_SDRAMInitStruct->FMC_SDMemoryDataWidth |
 1474              		.loc 1 958 43 view .LVU571
 1475 001e C168     		ldr	r1, [r0, #12]
 957:libraries/STM32F4xx_StdPeriph_Driver/src/stm32f4xx_fmc.c ****                        FMC_SDRAMInitStruct->FMC_RowBitsNumber |
 1476              		.loc 1 957 63 view .LVU572
 1477 0020 0B43     		orrs	r3, r3, r1
 959:libraries/STM32F4xx_StdPeriph_Driver/src/stm32f4xx_fmc.c ****                        FMC_SDRAMInitStruct->FMC_InternalBankNumber |           
 1478              		.loc 1 959 43 view .LVU573
 1479 0022 0169     		ldr	r1, [r0, #16]
 958:libraries/STM32F4xx_StdPeriph_Driver/src/stm32f4xx_fmc.c ****                        FMC_SDRAMInitStruct->FMC_SDMemoryDataWidth |
 1480              		.loc 1 958 67 view .LVU574
 1481 0024 0B43     		orrs	r3, r3, r1
 960:libraries/STM32F4xx_StdPeriph_Driver/src/stm32f4xx_fmc.c ****                        FMC_SDRAMInitStruct->FMC_CASLatency |
 1482              		.loc 1 960 43 view .LVU575
 1483 0026 4169     		ldr	r1, [r0, #20]
 959:libraries/STM32F4xx_StdPeriph_Driver/src/stm32f4xx_fmc.c ****                        FMC_SDRAMInitStruct->FMC_InternalBankNumber |           
 1484              		.loc 1 959 68 view .LVU576
 1485 0028 0B43     		orrs	r3, r3, r1
 961:libraries/STM32F4xx_StdPeriph_Driver/src/stm32f4xx_fmc.c ****                        FMC_SDRAMInitStruct->FMC_WriteProtection |
 1486              		.loc 1 961 43 view .LVU577
 1487 002a 8169     		ldr	r1, [r0, #24]
 960:libraries/STM32F4xx_StdPeriph_Driver/src/stm32f4xx_fmc.c ****                        FMC_SDRAMInitStruct->FMC_CASLatency |
 1488              		.loc 1 960 60 view .LVU578
 1489 002c 0B43     		orrs	r3, r3, r1
 962:libraries/STM32F4xx_StdPeriph_Driver/src/stm32f4xx_fmc.c ****                        FMC_SDRAMInitStruct->FMC_SDClockPeriod |
 1490              		.loc 1 962 43 view .LVU579
 1491 002e C469     		ldr	r4, [r0, #28]
 961:libraries/STM32F4xx_StdPeriph_Driver/src/stm32f4xx_fmc.c ****                        FMC_SDRAMInitStruct->FMC_WriteProtection |
 1492              		.loc 1 961 65 view .LVU580
 1493 0030 2343     		orrs	r3, r3, r4
 963:libraries/STM32F4xx_StdPeriph_Driver/src/stm32f4xx_fmc.c ****                        FMC_SDRAMInitStruct->FMC_ReadBurst | 
 1494              		.loc 1 963 43 view .LVU581
 1495 0032 056A     		ldr	r5, [r0, #32]
 962:libraries/STM32F4xx_StdPeriph_Driver/src/stm32f4xx_fmc.c ****                        FMC_SDRAMInitStruct->FMC_SDClockPeriod |
 1496              		.loc 1 962 63 view .LVU582
 1497 0034 2B43     		orrs	r3, r3, r5
 964:libraries/STM32F4xx_StdPeriph_Driver/src/stm32f4xx_fmc.c ****                        FMC_SDRAMInitStruct->FMC_ReadPipeDelay;
 1498              		.loc 1 964 43 view .LVU583
 1499 0036 416A     		ldr	r1, [r0, #36]
 963:libraries/STM32F4xx_StdPeriph_Driver/src/stm32f4xx_fmc.c ****                        FMC_SDRAMInitStruct->FMC_ReadBurst | 
 1500              		.loc 1 963 59 view .LVU584
 1501 0038 0B43     		orrs	r3, r3, r1
 956:libraries/STM32F4xx_StdPeriph_Driver/src/stm32f4xx_fmc.c ****                        FMC_SDRAMInitStruct->FMC_RowBitsNumber |
 1502              		.loc 1 956 9 view .LVU585
 1503 003a 43EA0C03 		orr	r3, r3, ip
 1504              	.LVL80:
 965:libraries/STM32F4xx_StdPeriph_Driver/src/stm32f4xx_fmc.c ****             
 966:libraries/STM32F4xx_StdPeriph_Driver/src/stm32f4xx_fmc.c ****   if(FMC_SDRAMInitStruct->FMC_Bank == FMC_Bank1_SDRAM )
 1505              		.loc 1 966 3 is_stmt 1 view .LVU586
 1506              		.loc 1 966 5 is_stmt 0 view .LVU587
 1507 003e 7ABB     		cbnz	r2, .L79
ARM GAS  C:\Users\ktkuru\AppData\Local\Temp\cc04RWjJ.s 			page 46


 967:libraries/STM32F4xx_StdPeriph_Driver/src/stm32f4xx_fmc.c ****   {
 968:libraries/STM32F4xx_StdPeriph_Driver/src/stm32f4xx_fmc.c ****     FMC_Bank5_6->SDCR[FMC_SDRAMInitStruct->FMC_Bank] = tmpr1;
 1508              		.loc 1 968 5 is_stmt 1 view .LVU588
 1509              		.loc 1 968 54 is_stmt 0 view .LVU589
 1510 0040 9200     		lsls	r2, r2, #2
 1511 0042 02F12042 		add	r2, r2, #-1610612736
 1512 0046 C2F84031 		str	r3, [r2, #320]
 1513              	.LVL81:
 1514              	.L80:
 969:libraries/STM32F4xx_StdPeriph_Driver/src/stm32f4xx_fmc.c ****   }
 970:libraries/STM32F4xx_StdPeriph_Driver/src/stm32f4xx_fmc.c ****   else   /* SDCR2 "don't care" bits configuration */
 971:libraries/STM32F4xx_StdPeriph_Driver/src/stm32f4xx_fmc.c ****   {
 972:libraries/STM32F4xx_StdPeriph_Driver/src/stm32f4xx_fmc.c ****     /* Get SDCR register value */
 973:libraries/STM32F4xx_StdPeriph_Driver/src/stm32f4xx_fmc.c ****     tmpr3 = FMC_Bank5_6->SDCR[FMC_Bank1_SDRAM];
 974:libraries/STM32F4xx_StdPeriph_Driver/src/stm32f4xx_fmc.c **** 
 975:libraries/STM32F4xx_StdPeriph_Driver/src/stm32f4xx_fmc.c ****     /* Clear NC, NR, MWID, NB, CAS, WP, SDCLK, RBURST, and RPIPE bits */
 976:libraries/STM32F4xx_StdPeriph_Driver/src/stm32f4xx_fmc.c ****     tmpr3 &= ((uint32_t)~(FMC_SDCR1_NC  | FMC_SDCR1_NR | FMC_SDCR1_MWID | \
 977:libraries/STM32F4xx_StdPeriph_Driver/src/stm32f4xx_fmc.c ****                           FMC_SDCR1_NB  | FMC_SDCR1_CAS | FMC_SDCR1_WP | \
 978:libraries/STM32F4xx_StdPeriph_Driver/src/stm32f4xx_fmc.c ****                           FMC_SDCR1_SDCLK | FMC_SDCR1_RBURST | FMC_SDCR1_RPIPE));
 979:libraries/STM32F4xx_StdPeriph_Driver/src/stm32f4xx_fmc.c **** 
 980:libraries/STM32F4xx_StdPeriph_Driver/src/stm32f4xx_fmc.c ****     tmpr3 |= (uint32_t)FMC_SDRAMInitStruct->FMC_SDClockPeriod |
 981:libraries/STM32F4xx_StdPeriph_Driver/src/stm32f4xx_fmc.c ****                        FMC_SDRAMInitStruct->FMC_ReadBurst | 
 982:libraries/STM32F4xx_StdPeriph_Driver/src/stm32f4xx_fmc.c ****                        FMC_SDRAMInitStruct->FMC_ReadPipeDelay;
 983:libraries/STM32F4xx_StdPeriph_Driver/src/stm32f4xx_fmc.c ****     
 984:libraries/STM32F4xx_StdPeriph_Driver/src/stm32f4xx_fmc.c ****     FMC_Bank5_6->SDCR[FMC_Bank1_SDRAM] = tmpr3;
 985:libraries/STM32F4xx_StdPeriph_Driver/src/stm32f4xx_fmc.c ****     FMC_Bank5_6->SDCR[FMC_SDRAMInitStruct->FMC_Bank] = tmpr1;
 986:libraries/STM32F4xx_StdPeriph_Driver/src/stm32f4xx_fmc.c ****   }
 987:libraries/STM32F4xx_StdPeriph_Driver/src/stm32f4xx_fmc.c ****   /* SDRAM bank timing register configuration */
 988:libraries/STM32F4xx_StdPeriph_Driver/src/stm32f4xx_fmc.c ****   if(FMC_SDRAMInitStruct->FMC_Bank == FMC_Bank1_SDRAM )
 1515              		.loc 1 988 3 is_stmt 1 view .LVU590
 1516              		.loc 1 988 25 is_stmt 0 view .LVU591
 1517 004a 0368     		ldr	r3, [r0]
 1518              	.LVL82:
 1519              		.loc 1 988 5 view .LVU592
 1520 004c 002B     		cmp	r3, #0
 1521 004e 37D1     		bne	.L81
 989:libraries/STM32F4xx_StdPeriph_Driver/src/stm32f4xx_fmc.c ****   {
 990:libraries/STM32F4xx_StdPeriph_Driver/src/stm32f4xx_fmc.c ****     /* Get SDTR register value */
 991:libraries/STM32F4xx_StdPeriph_Driver/src/stm32f4xx_fmc.c ****     tmpr2 = FMC_Bank5_6->SDTR[FMC_SDRAMInitStruct->FMC_Bank];
 1522              		.loc 1 991 5 is_stmt 1 view .LVU593
 1523              		.loc 1 991 11 is_stmt 0 view .LVU594
 1524 0050 9A1C     		adds	r2, r3, #2
 1525 0052 9200     		lsls	r2, r2, #2
 1526 0054 02F12042 		add	r2, r2, #-1610612736
 1527 0058 D2F84041 		ldr	r4, [r2, #320]
 1528              	.LVL83:
 992:libraries/STM32F4xx_StdPeriph_Driver/src/stm32f4xx_fmc.c **** 
 993:libraries/STM32F4xx_StdPeriph_Driver/src/stm32f4xx_fmc.c ****     /* Clear TMRD, TXSR, TRAS, TRC, TWR, TRP and TRCD bits */
 994:libraries/STM32F4xx_StdPeriph_Driver/src/stm32f4xx_fmc.c ****     tmpr2 &= ((uint32_t)~(FMC_SDTR1_TMRD  | FMC_SDTR1_TXSR | FMC_SDTR1_TRAS | \
 1529              		.loc 1 994 5 is_stmt 1 view .LVU595
 1530              		.loc 1 994 11 is_stmt 0 view .LVU596
 1531 005c 04F07044 		and	r4, r4, #-268435456
 1532              	.LVL84:
 995:libraries/STM32F4xx_StdPeriph_Driver/src/stm32f4xx_fmc.c ****                           FMC_SDTR1_TRC  | FMC_SDTR1_TWR | FMC_SDTR1_TRP | \
 996:libraries/STM32F4xx_StdPeriph_Driver/src/stm32f4xx_fmc.c ****                           FMC_SDTR1_TRCD));
 997:libraries/STM32F4xx_StdPeriph_Driver/src/stm32f4xx_fmc.c **** 
 998:libraries/STM32F4xx_StdPeriph_Driver/src/stm32f4xx_fmc.c ****     tmpr2 |=   (uint32_t)((FMC_SDRAMInitStruct->FMC_SDRAMTimingStruct->FMC_LoadToActiveDelay)-1) |
ARM GAS  C:\Users\ktkuru\AppData\Local\Temp\cc04RWjJ.s 			page 47


 1533              		.loc 1 998 5 is_stmt 1 view .LVU597
 1534              		.loc 1 998 47 is_stmt 0 view .LVU598
 1535 0060 816A     		ldr	r1, [r0, #40]
 1536              		.loc 1 998 70 view .LVU599
 1537 0062 0B68     		ldr	r3, [r1]
 1538              		.loc 1 998 16 view .LVU600
 1539 0064 013B     		subs	r3, r3, #1
 999:libraries/STM32F4xx_StdPeriph_Driver/src/stm32f4xx_fmc.c ****                           (((FMC_SDRAMInitStruct->FMC_SDRAMTimingStruct->FMC_ExitSelfRefreshDelay)-
 1540              		.loc 1 999 72 view .LVU601
 1541 0066 4868     		ldr	r0, [r1, #4]
 1542              	.LVL85:
 1543              		.loc 1 999 99 view .LVU602
 1544 0068 0138     		subs	r0, r0, #1
 998:libraries/STM32F4xx_StdPeriph_Driver/src/stm32f4xx_fmc.c ****                           (((FMC_SDRAMInitStruct->FMC_SDRAMTimingStruct->FMC_ExitSelfRefreshDelay)-
 1545              		.loc 1 998 98 view .LVU603
 1546 006a 43EA0013 		orr	r3, r3, r0, lsl #4
1000:libraries/STM32F4xx_StdPeriph_Driver/src/stm32f4xx_fmc.c ****                           (((FMC_SDRAMInitStruct->FMC_SDRAMTimingStruct->FMC_SelfRefreshTime)-1) <<
 1547              		.loc 1 1000 72 view .LVU604
 1548 006e 8868     		ldr	r0, [r1, #8]
 1549              		.loc 1 1000 94 view .LVU605
 1550 0070 0138     		subs	r0, r0, #1
 999:libraries/STM32F4xx_StdPeriph_Driver/src/stm32f4xx_fmc.c ****                           (((FMC_SDRAMInitStruct->FMC_SDRAMTimingStruct->FMC_ExitSelfRefreshDelay)-
 1551              		.loc 1 999 109 view .LVU606
 1552 0072 43EA0023 		orr	r3, r3, r0, lsl #8
1001:libraries/STM32F4xx_StdPeriph_Driver/src/stm32f4xx_fmc.c ****                           (((FMC_SDRAMInitStruct->FMC_SDRAMTimingStruct->FMC_RowCycleDelay)-1) << 1
 1553              		.loc 1 1001 72 view .LVU607
 1554 0076 C868     		ldr	r0, [r1, #12]
 1555              		.loc 1 1001 92 view .LVU608
 1556 0078 0138     		subs	r0, r0, #1
1000:libraries/STM32F4xx_StdPeriph_Driver/src/stm32f4xx_fmc.c ****                           (((FMC_SDRAMInitStruct->FMC_SDRAMTimingStruct->FMC_SelfRefreshTime)-1) <<
 1557              		.loc 1 1000 104 view .LVU609
 1558 007a 43EA0033 		orr	r3, r3, r0, lsl #12
1002:libraries/STM32F4xx_StdPeriph_Driver/src/stm32f4xx_fmc.c ****                           (((FMC_SDRAMInitStruct->FMC_SDRAMTimingStruct->FMC_WriteRecoveryTime)-1) 
 1559              		.loc 1 1002 72 view .LVU610
 1560 007e 0869     		ldr	r0, [r1, #16]
 1561              		.loc 1 1002 96 view .LVU611
 1562 0080 0138     		subs	r0, r0, #1
1001:libraries/STM32F4xx_StdPeriph_Driver/src/stm32f4xx_fmc.c ****                           (((FMC_SDRAMInitStruct->FMC_SDRAMTimingStruct->FMC_RowCycleDelay)-1) << 1
 1563              		.loc 1 1001 103 view .LVU612
 1564 0082 43EA0043 		orr	r3, r3, r0, lsl #16
1003:libraries/STM32F4xx_StdPeriph_Driver/src/stm32f4xx_fmc.c ****                           (((FMC_SDRAMInitStruct->FMC_SDRAMTimingStruct->FMC_RPDelay)-1) << 20) |
 1565              		.loc 1 1003 72 view .LVU613
 1566 0086 4869     		ldr	r0, [r1, #20]
 1567              		.loc 1 1003 86 view .LVU614
 1568 0088 0138     		subs	r0, r0, #1
1002:libraries/STM32F4xx_StdPeriph_Driver/src/stm32f4xx_fmc.c ****                           (((FMC_SDRAMInitStruct->FMC_SDRAMTimingStruct->FMC_WriteRecoveryTime)-1) 
 1569              		.loc 1 1002 107 view .LVU615
 1570 008a 43EA0053 		orr	r3, r3, r0, lsl #20
1004:libraries/STM32F4xx_StdPeriph_Driver/src/stm32f4xx_fmc.c ****                           (((FMC_SDRAMInitStruct->FMC_SDRAMTimingStruct->FMC_RCDDelay)-1) << 24);
 1571              		.loc 1 1004 72 view .LVU616
 1572 008e 8969     		ldr	r1, [r1, #24]
 1573              		.loc 1 1004 87 view .LVU617
 1574 0090 0139     		subs	r1, r1, #1
1003:libraries/STM32F4xx_StdPeriph_Driver/src/stm32f4xx_fmc.c ****                           (((FMC_SDRAMInitStruct->FMC_SDRAMTimingStruct->FMC_RPDelay)-1) << 20) |
 1575              		.loc 1 1003 97 view .LVU618
 1576 0092 43EA0163 		orr	r3, r3, r1, lsl #24
 998:libraries/STM32F4xx_StdPeriph_Driver/src/stm32f4xx_fmc.c ****                           (((FMC_SDRAMInitStruct->FMC_SDRAMTimingStruct->FMC_ExitSelfRefreshDelay)-
ARM GAS  C:\Users\ktkuru\AppData\Local\Temp\cc04RWjJ.s 			page 48


 1577              		.loc 1 998 11 view .LVU619
 1578 0096 2343     		orrs	r3, r3, r4
 1579              	.LVL86:
1005:libraries/STM32F4xx_StdPeriph_Driver/src/stm32f4xx_fmc.c ****             
1006:libraries/STM32F4xx_StdPeriph_Driver/src/stm32f4xx_fmc.c ****             FMC_Bank5_6->SDTR[FMC_SDRAMInitStruct->FMC_Bank] = tmpr2;
 1580              		.loc 1 1006 13 is_stmt 1 view .LVU620
 1581              		.loc 1 1006 62 is_stmt 0 view .LVU621
 1582 0098 C2F84031 		str	r3, [r2, #320]
 1583              	.LVL87:
 1584              	.L78:
1007:libraries/STM32F4xx_StdPeriph_Driver/src/stm32f4xx_fmc.c ****   }
1008:libraries/STM32F4xx_StdPeriph_Driver/src/stm32f4xx_fmc.c ****   else   /* SDTR "don't care bits configuration */
1009:libraries/STM32F4xx_StdPeriph_Driver/src/stm32f4xx_fmc.c ****   {
1010:libraries/STM32F4xx_StdPeriph_Driver/src/stm32f4xx_fmc.c ****     /* Get SDTR register value */
1011:libraries/STM32F4xx_StdPeriph_Driver/src/stm32f4xx_fmc.c ****     tmpr2 = FMC_Bank5_6->SDTR[FMC_SDRAMInitStruct->FMC_Bank];
1012:libraries/STM32F4xx_StdPeriph_Driver/src/stm32f4xx_fmc.c **** 
1013:libraries/STM32F4xx_StdPeriph_Driver/src/stm32f4xx_fmc.c ****     /* Clear TMRD, TXSR, TRAS, TRC, TWR, TRP and TRCD bits */
1014:libraries/STM32F4xx_StdPeriph_Driver/src/stm32f4xx_fmc.c ****     tmpr2 &= ((uint32_t)~(FMC_SDTR1_TMRD  | FMC_SDTR1_TXSR | FMC_SDTR1_TRAS | \
1015:libraries/STM32F4xx_StdPeriph_Driver/src/stm32f4xx_fmc.c ****                           FMC_SDTR1_TRC  | FMC_SDTR1_TWR | FMC_SDTR1_TRP | \
1016:libraries/STM32F4xx_StdPeriph_Driver/src/stm32f4xx_fmc.c ****                           FMC_SDTR1_TRCD));
1017:libraries/STM32F4xx_StdPeriph_Driver/src/stm32f4xx_fmc.c **** 
1018:libraries/STM32F4xx_StdPeriph_Driver/src/stm32f4xx_fmc.c ****     tmpr2 |=   (uint32_t)((FMC_SDRAMInitStruct->FMC_SDRAMTimingStruct->FMC_LoadToActiveDelay)-1) |
1019:libraries/STM32F4xx_StdPeriph_Driver/src/stm32f4xx_fmc.c ****                           (((FMC_SDRAMInitStruct->FMC_SDRAMTimingStruct->FMC_ExitSelfRefreshDelay)-
1020:libraries/STM32F4xx_StdPeriph_Driver/src/stm32f4xx_fmc.c ****                           (((FMC_SDRAMInitStruct->FMC_SDRAMTimingStruct->FMC_SelfRefreshTime)-1) <<
1021:libraries/STM32F4xx_StdPeriph_Driver/src/stm32f4xx_fmc.c ****                           (((FMC_SDRAMInitStruct->FMC_SDRAMTimingStruct->FMC_WriteRecoveryTime)-1) 
1022:libraries/STM32F4xx_StdPeriph_Driver/src/stm32f4xx_fmc.c ****     
1023:libraries/STM32F4xx_StdPeriph_Driver/src/stm32f4xx_fmc.c ****     /* Get SDTR register value */
1024:libraries/STM32F4xx_StdPeriph_Driver/src/stm32f4xx_fmc.c ****     tmpr4 = FMC_Bank5_6->SDTR[FMC_Bank1_SDRAM];
1025:libraries/STM32F4xx_StdPeriph_Driver/src/stm32f4xx_fmc.c **** 
1026:libraries/STM32F4xx_StdPeriph_Driver/src/stm32f4xx_fmc.c ****     /* Clear TMRD, TXSR, TRAS, TRC, TWR, TRP and TRCD bits */
1027:libraries/STM32F4xx_StdPeriph_Driver/src/stm32f4xx_fmc.c ****     tmpr4 &= ((uint32_t)~(FMC_SDTR1_TMRD  | FMC_SDTR1_TXSR | FMC_SDTR1_TRAS | \
1028:libraries/STM32F4xx_StdPeriph_Driver/src/stm32f4xx_fmc.c ****                           FMC_SDTR1_TRC  | FMC_SDTR1_TWR | FMC_SDTR1_TRP | \
1029:libraries/STM32F4xx_StdPeriph_Driver/src/stm32f4xx_fmc.c ****                           FMC_SDTR1_TRCD));
1030:libraries/STM32F4xx_StdPeriph_Driver/src/stm32f4xx_fmc.c **** 
1031:libraries/STM32F4xx_StdPeriph_Driver/src/stm32f4xx_fmc.c ****     tmpr4 |=   (uint32_t)(((FMC_SDRAMInitStruct->FMC_SDRAMTimingStruct->FMC_RowCycleDelay)-1) << 12
1032:libraries/STM32F4xx_StdPeriph_Driver/src/stm32f4xx_fmc.c ****                           (((FMC_SDRAMInitStruct->FMC_SDRAMTimingStruct->FMC_RPDelay)-1) << 20);
1033:libraries/STM32F4xx_StdPeriph_Driver/src/stm32f4xx_fmc.c ****             
1034:libraries/STM32F4xx_StdPeriph_Driver/src/stm32f4xx_fmc.c ****             FMC_Bank5_6->SDTR[FMC_Bank1_SDRAM] = tmpr4;
1035:libraries/STM32F4xx_StdPeriph_Driver/src/stm32f4xx_fmc.c ****             FMC_Bank5_6->SDTR[FMC_SDRAMInitStruct->FMC_Bank] = tmpr2;
1036:libraries/STM32F4xx_StdPeriph_Driver/src/stm32f4xx_fmc.c ****   }
1037:libraries/STM32F4xx_StdPeriph_Driver/src/stm32f4xx_fmc.c ****   
1038:libraries/STM32F4xx_StdPeriph_Driver/src/stm32f4xx_fmc.c **** }
 1585              		.loc 1 1038 1 view .LVU622
 1586 009c 70BC     		pop	{r4, r5, r6}
 1587              	.LCFI9:
 1588              		.cfi_remember_state
 1589              		.cfi_restore 6
 1590              		.cfi_restore 5
 1591              		.cfi_restore 4
 1592              		.cfi_def_cfa_offset 0
 1593 009e 7047     		bx	lr
 1594              	.LVL88:
 1595              	.L79:
 1596              	.LCFI10:
 1597              		.cfi_restore_state
 973:libraries/STM32F4xx_StdPeriph_Driver/src/stm32f4xx_fmc.c **** 
 1598              		.loc 1 973 5 is_stmt 1 view .LVU623
ARM GAS  C:\Users\ktkuru\AppData\Local\Temp\cc04RWjJ.s 			page 49


 973:libraries/STM32F4xx_StdPeriph_Driver/src/stm32f4xx_fmc.c **** 
 1599              		.loc 1 973 11 is_stmt 0 view .LVU624
 1600 00a0 1C4A     		ldr	r2, .L84
 1601 00a2 166C     		ldr	r6, [r2, #64]
 1602              	.LVL89:
 976:libraries/STM32F4xx_StdPeriph_Driver/src/stm32f4xx_fmc.c ****                           FMC_SDCR1_NB  | FMC_SDCR1_CAS | FMC_SDCR1_WP | \
 1603              		.loc 1 976 5 is_stmt 1 view .LVU625
 976:libraries/STM32F4xx_StdPeriph_Driver/src/stm32f4xx_fmc.c ****                           FMC_SDCR1_NB  | FMC_SDCR1_CAS | FMC_SDCR1_WP | \
 1604              		.loc 1 976 11 is_stmt 0 view .LVU626
 1605 00a4 26F4FF4C 		bic	ip, r6, #32640
 1606 00a8 2CF07F0C 		bic	ip, ip, #127
 1607              	.LVL90:
 980:libraries/STM32F4xx_StdPeriph_Driver/src/stm32f4xx_fmc.c ****                        FMC_SDRAMInitStruct->FMC_ReadBurst | 
 1608              		.loc 1 980 5 is_stmt 1 view .LVU627
 980:libraries/STM32F4xx_StdPeriph_Driver/src/stm32f4xx_fmc.c ****                        FMC_SDRAMInitStruct->FMC_ReadBurst | 
 1609              		.loc 1 980 63 is_stmt 0 view .LVU628
 1610 00ac 2C43     		orrs	r4, r4, r5
 981:libraries/STM32F4xx_StdPeriph_Driver/src/stm32f4xx_fmc.c ****                        FMC_SDRAMInitStruct->FMC_ReadPipeDelay;
 1611              		.loc 1 981 59 view .LVU629
 1612 00ae 2143     		orrs	r1, r1, r4
 980:libraries/STM32F4xx_StdPeriph_Driver/src/stm32f4xx_fmc.c ****                        FMC_SDRAMInitStruct->FMC_ReadBurst | 
 1613              		.loc 1 980 11 view .LVU630
 1614 00b0 41EA0C01 		orr	r1, r1, ip
 1615              	.LVL91:
 984:libraries/STM32F4xx_StdPeriph_Driver/src/stm32f4xx_fmc.c ****     FMC_Bank5_6->SDCR[FMC_SDRAMInitStruct->FMC_Bank] = tmpr1;
 1616              		.loc 1 984 5 is_stmt 1 view .LVU631
 984:libraries/STM32F4xx_StdPeriph_Driver/src/stm32f4xx_fmc.c ****     FMC_Bank5_6->SDCR[FMC_SDRAMInitStruct->FMC_Bank] = tmpr1;
 1617              		.loc 1 984 40 is_stmt 0 view .LVU632
 1618 00b4 1164     		str	r1, [r2, #64]
 985:libraries/STM32F4xx_StdPeriph_Driver/src/stm32f4xx_fmc.c ****   }
 1619              		.loc 1 985 5 is_stmt 1 view .LVU633
 985:libraries/STM32F4xx_StdPeriph_Driver/src/stm32f4xx_fmc.c ****   }
 1620              		.loc 1 985 42 is_stmt 0 view .LVU634
 1621 00b6 0168     		ldr	r1, [r0]
 1622              	.LVL92:
 985:libraries/STM32F4xx_StdPeriph_Driver/src/stm32f4xx_fmc.c ****   }
 1623              		.loc 1 985 54 view .LVU635
 1624 00b8 02EB8102 		add	r2, r2, r1, lsl #2
 1625              	.LVL93:
 985:libraries/STM32F4xx_StdPeriph_Driver/src/stm32f4xx_fmc.c ****   }
 1626              		.loc 1 985 54 view .LVU636
 1627 00bc 1364     		str	r3, [r2, #64]
 1628              	.LVL94:
 985:libraries/STM32F4xx_StdPeriph_Driver/src/stm32f4xx_fmc.c ****   }
 1629              		.loc 1 985 54 view .LVU637
 1630 00be C4E7     		b	.L80
 1631              	.LVL95:
 1632              	.L81:
1011:libraries/STM32F4xx_StdPeriph_Driver/src/stm32f4xx_fmc.c **** 
 1633              		.loc 1 1011 5 is_stmt 1 view .LVU638
1011:libraries/STM32F4xx_StdPeriph_Driver/src/stm32f4xx_fmc.c **** 
 1634              		.loc 1 1011 11 is_stmt 0 view .LVU639
 1635 00c0 1449     		ldr	r1, .L84
 1636 00c2 0233     		adds	r3, r3, #2
 1637 00c4 01EB8303 		add	r3, r1, r3, lsl #2
 1638 00c8 1D6C     		ldr	r5, [r3, #64]
 1639              	.LVL96:
ARM GAS  C:\Users\ktkuru\AppData\Local\Temp\cc04RWjJ.s 			page 50


1014:libraries/STM32F4xx_StdPeriph_Driver/src/stm32f4xx_fmc.c ****                           FMC_SDTR1_TRC  | FMC_SDTR1_TWR | FMC_SDTR1_TRP | \
 1640              		.loc 1 1014 5 is_stmt 1 view .LVU640
1014:libraries/STM32F4xx_StdPeriph_Driver/src/stm32f4xx_fmc.c ****                           FMC_SDTR1_TRC  | FMC_SDTR1_TWR | FMC_SDTR1_TRP | \
 1641              		.loc 1 1014 11 is_stmt 0 view .LVU641
 1642 00ca 05F07045 		and	r5, r5, #-268435456
 1643              	.LVL97:
1018:libraries/STM32F4xx_StdPeriph_Driver/src/stm32f4xx_fmc.c ****                           (((FMC_SDRAMInitStruct->FMC_SDRAMTimingStruct->FMC_ExitSelfRefreshDelay)-
 1644              		.loc 1 1018 5 is_stmt 1 view .LVU642
1018:libraries/STM32F4xx_StdPeriph_Driver/src/stm32f4xx_fmc.c ****                           (((FMC_SDRAMInitStruct->FMC_SDRAMTimingStruct->FMC_ExitSelfRefreshDelay)-
 1645              		.loc 1 1018 47 is_stmt 0 view .LVU643
 1646 00ce 846A     		ldr	r4, [r0, #40]
1018:libraries/STM32F4xx_StdPeriph_Driver/src/stm32f4xx_fmc.c ****                           (((FMC_SDRAMInitStruct->FMC_SDRAMTimingStruct->FMC_ExitSelfRefreshDelay)-
 1647              		.loc 1 1018 70 view .LVU644
 1648 00d0 2368     		ldr	r3, [r4]
1018:libraries/STM32F4xx_StdPeriph_Driver/src/stm32f4xx_fmc.c ****                           (((FMC_SDRAMInitStruct->FMC_SDRAMTimingStruct->FMC_ExitSelfRefreshDelay)-
 1649              		.loc 1 1018 16 view .LVU645
 1650 00d2 5A1E     		subs	r2, r3, #1
1019:libraries/STM32F4xx_StdPeriph_Driver/src/stm32f4xx_fmc.c ****                           (((FMC_SDRAMInitStruct->FMC_SDRAMTimingStruct->FMC_SelfRefreshTime)-1) <<
 1651              		.loc 1 1019 72 view .LVU646
 1652 00d4 6368     		ldr	r3, [r4, #4]
1019:libraries/STM32F4xx_StdPeriph_Driver/src/stm32f4xx_fmc.c ****                           (((FMC_SDRAMInitStruct->FMC_SDRAMTimingStruct->FMC_SelfRefreshTime)-1) <<
 1653              		.loc 1 1019 99 view .LVU647
 1654 00d6 013B     		subs	r3, r3, #1
1018:libraries/STM32F4xx_StdPeriph_Driver/src/stm32f4xx_fmc.c ****                           (((FMC_SDRAMInitStruct->FMC_SDRAMTimingStruct->FMC_ExitSelfRefreshDelay)-
 1655              		.loc 1 1018 98 view .LVU648
 1656 00d8 42EA0312 		orr	r2, r2, r3, lsl #4
1020:libraries/STM32F4xx_StdPeriph_Driver/src/stm32f4xx_fmc.c ****                           (((FMC_SDRAMInitStruct->FMC_SDRAMTimingStruct->FMC_WriteRecoveryTime)-1) 
 1657              		.loc 1 1020 72 view .LVU649
 1658 00dc A368     		ldr	r3, [r4, #8]
1020:libraries/STM32F4xx_StdPeriph_Driver/src/stm32f4xx_fmc.c ****                           (((FMC_SDRAMInitStruct->FMC_SDRAMTimingStruct->FMC_WriteRecoveryTime)-1) 
 1659              		.loc 1 1020 94 view .LVU650
 1660 00de 013B     		subs	r3, r3, #1
1019:libraries/STM32F4xx_StdPeriph_Driver/src/stm32f4xx_fmc.c ****                           (((FMC_SDRAMInitStruct->FMC_SDRAMTimingStruct->FMC_SelfRefreshTime)-1) <<
 1661              		.loc 1 1019 109 view .LVU651
 1662 00e0 42EA0322 		orr	r2, r2, r3, lsl #8
1021:libraries/STM32F4xx_StdPeriph_Driver/src/stm32f4xx_fmc.c ****     
 1663              		.loc 1 1021 72 view .LVU652
 1664 00e4 2369     		ldr	r3, [r4, #16]
1021:libraries/STM32F4xx_StdPeriph_Driver/src/stm32f4xx_fmc.c ****     
 1665              		.loc 1 1021 96 view .LVU653
 1666 00e6 013B     		subs	r3, r3, #1
1020:libraries/STM32F4xx_StdPeriph_Driver/src/stm32f4xx_fmc.c ****                           (((FMC_SDRAMInitStruct->FMC_SDRAMTimingStruct->FMC_WriteRecoveryTime)-1) 
 1667              		.loc 1 1020 104 view .LVU654
 1668 00e8 42EA0342 		orr	r2, r2, r3, lsl #16
1018:libraries/STM32F4xx_StdPeriph_Driver/src/stm32f4xx_fmc.c ****                           (((FMC_SDRAMInitStruct->FMC_SDRAMTimingStruct->FMC_ExitSelfRefreshDelay)-
 1669              		.loc 1 1018 11 view .LVU655
 1670 00ec 2A43     		orrs	r2, r2, r5
 1671              	.LVL98:
1024:libraries/STM32F4xx_StdPeriph_Driver/src/stm32f4xx_fmc.c **** 
 1672              		.loc 1 1024 5 is_stmt 1 view .LVU656
1024:libraries/STM32F4xx_StdPeriph_Driver/src/stm32f4xx_fmc.c **** 
 1673              		.loc 1 1024 11 is_stmt 0 view .LVU657
 1674 00ee 8D6C     		ldr	r5, [r1, #72]
 1675              	.LVL99:
1027:libraries/STM32F4xx_StdPeriph_Driver/src/stm32f4xx_fmc.c ****                           FMC_SDTR1_TRC  | FMC_SDTR1_TWR | FMC_SDTR1_TRP | \
 1676              		.loc 1 1027 5 is_stmt 1 view .LVU658
1027:libraries/STM32F4xx_StdPeriph_Driver/src/stm32f4xx_fmc.c ****                           FMC_SDTR1_TRC  | FMC_SDTR1_TWR | FMC_SDTR1_TRP | \
ARM GAS  C:\Users\ktkuru\AppData\Local\Temp\cc04RWjJ.s 			page 51


 1677              		.loc 1 1027 11 is_stmt 0 view .LVU659
 1678 00f0 05F07045 		and	r5, r5, #-268435456
 1679              	.LVL100:
1031:libraries/STM32F4xx_StdPeriph_Driver/src/stm32f4xx_fmc.c ****                           (((FMC_SDRAMInitStruct->FMC_SDRAMTimingStruct->FMC_RPDelay)-1) << 20);
 1680              		.loc 1 1031 5 is_stmt 1 view .LVU660
1031:libraries/STM32F4xx_StdPeriph_Driver/src/stm32f4xx_fmc.c ****                           (((FMC_SDRAMInitStruct->FMC_SDRAMTimingStruct->FMC_RPDelay)-1) << 20);
 1681              		.loc 1 1031 71 is_stmt 0 view .LVU661
 1682 00f4 E368     		ldr	r3, [r4, #12]
1031:libraries/STM32F4xx_StdPeriph_Driver/src/stm32f4xx_fmc.c ****                           (((FMC_SDRAMInitStruct->FMC_SDRAMTimingStruct->FMC_RPDelay)-1) << 20);
 1683              		.loc 1 1031 91 view .LVU662
 1684 00f6 03F1FF3C 		add	ip, r3, #-1
1032:libraries/STM32F4xx_StdPeriph_Driver/src/stm32f4xx_fmc.c ****             
 1685              		.loc 1 1032 72 view .LVU663
 1686 00fa 6369     		ldr	r3, [r4, #20]
1032:libraries/STM32F4xx_StdPeriph_Driver/src/stm32f4xx_fmc.c ****             
 1687              		.loc 1 1032 86 view .LVU664
 1688 00fc 013B     		subs	r3, r3, #1
1032:libraries/STM32F4xx_StdPeriph_Driver/src/stm32f4xx_fmc.c ****             
 1689              		.loc 1 1032 90 view .LVU665
 1690 00fe 1B05     		lsls	r3, r3, #20
1031:libraries/STM32F4xx_StdPeriph_Driver/src/stm32f4xx_fmc.c ****                           (((FMC_SDRAMInitStruct->FMC_SDRAMTimingStruct->FMC_RPDelay)-1) << 20);
 1691              		.loc 1 1031 102 view .LVU666
 1692 0100 43EA0C33 		orr	r3, r3, ip, lsl #12
1031:libraries/STM32F4xx_StdPeriph_Driver/src/stm32f4xx_fmc.c ****                           (((FMC_SDRAMInitStruct->FMC_SDRAMTimingStruct->FMC_RPDelay)-1) << 20);
 1693              		.loc 1 1031 11 view .LVU667
 1694 0104 2B43     		orrs	r3, r3, r5
 1695              	.LVL101:
1034:libraries/STM32F4xx_StdPeriph_Driver/src/stm32f4xx_fmc.c ****             FMC_Bank5_6->SDTR[FMC_SDRAMInitStruct->FMC_Bank] = tmpr2;
 1696              		.loc 1 1034 13 is_stmt 1 view .LVU668
1034:libraries/STM32F4xx_StdPeriph_Driver/src/stm32f4xx_fmc.c ****             FMC_Bank5_6->SDTR[FMC_SDRAMInitStruct->FMC_Bank] = tmpr2;
 1697              		.loc 1 1034 48 is_stmt 0 view .LVU669
 1698 0106 8B64     		str	r3, [r1, #72]
1035:libraries/STM32F4xx_StdPeriph_Driver/src/stm32f4xx_fmc.c ****   }
 1699              		.loc 1 1035 13 is_stmt 1 view .LVU670
1035:libraries/STM32F4xx_StdPeriph_Driver/src/stm32f4xx_fmc.c ****   }
 1700              		.loc 1 1035 50 is_stmt 0 view .LVU671
 1701 0108 0368     		ldr	r3, [r0]
 1702              	.LVL102:
1035:libraries/STM32F4xx_StdPeriph_Driver/src/stm32f4xx_fmc.c ****   }
 1703              		.loc 1 1035 62 view .LVU672
 1704 010a 0233     		adds	r3, r3, #2
 1705 010c 01EB8301 		add	r1, r1, r3, lsl #2
 1706              	.LVL103:
1035:libraries/STM32F4xx_StdPeriph_Driver/src/stm32f4xx_fmc.c ****   }
 1707              		.loc 1 1035 62 view .LVU673
 1708 0110 0A64     		str	r2, [r1, #64]
 1709              	.LVL104:
 1710              		.loc 1 1038 1 view .LVU674
 1711 0112 C3E7     		b	.L78
 1712              	.L85:
 1713              		.align	2
 1714              	.L84:
 1715 0114 000100A0 		.word	-1610612480
 1716              		.cfi_endproc
 1717              	.LFE138:
 1719              		.section	.text.FMC_SDRAMStructInit,"ax",%progbits
 1720              		.align	1
ARM GAS  C:\Users\ktkuru\AppData\Local\Temp\cc04RWjJ.s 			page 52


 1721              		.global	FMC_SDRAMStructInit
 1722              		.syntax unified
 1723              		.thumb
 1724              		.thumb_func
 1726              	FMC_SDRAMStructInit:
 1727              	.LVL105:
 1728              	.LFB139:
1039:libraries/STM32F4xx_StdPeriph_Driver/src/stm32f4xx_fmc.c **** 
1040:libraries/STM32F4xx_StdPeriph_Driver/src/stm32f4xx_fmc.c **** /**
1041:libraries/STM32F4xx_StdPeriph_Driver/src/stm32f4xx_fmc.c ****   * @brief  Fills each FMC_SDRAMInitStruct member with its default value.
1042:libraries/STM32F4xx_StdPeriph_Driver/src/stm32f4xx_fmc.c ****   * @param  FMC_SDRAMInitStruct: pointer to a FMC_SDRAMInitTypeDef structure 
1043:libraries/STM32F4xx_StdPeriph_Driver/src/stm32f4xx_fmc.c ****   *         which will be initialized.
1044:libraries/STM32F4xx_StdPeriph_Driver/src/stm32f4xx_fmc.c ****   * @retval None
1045:libraries/STM32F4xx_StdPeriph_Driver/src/stm32f4xx_fmc.c ****   */
1046:libraries/STM32F4xx_StdPeriph_Driver/src/stm32f4xx_fmc.c **** void FMC_SDRAMStructInit(FMC_SDRAMInitTypeDef* FMC_SDRAMInitStruct)  
1047:libraries/STM32F4xx_StdPeriph_Driver/src/stm32f4xx_fmc.c **** {  
 1729              		.loc 1 1047 1 is_stmt 1 view -0
 1730              		.cfi_startproc
 1731              		@ args = 0, pretend = 0, frame = 0
 1732              		@ frame_needed = 0, uses_anonymous_args = 0
 1733              		@ link register save eliminated.
1048:libraries/STM32F4xx_StdPeriph_Driver/src/stm32f4xx_fmc.c ****   /* Reset SDRAM Init structure parameters values */
1049:libraries/STM32F4xx_StdPeriph_Driver/src/stm32f4xx_fmc.c ****   FMC_SDRAMInitStruct->FMC_Bank = FMC_Bank1_SDRAM;
 1734              		.loc 1 1049 3 view .LVU676
 1735              		.loc 1 1049 33 is_stmt 0 view .LVU677
 1736 0000 0022     		movs	r2, #0
 1737 0002 0260     		str	r2, [r0]
1050:libraries/STM32F4xx_StdPeriph_Driver/src/stm32f4xx_fmc.c ****   FMC_SDRAMInitStruct->FMC_ColumnBitsNumber = FMC_ColumnBits_Number_8b;
 1738              		.loc 1 1050 3 is_stmt 1 view .LVU678
 1739              		.loc 1 1050 45 is_stmt 0 view .LVU679
 1740 0004 4260     		str	r2, [r0, #4]
1051:libraries/STM32F4xx_StdPeriph_Driver/src/stm32f4xx_fmc.c ****   FMC_SDRAMInitStruct->FMC_RowBitsNumber = FMC_RowBits_Number_11b; 
 1741              		.loc 1 1051 3 is_stmt 1 view .LVU680
 1742              		.loc 1 1051 42 is_stmt 0 view .LVU681
 1743 0006 8260     		str	r2, [r0, #8]
1052:libraries/STM32F4xx_StdPeriph_Driver/src/stm32f4xx_fmc.c ****   FMC_SDRAMInitStruct->FMC_SDMemoryDataWidth = FMC_SDMemory_Width_16b;
 1744              		.loc 1 1052 3 is_stmt 1 view .LVU682
 1745              		.loc 1 1052 46 is_stmt 0 view .LVU683
 1746 0008 1023     		movs	r3, #16
 1747 000a C360     		str	r3, [r0, #12]
1053:libraries/STM32F4xx_StdPeriph_Driver/src/stm32f4xx_fmc.c ****   FMC_SDRAMInitStruct->FMC_InternalBankNumber = FMC_InternalBank_Number_4; 
 1748              		.loc 1 1053 3 is_stmt 1 view .LVU684
 1749              		.loc 1 1053 47 is_stmt 0 view .LVU685
 1750 000c 4021     		movs	r1, #64
 1751 000e 0161     		str	r1, [r0, #16]
1054:libraries/STM32F4xx_StdPeriph_Driver/src/stm32f4xx_fmc.c ****   FMC_SDRAMInitStruct->FMC_CASLatency = FMC_CAS_Latency_1;  
 1752              		.loc 1 1054 3 is_stmt 1 view .LVU686
 1753              		.loc 1 1054 39 is_stmt 0 view .LVU687
 1754 0010 8021     		movs	r1, #128
 1755 0012 4161     		str	r1, [r0, #20]
1055:libraries/STM32F4xx_StdPeriph_Driver/src/stm32f4xx_fmc.c ****   FMC_SDRAMInitStruct->FMC_WriteProtection = FMC_Write_Protection_Enable;
 1756              		.loc 1 1055 3 is_stmt 1 view .LVU688
 1757              		.loc 1 1055 44 is_stmt 0 view .LVU689
 1758 0014 4FF40071 		mov	r1, #512
 1759 0018 8161     		str	r1, [r0, #24]
1056:libraries/STM32F4xx_StdPeriph_Driver/src/stm32f4xx_fmc.c ****   FMC_SDRAMInitStruct->FMC_SDClockPeriod = FMC_SDClock_Disable;
 1760              		.loc 1 1056 3 is_stmt 1 view .LVU690
ARM GAS  C:\Users\ktkuru\AppData\Local\Temp\cc04RWjJ.s 			page 53


 1761              		.loc 1 1056 42 is_stmt 0 view .LVU691
 1762 001a C261     		str	r2, [r0, #28]
1057:libraries/STM32F4xx_StdPeriph_Driver/src/stm32f4xx_fmc.c ****   FMC_SDRAMInitStruct->FMC_ReadBurst = FMC_Read_Burst_Disable;
 1763              		.loc 1 1057 3 is_stmt 1 view .LVU692
 1764              		.loc 1 1057 38 is_stmt 0 view .LVU693
 1765 001c 0262     		str	r2, [r0, #32]
1058:libraries/STM32F4xx_StdPeriph_Driver/src/stm32f4xx_fmc.c ****   FMC_SDRAMInitStruct->FMC_ReadPipeDelay = FMC_ReadPipe_Delay_0; 
 1766              		.loc 1 1058 3 is_stmt 1 view .LVU694
 1767              		.loc 1 1058 42 is_stmt 0 view .LVU695
 1768 001e 4262     		str	r2, [r0, #36]
1059:libraries/STM32F4xx_StdPeriph_Driver/src/stm32f4xx_fmc.c ****    
1060:libraries/STM32F4xx_StdPeriph_Driver/src/stm32f4xx_fmc.c ****   FMC_SDRAMInitStruct->FMC_SDRAMTimingStruct->FMC_LoadToActiveDelay = 16;
 1769              		.loc 1 1060 3 is_stmt 1 view .LVU696
 1770              		.loc 1 1060 22 is_stmt 0 view .LVU697
 1771 0020 826A     		ldr	r2, [r0, #40]
 1772              		.loc 1 1060 69 view .LVU698
 1773 0022 1360     		str	r3, [r2]
1061:libraries/STM32F4xx_StdPeriph_Driver/src/stm32f4xx_fmc.c ****   FMC_SDRAMInitStruct->FMC_SDRAMTimingStruct->FMC_ExitSelfRefreshDelay = 16;
 1774              		.loc 1 1061 3 is_stmt 1 view .LVU699
 1775              		.loc 1 1061 22 is_stmt 0 view .LVU700
 1776 0024 826A     		ldr	r2, [r0, #40]
 1777              		.loc 1 1061 72 view .LVU701
 1778 0026 5360     		str	r3, [r2, #4]
1062:libraries/STM32F4xx_StdPeriph_Driver/src/stm32f4xx_fmc.c ****   FMC_SDRAMInitStruct->FMC_SDRAMTimingStruct->FMC_SelfRefreshTime = 16;
 1779              		.loc 1 1062 3 is_stmt 1 view .LVU702
 1780              		.loc 1 1062 22 is_stmt 0 view .LVU703
 1781 0028 826A     		ldr	r2, [r0, #40]
 1782              		.loc 1 1062 67 view .LVU704
 1783 002a 9360     		str	r3, [r2, #8]
1063:libraries/STM32F4xx_StdPeriph_Driver/src/stm32f4xx_fmc.c ****   FMC_SDRAMInitStruct->FMC_SDRAMTimingStruct->FMC_RowCycleDelay = 16;
 1784              		.loc 1 1063 3 is_stmt 1 view .LVU705
 1785              		.loc 1 1063 22 is_stmt 0 view .LVU706
 1786 002c 826A     		ldr	r2, [r0, #40]
 1787              		.loc 1 1063 65 view .LVU707
 1788 002e D360     		str	r3, [r2, #12]
1064:libraries/STM32F4xx_StdPeriph_Driver/src/stm32f4xx_fmc.c ****   FMC_SDRAMInitStruct->FMC_SDRAMTimingStruct->FMC_WriteRecoveryTime = 16;
 1789              		.loc 1 1064 3 is_stmt 1 view .LVU708
 1790              		.loc 1 1064 22 is_stmt 0 view .LVU709
 1791 0030 826A     		ldr	r2, [r0, #40]
 1792              		.loc 1 1064 69 view .LVU710
 1793 0032 1361     		str	r3, [r2, #16]
1065:libraries/STM32F4xx_StdPeriph_Driver/src/stm32f4xx_fmc.c ****   FMC_SDRAMInitStruct->FMC_SDRAMTimingStruct->FMC_RPDelay = 16;
 1794              		.loc 1 1065 3 is_stmt 1 view .LVU711
 1795              		.loc 1 1065 22 is_stmt 0 view .LVU712
 1796 0034 826A     		ldr	r2, [r0, #40]
 1797              		.loc 1 1065 59 view .LVU713
 1798 0036 5361     		str	r3, [r2, #20]
1066:libraries/STM32F4xx_StdPeriph_Driver/src/stm32f4xx_fmc.c ****   FMC_SDRAMInitStruct->FMC_SDRAMTimingStruct->FMC_RCDDelay = 16;
 1799              		.loc 1 1066 3 is_stmt 1 view .LVU714
 1800              		.loc 1 1066 22 is_stmt 0 view .LVU715
 1801 0038 826A     		ldr	r2, [r0, #40]
 1802              		.loc 1 1066 60 view .LVU716
 1803 003a 9361     		str	r3, [r2, #24]
1067:libraries/STM32F4xx_StdPeriph_Driver/src/stm32f4xx_fmc.c ****   
1068:libraries/STM32F4xx_StdPeriph_Driver/src/stm32f4xx_fmc.c **** }
 1804              		.loc 1 1068 1 view .LVU717
 1805 003c 7047     		bx	lr
ARM GAS  C:\Users\ktkuru\AppData\Local\Temp\cc04RWjJ.s 			page 54


 1806              		.cfi_endproc
 1807              	.LFE139:
 1809              		.section	.text.FMC_SDRAMCmdConfig,"ax",%progbits
 1810              		.align	1
 1811              		.global	FMC_SDRAMCmdConfig
 1812              		.syntax unified
 1813              		.thumb
 1814              		.thumb_func
 1816              	FMC_SDRAMCmdConfig:
 1817              	.LVL106:
 1818              	.LFB140:
1069:libraries/STM32F4xx_StdPeriph_Driver/src/stm32f4xx_fmc.c **** 
1070:libraries/STM32F4xx_StdPeriph_Driver/src/stm32f4xx_fmc.c **** /**
1071:libraries/STM32F4xx_StdPeriph_Driver/src/stm32f4xx_fmc.c ****   * @brief  Configures the SDRAM memory command issued when the device is accessed.   
1072:libraries/STM32F4xx_StdPeriph_Driver/src/stm32f4xx_fmc.c ****   * @param  FMC_SDRAMCommandStruct: pointer to a FMC_SDRAMCommandTypeDef structure 
1073:libraries/STM32F4xx_StdPeriph_Driver/src/stm32f4xx_fmc.c ****   *         which will be configured.
1074:libraries/STM32F4xx_StdPeriph_Driver/src/stm32f4xx_fmc.c ****   * @retval None
1075:libraries/STM32F4xx_StdPeriph_Driver/src/stm32f4xx_fmc.c ****   */
1076:libraries/STM32F4xx_StdPeriph_Driver/src/stm32f4xx_fmc.c **** void FMC_SDRAMCmdConfig(FMC_SDRAMCommandTypeDef* FMC_SDRAMCommandStruct)
1077:libraries/STM32F4xx_StdPeriph_Driver/src/stm32f4xx_fmc.c **** {
 1819              		.loc 1 1077 1 is_stmt 1 view -0
 1820              		.cfi_startproc
 1821              		@ args = 0, pretend = 0, frame = 0
 1822              		@ frame_needed = 0, uses_anonymous_args = 0
 1823              		@ link register save eliminated.
1078:libraries/STM32F4xx_StdPeriph_Driver/src/stm32f4xx_fmc.c ****   uint32_t tmpr = 0x0;
 1824              		.loc 1 1078 3 view .LVU719
1079:libraries/STM32F4xx_StdPeriph_Driver/src/stm32f4xx_fmc.c ****     
1080:libraries/STM32F4xx_StdPeriph_Driver/src/stm32f4xx_fmc.c ****   /* check parameters */
1081:libraries/STM32F4xx_StdPeriph_Driver/src/stm32f4xx_fmc.c ****   assert_param(IS_FMC_COMMAND_MODE(FMC_SDRAMCommandStruct->FMC_CommandMode));
 1825              		.loc 1 1081 3 view .LVU720
1082:libraries/STM32F4xx_StdPeriph_Driver/src/stm32f4xx_fmc.c ****   assert_param(IS_FMC_COMMAND_TARGET(FMC_SDRAMCommandStruct->FMC_CommandTarget));
 1826              		.loc 1 1082 3 view .LVU721
1083:libraries/STM32F4xx_StdPeriph_Driver/src/stm32f4xx_fmc.c ****   assert_param(IS_FMC_AUTOREFRESH_NUMBER(FMC_SDRAMCommandStruct->FMC_AutoRefreshNumber));
 1827              		.loc 1 1083 3 view .LVU722
1084:libraries/STM32F4xx_StdPeriph_Driver/src/stm32f4xx_fmc.c ****   assert_param(IS_FMC_MODE_REGISTER(FMC_SDRAMCommandStruct->FMC_ModeRegisterDefinition));
 1828              		.loc 1 1084 3 view .LVU723
1085:libraries/STM32F4xx_StdPeriph_Driver/src/stm32f4xx_fmc.c ****   
1086:libraries/STM32F4xx_StdPeriph_Driver/src/stm32f4xx_fmc.c ****   tmpr =   (uint32_t)(FMC_SDRAMCommandStruct->FMC_CommandMode |
 1829              		.loc 1 1086 3 view .LVU724
 1830              		.loc 1 1086 45 is_stmt 0 view .LVU725
 1831 0000 0368     		ldr	r3, [r0]
1087:libraries/STM32F4xx_StdPeriph_Driver/src/stm32f4xx_fmc.c ****                       FMC_SDRAMCommandStruct->FMC_CommandTarget |
 1832              		.loc 1 1087 45 view .LVU726
 1833 0002 4268     		ldr	r2, [r0, #4]
1086:libraries/STM32F4xx_StdPeriph_Driver/src/stm32f4xx_fmc.c ****                       FMC_SDRAMCommandStruct->FMC_CommandTarget |
 1834              		.loc 1 1086 63 view .LVU727
 1835 0004 1343     		orrs	r3, r3, r2
1088:libraries/STM32F4xx_StdPeriph_Driver/src/stm32f4xx_fmc.c ****                      (((FMC_SDRAMCommandStruct->FMC_AutoRefreshNumber)-1)<<5) |
 1836              		.loc 1 1088 47 view .LVU728
 1837 0006 8268     		ldr	r2, [r0, #8]
 1838              		.loc 1 1088 71 view .LVU729
 1839 0008 013A     		subs	r2, r2, #1
1087:libraries/STM32F4xx_StdPeriph_Driver/src/stm32f4xx_fmc.c ****                       FMC_SDRAMCommandStruct->FMC_CommandTarget |
 1840              		.loc 1 1087 65 view .LVU730
 1841 000a 43EA4213 		orr	r3, r3, r2, lsl #5
1089:libraries/STM32F4xx_StdPeriph_Driver/src/stm32f4xx_fmc.c ****                      ((FMC_SDRAMCommandStruct->FMC_ModeRegisterDefinition)<<9));
ARM GAS  C:\Users\ktkuru\AppData\Local\Temp\cc04RWjJ.s 			page 55


 1842              		.loc 1 1089 46 view .LVU731
 1843 000e C268     		ldr	r2, [r0, #12]
1086:libraries/STM32F4xx_StdPeriph_Driver/src/stm32f4xx_fmc.c ****                       FMC_SDRAMCommandStruct->FMC_CommandTarget |
 1844              		.loc 1 1086 8 view .LVU732
 1845 0010 43EA4223 		orr	r3, r3, r2, lsl #9
 1846              	.LVL107:
1090:libraries/STM32F4xx_StdPeriph_Driver/src/stm32f4xx_fmc.c ****   
1091:libraries/STM32F4xx_StdPeriph_Driver/src/stm32f4xx_fmc.c ****   FMC_Bank5_6->SDCMR = tmpr;
 1847              		.loc 1 1091 3 is_stmt 1 view .LVU733
 1848              		.loc 1 1091 22 is_stmt 0 view .LVU734
 1849 0014 014A     		ldr	r2, .L88
 1850 0016 1365     		str	r3, [r2, #80]
1092:libraries/STM32F4xx_StdPeriph_Driver/src/stm32f4xx_fmc.c **** 
1093:libraries/STM32F4xx_StdPeriph_Driver/src/stm32f4xx_fmc.c **** }
 1851              		.loc 1 1093 1 view .LVU735
 1852 0018 7047     		bx	lr
 1853              	.L89:
 1854 001a 00BF     		.align	2
 1855              	.L88:
 1856 001c 000100A0 		.word	-1610612480
 1857              		.cfi_endproc
 1858              	.LFE140:
 1860              		.section	.text.FMC_GetModeStatus,"ax",%progbits
 1861              		.align	1
 1862              		.global	FMC_GetModeStatus
 1863              		.syntax unified
 1864              		.thumb
 1865              		.thumb_func
 1867              	FMC_GetModeStatus:
 1868              	.LVL108:
 1869              	.LFB141:
1094:libraries/STM32F4xx_StdPeriph_Driver/src/stm32f4xx_fmc.c **** 
1095:libraries/STM32F4xx_StdPeriph_Driver/src/stm32f4xx_fmc.c **** 
1096:libraries/STM32F4xx_StdPeriph_Driver/src/stm32f4xx_fmc.c **** /**
1097:libraries/STM32F4xx_StdPeriph_Driver/src/stm32f4xx_fmc.c ****   * @brief  Returns the indicated FMC SDRAM bank mode status.
1098:libraries/STM32F4xx_StdPeriph_Driver/src/stm32f4xx_fmc.c ****   * @param  SDRAM_Bank: Defines the FMC SDRAM bank. This parameter can be 
1099:libraries/STM32F4xx_StdPeriph_Driver/src/stm32f4xx_fmc.c ****   *                     FMC_Bank1_SDRAM or FMC_Bank2_SDRAM. 
1100:libraries/STM32F4xx_StdPeriph_Driver/src/stm32f4xx_fmc.c ****   * @retval The FMC SDRAM bank mode status         
1101:libraries/STM32F4xx_StdPeriph_Driver/src/stm32f4xx_fmc.c ****   */
1102:libraries/STM32F4xx_StdPeriph_Driver/src/stm32f4xx_fmc.c **** uint32_t FMC_GetModeStatus(uint32_t SDRAM_Bank)
1103:libraries/STM32F4xx_StdPeriph_Driver/src/stm32f4xx_fmc.c **** {
 1870              		.loc 1 1103 1 is_stmt 1 view -0
 1871              		.cfi_startproc
 1872              		@ args = 0, pretend = 0, frame = 0
 1873              		@ frame_needed = 0, uses_anonymous_args = 0
 1874              		@ link register save eliminated.
1104:libraries/STM32F4xx_StdPeriph_Driver/src/stm32f4xx_fmc.c ****   uint32_t tmpreg = 0;
 1875              		.loc 1 1104 3 view .LVU737
1105:libraries/STM32F4xx_StdPeriph_Driver/src/stm32f4xx_fmc.c ****   
1106:libraries/STM32F4xx_StdPeriph_Driver/src/stm32f4xx_fmc.c ****   /* Check the parameter */
1107:libraries/STM32F4xx_StdPeriph_Driver/src/stm32f4xx_fmc.c ****   assert_param(IS_FMC_SDRAM_BANK(SDRAM_Bank));
 1876              		.loc 1 1107 3 view .LVU738
1108:libraries/STM32F4xx_StdPeriph_Driver/src/stm32f4xx_fmc.c **** 
1109:libraries/STM32F4xx_StdPeriph_Driver/src/stm32f4xx_fmc.c ****   /* Get the busy flag status */
1110:libraries/STM32F4xx_StdPeriph_Driver/src/stm32f4xx_fmc.c ****   if(SDRAM_Bank == FMC_Bank1_SDRAM)
 1877              		.loc 1 1110 3 view .LVU739
 1878              		.loc 1 1110 5 is_stmt 0 view .LVU740
ARM GAS  C:\Users\ktkuru\AppData\Local\Temp\cc04RWjJ.s 			page 56


 1879 0000 20B9     		cbnz	r0, .L91
1111:libraries/STM32F4xx_StdPeriph_Driver/src/stm32f4xx_fmc.c ****   {
1112:libraries/STM32F4xx_StdPeriph_Driver/src/stm32f4xx_fmc.c ****     tmpreg = (uint32_t)(FMC_Bank5_6->SDSR & FMC_SDSR_MODES1); 
 1880              		.loc 1 1112 5 is_stmt 1 view .LVU741
 1881              		.loc 1 1112 36 is_stmt 0 view .LVU742
 1882 0002 054B     		ldr	r3, .L93
 1883 0004 986D     		ldr	r0, [r3, #88]
 1884              	.LVL109:
 1885              		.loc 1 1112 12 view .LVU743
 1886 0006 00F00600 		and	r0, r0, #6
 1887              	.LVL110:
 1888              		.loc 1 1112 12 view .LVU744
 1889 000a 7047     		bx	lr
 1890              	.LVL111:
 1891              	.L91:
1113:libraries/STM32F4xx_StdPeriph_Driver/src/stm32f4xx_fmc.c ****   }
1114:libraries/STM32F4xx_StdPeriph_Driver/src/stm32f4xx_fmc.c ****   else
1115:libraries/STM32F4xx_StdPeriph_Driver/src/stm32f4xx_fmc.c ****   {
1116:libraries/STM32F4xx_StdPeriph_Driver/src/stm32f4xx_fmc.c ****     tmpreg = ((uint32_t)(FMC_Bank5_6->SDSR & FMC_SDSR_MODES2) >> 2);
 1892              		.loc 1 1116 5 is_stmt 1 view .LVU745
 1893              		.loc 1 1116 37 is_stmt 0 view .LVU746
 1894 000c 024B     		ldr	r3, .L93
 1895 000e 986D     		ldr	r0, [r3, #88]
 1896              	.LVL112:
 1897              		.loc 1 1116 63 view .LVU747
 1898 0010 8008     		lsrs	r0, r0, #2
 1899              		.loc 1 1116 12 view .LVU748
 1900 0012 00F00600 		and	r0, r0, #6
 1901              	.LVL113:
1117:libraries/STM32F4xx_StdPeriph_Driver/src/stm32f4xx_fmc.c ****   }
1118:libraries/STM32F4xx_StdPeriph_Driver/src/stm32f4xx_fmc.c ****   
1119:libraries/STM32F4xx_StdPeriph_Driver/src/stm32f4xx_fmc.c ****   /* Return the mode status */
1120:libraries/STM32F4xx_StdPeriph_Driver/src/stm32f4xx_fmc.c ****   return tmpreg;
 1902              		.loc 1 1120 3 is_stmt 1 view .LVU749
1121:libraries/STM32F4xx_StdPeriph_Driver/src/stm32f4xx_fmc.c **** }
 1903              		.loc 1 1121 1 is_stmt 0 view .LVU750
 1904 0016 7047     		bx	lr
 1905              	.L94:
 1906              		.align	2
 1907              	.L93:
 1908 0018 000100A0 		.word	-1610612480
 1909              		.cfi_endproc
 1910              	.LFE141:
 1912              		.section	.text.FMC_SetRefreshCount,"ax",%progbits
 1913              		.align	1
 1914              		.global	FMC_SetRefreshCount
 1915              		.syntax unified
 1916              		.thumb
 1917              		.thumb_func
 1919              	FMC_SetRefreshCount:
 1920              	.LVL114:
 1921              	.LFB142:
1122:libraries/STM32F4xx_StdPeriph_Driver/src/stm32f4xx_fmc.c **** 
1123:libraries/STM32F4xx_StdPeriph_Driver/src/stm32f4xx_fmc.c **** /**
1124:libraries/STM32F4xx_StdPeriph_Driver/src/stm32f4xx_fmc.c ****   * @brief  defines the SDRAM Memory Refresh rate.
1125:libraries/STM32F4xx_StdPeriph_Driver/src/stm32f4xx_fmc.c ****   * @param  FMC_Count: specifies the Refresh timer count.       
1126:libraries/STM32F4xx_StdPeriph_Driver/src/stm32f4xx_fmc.c ****   * @retval None
ARM GAS  C:\Users\ktkuru\AppData\Local\Temp\cc04RWjJ.s 			page 57


1127:libraries/STM32F4xx_StdPeriph_Driver/src/stm32f4xx_fmc.c ****   */
1128:libraries/STM32F4xx_StdPeriph_Driver/src/stm32f4xx_fmc.c **** void FMC_SetRefreshCount(uint32_t FMC_Count)
1129:libraries/STM32F4xx_StdPeriph_Driver/src/stm32f4xx_fmc.c **** {
 1922              		.loc 1 1129 1 is_stmt 1 view -0
 1923              		.cfi_startproc
 1924              		@ args = 0, pretend = 0, frame = 0
 1925              		@ frame_needed = 0, uses_anonymous_args = 0
 1926              		@ link register save eliminated.
1130:libraries/STM32F4xx_StdPeriph_Driver/src/stm32f4xx_fmc.c ****   /* check the parameters */
1131:libraries/STM32F4xx_StdPeriph_Driver/src/stm32f4xx_fmc.c ****   assert_param(IS_FMC_REFRESH_COUNT(FMC_Count));
 1927              		.loc 1 1131 3 view .LVU752
1132:libraries/STM32F4xx_StdPeriph_Driver/src/stm32f4xx_fmc.c ****   
1133:libraries/STM32F4xx_StdPeriph_Driver/src/stm32f4xx_fmc.c ****   FMC_Bank5_6->SDRTR |= (FMC_Count<<1);
 1928              		.loc 1 1133 3 view .LVU753
 1929              		.loc 1 1133 14 is_stmt 0 view .LVU754
 1930 0000 024A     		ldr	r2, .L96
 1931 0002 536D     		ldr	r3, [r2, #84]
 1932              		.loc 1 1133 22 view .LVU755
 1933 0004 43EA4003 		orr	r3, r3, r0, lsl #1
 1934 0008 5365     		str	r3, [r2, #84]
1134:libraries/STM32F4xx_StdPeriph_Driver/src/stm32f4xx_fmc.c ****    
1135:libraries/STM32F4xx_StdPeriph_Driver/src/stm32f4xx_fmc.c **** }
 1935              		.loc 1 1135 1 view .LVU756
 1936 000a 7047     		bx	lr
 1937              	.L97:
 1938              		.align	2
 1939              	.L96:
 1940 000c 000100A0 		.word	-1610612480
 1941              		.cfi_endproc
 1942              	.LFE142:
 1944              		.section	.text.FMC_SetAutoRefresh_Number,"ax",%progbits
 1945              		.align	1
 1946              		.global	FMC_SetAutoRefresh_Number
 1947              		.syntax unified
 1948              		.thumb
 1949              		.thumb_func
 1951              	FMC_SetAutoRefresh_Number:
 1952              	.LVL115:
 1953              	.LFB143:
1136:libraries/STM32F4xx_StdPeriph_Driver/src/stm32f4xx_fmc.c **** 
1137:libraries/STM32F4xx_StdPeriph_Driver/src/stm32f4xx_fmc.c **** /**
1138:libraries/STM32F4xx_StdPeriph_Driver/src/stm32f4xx_fmc.c ****   * @brief  Sets the Number of consecutive SDRAM Memory auto Refresh commands.
1139:libraries/STM32F4xx_StdPeriph_Driver/src/stm32f4xx_fmc.c ****   * @param  FMC_Number: specifies the auto Refresh number.       
1140:libraries/STM32F4xx_StdPeriph_Driver/src/stm32f4xx_fmc.c ****   * @retval None
1141:libraries/STM32F4xx_StdPeriph_Driver/src/stm32f4xx_fmc.c ****   */
1142:libraries/STM32F4xx_StdPeriph_Driver/src/stm32f4xx_fmc.c **** void FMC_SetAutoRefresh_Number(uint32_t FMC_Number)
1143:libraries/STM32F4xx_StdPeriph_Driver/src/stm32f4xx_fmc.c **** {
 1954              		.loc 1 1143 1 is_stmt 1 view -0
 1955              		.cfi_startproc
 1956              		@ args = 0, pretend = 0, frame = 0
 1957              		@ frame_needed = 0, uses_anonymous_args = 0
 1958              		@ link register save eliminated.
1144:libraries/STM32F4xx_StdPeriph_Driver/src/stm32f4xx_fmc.c ****   /* check the parameters */
1145:libraries/STM32F4xx_StdPeriph_Driver/src/stm32f4xx_fmc.c ****   assert_param(IS_FMC_AUTOREFRESH_NUMBER(FMC_Number));
 1959              		.loc 1 1145 3 view .LVU758
1146:libraries/STM32F4xx_StdPeriph_Driver/src/stm32f4xx_fmc.c ****   
1147:libraries/STM32F4xx_StdPeriph_Driver/src/stm32f4xx_fmc.c ****   FMC_Bank5_6->SDCMR |= (FMC_Number << 5);   
ARM GAS  C:\Users\ktkuru\AppData\Local\Temp\cc04RWjJ.s 			page 58


 1960              		.loc 1 1147 3 view .LVU759
 1961              		.loc 1 1147 14 is_stmt 0 view .LVU760
 1962 0000 024A     		ldr	r2, .L99
 1963 0002 136D     		ldr	r3, [r2, #80]
 1964              		.loc 1 1147 22 view .LVU761
 1965 0004 43EA4013 		orr	r3, r3, r0, lsl #5
 1966 0008 1365     		str	r3, [r2, #80]
1148:libraries/STM32F4xx_StdPeriph_Driver/src/stm32f4xx_fmc.c **** }
 1967              		.loc 1 1148 1 view .LVU762
 1968 000a 7047     		bx	lr
 1969              	.L100:
 1970              		.align	2
 1971              	.L99:
 1972 000c 000100A0 		.word	-1610612480
 1973              		.cfi_endproc
 1974              	.LFE143:
 1976              		.section	.text.FMC_SDRAMWriteProtectionConfig,"ax",%progbits
 1977              		.align	1
 1978              		.global	FMC_SDRAMWriteProtectionConfig
 1979              		.syntax unified
 1980              		.thumb
 1981              		.thumb_func
 1983              	FMC_SDRAMWriteProtectionConfig:
 1984              	.LVL116:
 1985              	.LFB144:
1149:libraries/STM32F4xx_StdPeriph_Driver/src/stm32f4xx_fmc.c **** 
1150:libraries/STM32F4xx_StdPeriph_Driver/src/stm32f4xx_fmc.c **** /**
1151:libraries/STM32F4xx_StdPeriph_Driver/src/stm32f4xx_fmc.c ****   * @brief  Enables or disables write protection to the specified FMC SDRAM Bank.
1152:libraries/STM32F4xx_StdPeriph_Driver/src/stm32f4xx_fmc.c ****   * @param  SDRAM_Bank: Defines the FMC SDRAM bank. This parameter can be 
1153:libraries/STM32F4xx_StdPeriph_Driver/src/stm32f4xx_fmc.c ****   *                     FMC_Bank1_SDRAM or FMC_Bank2_SDRAM.   
1154:libraries/STM32F4xx_StdPeriph_Driver/src/stm32f4xx_fmc.c ****   * @param  NewState: new state of the write protection flag.
1155:libraries/STM32F4xx_StdPeriph_Driver/src/stm32f4xx_fmc.c ****   *          This parameter can be: ENABLE or DISABLE.
1156:libraries/STM32F4xx_StdPeriph_Driver/src/stm32f4xx_fmc.c ****   * @retval None
1157:libraries/STM32F4xx_StdPeriph_Driver/src/stm32f4xx_fmc.c ****   */
1158:libraries/STM32F4xx_StdPeriph_Driver/src/stm32f4xx_fmc.c **** void FMC_SDRAMWriteProtectionConfig(uint32_t SDRAM_Bank, FunctionalState NewState)
1159:libraries/STM32F4xx_StdPeriph_Driver/src/stm32f4xx_fmc.c **** {
 1986              		.loc 1 1159 1 is_stmt 1 view -0
 1987              		.cfi_startproc
 1988              		@ args = 0, pretend = 0, frame = 0
 1989              		@ frame_needed = 0, uses_anonymous_args = 0
 1990              		@ link register save eliminated.
1160:libraries/STM32F4xx_StdPeriph_Driver/src/stm32f4xx_fmc.c ****   /* Check the parameter */
1161:libraries/STM32F4xx_StdPeriph_Driver/src/stm32f4xx_fmc.c ****   assert_param(IS_FUNCTIONAL_STATE(NewState));
 1991              		.loc 1 1161 3 view .LVU764
1162:libraries/STM32F4xx_StdPeriph_Driver/src/stm32f4xx_fmc.c ****   assert_param(IS_FMC_SDRAM_BANK(SDRAM_Bank));
 1992              		.loc 1 1162 3 view .LVU765
1163:libraries/STM32F4xx_StdPeriph_Driver/src/stm32f4xx_fmc.c ****   
1164:libraries/STM32F4xx_StdPeriph_Driver/src/stm32f4xx_fmc.c ****   if (NewState != DISABLE)
 1993              		.loc 1 1164 3 view .LVU766
 1994              		.loc 1 1164 6 is_stmt 0 view .LVU767
 1995 0000 49B1     		cbz	r1, .L102
1165:libraries/STM32F4xx_StdPeriph_Driver/src/stm32f4xx_fmc.c ****   {
1166:libraries/STM32F4xx_StdPeriph_Driver/src/stm32f4xx_fmc.c ****     FMC_Bank5_6->SDCR[SDRAM_Bank] |= FMC_Write_Protection_Enable;    
 1996              		.loc 1 1166 5 is_stmt 1 view .LVU768
 1997              		.loc 1 1166 22 is_stmt 0 view .LVU769
 1998 0002 8000     		lsls	r0, r0, #2
 1999              	.LVL117:
ARM GAS  C:\Users\ktkuru\AppData\Local\Temp\cc04RWjJ.s 			page 59


 2000              		.loc 1 1166 22 view .LVU770
 2001 0004 00F12040 		add	r0, r0, #-1610612736
 2002 0008 D0F84031 		ldr	r3, [r0, #320]
 2003              		.loc 1 1166 35 view .LVU771
 2004 000c 43F40073 		orr	r3, r3, #512
 2005 0010 C0F84031 		str	r3, [r0, #320]
 2006 0014 7047     		bx	lr
 2007              	.LVL118:
 2008              	.L102:
1167:libraries/STM32F4xx_StdPeriph_Driver/src/stm32f4xx_fmc.c ****   }
1168:libraries/STM32F4xx_StdPeriph_Driver/src/stm32f4xx_fmc.c ****   else
1169:libraries/STM32F4xx_StdPeriph_Driver/src/stm32f4xx_fmc.c ****   {
1170:libraries/STM32F4xx_StdPeriph_Driver/src/stm32f4xx_fmc.c ****     FMC_Bank5_6->SDCR[SDRAM_Bank] &= SDCR_WriteProtection_RESET;
 2009              		.loc 1 1170 5 is_stmt 1 view .LVU772
 2010              		.loc 1 1170 22 is_stmt 0 view .LVU773
 2011 0016 8000     		lsls	r0, r0, #2
 2012              	.LVL119:
 2013              		.loc 1 1170 22 view .LVU774
 2014 0018 00F12040 		add	r0, r0, #-1610612736
 2015 001c D0F84031 		ldr	r3, [r0, #320]
 2016              		.loc 1 1170 35 view .LVU775
 2017 0020 23F40073 		bic	r3, r3, #512
 2018 0024 5B04     		lsls	r3, r3, #17
 2019 0026 5B0C     		lsrs	r3, r3, #17
 2020 0028 C0F84031 		str	r3, [r0, #320]
1171:libraries/STM32F4xx_StdPeriph_Driver/src/stm32f4xx_fmc.c ****   } 
1172:libraries/STM32F4xx_StdPeriph_Driver/src/stm32f4xx_fmc.c ****   
1173:libraries/STM32F4xx_StdPeriph_Driver/src/stm32f4xx_fmc.c **** }
 2021              		.loc 1 1173 1 view .LVU776
 2022 002c 7047     		bx	lr
 2023              		.cfi_endproc
 2024              	.LFE144:
 2026              		.section	.text.FMC_ITConfig,"ax",%progbits
 2027              		.align	1
 2028              		.global	FMC_ITConfig
 2029              		.syntax unified
 2030              		.thumb
 2031              		.thumb_func
 2033              	FMC_ITConfig:
 2034              	.LVL120:
 2035              	.LFB145:
1174:libraries/STM32F4xx_StdPeriph_Driver/src/stm32f4xx_fmc.c **** 
1175:libraries/STM32F4xx_StdPeriph_Driver/src/stm32f4xx_fmc.c **** /**
1176:libraries/STM32F4xx_StdPeriph_Driver/src/stm32f4xx_fmc.c ****   * @}
1177:libraries/STM32F4xx_StdPeriph_Driver/src/stm32f4xx_fmc.c ****   */
1178:libraries/STM32F4xx_StdPeriph_Driver/src/stm32f4xx_fmc.c **** 
1179:libraries/STM32F4xx_StdPeriph_Driver/src/stm32f4xx_fmc.c **** /** @defgroup FMC_Group5  Interrupts and flags management functions
1180:libraries/STM32F4xx_StdPeriph_Driver/src/stm32f4xx_fmc.c ****   * @brief    Interrupts and flags management functions
1181:libraries/STM32F4xx_StdPeriph_Driver/src/stm32f4xx_fmc.c ****   *
1182:libraries/STM32F4xx_StdPeriph_Driver/src/stm32f4xx_fmc.c **** @verbatim   
1183:libraries/STM32F4xx_StdPeriph_Driver/src/stm32f4xx_fmc.c ****  ===============================================================================
1184:libraries/STM32F4xx_StdPeriph_Driver/src/stm32f4xx_fmc.c ****              ##### Interrupts and flags management functions #####
1185:libraries/STM32F4xx_StdPeriph_Driver/src/stm32f4xx_fmc.c ****  ===============================================================================  
1186:libraries/STM32F4xx_StdPeriph_Driver/src/stm32f4xx_fmc.c **** 
1187:libraries/STM32F4xx_StdPeriph_Driver/src/stm32f4xx_fmc.c **** @endverbatim
1188:libraries/STM32F4xx_StdPeriph_Driver/src/stm32f4xx_fmc.c ****   * @{
1189:libraries/STM32F4xx_StdPeriph_Driver/src/stm32f4xx_fmc.c ****   */
ARM GAS  C:\Users\ktkuru\AppData\Local\Temp\cc04RWjJ.s 			page 60


1190:libraries/STM32F4xx_StdPeriph_Driver/src/stm32f4xx_fmc.c **** 
1191:libraries/STM32F4xx_StdPeriph_Driver/src/stm32f4xx_fmc.c **** /**
1192:libraries/STM32F4xx_StdPeriph_Driver/src/stm32f4xx_fmc.c ****   * @brief  Enables or disables the specified FMC interrupts.
1193:libraries/STM32F4xx_StdPeriph_Driver/src/stm32f4xx_fmc.c ****   * @param  FMC_Bank: specifies the FMC Bank to be used
1194:libraries/STM32F4xx_StdPeriph_Driver/src/stm32f4xx_fmc.c ****   *          This parameter can be one of the following values:
1195:libraries/STM32F4xx_StdPeriph_Driver/src/stm32f4xx_fmc.c ****   *            @arg FMC_Bank2_NAND: FMC Bank2 NAND 
1196:libraries/STM32F4xx_StdPeriph_Driver/src/stm32f4xx_fmc.c ****   *            @arg FMC_Bank3_NAND: FMC Bank3 NAND
1197:libraries/STM32F4xx_StdPeriph_Driver/src/stm32f4xx_fmc.c ****   *            @arg FMC_Bank4_PCCARD: FMC Bank4 PCCARD
1198:libraries/STM32F4xx_StdPeriph_Driver/src/stm32f4xx_fmc.c ****   *            @arg FMC_Bank1_SDRAM: FMC Bank1 SDRAM 
1199:libraries/STM32F4xx_StdPeriph_Driver/src/stm32f4xx_fmc.c ****   *            @arg FMC_Bank2_SDRAM: FMC Bank2 SDRAM   
1200:libraries/STM32F4xx_StdPeriph_Driver/src/stm32f4xx_fmc.c ****   * @param  FMC_IT: specifies the FMC interrupt sources to be enabled or disabled.
1201:libraries/STM32F4xx_StdPeriph_Driver/src/stm32f4xx_fmc.c ****   *          This parameter can be any combination of the following values:
1202:libraries/STM32F4xx_StdPeriph_Driver/src/stm32f4xx_fmc.c ****   *            @arg FMC_IT_RisingEdge: Rising edge detection interrupt. 
1203:libraries/STM32F4xx_StdPeriph_Driver/src/stm32f4xx_fmc.c ****   *            @arg FMC_IT_Level: Level edge detection interrupt.
1204:libraries/STM32F4xx_StdPeriph_Driver/src/stm32f4xx_fmc.c ****   *            @arg FMC_IT_FallingEdge: Falling edge detection interrupt.
1205:libraries/STM32F4xx_StdPeriph_Driver/src/stm32f4xx_fmc.c ****   *            @arg FMC_IT_Refresh: Refresh error detection interrupt.  
1206:libraries/STM32F4xx_StdPeriph_Driver/src/stm32f4xx_fmc.c ****   * @param  NewState: new state of the specified FMC interrupts.
1207:libraries/STM32F4xx_StdPeriph_Driver/src/stm32f4xx_fmc.c ****   *          This parameter can be: ENABLE or DISABLE.
1208:libraries/STM32F4xx_StdPeriph_Driver/src/stm32f4xx_fmc.c ****   * @retval None
1209:libraries/STM32F4xx_StdPeriph_Driver/src/stm32f4xx_fmc.c ****   */
1210:libraries/STM32F4xx_StdPeriph_Driver/src/stm32f4xx_fmc.c **** void FMC_ITConfig(uint32_t FMC_Bank, uint32_t FMC_IT, FunctionalState NewState)
1211:libraries/STM32F4xx_StdPeriph_Driver/src/stm32f4xx_fmc.c **** {
 2036              		.loc 1 1211 1 is_stmt 1 view -0
 2037              		.cfi_startproc
 2038              		@ args = 0, pretend = 0, frame = 0
 2039              		@ frame_needed = 0, uses_anonymous_args = 0
 2040              		@ link register save eliminated.
1212:libraries/STM32F4xx_StdPeriph_Driver/src/stm32f4xx_fmc.c ****   assert_param(IS_FMC_IT_BANK(FMC_Bank));
 2041              		.loc 1 1212 3 view .LVU778
1213:libraries/STM32F4xx_StdPeriph_Driver/src/stm32f4xx_fmc.c ****   assert_param(IS_FMC_IT(FMC_IT));	
 2042              		.loc 1 1213 3 view .LVU779
1214:libraries/STM32F4xx_StdPeriph_Driver/src/stm32f4xx_fmc.c ****   assert_param(IS_FUNCTIONAL_STATE(NewState));
 2043              		.loc 1 1214 3 view .LVU780
1215:libraries/STM32F4xx_StdPeriph_Driver/src/stm32f4xx_fmc.c ****   
1216:libraries/STM32F4xx_StdPeriph_Driver/src/stm32f4xx_fmc.c ****   if (NewState != DISABLE)
 2044              		.loc 1 1216 3 view .LVU781
 2045              		.loc 1 1216 6 is_stmt 0 view .LVU782
 2046 0000 12B3     		cbz	r2, .L105
1217:libraries/STM32F4xx_StdPeriph_Driver/src/stm32f4xx_fmc.c ****   {
1218:libraries/STM32F4xx_StdPeriph_Driver/src/stm32f4xx_fmc.c ****     /* Enable the selected FMC_Bank2 interrupts */
1219:libraries/STM32F4xx_StdPeriph_Driver/src/stm32f4xx_fmc.c ****     if(FMC_Bank == FMC_Bank2_NAND)
 2047              		.loc 1 1219 5 is_stmt 1 view .LVU783
 2048              		.loc 1 1219 7 is_stmt 0 view .LVU784
 2049 0002 1028     		cmp	r0, #16
 2050 0004 0AD0     		beq	.L113
1220:libraries/STM32F4xx_StdPeriph_Driver/src/stm32f4xx_fmc.c ****     {
1221:libraries/STM32F4xx_StdPeriph_Driver/src/stm32f4xx_fmc.c ****       FMC_Bank2->SR2 |= FMC_IT;
1222:libraries/STM32F4xx_StdPeriph_Driver/src/stm32f4xx_fmc.c ****     }
1223:libraries/STM32F4xx_StdPeriph_Driver/src/stm32f4xx_fmc.c ****     /* Enable the selected FMC_Bank3 interrupts */
1224:libraries/STM32F4xx_StdPeriph_Driver/src/stm32f4xx_fmc.c ****     else if (FMC_Bank == FMC_Bank3_NAND)
 2051              		.loc 1 1224 10 is_stmt 1 view .LVU785
 2052              		.loc 1 1224 13 is_stmt 0 view .LVU786
 2053 0006 B0F5807F 		cmp	r0, #256
 2054 000a 0DD0     		beq	.L114
1225:libraries/STM32F4xx_StdPeriph_Driver/src/stm32f4xx_fmc.c ****     {
1226:libraries/STM32F4xx_StdPeriph_Driver/src/stm32f4xx_fmc.c ****       FMC_Bank3->SR3 |= FMC_IT;
1227:libraries/STM32F4xx_StdPeriph_Driver/src/stm32f4xx_fmc.c ****     }
ARM GAS  C:\Users\ktkuru\AppData\Local\Temp\cc04RWjJ.s 			page 61


1228:libraries/STM32F4xx_StdPeriph_Driver/src/stm32f4xx_fmc.c ****     /* Enable the selected FMC_Bank4 interrupts */
1229:libraries/STM32F4xx_StdPeriph_Driver/src/stm32f4xx_fmc.c ****     else if (FMC_Bank == FMC_Bank4_PCCARD)
 2055              		.loc 1 1229 10 is_stmt 1 view .LVU787
 2056              		.loc 1 1229 13 is_stmt 0 view .LVU788
 2057 000c B0F5805F 		cmp	r0, #4096
 2058 0010 12D0     		beq	.L115
1230:libraries/STM32F4xx_StdPeriph_Driver/src/stm32f4xx_fmc.c ****     {
1231:libraries/STM32F4xx_StdPeriph_Driver/src/stm32f4xx_fmc.c ****       FMC_Bank4->SR4 |= FMC_IT;    
1232:libraries/STM32F4xx_StdPeriph_Driver/src/stm32f4xx_fmc.c ****     }
1233:libraries/STM32F4xx_StdPeriph_Driver/src/stm32f4xx_fmc.c ****     /* Enable the selected FMC_Bank5_6 interrupt */
1234:libraries/STM32F4xx_StdPeriph_Driver/src/stm32f4xx_fmc.c ****     else
1235:libraries/STM32F4xx_StdPeriph_Driver/src/stm32f4xx_fmc.c ****     {
1236:libraries/STM32F4xx_StdPeriph_Driver/src/stm32f4xx_fmc.c ****       /* Enables the interrupt if the refresh error flag is set */
1237:libraries/STM32F4xx_StdPeriph_Driver/src/stm32f4xx_fmc.c ****       FMC_Bank5_6->SDRTR |= FMC_IT; 
 2059              		.loc 1 1237 7 is_stmt 1 view .LVU789
 2060              		.loc 1 1237 18 is_stmt 0 view .LVU790
 2061 0012 214A     		ldr	r2, .L119
 2062              	.LVL121:
 2063              		.loc 1 1237 18 view .LVU791
 2064 0014 536D     		ldr	r3, [r2, #84]
 2065              		.loc 1 1237 26 view .LVU792
 2066 0016 0B43     		orrs	r3, r3, r1
 2067 0018 5365     		str	r3, [r2, #84]
 2068 001a 7047     		bx	lr
 2069              	.LVL122:
 2070              	.L113:
1221:libraries/STM32F4xx_StdPeriph_Driver/src/stm32f4xx_fmc.c ****     }
 2071              		.loc 1 1221 7 is_stmt 1 view .LVU793
1221:libraries/STM32F4xx_StdPeriph_Driver/src/stm32f4xx_fmc.c ****     }
 2072              		.loc 1 1221 16 is_stmt 0 view .LVU794
 2073 001c 4FF02042 		mov	r2, #-1610612736
 2074              	.LVL123:
1221:libraries/STM32F4xx_StdPeriph_Driver/src/stm32f4xx_fmc.c ****     }
 2075              		.loc 1 1221 16 view .LVU795
 2076 0020 536E     		ldr	r3, [r2, #100]
1221:libraries/STM32F4xx_StdPeriph_Driver/src/stm32f4xx_fmc.c ****     }
 2077              		.loc 1 1221 22 view .LVU796
 2078 0022 0B43     		orrs	r3, r3, r1
 2079 0024 5366     		str	r3, [r2, #100]
 2080 0026 7047     		bx	lr
 2081              	.LVL124:
 2082              	.L114:
1226:libraries/STM32F4xx_StdPeriph_Driver/src/stm32f4xx_fmc.c ****     }
 2083              		.loc 1 1226 7 is_stmt 1 view .LVU797
1226:libraries/STM32F4xx_StdPeriph_Driver/src/stm32f4xx_fmc.c ****     }
 2084              		.loc 1 1226 16 is_stmt 0 view .LVU798
 2085 0028 4FF02042 		mov	r2, #-1610612736
 2086              	.LVL125:
1226:libraries/STM32F4xx_StdPeriph_Driver/src/stm32f4xx_fmc.c ****     }
 2087              		.loc 1 1226 16 view .LVU799
 2088 002c D2F88430 		ldr	r3, [r2, #132]
1226:libraries/STM32F4xx_StdPeriph_Driver/src/stm32f4xx_fmc.c ****     }
 2089              		.loc 1 1226 22 view .LVU800
 2090 0030 0B43     		orrs	r3, r3, r1
 2091 0032 C2F88430 		str	r3, [r2, #132]
 2092 0036 7047     		bx	lr
 2093              	.LVL126:
ARM GAS  C:\Users\ktkuru\AppData\Local\Temp\cc04RWjJ.s 			page 62


 2094              	.L115:
1231:libraries/STM32F4xx_StdPeriph_Driver/src/stm32f4xx_fmc.c ****     }
 2095              		.loc 1 1231 7 is_stmt 1 view .LVU801
1231:libraries/STM32F4xx_StdPeriph_Driver/src/stm32f4xx_fmc.c ****     }
 2096              		.loc 1 1231 16 is_stmt 0 view .LVU802
 2097 0038 4FF02042 		mov	r2, #-1610612736
 2098              	.LVL127:
1231:libraries/STM32F4xx_StdPeriph_Driver/src/stm32f4xx_fmc.c ****     }
 2099              		.loc 1 1231 16 view .LVU803
 2100 003c D2F8A430 		ldr	r3, [r2, #164]
1231:libraries/STM32F4xx_StdPeriph_Driver/src/stm32f4xx_fmc.c ****     }
 2101              		.loc 1 1231 22 view .LVU804
 2102 0040 0B43     		orrs	r3, r3, r1
 2103 0042 C2F8A430 		str	r3, [r2, #164]
 2104 0046 7047     		bx	lr
 2105              	.LVL128:
 2106              	.L105:
1238:libraries/STM32F4xx_StdPeriph_Driver/src/stm32f4xx_fmc.c ****     }
1239:libraries/STM32F4xx_StdPeriph_Driver/src/stm32f4xx_fmc.c ****   }
1240:libraries/STM32F4xx_StdPeriph_Driver/src/stm32f4xx_fmc.c ****   else
1241:libraries/STM32F4xx_StdPeriph_Driver/src/stm32f4xx_fmc.c ****   {
1242:libraries/STM32F4xx_StdPeriph_Driver/src/stm32f4xx_fmc.c ****     /* Disable the selected FMC_Bank2 interrupts */
1243:libraries/STM32F4xx_StdPeriph_Driver/src/stm32f4xx_fmc.c ****     if(FMC_Bank == FMC_Bank2_NAND)
 2107              		.loc 1 1243 5 is_stmt 1 view .LVU805
 2108              		.loc 1 1243 7 is_stmt 0 view .LVU806
 2109 0048 1028     		cmp	r0, #16
 2110 004a 0BD0     		beq	.L116
1244:libraries/STM32F4xx_StdPeriph_Driver/src/stm32f4xx_fmc.c ****     {
1245:libraries/STM32F4xx_StdPeriph_Driver/src/stm32f4xx_fmc.c ****       
1246:libraries/STM32F4xx_StdPeriph_Driver/src/stm32f4xx_fmc.c ****       FMC_Bank2->SR2 &= (uint32_t)~FMC_IT;
1247:libraries/STM32F4xx_StdPeriph_Driver/src/stm32f4xx_fmc.c ****     }
1248:libraries/STM32F4xx_StdPeriph_Driver/src/stm32f4xx_fmc.c ****     /* Disable the selected FMC_Bank3 interrupts */
1249:libraries/STM32F4xx_StdPeriph_Driver/src/stm32f4xx_fmc.c ****     else if (FMC_Bank == FMC_Bank3_NAND)
 2111              		.loc 1 1249 10 is_stmt 1 view .LVU807
 2112              		.loc 1 1249 13 is_stmt 0 view .LVU808
 2113 004c B0F5807F 		cmp	r0, #256
 2114 0050 0FD0     		beq	.L117
1250:libraries/STM32F4xx_StdPeriph_Driver/src/stm32f4xx_fmc.c ****     {
1251:libraries/STM32F4xx_StdPeriph_Driver/src/stm32f4xx_fmc.c ****       FMC_Bank3->SR3 &= (uint32_t)~FMC_IT;
1252:libraries/STM32F4xx_StdPeriph_Driver/src/stm32f4xx_fmc.c ****     }
1253:libraries/STM32F4xx_StdPeriph_Driver/src/stm32f4xx_fmc.c ****     /* Disable the selected FMC_Bank4 interrupts */
1254:libraries/STM32F4xx_StdPeriph_Driver/src/stm32f4xx_fmc.c ****     else if(FMC_Bank == FMC_Bank4_PCCARD)
 2115              		.loc 1 1254 10 is_stmt 1 view .LVU809
 2116              		.loc 1 1254 12 is_stmt 0 view .LVU810
 2117 0052 B0F5805F 		cmp	r0, #4096
 2118 0056 15D0     		beq	.L118
1255:libraries/STM32F4xx_StdPeriph_Driver/src/stm32f4xx_fmc.c ****     {
1256:libraries/STM32F4xx_StdPeriph_Driver/src/stm32f4xx_fmc.c ****       FMC_Bank4->SR4 &= (uint32_t)~FMC_IT;    
1257:libraries/STM32F4xx_StdPeriph_Driver/src/stm32f4xx_fmc.c ****     }
1258:libraries/STM32F4xx_StdPeriph_Driver/src/stm32f4xx_fmc.c ****     /* Disable the selected FMC_Bank5_6 interrupt */
1259:libraries/STM32F4xx_StdPeriph_Driver/src/stm32f4xx_fmc.c ****     else
1260:libraries/STM32F4xx_StdPeriph_Driver/src/stm32f4xx_fmc.c ****     {
1261:libraries/STM32F4xx_StdPeriph_Driver/src/stm32f4xx_fmc.c ****       /* Disables the interrupt if the refresh error flag is not set */
1262:libraries/STM32F4xx_StdPeriph_Driver/src/stm32f4xx_fmc.c ****       FMC_Bank5_6->SDRTR &= (uint32_t)~FMC_IT; 
 2119              		.loc 1 1262 7 is_stmt 1 view .LVU811
 2120              		.loc 1 1262 18 is_stmt 0 view .LVU812
 2121 0058 0F4A     		ldr	r2, .L119
ARM GAS  C:\Users\ktkuru\AppData\Local\Temp\cc04RWjJ.s 			page 63


 2122              	.LVL129:
 2123              		.loc 1 1262 18 view .LVU813
 2124 005a 536D     		ldr	r3, [r2, #84]
 2125              		.loc 1 1262 26 view .LVU814
 2126 005c 23EA0103 		bic	r3, r3, r1
 2127 0060 5365     		str	r3, [r2, #84]
1263:libraries/STM32F4xx_StdPeriph_Driver/src/stm32f4xx_fmc.c ****     }
1264:libraries/STM32F4xx_StdPeriph_Driver/src/stm32f4xx_fmc.c ****   }
1265:libraries/STM32F4xx_StdPeriph_Driver/src/stm32f4xx_fmc.c **** }
 2128              		.loc 1 1265 1 view .LVU815
 2129 0062 7047     		bx	lr
 2130              	.LVL130:
 2131              	.L116:
1246:libraries/STM32F4xx_StdPeriph_Driver/src/stm32f4xx_fmc.c ****     }
 2132              		.loc 1 1246 7 is_stmt 1 view .LVU816
1246:libraries/STM32F4xx_StdPeriph_Driver/src/stm32f4xx_fmc.c ****     }
 2133              		.loc 1 1246 16 is_stmt 0 view .LVU817
 2134 0064 4FF02042 		mov	r2, #-1610612736
 2135              	.LVL131:
1246:libraries/STM32F4xx_StdPeriph_Driver/src/stm32f4xx_fmc.c ****     }
 2136              		.loc 1 1246 16 view .LVU818
 2137 0068 536E     		ldr	r3, [r2, #100]
1246:libraries/STM32F4xx_StdPeriph_Driver/src/stm32f4xx_fmc.c ****     }
 2138              		.loc 1 1246 22 view .LVU819
 2139 006a 23EA0103 		bic	r3, r3, r1
 2140 006e 5366     		str	r3, [r2, #100]
 2141 0070 7047     		bx	lr
 2142              	.LVL132:
 2143              	.L117:
1251:libraries/STM32F4xx_StdPeriph_Driver/src/stm32f4xx_fmc.c ****     }
 2144              		.loc 1 1251 7 is_stmt 1 view .LVU820
1251:libraries/STM32F4xx_StdPeriph_Driver/src/stm32f4xx_fmc.c ****     }
 2145              		.loc 1 1251 16 is_stmt 0 view .LVU821
 2146 0072 4FF02042 		mov	r2, #-1610612736
 2147              	.LVL133:
1251:libraries/STM32F4xx_StdPeriph_Driver/src/stm32f4xx_fmc.c ****     }
 2148              		.loc 1 1251 16 view .LVU822
 2149 0076 D2F88430 		ldr	r3, [r2, #132]
1251:libraries/STM32F4xx_StdPeriph_Driver/src/stm32f4xx_fmc.c ****     }
 2150              		.loc 1 1251 22 view .LVU823
 2151 007a 23EA0103 		bic	r3, r3, r1
 2152 007e C2F88430 		str	r3, [r2, #132]
 2153 0082 7047     		bx	lr
 2154              	.LVL134:
 2155              	.L118:
1256:libraries/STM32F4xx_StdPeriph_Driver/src/stm32f4xx_fmc.c ****     }
 2156              		.loc 1 1256 7 is_stmt 1 view .LVU824
1256:libraries/STM32F4xx_StdPeriph_Driver/src/stm32f4xx_fmc.c ****     }
 2157              		.loc 1 1256 16 is_stmt 0 view .LVU825
 2158 0084 4FF02042 		mov	r2, #-1610612736
 2159              	.LVL135:
1256:libraries/STM32F4xx_StdPeriph_Driver/src/stm32f4xx_fmc.c ****     }
 2160              		.loc 1 1256 16 view .LVU826
 2161 0088 D2F8A430 		ldr	r3, [r2, #164]
1256:libraries/STM32F4xx_StdPeriph_Driver/src/stm32f4xx_fmc.c ****     }
 2162              		.loc 1 1256 22 view .LVU827
 2163 008c 23EA0103 		bic	r3, r3, r1
ARM GAS  C:\Users\ktkuru\AppData\Local\Temp\cc04RWjJ.s 			page 64


 2164 0090 C2F8A430 		str	r3, [r2, #164]
 2165 0094 7047     		bx	lr
 2166              	.L120:
 2167 0096 00BF     		.align	2
 2168              	.L119:
 2169 0098 000100A0 		.word	-1610612480
 2170              		.cfi_endproc
 2171              	.LFE145:
 2173              		.section	.text.FMC_GetFlagStatus,"ax",%progbits
 2174              		.align	1
 2175              		.global	FMC_GetFlagStatus
 2176              		.syntax unified
 2177              		.thumb
 2178              		.thumb_func
 2180              	FMC_GetFlagStatus:
 2181              	.LVL136:
 2182              	.LFB146:
1266:libraries/STM32F4xx_StdPeriph_Driver/src/stm32f4xx_fmc.c **** 
1267:libraries/STM32F4xx_StdPeriph_Driver/src/stm32f4xx_fmc.c **** /**
1268:libraries/STM32F4xx_StdPeriph_Driver/src/stm32f4xx_fmc.c ****   * @brief  Checks whether the specified FMC flag is set or not.
1269:libraries/STM32F4xx_StdPeriph_Driver/src/stm32f4xx_fmc.c ****   * @param  FMC_Bank: specifies the FMC Bank to be used
1270:libraries/STM32F4xx_StdPeriph_Driver/src/stm32f4xx_fmc.c ****   *          This parameter can be one of the following values:
1271:libraries/STM32F4xx_StdPeriph_Driver/src/stm32f4xx_fmc.c ****   *            @arg FMC_Bank2_NAND: FMC Bank2 NAND 
1272:libraries/STM32F4xx_StdPeriph_Driver/src/stm32f4xx_fmc.c ****   *            @arg FMC_Bank3_NAND: FMC Bank3 NAND
1273:libraries/STM32F4xx_StdPeriph_Driver/src/stm32f4xx_fmc.c ****   *            @arg FMC_Bank4_PCCARD: FMC Bank4 PCCARD
1274:libraries/STM32F4xx_StdPeriph_Driver/src/stm32f4xx_fmc.c ****   *            @arg FMC_Bank1_SDRAM: FMC Bank1 SDRAM 
1275:libraries/STM32F4xx_StdPeriph_Driver/src/stm32f4xx_fmc.c ****   *            @arg FMC_Bank2_SDRAM: FMC Bank2 SDRAM 
1276:libraries/STM32F4xx_StdPeriph_Driver/src/stm32f4xx_fmc.c ****   *            @arg FMC_Bank1_SDRAM | FMC_Bank2_SDRAM: FMC Bank1 or Bank2 SDRAM    
1277:libraries/STM32F4xx_StdPeriph_Driver/src/stm32f4xx_fmc.c ****   * @param  FMC_FLAG: specifies the flag to check.
1278:libraries/STM32F4xx_StdPeriph_Driver/src/stm32f4xx_fmc.c ****   *          This parameter can be one of the following values:
1279:libraries/STM32F4xx_StdPeriph_Driver/src/stm32f4xx_fmc.c ****   *            @arg FMC_FLAG_RisingEdge: Rising edge detection Flag.
1280:libraries/STM32F4xx_StdPeriph_Driver/src/stm32f4xx_fmc.c ****   *            @arg FMC_FLAG_Level: Level detection Flag.
1281:libraries/STM32F4xx_StdPeriph_Driver/src/stm32f4xx_fmc.c ****   *            @arg FMC_FLAG_FallingEdge: Falling edge detection Flag.
1282:libraries/STM32F4xx_StdPeriph_Driver/src/stm32f4xx_fmc.c ****   *            @arg FMC_FLAG_FEMPT: Fifo empty Flag.
1283:libraries/STM32F4xx_StdPeriph_Driver/src/stm32f4xx_fmc.c ****   *            @arg FMC_FLAG_Refresh: Refresh error Flag.
1284:libraries/STM32F4xx_StdPeriph_Driver/src/stm32f4xx_fmc.c ****   *            @arg FMC_FLAG_Busy: Busy status Flag.     
1285:libraries/STM32F4xx_StdPeriph_Driver/src/stm32f4xx_fmc.c ****   * @retval The new state of FMC_FLAG (SET or RESET).
1286:libraries/STM32F4xx_StdPeriph_Driver/src/stm32f4xx_fmc.c ****   */
1287:libraries/STM32F4xx_StdPeriph_Driver/src/stm32f4xx_fmc.c **** FlagStatus FMC_GetFlagStatus(uint32_t FMC_Bank, uint32_t FMC_FLAG)
1288:libraries/STM32F4xx_StdPeriph_Driver/src/stm32f4xx_fmc.c **** {
 2183              		.loc 1 1288 1 is_stmt 1 view -0
 2184              		.cfi_startproc
 2185              		@ args = 0, pretend = 0, frame = 0
 2186              		@ frame_needed = 0, uses_anonymous_args = 0
 2187              		@ link register save eliminated.
1289:libraries/STM32F4xx_StdPeriph_Driver/src/stm32f4xx_fmc.c ****   FlagStatus bitstatus = RESET;
 2188              		.loc 1 1289 3 view .LVU829
1290:libraries/STM32F4xx_StdPeriph_Driver/src/stm32f4xx_fmc.c ****   uint32_t tmpsr = 0x00000000;
 2189              		.loc 1 1290 3 view .LVU830
1291:libraries/STM32F4xx_StdPeriph_Driver/src/stm32f4xx_fmc.c ****   
1292:libraries/STM32F4xx_StdPeriph_Driver/src/stm32f4xx_fmc.c ****   /* Check the parameters */
1293:libraries/STM32F4xx_StdPeriph_Driver/src/stm32f4xx_fmc.c ****   assert_param(IS_FMC_GETFLAG_BANK(FMC_Bank));
 2190              		.loc 1 1293 3 view .LVU831
1294:libraries/STM32F4xx_StdPeriph_Driver/src/stm32f4xx_fmc.c ****   assert_param(IS_FMC_GET_FLAG(FMC_FLAG));
 2191              		.loc 1 1294 3 view .LVU832
1295:libraries/STM32F4xx_StdPeriph_Driver/src/stm32f4xx_fmc.c ****   
1296:libraries/STM32F4xx_StdPeriph_Driver/src/stm32f4xx_fmc.c ****   if(FMC_Bank == FMC_Bank2_NAND)
ARM GAS  C:\Users\ktkuru\AppData\Local\Temp\cc04RWjJ.s 			page 65


 2192              		.loc 1 1296 3 view .LVU833
 2193              		.loc 1 1296 5 is_stmt 0 view .LVU834
 2194 0000 1028     		cmp	r0, #16
 2195 0002 08D0     		beq	.L128
1297:libraries/STM32F4xx_StdPeriph_Driver/src/stm32f4xx_fmc.c ****   {
1298:libraries/STM32F4xx_StdPeriph_Driver/src/stm32f4xx_fmc.c ****     tmpsr = FMC_Bank2->SR2;
1299:libraries/STM32F4xx_StdPeriph_Driver/src/stm32f4xx_fmc.c ****   }  
1300:libraries/STM32F4xx_StdPeriph_Driver/src/stm32f4xx_fmc.c ****   else if(FMC_Bank == FMC_Bank3_NAND)
 2196              		.loc 1 1300 8 is_stmt 1 view .LVU835
 2197              		.loc 1 1300 10 is_stmt 0 view .LVU836
 2198 0004 B0F5807F 		cmp	r0, #256
 2199 0008 0CD0     		beq	.L129
1301:libraries/STM32F4xx_StdPeriph_Driver/src/stm32f4xx_fmc.c ****   {
1302:libraries/STM32F4xx_StdPeriph_Driver/src/stm32f4xx_fmc.c ****     tmpsr = FMC_Bank3->SR3;
1303:libraries/STM32F4xx_StdPeriph_Driver/src/stm32f4xx_fmc.c ****   }
1304:libraries/STM32F4xx_StdPeriph_Driver/src/stm32f4xx_fmc.c ****   else if(FMC_Bank == FMC_Bank4_PCCARD)
 2200              		.loc 1 1304 8 is_stmt 1 view .LVU837
 2201              		.loc 1 1304 10 is_stmt 0 view .LVU838
 2202 000a B0F5805F 		cmp	r0, #4096
 2203 000e 0ED0     		beq	.L130
1305:libraries/STM32F4xx_StdPeriph_Driver/src/stm32f4xx_fmc.c ****   {
1306:libraries/STM32F4xx_StdPeriph_Driver/src/stm32f4xx_fmc.c ****     tmpsr = FMC_Bank4->SR4;
1307:libraries/STM32F4xx_StdPeriph_Driver/src/stm32f4xx_fmc.c ****   }
1308:libraries/STM32F4xx_StdPeriph_Driver/src/stm32f4xx_fmc.c ****   else 
1309:libraries/STM32F4xx_StdPeriph_Driver/src/stm32f4xx_fmc.c ****   {
1310:libraries/STM32F4xx_StdPeriph_Driver/src/stm32f4xx_fmc.c ****     tmpsr = FMC_Bank5_6->SDSR;
 2204              		.loc 1 1310 5 is_stmt 1 view .LVU839
 2205              		.loc 1 1310 11 is_stmt 0 view .LVU840
 2206 0010 0A4B     		ldr	r3, .L131
 2207 0012 9B6D     		ldr	r3, [r3, #88]
 2208              	.LVL137:
 2209              		.loc 1 1310 11 view .LVU841
 2210 0014 02E0     		b	.L123
 2211              	.LVL138:
 2212              	.L128:
1298:libraries/STM32F4xx_StdPeriph_Driver/src/stm32f4xx_fmc.c ****   }  
 2213              		.loc 1 1298 5 is_stmt 1 view .LVU842
1298:libraries/STM32F4xx_StdPeriph_Driver/src/stm32f4xx_fmc.c ****   }  
 2214              		.loc 1 1298 11 is_stmt 0 view .LVU843
 2215 0016 4FF02043 		mov	r3, #-1610612736
 2216 001a 5B6E     		ldr	r3, [r3, #100]
 2217              	.LVL139:
 2218              	.L123:
1311:libraries/STM32F4xx_StdPeriph_Driver/src/stm32f4xx_fmc.c ****   }
1312:libraries/STM32F4xx_StdPeriph_Driver/src/stm32f4xx_fmc.c ****   
1313:libraries/STM32F4xx_StdPeriph_Driver/src/stm32f4xx_fmc.c ****   /* Get the flag status */
1314:libraries/STM32F4xx_StdPeriph_Driver/src/stm32f4xx_fmc.c ****   if ((tmpsr & FMC_FLAG) != FMC_FLAG )
 2219              		.loc 1 1314 3 is_stmt 1 view .LVU844
 2220              		.loc 1 1314 6 is_stmt 0 view .LVU845
 2221 001c 9943     		bics	r1, r1, r3
 2222              	.LVL140:
 2223              		.loc 1 1314 6 view .LVU846
 2224 001e 0BD0     		beq	.L127
1315:libraries/STM32F4xx_StdPeriph_Driver/src/stm32f4xx_fmc.c ****   {
1316:libraries/STM32F4xx_StdPeriph_Driver/src/stm32f4xx_fmc.c ****     bitstatus = RESET;
 2225              		.loc 1 1316 15 view .LVU847
 2226 0020 0020     		movs	r0, #0
ARM GAS  C:\Users\ktkuru\AppData\Local\Temp\cc04RWjJ.s 			page 66


 2227              	.LVL141:
 2228              		.loc 1 1316 15 view .LVU848
 2229 0022 7047     		bx	lr
 2230              	.LVL142:
 2231              	.L129:
1302:libraries/STM32F4xx_StdPeriph_Driver/src/stm32f4xx_fmc.c ****   }
 2232              		.loc 1 1302 5 is_stmt 1 view .LVU849
1302:libraries/STM32F4xx_StdPeriph_Driver/src/stm32f4xx_fmc.c ****   }
 2233              		.loc 1 1302 11 is_stmt 0 view .LVU850
 2234 0024 4FF02043 		mov	r3, #-1610612736
 2235 0028 D3F88430 		ldr	r3, [r3, #132]
 2236              	.LVL143:
1302:libraries/STM32F4xx_StdPeriph_Driver/src/stm32f4xx_fmc.c ****   }
 2237              		.loc 1 1302 11 view .LVU851
 2238 002c F6E7     		b	.L123
 2239              	.LVL144:
 2240              	.L130:
1306:libraries/STM32F4xx_StdPeriph_Driver/src/stm32f4xx_fmc.c ****   }
 2241              		.loc 1 1306 5 is_stmt 1 view .LVU852
1306:libraries/STM32F4xx_StdPeriph_Driver/src/stm32f4xx_fmc.c ****   }
 2242              		.loc 1 1306 11 is_stmt 0 view .LVU853
 2243 002e 4FF02043 		mov	r3, #-1610612736
 2244 0032 D3F8A430 		ldr	r3, [r3, #164]
 2245              	.LVL145:
1306:libraries/STM32F4xx_StdPeriph_Driver/src/stm32f4xx_fmc.c ****   }
 2246              		.loc 1 1306 11 view .LVU854
 2247 0036 F1E7     		b	.L123
 2248              	.LVL146:
 2249              	.L127:
1317:libraries/STM32F4xx_StdPeriph_Driver/src/stm32f4xx_fmc.c ****   }
1318:libraries/STM32F4xx_StdPeriph_Driver/src/stm32f4xx_fmc.c ****   else
1319:libraries/STM32F4xx_StdPeriph_Driver/src/stm32f4xx_fmc.c ****   {
1320:libraries/STM32F4xx_StdPeriph_Driver/src/stm32f4xx_fmc.c ****     bitstatus = SET;
 2250              		.loc 1 1320 15 view .LVU855
 2251 0038 0120     		movs	r0, #1
 2252              	.LVL147:
1321:libraries/STM32F4xx_StdPeriph_Driver/src/stm32f4xx_fmc.c ****   }
1322:libraries/STM32F4xx_StdPeriph_Driver/src/stm32f4xx_fmc.c ****   /* Return the flag status */
1323:libraries/STM32F4xx_StdPeriph_Driver/src/stm32f4xx_fmc.c ****   return bitstatus;
 2253              		.loc 1 1323 3 is_stmt 1 view .LVU856
1324:libraries/STM32F4xx_StdPeriph_Driver/src/stm32f4xx_fmc.c **** }
 2254              		.loc 1 1324 1 is_stmt 0 view .LVU857
 2255 003a 7047     		bx	lr
 2256              	.L132:
 2257              		.align	2
 2258              	.L131:
 2259 003c 000100A0 		.word	-1610612480
 2260              		.cfi_endproc
 2261              	.LFE146:
 2263              		.section	.text.FMC_ClearFlag,"ax",%progbits
 2264              		.align	1
 2265              		.global	FMC_ClearFlag
 2266              		.syntax unified
 2267              		.thumb
 2268              		.thumb_func
 2270              	FMC_ClearFlag:
 2271              	.LVL148:
ARM GAS  C:\Users\ktkuru\AppData\Local\Temp\cc04RWjJ.s 			page 67


 2272              	.LFB147:
1325:libraries/STM32F4xx_StdPeriph_Driver/src/stm32f4xx_fmc.c **** 
1326:libraries/STM32F4xx_StdPeriph_Driver/src/stm32f4xx_fmc.c **** /**
1327:libraries/STM32F4xx_StdPeriph_Driver/src/stm32f4xx_fmc.c ****   * @brief  Clears the FMC's pending flags.
1328:libraries/STM32F4xx_StdPeriph_Driver/src/stm32f4xx_fmc.c ****   * @param  FMC_Bank: specifies the FMC Bank to be used
1329:libraries/STM32F4xx_StdPeriph_Driver/src/stm32f4xx_fmc.c ****   *          This parameter can be one of the following values:
1330:libraries/STM32F4xx_StdPeriph_Driver/src/stm32f4xx_fmc.c ****   *            @arg FMC_Bank2_NAND: FMC Bank2 NAND 
1331:libraries/STM32F4xx_StdPeriph_Driver/src/stm32f4xx_fmc.c ****   *            @arg FMC_Bank3_NAND: FMC Bank3 NAND
1332:libraries/STM32F4xx_StdPeriph_Driver/src/stm32f4xx_fmc.c ****   *            @arg FMC_Bank4_PCCARD: FMC Bank4 PCCARD
1333:libraries/STM32F4xx_StdPeriph_Driver/src/stm32f4xx_fmc.c ****   *            @arg FMC_Bank1_SDRAM: FMC Bank1 SDRAM 
1334:libraries/STM32F4xx_StdPeriph_Driver/src/stm32f4xx_fmc.c ****   *            @arg FMC_Bank2_SDRAM: FMC Bank2 SDRAM  
1335:libraries/STM32F4xx_StdPeriph_Driver/src/stm32f4xx_fmc.c ****   * @param  FMC_FLAG: specifies the flag to clear.
1336:libraries/STM32F4xx_StdPeriph_Driver/src/stm32f4xx_fmc.c ****   *          This parameter can be any combination of the following values:
1337:libraries/STM32F4xx_StdPeriph_Driver/src/stm32f4xx_fmc.c ****   *            @arg FMC_FLAG_RisingEdge: Rising edge detection Flag.
1338:libraries/STM32F4xx_StdPeriph_Driver/src/stm32f4xx_fmc.c ****   *            @arg FMC_FLAG_Level: Level detection Flag.
1339:libraries/STM32F4xx_StdPeriph_Driver/src/stm32f4xx_fmc.c ****   *            @arg FMC_FLAG_FallingEdge: Falling edge detection Flag.
1340:libraries/STM32F4xx_StdPeriph_Driver/src/stm32f4xx_fmc.c ****   *            @arg FMC_FLAG_Refresh: Refresh error Flag.  
1341:libraries/STM32F4xx_StdPeriph_Driver/src/stm32f4xx_fmc.c ****   * @retval None
1342:libraries/STM32F4xx_StdPeriph_Driver/src/stm32f4xx_fmc.c ****   */
1343:libraries/STM32F4xx_StdPeriph_Driver/src/stm32f4xx_fmc.c **** void FMC_ClearFlag(uint32_t FMC_Bank, uint32_t FMC_FLAG)
1344:libraries/STM32F4xx_StdPeriph_Driver/src/stm32f4xx_fmc.c **** {
 2273              		.loc 1 1344 1 is_stmt 1 view -0
 2274              		.cfi_startproc
 2275              		@ args = 0, pretend = 0, frame = 0
 2276              		@ frame_needed = 0, uses_anonymous_args = 0
 2277              		@ link register save eliminated.
1345:libraries/STM32F4xx_StdPeriph_Driver/src/stm32f4xx_fmc.c ****  /* Check the parameters */
1346:libraries/STM32F4xx_StdPeriph_Driver/src/stm32f4xx_fmc.c ****   assert_param(IS_FMC_GETFLAG_BANK(FMC_Bank));
 2278              		.loc 1 1346 3 view .LVU859
1347:libraries/STM32F4xx_StdPeriph_Driver/src/stm32f4xx_fmc.c ****   assert_param(IS_FMC_CLEAR_FLAG(FMC_FLAG)) ;
 2279              		.loc 1 1347 3 view .LVU860
1348:libraries/STM32F4xx_StdPeriph_Driver/src/stm32f4xx_fmc.c ****     
1349:libraries/STM32F4xx_StdPeriph_Driver/src/stm32f4xx_fmc.c ****   if(FMC_Bank == FMC_Bank2_NAND)
 2280              		.loc 1 1349 3 view .LVU861
 2281              		.loc 1 1349 5 is_stmt 0 view .LVU862
 2282 0000 1028     		cmp	r0, #16
 2283 0002 0BD0     		beq	.L138
1350:libraries/STM32F4xx_StdPeriph_Driver/src/stm32f4xx_fmc.c ****   {
1351:libraries/STM32F4xx_StdPeriph_Driver/src/stm32f4xx_fmc.c ****     FMC_Bank2->SR2 &= (~FMC_FLAG); 
1352:libraries/STM32F4xx_StdPeriph_Driver/src/stm32f4xx_fmc.c ****   }  
1353:libraries/STM32F4xx_StdPeriph_Driver/src/stm32f4xx_fmc.c ****   else if(FMC_Bank == FMC_Bank3_NAND)
 2284              		.loc 1 1353 8 is_stmt 1 view .LVU863
 2285              		.loc 1 1353 10 is_stmt 0 view .LVU864
 2286 0004 B0F5807F 		cmp	r0, #256
 2287 0008 0FD0     		beq	.L139
1354:libraries/STM32F4xx_StdPeriph_Driver/src/stm32f4xx_fmc.c ****   {
1355:libraries/STM32F4xx_StdPeriph_Driver/src/stm32f4xx_fmc.c ****     FMC_Bank3->SR3 &= (~FMC_FLAG);
1356:libraries/STM32F4xx_StdPeriph_Driver/src/stm32f4xx_fmc.c ****   }
1357:libraries/STM32F4xx_StdPeriph_Driver/src/stm32f4xx_fmc.c ****   else if(FMC_Bank == FMC_Bank4_PCCARD)
 2288              		.loc 1 1357 8 is_stmt 1 view .LVU865
 2289              		.loc 1 1357 10 is_stmt 0 view .LVU866
 2290 000a B0F5805F 		cmp	r0, #4096
 2291 000e 15D0     		beq	.L140
1358:libraries/STM32F4xx_StdPeriph_Driver/src/stm32f4xx_fmc.c ****   {
1359:libraries/STM32F4xx_StdPeriph_Driver/src/stm32f4xx_fmc.c ****     FMC_Bank4->SR4 &= (~FMC_FLAG);
1360:libraries/STM32F4xx_StdPeriph_Driver/src/stm32f4xx_fmc.c ****   }
1361:libraries/STM32F4xx_StdPeriph_Driver/src/stm32f4xx_fmc.c ****   /* FMC_Bank5_6 SDRAM*/
ARM GAS  C:\Users\ktkuru\AppData\Local\Temp\cc04RWjJ.s 			page 68


1362:libraries/STM32F4xx_StdPeriph_Driver/src/stm32f4xx_fmc.c ****   else
1363:libraries/STM32F4xx_StdPeriph_Driver/src/stm32f4xx_fmc.c ****   {
1364:libraries/STM32F4xx_StdPeriph_Driver/src/stm32f4xx_fmc.c ****     FMC_Bank5_6->SDRTR &= (~FMC_FLAG);
 2292              		.loc 1 1364 5 is_stmt 1 view .LVU867
 2293              		.loc 1 1364 16 is_stmt 0 view .LVU868
 2294 0010 0F4A     		ldr	r2, .L141
 2295 0012 536D     		ldr	r3, [r2, #84]
 2296              		.loc 1 1364 24 view .LVU869
 2297 0014 23EA0103 		bic	r3, r3, r1
 2298 0018 5365     		str	r3, [r2, #84]
1365:libraries/STM32F4xx_StdPeriph_Driver/src/stm32f4xx_fmc.c ****   }
1366:libraries/STM32F4xx_StdPeriph_Driver/src/stm32f4xx_fmc.c ****   
1367:libraries/STM32F4xx_StdPeriph_Driver/src/stm32f4xx_fmc.c **** }
 2299              		.loc 1 1367 1 view .LVU870
 2300 001a 7047     		bx	lr
 2301              	.L138:
1351:libraries/STM32F4xx_StdPeriph_Driver/src/stm32f4xx_fmc.c ****   }  
 2302              		.loc 1 1351 5 is_stmt 1 view .LVU871
1351:libraries/STM32F4xx_StdPeriph_Driver/src/stm32f4xx_fmc.c ****   }  
 2303              		.loc 1 1351 14 is_stmt 0 view .LVU872
 2304 001c 4FF02042 		mov	r2, #-1610612736
 2305 0020 536E     		ldr	r3, [r2, #100]
1351:libraries/STM32F4xx_StdPeriph_Driver/src/stm32f4xx_fmc.c ****   }  
 2306              		.loc 1 1351 20 view .LVU873
 2307 0022 23EA0103 		bic	r3, r3, r1
 2308 0026 5366     		str	r3, [r2, #100]
 2309 0028 7047     		bx	lr
 2310              	.L139:
1355:libraries/STM32F4xx_StdPeriph_Driver/src/stm32f4xx_fmc.c ****   }
 2311              		.loc 1 1355 5 is_stmt 1 view .LVU874
1355:libraries/STM32F4xx_StdPeriph_Driver/src/stm32f4xx_fmc.c ****   }
 2312              		.loc 1 1355 14 is_stmt 0 view .LVU875
 2313 002a 4FF02042 		mov	r2, #-1610612736
 2314 002e D2F88430 		ldr	r3, [r2, #132]
1355:libraries/STM32F4xx_StdPeriph_Driver/src/stm32f4xx_fmc.c ****   }
 2315              		.loc 1 1355 20 view .LVU876
 2316 0032 23EA0103 		bic	r3, r3, r1
 2317 0036 C2F88430 		str	r3, [r2, #132]
 2318 003a 7047     		bx	lr
 2319              	.L140:
1359:libraries/STM32F4xx_StdPeriph_Driver/src/stm32f4xx_fmc.c ****   }
 2320              		.loc 1 1359 5 is_stmt 1 view .LVU877
1359:libraries/STM32F4xx_StdPeriph_Driver/src/stm32f4xx_fmc.c ****   }
 2321              		.loc 1 1359 14 is_stmt 0 view .LVU878
 2322 003c 4FF02042 		mov	r2, #-1610612736
 2323 0040 D2F8A430 		ldr	r3, [r2, #164]
1359:libraries/STM32F4xx_StdPeriph_Driver/src/stm32f4xx_fmc.c ****   }
 2324              		.loc 1 1359 20 view .LVU879
 2325 0044 23EA0103 		bic	r3, r3, r1
 2326 0048 C2F8A430 		str	r3, [r2, #164]
 2327 004c 7047     		bx	lr
 2328              	.L142:
 2329 004e 00BF     		.align	2
 2330              	.L141:
 2331 0050 000100A0 		.word	-1610612480
 2332              		.cfi_endproc
 2333              	.LFE147:
ARM GAS  C:\Users\ktkuru\AppData\Local\Temp\cc04RWjJ.s 			page 69


 2335              		.section	.text.FMC_GetITStatus,"ax",%progbits
 2336              		.align	1
 2337              		.global	FMC_GetITStatus
 2338              		.syntax unified
 2339              		.thumb
 2340              		.thumb_func
 2342              	FMC_GetITStatus:
 2343              	.LVL149:
 2344              	.LFB148:
1368:libraries/STM32F4xx_StdPeriph_Driver/src/stm32f4xx_fmc.c **** 
1369:libraries/STM32F4xx_StdPeriph_Driver/src/stm32f4xx_fmc.c **** /**
1370:libraries/STM32F4xx_StdPeriph_Driver/src/stm32f4xx_fmc.c ****   * @brief  Checks whether the specified FMC interrupt has occurred or not.
1371:libraries/STM32F4xx_StdPeriph_Driver/src/stm32f4xx_fmc.c ****   * @param  FMC_Bank: specifies the FMC Bank to be used
1372:libraries/STM32F4xx_StdPeriph_Driver/src/stm32f4xx_fmc.c ****   *          This parameter can be one of the following values:
1373:libraries/STM32F4xx_StdPeriph_Driver/src/stm32f4xx_fmc.c ****   *            @arg FMC_Bank2_NAND: FMC Bank2 NAND 
1374:libraries/STM32F4xx_StdPeriph_Driver/src/stm32f4xx_fmc.c ****   *            @arg FMC_Bank3_NAND: FMC Bank3 NAND
1375:libraries/STM32F4xx_StdPeriph_Driver/src/stm32f4xx_fmc.c ****   *            @arg FMC_Bank4_PCCARD: FMC Bank4 PCCARD
1376:libraries/STM32F4xx_StdPeriph_Driver/src/stm32f4xx_fmc.c ****   *            @arg FMC_Bank1_SDRAM: FMC Bank1 SDRAM 
1377:libraries/STM32F4xx_StdPeriph_Driver/src/stm32f4xx_fmc.c ****   *            @arg FMC_Bank2_SDRAM: FMC Bank2 SDRAM   
1378:libraries/STM32F4xx_StdPeriph_Driver/src/stm32f4xx_fmc.c ****   * @param  FMC_IT: specifies the FMC interrupt source to check.
1379:libraries/STM32F4xx_StdPeriph_Driver/src/stm32f4xx_fmc.c ****   *          This parameter can be one of the following values:
1380:libraries/STM32F4xx_StdPeriph_Driver/src/stm32f4xx_fmc.c ****   *            @arg FMC_IT_RisingEdge: Rising edge detection interrupt. 
1381:libraries/STM32F4xx_StdPeriph_Driver/src/stm32f4xx_fmc.c ****   *            @arg FMC_IT_Level: Level edge detection interrupt.
1382:libraries/STM32F4xx_StdPeriph_Driver/src/stm32f4xx_fmc.c ****   *            @arg FMC_IT_FallingEdge: Falling edge detection interrupt.
1383:libraries/STM32F4xx_StdPeriph_Driver/src/stm32f4xx_fmc.c ****   *            @arg FMC_IT_Refresh: Refresh error detection interrupt.    
1384:libraries/STM32F4xx_StdPeriph_Driver/src/stm32f4xx_fmc.c ****   * @retval The new state of FMC_IT (SET or RESET).
1385:libraries/STM32F4xx_StdPeriph_Driver/src/stm32f4xx_fmc.c ****   */
1386:libraries/STM32F4xx_StdPeriph_Driver/src/stm32f4xx_fmc.c **** ITStatus FMC_GetITStatus(uint32_t FMC_Bank, uint32_t FMC_IT)
1387:libraries/STM32F4xx_StdPeriph_Driver/src/stm32f4xx_fmc.c **** {
 2345              		.loc 1 1387 1 is_stmt 1 view -0
 2346              		.cfi_startproc
 2347              		@ args = 0, pretend = 0, frame = 0
 2348              		@ frame_needed = 0, uses_anonymous_args = 0
 2349              		@ link register save eliminated.
 2350              		.loc 1 1387 1 is_stmt 0 view .LVU881
 2351 0000 10B4     		push	{r4}
 2352              	.LCFI11:
 2353              		.cfi_def_cfa_offset 4
 2354              		.cfi_offset 4, -4
1388:libraries/STM32F4xx_StdPeriph_Driver/src/stm32f4xx_fmc.c ****   ITStatus bitstatus = RESET;
 2355              		.loc 1 1388 3 is_stmt 1 view .LVU882
 2356              	.LVL150:
1389:libraries/STM32F4xx_StdPeriph_Driver/src/stm32f4xx_fmc.c ****   uint32_t tmpsr = 0x0;
 2357              		.loc 1 1389 3 view .LVU883
1390:libraries/STM32F4xx_StdPeriph_Driver/src/stm32f4xx_fmc.c ****   uint32_t tmpsr2 = 0x0;
 2358              		.loc 1 1390 3 view .LVU884
1391:libraries/STM32F4xx_StdPeriph_Driver/src/stm32f4xx_fmc.c ****   uint32_t itstatus = 0x0;
 2359              		.loc 1 1391 3 view .LVU885
1392:libraries/STM32F4xx_StdPeriph_Driver/src/stm32f4xx_fmc.c ****   uint32_t itenable = 0x0; 
 2360              		.loc 1 1392 3 view .LVU886
1393:libraries/STM32F4xx_StdPeriph_Driver/src/stm32f4xx_fmc.c ****   
1394:libraries/STM32F4xx_StdPeriph_Driver/src/stm32f4xx_fmc.c ****   /* Check the parameters */
1395:libraries/STM32F4xx_StdPeriph_Driver/src/stm32f4xx_fmc.c ****   assert_param(IS_FMC_IT_BANK(FMC_Bank));
 2361              		.loc 1 1395 3 view .LVU887
1396:libraries/STM32F4xx_StdPeriph_Driver/src/stm32f4xx_fmc.c ****   assert_param(IS_FMC_GET_IT(FMC_IT));
 2362              		.loc 1 1396 3 view .LVU888
1397:libraries/STM32F4xx_StdPeriph_Driver/src/stm32f4xx_fmc.c ****   
ARM GAS  C:\Users\ktkuru\AppData\Local\Temp\cc04RWjJ.s 			page 70


1398:libraries/STM32F4xx_StdPeriph_Driver/src/stm32f4xx_fmc.c ****   if(FMC_Bank == FMC_Bank2_NAND)
 2363              		.loc 1 1398 3 view .LVU889
 2364              		.loc 1 1398 5 is_stmt 0 view .LVU890
 2365 0002 1028     		cmp	r0, #16
 2366 0004 09D0     		beq	.L154
1399:libraries/STM32F4xx_StdPeriph_Driver/src/stm32f4xx_fmc.c ****   {
1400:libraries/STM32F4xx_StdPeriph_Driver/src/stm32f4xx_fmc.c ****     tmpsr = FMC_Bank2->SR2;
1401:libraries/STM32F4xx_StdPeriph_Driver/src/stm32f4xx_fmc.c ****   }  
1402:libraries/STM32F4xx_StdPeriph_Driver/src/stm32f4xx_fmc.c ****   else if(FMC_Bank == FMC_Bank3_NAND)
 2367              		.loc 1 1402 8 is_stmt 1 view .LVU891
 2368              		.loc 1 1402 10 is_stmt 0 view .LVU892
 2369 0006 B0F5807F 		cmp	r0, #256
 2370 000a 14D0     		beq	.L155
1403:libraries/STM32F4xx_StdPeriph_Driver/src/stm32f4xx_fmc.c ****   {
1404:libraries/STM32F4xx_StdPeriph_Driver/src/stm32f4xx_fmc.c ****     tmpsr = FMC_Bank3->SR3;
1405:libraries/STM32F4xx_StdPeriph_Driver/src/stm32f4xx_fmc.c ****   }
1406:libraries/STM32F4xx_StdPeriph_Driver/src/stm32f4xx_fmc.c ****   else if(FMC_Bank == FMC_Bank4_PCCARD)
 2371              		.loc 1 1406 8 is_stmt 1 view .LVU893
 2372              		.loc 1 1406 10 is_stmt 0 view .LVU894
 2373 000c B0F5805F 		cmp	r0, #4096
 2374 0010 17D0     		beq	.L156
1407:libraries/STM32F4xx_StdPeriph_Driver/src/stm32f4xx_fmc.c ****   {
1408:libraries/STM32F4xx_StdPeriph_Driver/src/stm32f4xx_fmc.c ****     tmpsr = FMC_Bank4->SR4;
1409:libraries/STM32F4xx_StdPeriph_Driver/src/stm32f4xx_fmc.c ****   }
1410:libraries/STM32F4xx_StdPeriph_Driver/src/stm32f4xx_fmc.c ****   /* FMC_Bank5_6 SDRAM*/
1411:libraries/STM32F4xx_StdPeriph_Driver/src/stm32f4xx_fmc.c ****   else
1412:libraries/STM32F4xx_StdPeriph_Driver/src/stm32f4xx_fmc.c ****   {
1413:libraries/STM32F4xx_StdPeriph_Driver/src/stm32f4xx_fmc.c ****     tmpsr = FMC_Bank5_6->SDRTR;
 2375              		.loc 1 1413 5 is_stmt 1 view .LVU895
 2376              		.loc 1 1413 11 is_stmt 0 view .LVU896
 2377 0012 134A     		ldr	r2, .L158
 2378 0014 536D     		ldr	r3, [r2, #84]
 2379              	.LVL151:
1414:libraries/STM32F4xx_StdPeriph_Driver/src/stm32f4xx_fmc.c ****     tmpsr2 = FMC_Bank5_6->SDSR;
 2380              		.loc 1 1414 5 is_stmt 1 view .LVU897
 2381              		.loc 1 1414 12 is_stmt 0 view .LVU898
 2382 0016 946D     		ldr	r4, [r2, #88]
 2383              	.LVL152:
 2384              		.loc 1 1414 12 view .LVU899
 2385 0018 03E0     		b	.L145
 2386              	.LVL153:
 2387              	.L154:
1400:libraries/STM32F4xx_StdPeriph_Driver/src/stm32f4xx_fmc.c ****   }  
 2388              		.loc 1 1400 5 is_stmt 1 view .LVU900
1400:libraries/STM32F4xx_StdPeriph_Driver/src/stm32f4xx_fmc.c ****   }  
 2389              		.loc 1 1400 11 is_stmt 0 view .LVU901
 2390 001a 4FF02043 		mov	r3, #-1610612736
 2391 001e 5B6E     		ldr	r3, [r3, #100]
 2392              	.LVL154:
1390:libraries/STM32F4xx_StdPeriph_Driver/src/stm32f4xx_fmc.c ****   uint32_t itstatus = 0x0;
 2393              		.loc 1 1390 12 view .LVU902
 2394 0020 0024     		movs	r4, #0
 2395              	.LVL155:
 2396              	.L145:
1415:libraries/STM32F4xx_StdPeriph_Driver/src/stm32f4xx_fmc.c ****   } 
1416:libraries/STM32F4xx_StdPeriph_Driver/src/stm32f4xx_fmc.c ****   
1417:libraries/STM32F4xx_StdPeriph_Driver/src/stm32f4xx_fmc.c ****   /* get the IT enable bit status*/
ARM GAS  C:\Users\ktkuru\AppData\Local\Temp\cc04RWjJ.s 			page 71


1418:libraries/STM32F4xx_StdPeriph_Driver/src/stm32f4xx_fmc.c ****   itenable = tmpsr & FMC_IT;
 2397              		.loc 1 1418 3 is_stmt 1 view .LVU903
 2398              		.loc 1 1418 12 is_stmt 0 view .LVU904
 2399 0022 03EA0102 		and	r2, r3, r1
 2400              	.LVL156:
1419:libraries/STM32F4xx_StdPeriph_Driver/src/stm32f4xx_fmc.c ****   
1420:libraries/STM32F4xx_StdPeriph_Driver/src/stm32f4xx_fmc.c ****   /* get the corresponding IT Flag status*/
1421:libraries/STM32F4xx_StdPeriph_Driver/src/stm32f4xx_fmc.c ****   if((FMC_Bank == FMC_Bank1_SDRAM) || (FMC_Bank == FMC_Bank2_SDRAM))
 2401              		.loc 1 1421 3 is_stmt 1 view .LVU905
 2402              		.loc 1 1421 5 is_stmt 0 view .LVU906
 2403 0026 0128     		cmp	r0, #1
 2404 0028 11D9     		bls	.L157
1422:libraries/STM32F4xx_StdPeriph_Driver/src/stm32f4xx_fmc.c ****   {
1423:libraries/STM32F4xx_StdPeriph_Driver/src/stm32f4xx_fmc.c ****     itstatus = tmpsr2 & FMC_SDSR_RE;  
1424:libraries/STM32F4xx_StdPeriph_Driver/src/stm32f4xx_fmc.c ****   }           
1425:libraries/STM32F4xx_StdPeriph_Driver/src/stm32f4xx_fmc.c ****   else
1426:libraries/STM32F4xx_StdPeriph_Driver/src/stm32f4xx_fmc.c ****   {
1427:libraries/STM32F4xx_StdPeriph_Driver/src/stm32f4xx_fmc.c ****     itstatus = tmpsr & (FMC_IT >> 3);  
 2405              		.loc 1 1427 5 is_stmt 1 view .LVU907
 2406              		.loc 1 1427 14 is_stmt 0 view .LVU908
 2407 002a 03EAD103 		and	r3, r3, r1, lsr #3
 2408              	.LVL157:
 2409              	.L149:
1428:libraries/STM32F4xx_StdPeriph_Driver/src/stm32f4xx_fmc.c ****   }  
1429:libraries/STM32F4xx_StdPeriph_Driver/src/stm32f4xx_fmc.c ****   
1430:libraries/STM32F4xx_StdPeriph_Driver/src/stm32f4xx_fmc.c ****   if ((itstatus != (uint32_t)RESET)  && (itenable != (uint32_t)RESET))
 2410              		.loc 1 1430 3 is_stmt 1 view .LVU909
 2411              		.loc 1 1430 6 is_stmt 0 view .LVU910
 2412 002e 8BB1     		cbz	r3, .L151
 2413              		.loc 1 1430 38 discriminator 1 view .LVU911
 2414 0030 A2B9     		cbnz	r2, .L152
1431:libraries/STM32F4xx_StdPeriph_Driver/src/stm32f4xx_fmc.c ****   {
1432:libraries/STM32F4xx_StdPeriph_Driver/src/stm32f4xx_fmc.c ****     bitstatus = SET;
1433:libraries/STM32F4xx_StdPeriph_Driver/src/stm32f4xx_fmc.c ****   }
1434:libraries/STM32F4xx_StdPeriph_Driver/src/stm32f4xx_fmc.c ****   else
1435:libraries/STM32F4xx_StdPeriph_Driver/src/stm32f4xx_fmc.c ****   {
1436:libraries/STM32F4xx_StdPeriph_Driver/src/stm32f4xx_fmc.c ****     bitstatus = RESET;
 2415              		.loc 1 1436 15 view .LVU912
 2416 0032 0020     		movs	r0, #0
 2417              	.LVL158:
 2418              		.loc 1 1436 15 view .LVU913
 2419 0034 0FE0     		b	.L150
 2420              	.LVL159:
 2421              	.L155:
1404:libraries/STM32F4xx_StdPeriph_Driver/src/stm32f4xx_fmc.c ****   }
 2422              		.loc 1 1404 5 is_stmt 1 view .LVU914
1404:libraries/STM32F4xx_StdPeriph_Driver/src/stm32f4xx_fmc.c ****   }
 2423              		.loc 1 1404 11 is_stmt 0 view .LVU915
 2424 0036 4FF02043 		mov	r3, #-1610612736
 2425 003a D3F88430 		ldr	r3, [r3, #132]
 2426              	.LVL160:
1390:libraries/STM32F4xx_StdPeriph_Driver/src/stm32f4xx_fmc.c ****   uint32_t itstatus = 0x0;
 2427              		.loc 1 1390 12 view .LVU916
 2428 003e 0024     		movs	r4, #0
 2429 0040 EFE7     		b	.L145
 2430              	.LVL161:
 2431              	.L156:
ARM GAS  C:\Users\ktkuru\AppData\Local\Temp\cc04RWjJ.s 			page 72


1408:libraries/STM32F4xx_StdPeriph_Driver/src/stm32f4xx_fmc.c ****   }
 2432              		.loc 1 1408 5 is_stmt 1 view .LVU917
1408:libraries/STM32F4xx_StdPeriph_Driver/src/stm32f4xx_fmc.c ****   }
 2433              		.loc 1 1408 11 is_stmt 0 view .LVU918
 2434 0042 4FF02043 		mov	r3, #-1610612736
 2435 0046 D3F8A430 		ldr	r3, [r3, #164]
 2436              	.LVL162:
1390:libraries/STM32F4xx_StdPeriph_Driver/src/stm32f4xx_fmc.c ****   uint32_t itstatus = 0x0;
 2437              		.loc 1 1390 12 view .LVU919
 2438 004a 0024     		movs	r4, #0
 2439 004c E9E7     		b	.L145
 2440              	.LVL163:
 2441              	.L157:
1423:libraries/STM32F4xx_StdPeriph_Driver/src/stm32f4xx_fmc.c ****   }           
 2442              		.loc 1 1423 5 is_stmt 1 view .LVU920
1423:libraries/STM32F4xx_StdPeriph_Driver/src/stm32f4xx_fmc.c ****   }           
 2443              		.loc 1 1423 14 is_stmt 0 view .LVU921
 2444 004e 04F00103 		and	r3, r4, #1
 2445              	.LVL164:
1423:libraries/STM32F4xx_StdPeriph_Driver/src/stm32f4xx_fmc.c ****   }           
 2446              		.loc 1 1423 14 view .LVU922
 2447 0052 ECE7     		b	.L149
 2448              	.L151:
 2449              		.loc 1 1436 15 view .LVU923
 2450 0054 0020     		movs	r0, #0
 2451              	.LVL165:
 2452              	.L150:
1437:libraries/STM32F4xx_StdPeriph_Driver/src/stm32f4xx_fmc.c ****   }
1438:libraries/STM32F4xx_StdPeriph_Driver/src/stm32f4xx_fmc.c ****   return bitstatus; 
 2453              		.loc 1 1438 3 is_stmt 1 view .LVU924
1439:libraries/STM32F4xx_StdPeriph_Driver/src/stm32f4xx_fmc.c **** }
 2454              		.loc 1 1439 1 is_stmt 0 view .LVU925
 2455 0056 5DF8044B 		ldr	r4, [sp], #4
 2456              	.LCFI12:
 2457              		.cfi_remember_state
 2458              		.cfi_restore 4
 2459              		.cfi_def_cfa_offset 0
 2460              	.LVL166:
 2461              		.loc 1 1439 1 view .LVU926
 2462 005a 7047     		bx	lr
 2463              	.LVL167:
 2464              	.L152:
 2465              	.LCFI13:
 2466              		.cfi_restore_state
1432:libraries/STM32F4xx_StdPeriph_Driver/src/stm32f4xx_fmc.c ****   }
 2467              		.loc 1 1432 15 view .LVU927
 2468 005c 0120     		movs	r0, #1
 2469              	.LVL168:
1432:libraries/STM32F4xx_StdPeriph_Driver/src/stm32f4xx_fmc.c ****   }
 2470              		.loc 1 1432 15 view .LVU928
 2471 005e FAE7     		b	.L150
 2472              	.L159:
 2473              		.align	2
 2474              	.L158:
 2475 0060 000100A0 		.word	-1610612480
 2476              		.cfi_endproc
 2477              	.LFE148:
ARM GAS  C:\Users\ktkuru\AppData\Local\Temp\cc04RWjJ.s 			page 73


 2479              		.section	.text.FMC_ClearITPendingBit,"ax",%progbits
 2480              		.align	1
 2481              		.global	FMC_ClearITPendingBit
 2482              		.syntax unified
 2483              		.thumb
 2484              		.thumb_func
 2486              	FMC_ClearITPendingBit:
 2487              	.LVL169:
 2488              	.LFB149:
1440:libraries/STM32F4xx_StdPeriph_Driver/src/stm32f4xx_fmc.c **** 
1441:libraries/STM32F4xx_StdPeriph_Driver/src/stm32f4xx_fmc.c **** /**
1442:libraries/STM32F4xx_StdPeriph_Driver/src/stm32f4xx_fmc.c ****   * @brief  Clears the FMC's interrupt pending bits.
1443:libraries/STM32F4xx_StdPeriph_Driver/src/stm32f4xx_fmc.c ****   * @param  FMC_Bank: specifies the FMC Bank to be used
1444:libraries/STM32F4xx_StdPeriph_Driver/src/stm32f4xx_fmc.c ****   *          This parameter can be one of the following values:
1445:libraries/STM32F4xx_StdPeriph_Driver/src/stm32f4xx_fmc.c ****   *            @arg FMC_Bank2_NAND: FMC Bank2 NAND 
1446:libraries/STM32F4xx_StdPeriph_Driver/src/stm32f4xx_fmc.c ****   *            @arg FMC_Bank3_NAND: FMC Bank3 NAND
1447:libraries/STM32F4xx_StdPeriph_Driver/src/stm32f4xx_fmc.c ****   *            @arg FMC_Bank4_PCCARD: FMC Bank4 PCCARD
1448:libraries/STM32F4xx_StdPeriph_Driver/src/stm32f4xx_fmc.c ****   *            @arg FMC_Bank1_SDRAM: FMC Bank1 SDRAM 
1449:libraries/STM32F4xx_StdPeriph_Driver/src/stm32f4xx_fmc.c ****   *            @arg FMC_Bank2_SDRAM: FMC Bank2 SDRAM   
1450:libraries/STM32F4xx_StdPeriph_Driver/src/stm32f4xx_fmc.c ****   * @param  FMC_IT: specifies the interrupt pending bit to clear.
1451:libraries/STM32F4xx_StdPeriph_Driver/src/stm32f4xx_fmc.c ****   *          This parameter can be any combination of the following values:
1452:libraries/STM32F4xx_StdPeriph_Driver/src/stm32f4xx_fmc.c ****   *            @arg FMC_IT_RisingEdge: Rising edge detection interrupt. 
1453:libraries/STM32F4xx_StdPeriph_Driver/src/stm32f4xx_fmc.c ****   *            @arg FMC_IT_Level: Level edge detection interrupt.
1454:libraries/STM32F4xx_StdPeriph_Driver/src/stm32f4xx_fmc.c ****   *            @arg FMC_IT_FallingEdge: Falling edge detection interrupt.
1455:libraries/STM32F4xx_StdPeriph_Driver/src/stm32f4xx_fmc.c ****   *            @arg FMC_IT_Refresh: Refresh error detection interrupt.  
1456:libraries/STM32F4xx_StdPeriph_Driver/src/stm32f4xx_fmc.c ****   * @retval None
1457:libraries/STM32F4xx_StdPeriph_Driver/src/stm32f4xx_fmc.c ****   */
1458:libraries/STM32F4xx_StdPeriph_Driver/src/stm32f4xx_fmc.c **** void FMC_ClearITPendingBit(uint32_t FMC_Bank, uint32_t FMC_IT)
1459:libraries/STM32F4xx_StdPeriph_Driver/src/stm32f4xx_fmc.c **** {
 2489              		.loc 1 1459 1 is_stmt 1 view -0
 2490              		.cfi_startproc
 2491              		@ args = 0, pretend = 0, frame = 0
 2492              		@ frame_needed = 0, uses_anonymous_args = 0
 2493              		@ link register save eliminated.
1460:libraries/STM32F4xx_StdPeriph_Driver/src/stm32f4xx_fmc.c ****   /* Check the parameters */
1461:libraries/STM32F4xx_StdPeriph_Driver/src/stm32f4xx_fmc.c ****   assert_param(IS_FMC_IT_BANK(FMC_Bank));
 2494              		.loc 1 1461 3 view .LVU930
1462:libraries/STM32F4xx_StdPeriph_Driver/src/stm32f4xx_fmc.c ****   assert_param(IS_FMC_IT(FMC_IT));
 2495              		.loc 1 1462 3 view .LVU931
1463:libraries/STM32F4xx_StdPeriph_Driver/src/stm32f4xx_fmc.c ****     
1464:libraries/STM32F4xx_StdPeriph_Driver/src/stm32f4xx_fmc.c ****   if(FMC_Bank == FMC_Bank2_NAND)
 2496              		.loc 1 1464 3 view .LVU932
 2497              		.loc 1 1464 5 is_stmt 0 view .LVU933
 2498 0000 1028     		cmp	r0, #16
 2499 0002 0BD0     		beq	.L165
1465:libraries/STM32F4xx_StdPeriph_Driver/src/stm32f4xx_fmc.c ****   {
1466:libraries/STM32F4xx_StdPeriph_Driver/src/stm32f4xx_fmc.c ****     FMC_Bank2->SR2 &= ~(FMC_IT >> 3); 
1467:libraries/STM32F4xx_StdPeriph_Driver/src/stm32f4xx_fmc.c ****   }  
1468:libraries/STM32F4xx_StdPeriph_Driver/src/stm32f4xx_fmc.c ****   else if(FMC_Bank == FMC_Bank3_NAND)
 2500              		.loc 1 1468 8 is_stmt 1 view .LVU934
 2501              		.loc 1 1468 10 is_stmt 0 view .LVU935
 2502 0004 B0F5807F 		cmp	r0, #256
 2503 0008 0FD0     		beq	.L166
1469:libraries/STM32F4xx_StdPeriph_Driver/src/stm32f4xx_fmc.c ****   {
1470:libraries/STM32F4xx_StdPeriph_Driver/src/stm32f4xx_fmc.c ****     FMC_Bank3->SR3 &= ~(FMC_IT >> 3);
1471:libraries/STM32F4xx_StdPeriph_Driver/src/stm32f4xx_fmc.c ****   }
1472:libraries/STM32F4xx_StdPeriph_Driver/src/stm32f4xx_fmc.c ****   else if(FMC_Bank == FMC_Bank4_PCCARD)
ARM GAS  C:\Users\ktkuru\AppData\Local\Temp\cc04RWjJ.s 			page 74


 2504              		.loc 1 1472 8 is_stmt 1 view .LVU936
 2505              		.loc 1 1472 10 is_stmt 0 view .LVU937
 2506 000a B0F5805F 		cmp	r0, #4096
 2507 000e 15D0     		beq	.L167
1473:libraries/STM32F4xx_StdPeriph_Driver/src/stm32f4xx_fmc.c ****   {
1474:libraries/STM32F4xx_StdPeriph_Driver/src/stm32f4xx_fmc.c ****     FMC_Bank4->SR4 &= ~(FMC_IT >> 3);
1475:libraries/STM32F4xx_StdPeriph_Driver/src/stm32f4xx_fmc.c ****   }
1476:libraries/STM32F4xx_StdPeriph_Driver/src/stm32f4xx_fmc.c ****   /* FMC_Bank5_6 SDRAM*/
1477:libraries/STM32F4xx_StdPeriph_Driver/src/stm32f4xx_fmc.c ****   else
1478:libraries/STM32F4xx_StdPeriph_Driver/src/stm32f4xx_fmc.c ****   {
1479:libraries/STM32F4xx_StdPeriph_Driver/src/stm32f4xx_fmc.c ****     FMC_Bank5_6->SDRTR |= FMC_SDRTR_CRE;
 2508              		.loc 1 1479 5 is_stmt 1 view .LVU938
 2509              		.loc 1 1479 16 is_stmt 0 view .LVU939
 2510 0010 0F4A     		ldr	r2, .L168
 2511 0012 536D     		ldr	r3, [r2, #84]
 2512              		.loc 1 1479 24 view .LVU940
 2513 0014 43F00103 		orr	r3, r3, #1
 2514 0018 5365     		str	r3, [r2, #84]
1480:libraries/STM32F4xx_StdPeriph_Driver/src/stm32f4xx_fmc.c ****   }
1481:libraries/STM32F4xx_StdPeriph_Driver/src/stm32f4xx_fmc.c **** }
 2515              		.loc 1 1481 1 view .LVU941
 2516 001a 7047     		bx	lr
 2517              	.L165:
1466:libraries/STM32F4xx_StdPeriph_Driver/src/stm32f4xx_fmc.c ****   }  
 2518              		.loc 1 1466 5 is_stmt 1 view .LVU942
1466:libraries/STM32F4xx_StdPeriph_Driver/src/stm32f4xx_fmc.c ****   }  
 2519              		.loc 1 1466 14 is_stmt 0 view .LVU943
 2520 001c 4FF02042 		mov	r2, #-1610612736
 2521 0020 536E     		ldr	r3, [r2, #100]
1466:libraries/STM32F4xx_StdPeriph_Driver/src/stm32f4xx_fmc.c ****   }  
 2522              		.loc 1 1466 20 view .LVU944
 2523 0022 23EAD103 		bic	r3, r3, r1, lsr #3
 2524 0026 5366     		str	r3, [r2, #100]
 2525 0028 7047     		bx	lr
 2526              	.L166:
1470:libraries/STM32F4xx_StdPeriph_Driver/src/stm32f4xx_fmc.c ****   }
 2527              		.loc 1 1470 5 is_stmt 1 view .LVU945
1470:libraries/STM32F4xx_StdPeriph_Driver/src/stm32f4xx_fmc.c ****   }
 2528              		.loc 1 1470 14 is_stmt 0 view .LVU946
 2529 002a 4FF02042 		mov	r2, #-1610612736
 2530 002e D2F88430 		ldr	r3, [r2, #132]
1470:libraries/STM32F4xx_StdPeriph_Driver/src/stm32f4xx_fmc.c ****   }
 2531              		.loc 1 1470 20 view .LVU947
 2532 0032 23EAD103 		bic	r3, r3, r1, lsr #3
 2533 0036 C2F88430 		str	r3, [r2, #132]
 2534 003a 7047     		bx	lr
 2535              	.L167:
1474:libraries/STM32F4xx_StdPeriph_Driver/src/stm32f4xx_fmc.c ****   }
 2536              		.loc 1 1474 5 is_stmt 1 view .LVU948
1474:libraries/STM32F4xx_StdPeriph_Driver/src/stm32f4xx_fmc.c ****   }
 2537              		.loc 1 1474 14 is_stmt 0 view .LVU949
 2538 003c 4FF02042 		mov	r2, #-1610612736
 2539 0040 D2F8A430 		ldr	r3, [r2, #164]
1474:libraries/STM32F4xx_StdPeriph_Driver/src/stm32f4xx_fmc.c ****   }
 2540              		.loc 1 1474 20 view .LVU950
 2541 0044 23EAD103 		bic	r3, r3, r1, lsr #3
 2542 0048 C2F8A430 		str	r3, [r2, #164]
ARM GAS  C:\Users\ktkuru\AppData\Local\Temp\cc04RWjJ.s 			page 75


 2543 004c 7047     		bx	lr
 2544              	.L169:
 2545 004e 00BF     		.align	2
 2546              	.L168:
 2547 0050 000100A0 		.word	-1610612480
 2548              		.cfi_endproc
 2549              	.LFE149:
 2551              		.global	FMC_DefaultTimingStruct
 2552              		.section	.rodata.FMC_DefaultTimingStruct,"a"
 2553              		.align	2
 2556              	FMC_DefaultTimingStruct:
 2557 0000 0F000000 		.word	15
 2558 0004 0F000000 		.word	15
 2559 0008 FF000000 		.word	255
 2560 000c 0F000000 		.word	15
 2561 0010 0F000000 		.word	15
 2562 0014 0F000000 		.word	15
 2563 0018 00000000 		.word	0
 2564              		.text
 2565              	.Letext0:
 2566              		.file 2 "C:/Program Files (x86)/Arm GNU Toolchain arm-none-eabi/13.3 rel1/arm-none-eabi/include/ma
 2567              		.file 3 "C:/Program Files (x86)/Arm GNU Toolchain arm-none-eabi/13.3 rel1/arm-none-eabi/include/sy
 2568              		.file 4 "libraries/CMSIS/Device/ST/STM32F4xx/include/stm32f4xx.h"
 2569              		.file 5 "libraries/STM32F4xx_StdPeriph_Driver/inc/stm32f4xx_fmc.h"
ARM GAS  C:\Users\ktkuru\AppData\Local\Temp\cc04RWjJ.s 			page 76


DEFINED SYMBOLS
                            *ABS*:00000000 stm32f4xx_fmc.c
C:\Users\ktkuru\AppData\Local\Temp\cc04RWjJ.s:21     .text.FMC_NORSRAMDeInit:00000000 $t
C:\Users\ktkuru\AppData\Local\Temp\cc04RWjJ.s:27     .text.FMC_NORSRAMDeInit:00000000 FMC_NORSRAMDeInit
C:\Users\ktkuru\AppData\Local\Temp\cc04RWjJ.s:75     .text.FMC_NORSRAMInit:00000000 $t
C:\Users\ktkuru\AppData\Local\Temp\cc04RWjJ.s:81     .text.FMC_NORSRAMInit:00000000 FMC_NORSRAMInit
C:\Users\ktkuru\AppData\Local\Temp\cc04RWjJ.s:356    .text.FMC_NORSRAMInit:00000110 $d
C:\Users\ktkuru\AppData\Local\Temp\cc04RWjJ.s:362    .text.FMC_NORSRAMStructInit:00000000 $t
C:\Users\ktkuru\AppData\Local\Temp\cc04RWjJ.s:368    .text.FMC_NORSRAMStructInit:00000000 FMC_NORSRAMStructInit
C:\Users\ktkuru\AppData\Local\Temp\cc04RWjJ.s:435    .text.FMC_NORSRAMStructInit:00000034 $d
C:\Users\ktkuru\AppData\Local\Temp\cc04RWjJ.s:2556   .rodata.FMC_DefaultTimingStruct:00000000 FMC_DefaultTimingStruct
C:\Users\ktkuru\AppData\Local\Temp\cc04RWjJ.s:440    .text.FMC_NORSRAMCmd:00000000 $t
C:\Users\ktkuru\AppData\Local\Temp\cc04RWjJ.s:446    .text.FMC_NORSRAMCmd:00000000 FMC_NORSRAMCmd
C:\Users\ktkuru\AppData\Local\Temp\cc04RWjJ.s:482    .text.FMC_NORSRAMCmd:00000028 $d
C:\Users\ktkuru\AppData\Local\Temp\cc04RWjJ.s:487    .text.FMC_NANDDeInit:00000000 $t
C:\Users\ktkuru\AppData\Local\Temp\cc04RWjJ.s:493    .text.FMC_NANDDeInit:00000000 FMC_NANDDeInit
C:\Users\ktkuru\AppData\Local\Temp\cc04RWjJ.s:546    .text.FMC_NANDInit:00000000 $t
C:\Users\ktkuru\AppData\Local\Temp\cc04RWjJ.s:552    .text.FMC_NANDInit:00000000 FMC_NANDInit
C:\Users\ktkuru\AppData\Local\Temp\cc04RWjJ.s:755    .text.FMC_NANDInit:000000b4 $d
C:\Users\ktkuru\AppData\Local\Temp\cc04RWjJ.s:760    .text.FMC_NANDStructInit:00000000 $t
C:\Users\ktkuru\AppData\Local\Temp\cc04RWjJ.s:766    .text.FMC_NANDStructInit:00000000 FMC_NANDStructInit
C:\Users\ktkuru\AppData\Local\Temp\cc04RWjJ.s:844    .text.FMC_NANDCmd:00000000 $t
C:\Users\ktkuru\AppData\Local\Temp\cc04RWjJ.s:850    .text.FMC_NANDCmd:00000000 FMC_NANDCmd
C:\Users\ktkuru\AppData\Local\Temp\cc04RWjJ.s:915    .text.FMC_NANDCmd:0000004c $d
C:\Users\ktkuru\AppData\Local\Temp\cc04RWjJ.s:920    .text.FMC_NANDECCCmd:00000000 $t
C:\Users\ktkuru\AppData\Local\Temp\cc04RWjJ.s:926    .text.FMC_NANDECCCmd:00000000 FMC_NANDECCCmd
C:\Users\ktkuru\AppData\Local\Temp\cc04RWjJ.s:991    .text.FMC_NANDECCCmd:0000004c $d
C:\Users\ktkuru\AppData\Local\Temp\cc04RWjJ.s:996    .text.FMC_GetECC:00000000 $t
C:\Users\ktkuru\AppData\Local\Temp\cc04RWjJ.s:1002   .text.FMC_GetECC:00000000 FMC_GetECC
C:\Users\ktkuru\AppData\Local\Temp\cc04RWjJ.s:1036   .text.FMC_PCCARDDeInit:00000000 $t
C:\Users\ktkuru\AppData\Local\Temp\cc04RWjJ.s:1042   .text.FMC_PCCARDDeInit:00000000 FMC_PCCARDDeInit
C:\Users\ktkuru\AppData\Local\Temp\cc04RWjJ.s:1074   .text.FMC_PCCARDInit:00000000 $t
C:\Users\ktkuru\AppData\Local\Temp\cc04RWjJ.s:1080   .text.FMC_PCCARDInit:00000000 FMC_PCCARDInit
C:\Users\ktkuru\AppData\Local\Temp\cc04RWjJ.s:1226   .text.FMC_PCCARDStructInit:00000000 $t
C:\Users\ktkuru\AppData\Local\Temp\cc04RWjJ.s:1232   .text.FMC_PCCARDStructInit:00000000 FMC_PCCARDStructInit
C:\Users\ktkuru\AppData\Local\Temp\cc04RWjJ.s:1317   .text.FMC_PCCARDCmd:00000000 $t
C:\Users\ktkuru\AppData\Local\Temp\cc04RWjJ.s:1323   .text.FMC_PCCARDCmd:00000000 FMC_PCCARDCmd
C:\Users\ktkuru\AppData\Local\Temp\cc04RWjJ.s:1357   .text.FMC_PCCARDCmd:00000028 $d
C:\Users\ktkuru\AppData\Local\Temp\cc04RWjJ.s:1362   .text.FMC_SDRAMDeInit:00000000 $t
C:\Users\ktkuru\AppData\Local\Temp\cc04RWjJ.s:1368   .text.FMC_SDRAMDeInit:00000000 FMC_SDRAMDeInit
C:\Users\ktkuru\AppData\Local\Temp\cc04RWjJ.s:1408   .text.FMC_SDRAMDeInit:00000024 $d
C:\Users\ktkuru\AppData\Local\Temp\cc04RWjJ.s:1413   .text.FMC_SDRAMInit:00000000 $t
C:\Users\ktkuru\AppData\Local\Temp\cc04RWjJ.s:1419   .text.FMC_SDRAMInit:00000000 FMC_SDRAMInit
C:\Users\ktkuru\AppData\Local\Temp\cc04RWjJ.s:1715   .text.FMC_SDRAMInit:00000114 $d
C:\Users\ktkuru\AppData\Local\Temp\cc04RWjJ.s:1720   .text.FMC_SDRAMStructInit:00000000 $t
C:\Users\ktkuru\AppData\Local\Temp\cc04RWjJ.s:1726   .text.FMC_SDRAMStructInit:00000000 FMC_SDRAMStructInit
C:\Users\ktkuru\AppData\Local\Temp\cc04RWjJ.s:1810   .text.FMC_SDRAMCmdConfig:00000000 $t
C:\Users\ktkuru\AppData\Local\Temp\cc04RWjJ.s:1816   .text.FMC_SDRAMCmdConfig:00000000 FMC_SDRAMCmdConfig
C:\Users\ktkuru\AppData\Local\Temp\cc04RWjJ.s:1856   .text.FMC_SDRAMCmdConfig:0000001c $d
C:\Users\ktkuru\AppData\Local\Temp\cc04RWjJ.s:1861   .text.FMC_GetModeStatus:00000000 $t
C:\Users\ktkuru\AppData\Local\Temp\cc04RWjJ.s:1867   .text.FMC_GetModeStatus:00000000 FMC_GetModeStatus
C:\Users\ktkuru\AppData\Local\Temp\cc04RWjJ.s:1908   .text.FMC_GetModeStatus:00000018 $d
C:\Users\ktkuru\AppData\Local\Temp\cc04RWjJ.s:1913   .text.FMC_SetRefreshCount:00000000 $t
C:\Users\ktkuru\AppData\Local\Temp\cc04RWjJ.s:1919   .text.FMC_SetRefreshCount:00000000 FMC_SetRefreshCount
C:\Users\ktkuru\AppData\Local\Temp\cc04RWjJ.s:1940   .text.FMC_SetRefreshCount:0000000c $d
C:\Users\ktkuru\AppData\Local\Temp\cc04RWjJ.s:1945   .text.FMC_SetAutoRefresh_Number:00000000 $t
C:\Users\ktkuru\AppData\Local\Temp\cc04RWjJ.s:1951   .text.FMC_SetAutoRefresh_Number:00000000 FMC_SetAutoRefresh_Number
ARM GAS  C:\Users\ktkuru\AppData\Local\Temp\cc04RWjJ.s 			page 77


C:\Users\ktkuru\AppData\Local\Temp\cc04RWjJ.s:1972   .text.FMC_SetAutoRefresh_Number:0000000c $d
C:\Users\ktkuru\AppData\Local\Temp\cc04RWjJ.s:1977   .text.FMC_SDRAMWriteProtectionConfig:00000000 $t
C:\Users\ktkuru\AppData\Local\Temp\cc04RWjJ.s:1983   .text.FMC_SDRAMWriteProtectionConfig:00000000 FMC_SDRAMWriteProtectionConfig
C:\Users\ktkuru\AppData\Local\Temp\cc04RWjJ.s:2027   .text.FMC_ITConfig:00000000 $t
C:\Users\ktkuru\AppData\Local\Temp\cc04RWjJ.s:2033   .text.FMC_ITConfig:00000000 FMC_ITConfig
C:\Users\ktkuru\AppData\Local\Temp\cc04RWjJ.s:2169   .text.FMC_ITConfig:00000098 $d
C:\Users\ktkuru\AppData\Local\Temp\cc04RWjJ.s:2174   .text.FMC_GetFlagStatus:00000000 $t
C:\Users\ktkuru\AppData\Local\Temp\cc04RWjJ.s:2180   .text.FMC_GetFlagStatus:00000000 FMC_GetFlagStatus
C:\Users\ktkuru\AppData\Local\Temp\cc04RWjJ.s:2259   .text.FMC_GetFlagStatus:0000003c $d
C:\Users\ktkuru\AppData\Local\Temp\cc04RWjJ.s:2264   .text.FMC_ClearFlag:00000000 $t
C:\Users\ktkuru\AppData\Local\Temp\cc04RWjJ.s:2270   .text.FMC_ClearFlag:00000000 FMC_ClearFlag
C:\Users\ktkuru\AppData\Local\Temp\cc04RWjJ.s:2331   .text.FMC_ClearFlag:00000050 $d
C:\Users\ktkuru\AppData\Local\Temp\cc04RWjJ.s:2336   .text.FMC_GetITStatus:00000000 $t
C:\Users\ktkuru\AppData\Local\Temp\cc04RWjJ.s:2342   .text.FMC_GetITStatus:00000000 FMC_GetITStatus
C:\Users\ktkuru\AppData\Local\Temp\cc04RWjJ.s:2475   .text.FMC_GetITStatus:00000060 $d
C:\Users\ktkuru\AppData\Local\Temp\cc04RWjJ.s:2480   .text.FMC_ClearITPendingBit:00000000 $t
C:\Users\ktkuru\AppData\Local\Temp\cc04RWjJ.s:2486   .text.FMC_ClearITPendingBit:00000000 FMC_ClearITPendingBit
C:\Users\ktkuru\AppData\Local\Temp\cc04RWjJ.s:2547   .text.FMC_ClearITPendingBit:00000050 $d
C:\Users\ktkuru\AppData\Local\Temp\cc04RWjJ.s:2553   .rodata.FMC_DefaultTimingStruct:00000000 $d

NO UNDEFINED SYMBOLS
