ARM GAS  /tmp/ccGyov29.s 			page 1


   1              		.cpu cortex-m4
   2              		.eabi_attribute 27, 1
   3              		.eabi_attribute 28, 1
   4              		.eabi_attribute 20, 1
   5              		.eabi_attribute 21, 1
   6              		.eabi_attribute 23, 3
   7              		.eabi_attribute 24, 1
   8              		.eabi_attribute 25, 1
   9              		.eabi_attribute 26, 1
  10              		.eabi_attribute 30, 1
  11              		.eabi_attribute 34, 1
  12              		.eabi_attribute 18, 4
  13              		.file	"usart.c"
  14              		.text
  15              	.Ltext0:
  16              		.cfi_sections	.debug_frame
  17              		.syntax unified
  18              		.global __use_no_semihosting
  19              		
  20              		.thumb
  21              		.syntax unified
  22              		.section	.text._write,"ax",%progbits
  23              		.align	1
  24              		.global	_write
  25              		.arch armv7e-m
  26              		.syntax unified
  27              		.thumb
  28              		.thumb_func
  29              		.fpu fpv4-sp-d16
  31              	_write:
  32              	.LVL0:
  33              	.LFB126:
  34              		.file 1 "SYSTEM/usart/usart.c"
   1:SYSTEM/usart/usart.c **** #include "sys.h"
   2:SYSTEM/usart/usart.c **** #include "usart.h"	 
   3:SYSTEM/usart/usart.c **** 
   4:SYSTEM/usart/usart.c **** int16_t RX_sign;
   5:SYSTEM/usart/usart.c **** 
   6:SYSTEM/usart/usart.c **** #include <stdarg.h>
   7:SYSTEM/usart/usart.c **** 
   8:SYSTEM/usart/usart.c **** //ÂÆö‰πâkeilÂÆèÔºåÂú®MDKÁºñËØëÁéØÂ¢É‰∏ãÊîØÊåÅprintfÁ≠âÂáΩÊï∞
   9:SYSTEM/usart/usart.c **** 
  10:SYSTEM/usart/usart.c **** 	#if 1
  11:SYSTEM/usart/usart.c **** 		#ifdef  __CC_ARM
  12:SYSTEM/usart/usart.c **** 			#pragma import(__use_no_semihosting)
  13:SYSTEM/usart/usart.c **** 			struct __FILE 
  14:SYSTEM/usart/usart.c **** 			{ 
  15:SYSTEM/usart/usart.c **** 				int handle; 
  16:SYSTEM/usart/usart.c **** 			}; 
  17:SYSTEM/usart/usart.c **** 			#elif defined ( __GNUC__ ) || defined (__clang__)
  18:SYSTEM/usart/usart.c **** 			__asm (".global __use_no_semihosting\n\t");   
  19:SYSTEM/usart/usart.c **** 		#endif
  20:SYSTEM/usart/usart.c **** 	#endif
  21:SYSTEM/usart/usart.c **** 
  22:SYSTEM/usart/usart.c **** 
  23:SYSTEM/usart/usart.c **** /*arm-gccÁºñËØëÁéØÂ¢É‰∏ãÂÆûÁé∞printfÂáΩÊï∞ÁöÑÈáçÂÆöÂêë  Â§±Ë¥•*/
  24:SYSTEM/usart/usart.c **** /*printfÂáΩÊï∞ÁöÑÊõø‰ª£ÂìÅ*/
ARM GAS  /tmp/ccGyov29.s 			page 2


  25:SYSTEM/usart/usart.c **** 
  26:SYSTEM/usart/usart.c **** #ifdef __GNUC__
  27:SYSTEM/usart/usart.c **** 
  28:SYSTEM/usart/usart.c **** 
  29:SYSTEM/usart/usart.c **** int _write (int fd, char *pBuffer, int size)
  30:SYSTEM/usart/usart.c **** {
  35              		.loc 1 30 1 view -0
  36              		.cfi_startproc
  37              		@ args = 0, pretend = 0, frame = 0
  38              		@ frame_needed = 0, uses_anonymous_args = 0
  39              		.loc 1 30 1 is_stmt 0 view .LVU1
  40 0000 1046     		mov	r0, r2
  41              	.LVL1:
  31:SYSTEM/usart/usart.c ****     for (int i = 0; i < size; i++)
  42              		.loc 1 31 5 is_stmt 1 view .LVU2
  43              	.LBB2:
  44              		.loc 1 31 10 view .LVU3
  45              		.loc 1 31 14 is_stmt 0 view .LVU4
  46 0002 4FF0000C 		mov	ip, #0
  47              	.LVL2:
  48              		.loc 1 31 21 is_stmt 1 view .LVU5
  49              		.loc 1 31 5 is_stmt 0 view .LVU6
  50 0006 9445     		cmp	ip, r2
  51 0008 10DA     		bge	.L8
  52              	.LBE2:
  30:SYSTEM/usart/usart.c ****     for (int i = 0; i < size; i++)
  53              		.loc 1 30 1 view .LVU7
  54 000a 00B5     		push	{lr}
  55              	.LCFI0:
  56              		.cfi_def_cfa_offset 4
  57              		.cfi_offset 14, -4
  58              	.L3:
  59              	.LBB3:
  32:SYSTEM/usart/usart.c ****     {
  33:SYSTEM/usart/usart.c ****         while((USART1->SR&0X40)==0);//Á≠âÂæÖ‰∏ä‰∏ÄÊ¨°‰∏≤Âè£Êï∞ÊçÆÂèëÈÄÅÂÆåÊàê
  60              		.loc 1 33 36 is_stmt 1 discriminator 1 view .LVU8
  61              		.loc 1 33 14 discriminator 1 view .LVU9
  62              		.loc 1 33 22 is_stmt 0 discriminator 1 view .LVU10
  63 000c 084B     		ldr	r3, .L9
  64 000e 1B88     		ldrh	r3, [r3]
  65              		.loc 1 33 14 discriminator 1 view .LVU11
  66 0010 13F0400F 		tst	r3, #64
  67 0014 FAD0     		beq	.L3
  34:SYSTEM/usart/usart.c ****         USART1->DR = (uint8_t) pBuffer[i];       //ÂÜôDR,‰∏≤Âè£1Â∞ÜÂèëÈÄÅÊï∞ÊçÆ
  68              		.loc 1 34 9 is_stmt 1 discriminator 2 view .LVU12
  69              		.loc 1 34 22 is_stmt 0 discriminator 2 view .LVU13
  70 0016 11F80CE0 		ldrb	lr, [r1, ip]	@ zero_extendqisi2
  71              		.loc 1 34 20 discriminator 2 view .LVU14
  72 001a 054B     		ldr	r3, .L9
  73 001c A3F804E0 		strh	lr, [r3, #4]	@ movhi
  31:SYSTEM/usart/usart.c ****     {
  74              		.loc 1 31 31 is_stmt 1 discriminator 2 view .LVU15
  31:SYSTEM/usart/usart.c ****     {
  75              		.loc 1 31 32 is_stmt 0 discriminator 2 view .LVU16
  76 0020 0CF1010C 		add	ip, ip, #1
  77              	.LVL3:
  31:SYSTEM/usart/usart.c ****     {
ARM GAS  /tmp/ccGyov29.s 			page 3


  78              		.loc 1 31 21 is_stmt 1 discriminator 2 view .LVU17
  31:SYSTEM/usart/usart.c ****     {
  79              		.loc 1 31 5 is_stmt 0 discriminator 2 view .LVU18
  80 0024 8445     		cmp	ip, r0
  81 0026 F1DB     		blt	.L3
  82              	.LBE3:
  35:SYSTEM/usart/usart.c ****     }
  36:SYSTEM/usart/usart.c ****     return size;
  83              		.loc 1 36 5 is_stmt 1 view .LVU19
  37:SYSTEM/usart/usart.c **** }
  84              		.loc 1 37 1 is_stmt 0 view .LVU20
  85 0028 5DF804FB 		ldr	pc, [sp], #4
  86              	.LVL4:
  87              	.L8:
  88              	.LCFI1:
  89              		.cfi_def_cfa_offset 0
  90              		.cfi_restore 14
  91              		.loc 1 37 1 view .LVU21
  92 002c 7047     		bx	lr
  93              	.L10:
  94 002e 00BF     		.align	2
  95              	.L9:
  96 0030 00100140 		.word	1073811456
  97              		.cfi_endproc
  98              	.LFE126:
 100              		.section	.text.USART1_Init,"ax",%progbits
 101              		.align	1
 102              		.global	USART1_Init
 103              		.syntax unified
 104              		.thumb
 105              		.thumb_func
 106              		.fpu fpv4-sp-d16
 108              	USART1_Init:
 109              	.LVL5:
 110              	.LFB127:
  38:SYSTEM/usart/usart.c **** #endif
  39:SYSTEM/usart/usart.c **** 
  40:SYSTEM/usart/usart.c ****  
  41:SYSTEM/usart/usart.c **** #if EN_USART1_RX   
  42:SYSTEM/usart/usart.c ****   	
  43:SYSTEM/usart/usart.c **** u8 USART_RX_BUF[USART_REC_LEN];     
  44:SYSTEM/usart/usart.c **** 
  45:SYSTEM/usart/usart.c **** u16 USART_RX_STA=0;         
  46:SYSTEM/usart/usart.c **** 
  47:SYSTEM/usart/usart.c **** int i=0;
  48:SYSTEM/usart/usart.c **** 
  49:SYSTEM/usart/usart.c **** void USART1_Init(u32 bound)
  50:SYSTEM/usart/usart.c **** {
 111              		.loc 1 50 1 is_stmt 1 view -0
 112              		.cfi_startproc
 113              		@ args = 0, pretend = 0, frame = 24
 114              		@ frame_needed = 0, uses_anonymous_args = 0
 115              		.loc 1 50 1 is_stmt 0 view .LVU23
 116 0000 F0B5     		push	{r4, r5, r6, r7, lr}
 117              	.LCFI2:
 118              		.cfi_def_cfa_offset 20
 119              		.cfi_offset 4, -20
ARM GAS  /tmp/ccGyov29.s 			page 4


 120              		.cfi_offset 5, -16
 121              		.cfi_offset 6, -12
 122              		.cfi_offset 7, -8
 123              		.cfi_offset 14, -4
 124 0002 87B0     		sub	sp, sp, #28
 125              	.LCFI3:
 126              		.cfi_def_cfa_offset 48
 127 0004 0646     		mov	r6, r0
  51:SYSTEM/usart/usart.c **** 	GPIO_InitTypeDef GPIO_InitStructure;
 128              		.loc 1 51 2 is_stmt 1 view .LVU24
  52:SYSTEM/usart/usart.c **** 	USART_InitTypeDef USART_InitStructure;
 129              		.loc 1 52 2 view .LVU25
  53:SYSTEM/usart/usart.c **** 	NVIC_InitTypeDef NVIC_InitStructure;
 130              		.loc 1 53 2 view .LVU26
  54:SYSTEM/usart/usart.c **** 	
  55:SYSTEM/usart/usart.c **** 	RCC_AHB1PeriphClockCmd(RCC_AHB1Periph_GPIOA, ENABLE); //‰ΩøËÉΩGPIOAÊó∂Èíü
 131              		.loc 1 55 2 view .LVU27
 132 0006 0121     		movs	r1, #1
 133 0008 0846     		mov	r0, r1
 134              	.LVL6:
 135              		.loc 1 55 2 is_stmt 0 view .LVU28
 136 000a FFF7FEFF 		bl	RCC_AHB1PeriphClockCmd
 137              	.LVL7:
  56:SYSTEM/usart/usart.c **** 	RCC_APB2PeriphClockCmd(RCC_APB2Periph_USART1, ENABLE); //‰ΩøËÉΩUSART1Êó∂Èíü
 138              		.loc 1 56 2 is_stmt 1 view .LVU29
 139 000e 0121     		movs	r1, #1
 140 0010 1020     		movs	r0, #16
 141 0012 FFF7FEFF 		bl	RCC_APB2PeriphClockCmd
 142              	.LVL8:
  57:SYSTEM/usart/usart.c **** 	
  58:SYSTEM/usart/usart.c **** 	//‰∏≤Âè£1ÂØπÂ∫îÂºïËÑöÂ§çÁî®Êò†Â∞Ñ
  59:SYSTEM/usart/usart.c **** 	GPIO_PinAFConfig(GPIOA, GPIO_PinSource9, GPIO_AF_USART1); //GPIOA9Â§çÁî®‰∏∫USART1
 143              		.loc 1 59 2 view .LVU30
 144 0016 1E4F     		ldr	r7, .L13
 145 0018 0722     		movs	r2, #7
 146 001a 0921     		movs	r1, #9
 147 001c 3846     		mov	r0, r7
 148 001e FFF7FEFF 		bl	GPIO_PinAFConfig
 149              	.LVL9:
  60:SYSTEM/usart/usart.c **** 	GPIO_PinAFConfig(GPIOA, GPIO_PinSource10, GPIO_AF_USART1); //GPIOA10Â§çÁî®‰∏∫USART1
 150              		.loc 1 60 2 view .LVU31
 151 0022 0722     		movs	r2, #7
 152 0024 0A21     		movs	r1, #10
 153 0026 3846     		mov	r0, r7
 154 0028 FFF7FEFF 		bl	GPIO_PinAFConfig
 155              	.LVL10:
  61:SYSTEM/usart/usart.c **** 	
  62:SYSTEM/usart/usart.c **** 	//USART1Á´ØÂè£ÈÖçÁΩÆ
  63:SYSTEM/usart/usart.c **** 	GPIO_InitStructure.GPIO_Pin = GPIO_Pin_9 | GPIO_Pin_10; //GPIOA9‰∏éGPIOA10
 156              		.loc 1 63 2 view .LVU32
 157              		.loc 1 63 30 is_stmt 0 view .LVU33
 158 002c 4FF4C063 		mov	r3, #1536
 159 0030 0493     		str	r3, [sp, #16]
  64:SYSTEM/usart/usart.c **** 	GPIO_InitStructure.GPIO_Mode = GPIO_Mode_AF; //Â§çÁî®ÂäüËÉΩ
 160              		.loc 1 64 2 is_stmt 1 view .LVU34
 161              		.loc 1 64 31 is_stmt 0 view .LVU35
 162 0032 0223     		movs	r3, #2
ARM GAS  /tmp/ccGyov29.s 			page 5


 163 0034 8DF81430 		strb	r3, [sp, #20]
  65:SYSTEM/usart/usart.c **** 	GPIO_InitStructure.GPIO_Speed = GPIO_Speed_50MHz; //ÈÄüÂ∫¶50MHz
 164              		.loc 1 65 2 is_stmt 1 view .LVU36
 165              		.loc 1 65 32 is_stmt 0 view .LVU37
 166 0038 8DF81530 		strb	r3, [sp, #21]
  66:SYSTEM/usart/usart.c **** 	GPIO_InitStructure.GPIO_OType = GPIO_OType_PP; //Êé®ÊåΩÂ§çÁî®ËæìÂá∫
 167              		.loc 1 66 2 is_stmt 1 view .LVU38
 168              		.loc 1 66 32 is_stmt 0 view .LVU39
 169 003c 0024     		movs	r4, #0
 170 003e 8DF81640 		strb	r4, [sp, #22]
  67:SYSTEM/usart/usart.c **** 	GPIO_InitStructure.GPIO_PuPd = GPIO_PuPd_UP; //‰∏äÊãâ
 171              		.loc 1 67 2 is_stmt 1 view .LVU40
 172              		.loc 1 67 31 is_stmt 0 view .LVU41
 173 0042 0125     		movs	r5, #1
 174 0044 8DF81750 		strb	r5, [sp, #23]
  68:SYSTEM/usart/usart.c **** 	GPIO_Init(GPIOA, &GPIO_InitStructure); //ÂàùÂßãÂåñPA9ÔºåPA10
 175              		.loc 1 68 2 is_stmt 1 view .LVU42
 176 0048 04A9     		add	r1, sp, #16
 177 004a 3846     		mov	r0, r7
 178 004c FFF7FEFF 		bl	GPIO_Init
 179              	.LVL11:
  69:SYSTEM/usart/usart.c **** 	
  70:SYSTEM/usart/usart.c **** 	//USART1 ÂàùÂßãÂåñËÆæÁΩÆ
  71:SYSTEM/usart/usart.c **** 	USART_InitStructure.USART_BaudRate = bound; //Ê≥¢ÁâπÁéáËÆæÁΩÆ
 180              		.loc 1 71 2 view .LVU43
 181              		.loc 1 71 37 is_stmt 0 view .LVU44
 182 0050 0096     		str	r6, [sp]
  72:SYSTEM/usart/usart.c **** 	USART_InitStructure.USART_WordLength = USART_WordLength_8b; //Â≠óÈïø‰∏∫8‰ΩçÊï∞ÊçÆÊ†ºÂºè
 183              		.loc 1 72 2 is_stmt 1 view .LVU45
 184              		.loc 1 72 39 is_stmt 0 view .LVU46
 185 0052 ADF80440 		strh	r4, [sp, #4]	@ movhi
  73:SYSTEM/usart/usart.c **** 	USART_InitStructure.USART_StopBits = USART_StopBits_1; //‰∏Ä‰∏™ÂÅúÊ≠¢‰Ωç
 186              		.loc 1 73 2 is_stmt 1 view .LVU47
 187              		.loc 1 73 37 is_stmt 0 view .LVU48
 188 0056 ADF80640 		strh	r4, [sp, #6]	@ movhi
  74:SYSTEM/usart/usart.c **** 	USART_InitStructure.USART_Parity = USART_Parity_No; //Êó†Â•áÂÅ∂Ê†°È™å‰Ωç
 189              		.loc 1 74 2 is_stmt 1 view .LVU49
 190              		.loc 1 74 35 is_stmt 0 view .LVU50
 191 005a ADF80840 		strh	r4, [sp, #8]	@ movhi
  75:SYSTEM/usart/usart.c **** 	USART_InitStructure.USART_HardwareFlowControl = USART_HardwareFlowControl_None; //Êó†Á°¨‰ª∂Êï∞ÊçÆÊ
 192              		.loc 1 75 2 is_stmt 1 view .LVU51
 193              		.loc 1 75 48 is_stmt 0 view .LVU52
 194 005e ADF80C40 		strh	r4, [sp, #12]	@ movhi
  76:SYSTEM/usart/usart.c **** 	USART_InitStructure.USART_Mode = USART_Mode_Rx | USART_Mode_Tx; //Êî∂ÂèëÊ®°Âºè
 195              		.loc 1 76 2 is_stmt 1 view .LVU53
 196              		.loc 1 76 33 is_stmt 0 view .LVU54
 197 0062 0C23     		movs	r3, #12
 198 0064 ADF80A30 		strh	r3, [sp, #10]	@ movhi
  77:SYSTEM/usart/usart.c **** 	
  78:SYSTEM/usart/usart.c **** 	USART_Init(USART1, &USART_InitStructure); //ÂàùÂßãÂåñ‰∏≤Âè£1
 199              		.loc 1 78 2 is_stmt 1 view .LVU55
 200 0068 04F18044 		add	r4, r4, #1073741824
 201 006c 04F58834 		add	r4, r4, #69632
 202 0070 6946     		mov	r1, sp
 203 0072 2046     		mov	r0, r4
 204 0074 FFF7FEFF 		bl	USART_Init
 205              	.LVL12:
ARM GAS  /tmp/ccGyov29.s 			page 6


  79:SYSTEM/usart/usart.c **** 	USART_ITConfig(USART1, USART_IT_RXNE, ENABLE); //ÂºÄÂêØ‰∏≤Âè£Êé•Êî∂‰∏≠Êñ≠
 206              		.loc 1 79 2 view .LVU56
 207 0078 2A46     		mov	r2, r5
 208 007a 40F22551 		movw	r1, #1317
 209 007e 2046     		mov	r0, r4
 210 0080 FFF7FEFF 		bl	USART_ITConfig
 211              	.LVL13:
  80:SYSTEM/usart/usart.c **** 	USART_Cmd(USART1, ENABLE); //‰ΩøËÉΩ‰∏≤Âè£1
 212              		.loc 1 80 2 view .LVU57
 213 0084 2946     		mov	r1, r5
 214 0086 2046     		mov	r0, r4
 215 0088 FFF7FEFF 		bl	USART_Cmd
 216              	.LVL14:
  81:SYSTEM/usart/usart.c **** }
 217              		.loc 1 81 1 is_stmt 0 view .LVU58
 218 008c 07B0     		add	sp, sp, #28
 219              	.LCFI4:
 220              		.cfi_def_cfa_offset 20
 221              		@ sp needed
 222 008e F0BD     		pop	{r4, r5, r6, r7, pc}
 223              	.LVL15:
 224              	.L14:
 225              		.loc 1 81 1 view .LVU59
 226              		.align	2
 227              	.L13:
 228 0090 00000240 		.word	1073872896
 229              		.cfi_endproc
 230              	.LFE127:
 232              		.section	.text.USART2_Init,"ax",%progbits
 233              		.align	1
 234              		.global	USART2_Init
 235              		.syntax unified
 236              		.thumb
 237              		.thumb_func
 238              		.fpu fpv4-sp-d16
 240              	USART2_Init:
 241              	.LVL16:
 242              	.LFB128:
  82:SYSTEM/usart/usart.c **** 
  83:SYSTEM/usart/usart.c **** /* ‰∏≤Âè£2ÂàùÂßãÂåñ  */
  84:SYSTEM/usart/usart.c **** void USART2_Init(u32 bound)
  85:SYSTEM/usart/usart.c **** {
 243              		.loc 1 85 1 is_stmt 1 view -0
 244              		.cfi_startproc
 245              		@ args = 0, pretend = 0, frame = 24
 246              		@ frame_needed = 0, uses_anonymous_args = 0
 247              		.loc 1 85 1 is_stmt 0 view .LVU61
 248 0000 2DE9F041 		push	{r4, r5, r6, r7, r8, lr}
 249              	.LCFI5:
 250              		.cfi_def_cfa_offset 24
 251              		.cfi_offset 4, -24
 252              		.cfi_offset 5, -20
 253              		.cfi_offset 6, -16
 254              		.cfi_offset 7, -12
 255              		.cfi_offset 8, -8
 256              		.cfi_offset 14, -4
 257 0004 86B0     		sub	sp, sp, #24
ARM GAS  /tmp/ccGyov29.s 			page 7


 258              	.LCFI6:
 259              		.cfi_def_cfa_offset 48
 260 0006 0646     		mov	r6, r0
  86:SYSTEM/usart/usart.c **** 	GPIO_InitTypeDef GPIO_InitStructure;
 261              		.loc 1 86 2 is_stmt 1 view .LVU62
  87:SYSTEM/usart/usart.c **** 	USART_InitTypeDef USART_InitStructure;
 262              		.loc 1 87 2 view .LVU63
  88:SYSTEM/usart/usart.c **** 	NVIC_InitTypeDef NVIC_InitStructure;
 263              		.loc 1 88 2 view .LVU64
  89:SYSTEM/usart/usart.c **** 	
  90:SYSTEM/usart/usart.c **** 	RCC_AHB1PeriphClockCmd(RCC_AHB1Periph_GPIOA, ENABLE); //‰ΩøËÉΩGPIOAÊó∂Èíü
 264              		.loc 1 90 2 view .LVU65
 265 0008 0121     		movs	r1, #1
 266 000a 0846     		mov	r0, r1
 267              	.LVL17:
 268              		.loc 1 90 2 is_stmt 0 view .LVU66
 269 000c FFF7FEFF 		bl	RCC_AHB1PeriphClockCmd
 270              	.LVL18:
  91:SYSTEM/usart/usart.c **** 	RCC_APB1PeriphClockCmd(RCC_APB1Periph_USART2, ENABLE); //‰ΩøËÉΩUSART2Êó∂Èíü
 271              		.loc 1 91 2 is_stmt 1 view .LVU67
 272 0010 0121     		movs	r1, #1
 273 0012 4FF40030 		mov	r0, #131072
 274 0016 FFF7FEFF 		bl	RCC_APB1PeriphClockCmd
 275              	.LVL19:
  92:SYSTEM/usart/usart.c **** 	
  93:SYSTEM/usart/usart.c **** 	//‰∏≤Âè£2ÂØπÂ∫îÂºïËÑöÂ§çÁî®Êò†Â∞Ñ
  94:SYSTEM/usart/usart.c **** 	GPIO_PinAFConfig(GPIOA, GPIO_PinSource2, GPIO_AF_USART2); //GPIOA2Â§çÁî®‰∏∫USART2
 276              		.loc 1 94 2 view .LVU68
 277 001a 1D4F     		ldr	r7, .L17
 278 001c 0722     		movs	r2, #7
 279 001e 0221     		movs	r1, #2
 280 0020 3846     		mov	r0, r7
 281 0022 FFF7FEFF 		bl	GPIO_PinAFConfig
 282              	.LVL20:
  95:SYSTEM/usart/usart.c **** 	GPIO_PinAFConfig(GPIOA, GPIO_PinSource3, GPIO_AF_USART2); //GPIOA3Â§çÁî®‰∏∫USART2
 283              		.loc 1 95 2 view .LVU69
 284 0026 0722     		movs	r2, #7
 285 0028 0321     		movs	r1, #3
 286 002a 3846     		mov	r0, r7
 287 002c FFF7FEFF 		bl	GPIO_PinAFConfig
 288              	.LVL21:
  96:SYSTEM/usart/usart.c **** 	
  97:SYSTEM/usart/usart.c **** 	//USART2Á´ØÂè£ÈÖçÁΩÆ
  98:SYSTEM/usart/usart.c **** 	GPIO_InitStructure.GPIO_Pin = GPIO_Pin_2 | GPIO_Pin_3; //GPIOA2‰∏éGPIOA3
 289              		.loc 1 98 2 view .LVU70
 290              		.loc 1 98 30 is_stmt 0 view .LVU71
 291 0030 4FF00C08 		mov	r8, #12
 292 0034 CDF81080 		str	r8, [sp, #16]
  99:SYSTEM/usart/usart.c **** 	GPIO_InitStructure.GPIO_Mode = GPIO_Mode_AF; //Â§çÁî®ÂäüËÉΩ
 293              		.loc 1 99 2 is_stmt 1 view .LVU72
 294              		.loc 1 99 31 is_stmt 0 view .LVU73
 295 0038 0223     		movs	r3, #2
 296 003a 8DF81430 		strb	r3, [sp, #20]
 100:SYSTEM/usart/usart.c **** 	GPIO_InitStructure.GPIO_Speed = GPIO_Speed_50MHz; //ÈÄüÂ∫¶50MHz
 297              		.loc 1 100 2 is_stmt 1 view .LVU74
 298              		.loc 1 100 32 is_stmt 0 view .LVU75
 299 003e 8DF81530 		strb	r3, [sp, #21]
ARM GAS  /tmp/ccGyov29.s 			page 8


 101:SYSTEM/usart/usart.c **** 	GPIO_InitStructure.GPIO_OType = GPIO_OType_PP; //Êé®ÊåΩÂ§çÁî®ËæìÂá∫
 300              		.loc 1 101 2 is_stmt 1 view .LVU76
 301              		.loc 1 101 32 is_stmt 0 view .LVU77
 302 0042 0024     		movs	r4, #0
 303 0044 8DF81640 		strb	r4, [sp, #22]
 102:SYSTEM/usart/usart.c **** 	GPIO_InitStructure.GPIO_PuPd = GPIO_PuPd_UP; //‰∏äÊãâ
 304              		.loc 1 102 2 is_stmt 1 view .LVU78
 305              		.loc 1 102 31 is_stmt 0 view .LVU79
 306 0048 0125     		movs	r5, #1
 307 004a 8DF81750 		strb	r5, [sp, #23]
 103:SYSTEM/usart/usart.c **** 	GPIO_Init(GPIOA, &GPIO_InitStructure); //ÂàùÂßãÂåñPA2ÔºåPA3
 308              		.loc 1 103 2 is_stmt 1 view .LVU80
 309 004e 04A9     		add	r1, sp, #16
 310 0050 3846     		mov	r0, r7
 311 0052 FFF7FEFF 		bl	GPIO_Init
 312              	.LVL22:
 104:SYSTEM/usart/usart.c **** 	
 105:SYSTEM/usart/usart.c **** 	//USART2 ÂàùÂßãÂåñËÆæÁΩÆ
 106:SYSTEM/usart/usart.c **** 	USART_InitStructure.USART_BaudRate = bound; //Ê≥¢ÁâπÁéáËÆæÁΩÆ
 313              		.loc 1 106 2 view .LVU81
 314              		.loc 1 106 37 is_stmt 0 view .LVU82
 315 0056 0096     		str	r6, [sp]
 107:SYSTEM/usart/usart.c **** 	USART_InitStructure.USART_WordLength = USART_WordLength_8b; //Â≠óÈïø‰∏∫8‰ΩçÊï∞ÊçÆÊ†ºÂºè
 316              		.loc 1 107 2 is_stmt 1 view .LVU83
 317              		.loc 1 107 39 is_stmt 0 view .LVU84
 318 0058 ADF80440 		strh	r4, [sp, #4]	@ movhi
 108:SYSTEM/usart/usart.c **** 	USART_InitStructure.USART_StopBits = USART_StopBits_1; //‰∏Ä‰∏™ÂÅúÊ≠¢‰Ωç
 319              		.loc 1 108 2 is_stmt 1 view .LVU85
 320              		.loc 1 108 37 is_stmt 0 view .LVU86
 321 005c ADF80640 		strh	r4, [sp, #6]	@ movhi
 109:SYSTEM/usart/usart.c **** 	USART_InitStructure.USART_Parity = USART_Parity_No; //Êó†Â•áÂÅ∂Ê†°È™å‰Ωç
 322              		.loc 1 109 2 is_stmt 1 view .LVU87
 323              		.loc 1 109 35 is_stmt 0 view .LVU88
 324 0060 ADF80840 		strh	r4, [sp, #8]	@ movhi
 110:SYSTEM/usart/usart.c **** 	USART_InitStructure.USART_HardwareFlowControl = USART_HardwareFlowControl_None; //Êó†Á°¨‰ª∂Êï∞ÊçÆÊ
 325              		.loc 1 110 2 is_stmt 1 view .LVU89
 326              		.loc 1 110 48 is_stmt 0 view .LVU90
 327 0064 ADF80C40 		strh	r4, [sp, #12]	@ movhi
 111:SYSTEM/usart/usart.c **** 	USART_InitStructure.USART_Mode = USART_Mode_Rx | USART_Mode_Tx; //Êî∂ÂèëÊ®°Âºè
 328              		.loc 1 111 2 is_stmt 1 view .LVU91
 329              		.loc 1 111 33 is_stmt 0 view .LVU92
 330 0068 ADF80A80 		strh	r8, [sp, #10]	@ movhi
 112:SYSTEM/usart/usart.c **** 	
 113:SYSTEM/usart/usart.c **** 	USART_Init(USART2, &USART_InitStructure); //ÂàùÂßãÂåñ‰∏≤Âè£2
 331              		.loc 1 113 2 is_stmt 1 view .LVU93
 332 006c 094C     		ldr	r4, .L17+4
 333 006e 6946     		mov	r1, sp
 334 0070 2046     		mov	r0, r4
 335 0072 FFF7FEFF 		bl	USART_Init
 336              	.LVL23:
 114:SYSTEM/usart/usart.c **** 	USART_ITConfig(USART2, USART_IT_RXNE, ENABLE); //ÂºÄÂêØ‰∏≤Âè£Êé•Êî∂‰∏≠Êñ≠
 337              		.loc 1 114 2 view .LVU94
 338 0076 2A46     		mov	r2, r5
 339 0078 40F22551 		movw	r1, #1317
 340 007c 2046     		mov	r0, r4
 341 007e FFF7FEFF 		bl	USART_ITConfig
 342              	.LVL24:
ARM GAS  /tmp/ccGyov29.s 			page 9


 115:SYSTEM/usart/usart.c **** 	USART_Cmd(USART2, ENABLE); //‰ΩøËÉΩ‰∏≤Âè£2
 343              		.loc 1 115 2 view .LVU95
 344 0082 2946     		mov	r1, r5
 345 0084 2046     		mov	r0, r4
 346 0086 FFF7FEFF 		bl	USART_Cmd
 347              	.LVL25:
 116:SYSTEM/usart/usart.c **** }
 348              		.loc 1 116 1 is_stmt 0 view .LVU96
 349 008a 06B0     		add	sp, sp, #24
 350              	.LCFI7:
 351              		.cfi_def_cfa_offset 24
 352              		@ sp needed
 353 008c BDE8F081 		pop	{r4, r5, r6, r7, r8, pc}
 354              	.LVL26:
 355              	.L18:
 356              		.loc 1 116 1 view .LVU97
 357              		.align	2
 358              	.L17:
 359 0090 00000240 		.word	1073872896
 360 0094 00440040 		.word	1073759232
 361              		.cfi_endproc
 362              	.LFE128:
 364              		.section	.text.USART3_Init,"ax",%progbits
 365              		.align	1
 366              		.global	USART3_Init
 367              		.syntax unified
 368              		.thumb
 369              		.thumb_func
 370              		.fpu fpv4-sp-d16
 372              	USART3_Init:
 373              	.LVL27:
 374              	.LFB129:
 117:SYSTEM/usart/usart.c **** 
 118:SYSTEM/usart/usart.c **** 
 119:SYSTEM/usart/usart.c **** 
 120:SYSTEM/usart/usart.c **** /* ‰∏≤Âè£3ÂàùÂßãÂåñ  */
 121:SYSTEM/usart/usart.c **** void USART3_Init(u32 bound)
 122:SYSTEM/usart/usart.c **** {
 375              		.loc 1 122 1 is_stmt 1 view -0
 376              		.cfi_startproc
 377              		@ args = 0, pretend = 0, frame = 24
 378              		@ frame_needed = 0, uses_anonymous_args = 0
 379              		.loc 1 122 1 is_stmt 0 view .LVU99
 380 0000 F0B5     		push	{r4, r5, r6, r7, lr}
 381              	.LCFI8:
 382              		.cfi_def_cfa_offset 20
 383              		.cfi_offset 4, -20
 384              		.cfi_offset 5, -16
 385              		.cfi_offset 6, -12
 386              		.cfi_offset 7, -8
 387              		.cfi_offset 14, -4
 388 0002 87B0     		sub	sp, sp, #28
 389              	.LCFI9:
 390              		.cfi_def_cfa_offset 48
 391 0004 0646     		mov	r6, r0
 123:SYSTEM/usart/usart.c **** 	GPIO_InitTypeDef GPIO_InitStructure;
 392              		.loc 1 123 2 is_stmt 1 view .LVU100
ARM GAS  /tmp/ccGyov29.s 			page 10


 124:SYSTEM/usart/usart.c **** 	USART_InitTypeDef USART_InitStructure;
 393              		.loc 1 124 2 view .LVU101
 125:SYSTEM/usart/usart.c **** 	NVIC_InitTypeDef NVIC_InitStructure;
 394              		.loc 1 125 2 view .LVU102
 126:SYSTEM/usart/usart.c **** 	
 127:SYSTEM/usart/usart.c **** 	RCC_AHB1PeriphClockCmd(RCC_AHB1Periph_GPIOB, ENABLE); //‰ΩøËÉΩGPIOBÊó∂Èíü
 395              		.loc 1 127 2 view .LVU103
 396 0006 0121     		movs	r1, #1
 397 0008 0220     		movs	r0, #2
 398              	.LVL28:
 399              		.loc 1 127 2 is_stmt 0 view .LVU104
 400 000a FFF7FEFF 		bl	RCC_AHB1PeriphClockCmd
 401              	.LVL29:
 128:SYSTEM/usart/usart.c **** 	RCC_APB1PeriphClockCmd(RCC_APB1Periph_USART3, ENABLE); //‰ΩøËÉΩUSART3Êó∂Èíü
 402              		.loc 1 128 2 is_stmt 1 view .LVU105
 403 000e 0121     		movs	r1, #1
 404 0010 4FF48020 		mov	r0, #262144
 405 0014 FFF7FEFF 		bl	RCC_APB1PeriphClockCmd
 406              	.LVL30:
 129:SYSTEM/usart/usart.c **** 	
 130:SYSTEM/usart/usart.c **** 	//‰∏≤Âè£3ÂØπÂ∫îÂºïËÑöÂ§çÁî®Êò†Â∞Ñ
 131:SYSTEM/usart/usart.c **** 	GPIO_PinAFConfig(GPIOB, GPIO_PinSource10, GPIO_AF_USART3); //GPIOB10Â§çÁî®‰∏∫USART3
 407              		.loc 1 131 2 view .LVU106
 408 0018 1C4F     		ldr	r7, .L21
 409 001a 0722     		movs	r2, #7
 410 001c 0A21     		movs	r1, #10
 411 001e 3846     		mov	r0, r7
 412 0020 FFF7FEFF 		bl	GPIO_PinAFConfig
 413              	.LVL31:
 132:SYSTEM/usart/usart.c **** 	GPIO_PinAFConfig(GPIOB, GPIO_PinSource11, GPIO_AF_USART3); //GPIOB11Â§çÁî®‰∏∫USART3
 414              		.loc 1 132 2 view .LVU107
 415 0024 0722     		movs	r2, #7
 416 0026 0B21     		movs	r1, #11
 417 0028 3846     		mov	r0, r7
 418 002a FFF7FEFF 		bl	GPIO_PinAFConfig
 419              	.LVL32:
 133:SYSTEM/usart/usart.c **** 	
 134:SYSTEM/usart/usart.c **** 	//USART3Á´ØÂè£ÈÖçÁΩÆ
 135:SYSTEM/usart/usart.c **** 	GPIO_InitStructure.GPIO_Pin = GPIO_Pin_10 | GPIO_Pin_11; //GPIOB10‰∏éGPIOB11
 420              		.loc 1 135 2 view .LVU108
 421              		.loc 1 135 30 is_stmt 0 view .LVU109
 422 002e 4FF44063 		mov	r3, #3072
 423 0032 0493     		str	r3, [sp, #16]
 136:SYSTEM/usart/usart.c **** 	GPIO_InitStructure.GPIO_Mode = GPIO_Mode_AF; //Â§çÁî®ÂäüËÉΩ
 424              		.loc 1 136 2 is_stmt 1 view .LVU110
 425              		.loc 1 136 31 is_stmt 0 view .LVU111
 426 0034 0223     		movs	r3, #2
 427 0036 8DF81430 		strb	r3, [sp, #20]
 137:SYSTEM/usart/usart.c **** 	GPIO_InitStructure.GPIO_Speed = GPIO_Speed_50MHz; //ÈÄüÂ∫¶50MHz
 428              		.loc 1 137 2 is_stmt 1 view .LVU112
 429              		.loc 1 137 32 is_stmt 0 view .LVU113
 430 003a 8DF81530 		strb	r3, [sp, #21]
 138:SYSTEM/usart/usart.c **** 	GPIO_InitStructure.GPIO_OType = GPIO_OType_PP; //Êé®ÊåΩÂ§çÁî®ËæìÂá∫
 431              		.loc 1 138 2 is_stmt 1 view .LVU114
 432              		.loc 1 138 32 is_stmt 0 view .LVU115
 433 003e 0024     		movs	r4, #0
 434 0040 8DF81640 		strb	r4, [sp, #22]
ARM GAS  /tmp/ccGyov29.s 			page 11


 139:SYSTEM/usart/usart.c **** 	GPIO_InitStructure.GPIO_PuPd = GPIO_PuPd_UP; //‰∏äÊãâ
 435              		.loc 1 139 2 is_stmt 1 view .LVU116
 436              		.loc 1 139 31 is_stmt 0 view .LVU117
 437 0044 0125     		movs	r5, #1
 438 0046 8DF81750 		strb	r5, [sp, #23]
 140:SYSTEM/usart/usart.c **** 	GPIO_Init(GPIOB, &GPIO_InitStructure); //ÂàùÂßãÂåñPB10ÔºåPB11
 439              		.loc 1 140 2 is_stmt 1 view .LVU118
 440 004a 04A9     		add	r1, sp, #16
 441 004c 3846     		mov	r0, r7
 442 004e FFF7FEFF 		bl	GPIO_Init
 443              	.LVL33:
 141:SYSTEM/usart/usart.c **** 	
 142:SYSTEM/usart/usart.c **** 	//USART3 ÂàùÂßãÂåñËÆæÁΩÆ
 143:SYSTEM/usart/usart.c **** 	USART_InitStructure.USART_BaudRate = bound; //Ê≥¢ÁâπÁéáËÆæÁΩÆ
 444              		.loc 1 143 2 view .LVU119
 445              		.loc 1 143 37 is_stmt 0 view .LVU120
 446 0052 0096     		str	r6, [sp]
 144:SYSTEM/usart/usart.c **** 	USART_InitStructure.USART_WordLength = USART_WordLength_8b; //Â≠óÈïø‰∏∫8‰ΩçÊï∞ÊçÆÊ†ºÂºè
 447              		.loc 1 144 2 is_stmt 1 view .LVU121
 448              		.loc 1 144 39 is_stmt 0 view .LVU122
 449 0054 ADF80440 		strh	r4, [sp, #4]	@ movhi
 145:SYSTEM/usart/usart.c **** 	USART_InitStructure.USART_StopBits = USART_StopBits_1; //‰∏Ä‰∏™ÂÅúÊ≠¢‰Ωç
 450              		.loc 1 145 2 is_stmt 1 view .LVU123
 451              		.loc 1 145 37 is_stmt 0 view .LVU124
 452 0058 ADF80640 		strh	r4, [sp, #6]	@ movhi
 146:SYSTEM/usart/usart.c **** 	USART_InitStructure.USART_Parity = USART_Parity_No; //Êó†Â•áÂÅ∂Ê†°È™å‰Ωç
 453              		.loc 1 146 2 is_stmt 1 view .LVU125
 454              		.loc 1 146 35 is_stmt 0 view .LVU126
 455 005c ADF80840 		strh	r4, [sp, #8]	@ movhi
 147:SYSTEM/usart/usart.c **** 	USART_InitStructure.USART_HardwareFlowControl = USART_HardwareFlowControl_None; //Êó†Á°¨‰ª∂Êï∞ÊçÆÊ
 456              		.loc 1 147 2 is_stmt 1 view .LVU127
 457              		.loc 1 147 48 is_stmt 0 view .LVU128
 458 0060 ADF80C40 		strh	r4, [sp, #12]	@ movhi
 148:SYSTEM/usart/usart.c **** 	USART_InitStructure.USART_Mode = USART_Mode_Rx | USART_Mode_Tx; //Êî∂ÂèëÊ®°Âºè
 459              		.loc 1 148 2 is_stmt 1 view .LVU129
 460              		.loc 1 148 33 is_stmt 0 view .LVU130
 461 0064 0C23     		movs	r3, #12
 462 0066 ADF80A30 		strh	r3, [sp, #10]	@ movhi
 149:SYSTEM/usart/usart.c **** 	
 150:SYSTEM/usart/usart.c **** 	USART_Init(USART3, &USART_InitStructure); //ÂàùÂßãÂåñ‰∏≤Âè£3
 463              		.loc 1 150 2 is_stmt 1 view .LVU131
 464 006a 094C     		ldr	r4, .L21+4
 465 006c 6946     		mov	r1, sp
 466 006e 2046     		mov	r0, r4
 467 0070 FFF7FEFF 		bl	USART_Init
 468              	.LVL34:
 151:SYSTEM/usart/usart.c **** 	USART_ITConfig(USART3, USART_IT_RXNE, ENABLE); //ÂºÄÂêØ‰∏≤Âè£Êé•Êî∂‰∏≠Êñ≠
 469              		.loc 1 151 2 view .LVU132
 470 0074 2A46     		mov	r2, r5
 471 0076 40F22551 		movw	r1, #1317
 472 007a 2046     		mov	r0, r4
 473 007c FFF7FEFF 		bl	USART_ITConfig
 474              	.LVL35:
 152:SYSTEM/usart/usart.c **** 	USART_Cmd(USART3, ENABLE); //‰ΩøËÉΩ‰∏≤Âè£3
 475              		.loc 1 152 2 view .LVU133
 476 0080 2946     		mov	r1, r5
 477 0082 2046     		mov	r0, r4
ARM GAS  /tmp/ccGyov29.s 			page 12


 478 0084 FFF7FEFF 		bl	USART_Cmd
 479              	.LVL36:
 153:SYSTEM/usart/usart.c **** }
 480              		.loc 1 153 1 is_stmt 0 view .LVU134
 481 0088 07B0     		add	sp, sp, #28
 482              	.LCFI10:
 483              		.cfi_def_cfa_offset 20
 484              		@ sp needed
 485 008a F0BD     		pop	{r4, r5, r6, r7, pc}
 486              	.LVL37:
 487              	.L22:
 488              		.loc 1 153 1 view .LVU135
 489              		.align	2
 490              	.L21:
 491 008c 00040240 		.word	1073873920
 492 0090 00480040 		.word	1073760256
 493              		.cfi_endproc
 494              	.LFE129:
 496              		.section	.text.USART1_IRQHandler,"ax",%progbits
 497              		.align	1
 498              		.global	USART1_IRQHandler
 499              		.syntax unified
 500              		.thumb
 501              		.thumb_func
 502              		.fpu fpv4-sp-d16
 504              	USART1_IRQHandler:
 505              	.LFB130:
 154:SYSTEM/usart/usart.c **** 
 155:SYSTEM/usart/usart.c **** //‰∏≤Âè£‰∏≠Êñ≠
 156:SYSTEM/usart/usart.c **** void USART1_IRQHandler(void)
 157:SYSTEM/usart/usart.c **** {
 506              		.loc 1 157 1 is_stmt 1 view -0
 507              		.cfi_startproc
 508              		@ args = 0, pretend = 0, frame = 0
 509              		@ frame_needed = 0, uses_anonymous_args = 0
 510              		@ link register save eliminated.
 158:SYSTEM/usart/usart.c **** 	u8 res;	
 511              		.loc 1 158 2 view .LVU137
 159:SYSTEM/usart/usart.c **** 	if(USART1->SR&(1<<5))
 512              		.loc 1 159 2 view .LVU138
 513              		.loc 1 159 11 is_stmt 0 view .LVU139
 514 0000 184B     		ldr	r3, .L29
 515 0002 1B88     		ldrh	r3, [r3]
 516              		.loc 1 159 4 view .LVU140
 517 0004 13F0200F 		tst	r3, #32
 518 0008 26D0     		beq	.L23
 160:SYSTEM/usart/usart.c **** 	{	 
 161:SYSTEM/usart/usart.c **** 		res=USART1->DR; 
 519              		.loc 1 161 3 is_stmt 1 view .LVU141
 520              		.loc 1 161 13 is_stmt 0 view .LVU142
 521 000a 164B     		ldr	r3, .L29
 522 000c 9B88     		ldrh	r3, [r3, #4]
 523              		.loc 1 161 6 view .LVU143
 524 000e DBB2     		uxtb	r3, r3
 525              	.LVL38:
 162:SYSTEM/usart/usart.c **** 		if((USART_RX_STA&0x8000)==0)
 526              		.loc 1 162 3 is_stmt 1 view .LVU144
ARM GAS  /tmp/ccGyov29.s 			page 13


 527              		.loc 1 162 27 is_stmt 0 view .LVU145
 528 0010 1549     		ldr	r1, .L29+4
 529 0012 0A88     		ldrh	r2, [r1]
 530 0014 B1F90010 		ldrsh	r1, [r1]
 531              		.loc 1 162 5 view .LVU146
 532 0018 0029     		cmp	r1, #0
 533 001a 1DDB     		blt	.L23
 163:SYSTEM/usart/usart.c **** 		{
 164:SYSTEM/usart/usart.c **** 			if(USART_RX_STA&0x4000)
 534              		.loc 1 164 4 is_stmt 1 view .LVU147
 535              		.loc 1 164 6 is_stmt 0 view .LVU148
 536 001c 12F4804F 		tst	r2, #16384
 537 0020 0CD0     		beq	.L25
 165:SYSTEM/usart/usart.c **** 			{
 166:SYSTEM/usart/usart.c **** 				if(res!=0x0a)USART_RX_STA=0;
 538              		.loc 1 166 5 is_stmt 1 view .LVU149
 539              		.loc 1 166 7 is_stmt 0 view .LVU150
 540 0022 0A2B     		cmp	r3, #10
 541 0024 03D0     		beq	.L26
 542              		.loc 1 166 18 is_stmt 1 discriminator 1 view .LVU151
 543              		.loc 1 166 30 is_stmt 0 discriminator 1 view .LVU152
 544 0026 104B     		ldr	r3, .L29+4
 545              	.LVL39:
 546              		.loc 1 166 30 discriminator 1 view .LVU153
 547 0028 0022     		movs	r2, #0
 548 002a 1A80     		strh	r2, [r3]	@ movhi
 549 002c 7047     		bx	lr
 550              	.LVL40:
 551              	.L26:
 167:SYSTEM/usart/usart.c **** 				else USART_RX_STA|=0x8000;	
 552              		.loc 1 167 10 is_stmt 1 view .LVU154
 553              		.loc 1 167 22 is_stmt 0 view .LVU155
 554 002e 6FEA4242 		mvn	r2, r2, lsl #17
 555 0032 6FEA5242 		mvn	r2, r2, lsr #17
 556 0036 0C4B     		ldr	r3, .L29+4
 557              	.LVL41:
 558              		.loc 1 167 22 view .LVU156
 559 0038 1A80     		strh	r2, [r3]	@ movhi
 560 003a 7047     		bx	lr
 561              	.LVL42:
 562              	.L25:
 168:SYSTEM/usart/usart.c **** 			}
 169:SYSTEM/usart/usart.c **** 			else 
 170:SYSTEM/usart/usart.c **** 			{	
 171:SYSTEM/usart/usart.c **** 				if(res==0x0d)USART_RX_STA|=0x4000;
 563              		.loc 1 171 5 is_stmt 1 view .LVU157
 564              		.loc 1 171 7 is_stmt 0 view .LVU158
 565 003c 0D2B     		cmp	r3, #13
 566 003e 0CD0     		beq	.L28
 172:SYSTEM/usart/usart.c **** 				else
 173:SYSTEM/usart/usart.c **** 				{
 174:SYSTEM/usart/usart.c **** 					USART_RX_BUF[USART_RX_STA&0X3FFF]=res;
 567              		.loc 1 174 6 is_stmt 1 view .LVU159
 568              		.loc 1 174 31 is_stmt 0 view .LVU160
 569 0040 C2F30D01 		ubfx	r1, r2, #0, #14
 570              		.loc 1 174 39 view .LVU161
 571 0044 0948     		ldr	r0, .L29+8
ARM GAS  /tmp/ccGyov29.s 			page 14


 572 0046 4354     		strb	r3, [r0, r1]
 175:SYSTEM/usart/usart.c **** 					USART_RX_STA++;
 573              		.loc 1 175 6 is_stmt 1 view .LVU162
 574              		.loc 1 175 18 is_stmt 0 view .LVU163
 575 0048 0132     		adds	r2, r2, #1
 576 004a 92B2     		uxth	r2, r2
 577 004c 064B     		ldr	r3, .L29+4
 578              	.LVL43:
 579              		.loc 1 175 18 view .LVU164
 580 004e 1A80     		strh	r2, [r3]	@ movhi
 176:SYSTEM/usart/usart.c **** 					if(USART_RX_STA>(USART_REC_LEN-1))USART_RX_STA=0;	  
 581              		.loc 1 176 6 is_stmt 1 view .LVU165
 582              		.loc 1 176 8 is_stmt 0 view .LVU166
 583 0050 C72A     		cmp	r2, #199
 584 0052 01D9     		bls	.L23
 585              		.loc 1 176 40 is_stmt 1 discriminator 1 view .LVU167
 586              		.loc 1 176 52 is_stmt 0 discriminator 1 view .LVU168
 587 0054 0022     		movs	r2, #0
 588 0056 1A80     		strh	r2, [r3]	@ movhi
 589              	.LVL44:
 590              	.L23:
 177:SYSTEM/usart/usart.c **** 				}		 
 178:SYSTEM/usart/usart.c **** 			}
 179:SYSTEM/usart/usart.c **** 		}  		 									     
 180:SYSTEM/usart/usart.c **** 	} 
 181:SYSTEM/usart/usart.c **** 
 182:SYSTEM/usart/usart.c **** }
 591              		.loc 1 182 1 view .LVU169
 592 0058 7047     		bx	lr
 593              	.LVL45:
 594              	.L28:
 171:SYSTEM/usart/usart.c **** 				else
 595              		.loc 1 171 18 is_stmt 1 discriminator 1 view .LVU170
 171:SYSTEM/usart/usart.c **** 				else
 596              		.loc 1 171 30 is_stmt 0 discriminator 1 view .LVU171
 597 005a 42F48042 		orr	r2, r2, #16384
 598 005e 024B     		ldr	r3, .L29+4
 599              	.LVL46:
 171:SYSTEM/usart/usart.c **** 				else
 600              		.loc 1 171 30 discriminator 1 view .LVU172
 601 0060 1A80     		strh	r2, [r3]	@ movhi
 602 0062 7047     		bx	lr
 603              	.L30:
 604              		.align	2
 605              	.L29:
 606 0064 00100140 		.word	1073811456
 607 0068 00000000 		.word	.LANCHOR0
 608 006c 00000000 		.word	.LANCHOR1
 609              		.cfi_endproc
 610              	.LFE130:
 612              		.section	.rodata.USART2_IRQHandler.str1.4,"aMS",%progbits,1
 613              		.align	2
 614              	.LC0:
 615 0000 25640D0A 		.ascii	"%d\015\012\000"
 615      00
 616              		.section	.text.USART2_IRQHandler,"ax",%progbits
 617              		.align	1
ARM GAS  /tmp/ccGyov29.s 			page 15


 618              		.global	USART2_IRQHandler
 619              		.syntax unified
 620              		.thumb
 621              		.thumb_func
 622              		.fpu fpv4-sp-d16
 624              	USART2_IRQHandler:
 625              	.LFB131:
 183:SYSTEM/usart/usart.c **** 
 184:SYSTEM/usart/usart.c **** uint16_t data[20];
 185:SYSTEM/usart/usart.c **** uint8_t data_len;
 186:SYSTEM/usart/usart.c **** 
 187:SYSTEM/usart/usart.c **** void USART2_IRQHandler(void)
 188:SYSTEM/usart/usart.c **** {
 626              		.loc 1 188 1 is_stmt 1 view -0
 627              		.cfi_startproc
 628              		@ args = 0, pretend = 0, frame = 0
 629              		@ frame_needed = 0, uses_anonymous_args = 0
 630 0000 10B5     		push	{r4, lr}
 631              	.LCFI11:
 632              		.cfi_def_cfa_offset 8
 633              		.cfi_offset 4, -8
 634              		.cfi_offset 14, -4
 189:SYSTEM/usart/usart.c **** 	static receive_strat;
 635              		.loc 1 189 2 view .LVU174
 190:SYSTEM/usart/usart.c **** 	if(USART_GetITStatus(USART2, USART_IT_RXNE) == SET)
 636              		.loc 1 190 2 view .LVU175
 637              		.loc 1 190 5 is_stmt 0 view .LVU176
 638 0002 40F22551 		movw	r1, #1317
 639 0006 1548     		ldr	r0, .L39
 640 0008 FFF7FEFF 		bl	USART_GetITStatus
 641              	.LVL47:
 642              		.loc 1 190 4 view .LVU177
 643 000c 0128     		cmp	r0, #1
 644 000e 00D0     		beq	.L36
 645              	.L31:
 191:SYSTEM/usart/usart.c **** 	{   
 192:SYSTEM/usart/usart.c **** 		USART_ClearITPendingBit(USART2, USART_IT_RXNE); 
 193:SYSTEM/usart/usart.c **** 		uint16_t Res=USART_ReceiveData(USART2);
 194:SYSTEM/usart/usart.c **** 		if(Res==0x01)
 195:SYSTEM/usart/usart.c **** 		{
 196:SYSTEM/usart/usart.c **** 			receive_strat=1;
 197:SYSTEM/usart/usart.c **** 			
 198:SYSTEM/usart/usart.c **** 		}
 199:SYSTEM/usart/usart.c **** 		if(receive_strat)
 200:SYSTEM/usart/usart.c **** 		{
 201:SYSTEM/usart/usart.c **** 			if(Res==0x02)
 202:SYSTEM/usart/usart.c **** 			{
 203:SYSTEM/usart/usart.c **** 				receive_strat=0;
 204:SYSTEM/usart/usart.c **** 				return ;
 205:SYSTEM/usart/usart.c **** 			}
 206:SYSTEM/usart/usart.c **** 			data[data_len++]=Res;
 207:SYSTEM/usart/usart.c **** 			printf("%d\r\n",Res);
 208:SYSTEM/usart/usart.c **** 		}
 209:SYSTEM/usart/usart.c **** 	}
 210:SYSTEM/usart/usart.c **** 
 211:SYSTEM/usart/usart.c **** }
 646              		.loc 1 211 1 view .LVU178
ARM GAS  /tmp/ccGyov29.s 			page 16


 647 0010 10BD     		pop	{r4, pc}
 648              	.L36:
 649              	.LBB4:
 192:SYSTEM/usart/usart.c **** 		uint16_t Res=USART_ReceiveData(USART2);
 650              		.loc 1 192 3 is_stmt 1 view .LVU179
 651 0012 124C     		ldr	r4, .L39
 652 0014 40F22551 		movw	r1, #1317
 653 0018 2046     		mov	r0, r4
 654 001a FFF7FEFF 		bl	USART_ClearITPendingBit
 655              	.LVL48:
 193:SYSTEM/usart/usart.c **** 		if(Res==0x01)
 656              		.loc 1 193 3 view .LVU180
 193:SYSTEM/usart/usart.c **** 		if(Res==0x01)
 657              		.loc 1 193 16 is_stmt 0 view .LVU181
 658 001e 2046     		mov	r0, r4
 659 0020 FFF7FEFF 		bl	USART_ReceiveData
 660              	.LVL49:
 661 0024 0146     		mov	r1, r0
 662              	.LVL50:
 194:SYSTEM/usart/usart.c **** 		{
 663              		.loc 1 194 3 is_stmt 1 view .LVU182
 194:SYSTEM/usart/usart.c **** 		{
 664              		.loc 1 194 5 is_stmt 0 view .LVU183
 665 0026 0128     		cmp	r0, #1
 666 0028 10D0     		beq	.L37
 667              	.L33:
 199:SYSTEM/usart/usart.c **** 		{
 668              		.loc 1 199 3 is_stmt 1 view .LVU184
 199:SYSTEM/usart/usart.c **** 		{
 669              		.loc 1 199 6 is_stmt 0 view .LVU185
 670 002a 0D4B     		ldr	r3, .L39+4
 671 002c 1B68     		ldr	r3, [r3]
 199:SYSTEM/usart/usart.c **** 		{
 672              		.loc 1 199 5 view .LVU186
 673 002e 002B     		cmp	r3, #0
 674 0030 EED0     		beq	.L31
 201:SYSTEM/usart/usart.c **** 			{
 675              		.loc 1 201 4 is_stmt 1 view .LVU187
 201:SYSTEM/usart/usart.c **** 			{
 676              		.loc 1 201 6 is_stmt 0 view .LVU188
 677 0032 0229     		cmp	r1, #2
 678 0034 0ED0     		beq	.L38
 206:SYSTEM/usart/usart.c **** 			printf("%d\r\n",Res);
 679              		.loc 1 206 4 is_stmt 1 view .LVU189
 206:SYSTEM/usart/usart.c **** 			printf("%d\r\n",Res);
 680              		.loc 1 206 17 is_stmt 0 view .LVU190
 681 0036 0B4A     		ldr	r2, .L39+8
 682 0038 1378     		ldrb	r3, [r2]	@ zero_extendqisi2
 683 003a 581C     		adds	r0, r3, #1
 684              	.LVL51:
 206:SYSTEM/usart/usart.c **** 			printf("%d\r\n",Res);
 685              		.loc 1 206 17 view .LVU191
 686 003c 1070     		strb	r0, [r2]
 206:SYSTEM/usart/usart.c **** 			printf("%d\r\n",Res);
 687              		.loc 1 206 20 view .LVU192
 688 003e 0A4A     		ldr	r2, .L39+12
 689 0040 22F81310 		strh	r1, [r2, r3, lsl #1]	@ movhi
ARM GAS  /tmp/ccGyov29.s 			page 17


 207:SYSTEM/usart/usart.c **** 		}
 690              		.loc 1 207 4 is_stmt 1 view .LVU193
 691 0044 0948     		ldr	r0, .L39+16
 692 0046 FFF7FEFF 		bl	printf
 693              	.LVL52:
 694 004a E1E7     		b	.L31
 695              	.LVL53:
 696              	.L37:
 196:SYSTEM/usart/usart.c **** 			
 697              		.loc 1 196 4 view .LVU194
 196:SYSTEM/usart/usart.c **** 			
 698              		.loc 1 196 17 is_stmt 0 view .LVU195
 699 004c 044B     		ldr	r3, .L39+4
 700 004e 0122     		movs	r2, #1
 701 0050 1A60     		str	r2, [r3]
 702 0052 EAE7     		b	.L33
 703              	.L38:
 203:SYSTEM/usart/usart.c **** 				return ;
 704              		.loc 1 203 5 is_stmt 1 view .LVU196
 203:SYSTEM/usart/usart.c **** 				return ;
 705              		.loc 1 203 18 is_stmt 0 view .LVU197
 706 0054 024B     		ldr	r3, .L39+4
 707 0056 0022     		movs	r2, #0
 708 0058 1A60     		str	r2, [r3]
 204:SYSTEM/usart/usart.c **** 			}
 709              		.loc 1 204 5 is_stmt 1 view .LVU198
 710 005a D9E7     		b	.L31
 711              	.L40:
 712              		.align	2
 713              	.L39:
 714 005c 00440040 		.word	1073759232
 715 0060 00000000 		.word	.LANCHOR2
 716 0064 00000000 		.word	.LANCHOR3
 717 0068 00000000 		.word	.LANCHOR4
 718 006c 00000000 		.word	.LC0
 719              	.LBE4:
 720              		.cfi_endproc
 721              	.LFE131:
 723              		.section	.text.USART1_SEND_DATA_U8,"ax",%progbits
 724              		.align	1
 725              		.global	USART1_SEND_DATA_U8
 726              		.syntax unified
 727              		.thumb
 728              		.thumb_func
 729              		.fpu fpv4-sp-d16
 731              	USART1_SEND_DATA_U8:
 732              	.LVL54:
 733              	.LFB132:
 212:SYSTEM/usart/usart.c **** 
 213:SYSTEM/usart/usart.c **** //ÂèëÈÄÅÂáΩÊï∞
 214:SYSTEM/usart/usart.c **** void USART1_SEND_DATA_U8(u8 data)
 215:SYSTEM/usart/usart.c **** {
 734              		.loc 1 215 1 view -0
 735              		.cfi_startproc
 736              		@ args = 0, pretend = 0, frame = 0
 737              		@ frame_needed = 0, uses_anonymous_args = 0
 738              		@ link register save eliminated.
ARM GAS  /tmp/ccGyov29.s 			page 18


 216:SYSTEM/usart/usart.c **** 	USART1->DR = (data & (uint16_t)0x01FF);
 739              		.loc 1 216 2 view .LVU200
 740              		.loc 1 216 13 is_stmt 0 view .LVU201
 741 0000 034B     		ldr	r3, .L43
 742 0002 9880     		strh	r0, [r3, #4]	@ movhi
 217:SYSTEM/usart/usart.c **** 	while((USART1->SR&0X40)==0);
 743              		.loc 1 217 2 is_stmt 1 view .LVU202
 744              	.L42:
 745              		.loc 1 217 29 discriminator 1 view .LVU203
 746              		.loc 1 217 7 discriminator 1 view .LVU204
 747              		.loc 1 217 15 is_stmt 0 discriminator 1 view .LVU205
 748 0004 024B     		ldr	r3, .L43
 749 0006 1B88     		ldrh	r3, [r3]
 750              		.loc 1 217 7 discriminator 1 view .LVU206
 751 0008 13F0400F 		tst	r3, #64
 752 000c FAD0     		beq	.L42
 218:SYSTEM/usart/usart.c **** }
 753              		.loc 1 218 1 view .LVU207
 754 000e 7047     		bx	lr
 755              	.L44:
 756              		.align	2
 757              	.L43:
 758 0010 00100140 		.word	1073811456
 759              		.cfi_endproc
 760              	.LFE132:
 762              		.section	.text.USART1_SEND_BUF_U8,"ax",%progbits
 763              		.align	1
 764              		.global	USART1_SEND_BUF_U8
 765              		.syntax unified
 766              		.thumb
 767              		.thumb_func
 768              		.fpu fpv4-sp-d16
 770              	USART1_SEND_BUF_U8:
 771              	.LVL55:
 772              	.LFB133:
 219:SYSTEM/usart/usart.c **** 
 220:SYSTEM/usart/usart.c **** void USART1_SEND_BUF_U8(u8*buf,u8 len)
 221:SYSTEM/usart/usart.c **** {
 773              		.loc 1 221 1 is_stmt 1 view -0
 774              		.cfi_startproc
 775              		@ args = 0, pretend = 0, frame = 0
 776              		@ frame_needed = 0, uses_anonymous_args = 0
 777              		.loc 1 221 1 is_stmt 0 view .LVU209
 778 0000 38B5     		push	{r3, r4, r5, lr}
 779              	.LCFI12:
 780              		.cfi_def_cfa_offset 16
 781              		.cfi_offset 3, -16
 782              		.cfi_offset 4, -12
 783              		.cfi_offset 5, -8
 784              		.cfi_offset 14, -4
 785 0002 0546     		mov	r5, r0
 786 0004 0C46     		mov	r4, r1
 222:SYSTEM/usart/usart.c **** 	while(len)
 787              		.loc 1 222 2 is_stmt 1 view .LVU210
 788              		.loc 1 222 7 is_stmt 0 view .LVU211
 789 0006 05E0     		b	.L46
 790              	.LVL56:
ARM GAS  /tmp/ccGyov29.s 			page 19


 791              	.L47:
 223:SYSTEM/usart/usart.c **** 	{
 224:SYSTEM/usart/usart.c **** 		USART1_SEND_DATA_U8(*buf);
 792              		.loc 1 224 3 is_stmt 1 view .LVU212
 793 0008 15F8010B 		ldrb	r0, [r5], #1	@ zero_extendqisi2
 794              	.LVL57:
 795              		.loc 1 224 3 is_stmt 0 view .LVU213
 796 000c FFF7FEFF 		bl	USART1_SEND_DATA_U8
 797              	.LVL58:
 225:SYSTEM/usart/usart.c **** 		buf++;
 798              		.loc 1 225 3 is_stmt 1 view .LVU214
 226:SYSTEM/usart/usart.c **** 		len--;
 799              		.loc 1 226 3 view .LVU215
 800              		.loc 1 226 6 is_stmt 0 view .LVU216
 801 0010 013C     		subs	r4, r4, #1
 802              	.LVL59:
 803              		.loc 1 226 6 view .LVU217
 804 0012 E4B2     		uxtb	r4, r4
 805              	.LVL60:
 806              	.L46:
 222:SYSTEM/usart/usart.c **** 	{
 807              		.loc 1 222 7 is_stmt 1 view .LVU218
 808 0014 002C     		cmp	r4, #0
 809 0016 F7D1     		bne	.L47
 227:SYSTEM/usart/usart.c **** 	}
 228:SYSTEM/usart/usart.c **** }
 810              		.loc 1 228 1 is_stmt 0 view .LVU219
 811 0018 38BD     		pop	{r3, r4, r5, pc}
 812              		.loc 1 228 1 view .LVU220
 813              		.cfi_endproc
 814              	.LFE133:
 816              		.global	data_len
 817              		.global	data
 818              		.global	i
 819              		.global	USART_RX_STA
 820              		.global	USART_RX_BUF
 821              		.global	RX_sign
 822              		.section	.bss.RX_sign,"aw",%nobits
 823              		.align	1
 826              	RX_sign:
 827 0000 0000     		.space	2
 828              		.section	.bss.USART_RX_BUF,"aw",%nobits
 829              		.align	2
 830              		.set	.LANCHOR1,. + 0
 833              	USART_RX_BUF:
 834 0000 00000000 		.space	200
 834      00000000 
 834      00000000 
 834      00000000 
 834      00000000 
 835              		.section	.bss.USART_RX_STA,"aw",%nobits
 836              		.align	1
 837              		.set	.LANCHOR0,. + 0
 840              	USART_RX_STA:
 841 0000 0000     		.space	2
 842              		.section	.bss.data,"aw",%nobits
 843              		.align	2
ARM GAS  /tmp/ccGyov29.s 			page 20


 844              		.set	.LANCHOR4,. + 0
 847              	data:
 848 0000 00000000 		.space	40
 848      00000000 
 848      00000000 
 848      00000000 
 848      00000000 
 849              		.section	.bss.data_len,"aw",%nobits
 850              		.set	.LANCHOR3,. + 0
 853              	data_len:
 854 0000 00       		.space	1
 855              		.section	.bss.i,"aw",%nobits
 856              		.align	2
 859              	i:
 860 0000 00000000 		.space	4
 861              		.section	.bss.receive_strat.0,"aw",%nobits
 862              		.align	2
 863              		.set	.LANCHOR2,. + 0
 866              	receive_strat.0:
 867 0000 00000000 		.space	4
 868              		.text
 869              	.Letext0:
 870              		.file 2 "/home/ktkuri/arm-gcc-tools/arm-none-eabi/include/machine/_default_types.h"
 871              		.file 3 "/home/ktkuri/arm-gcc-tools/arm-none-eabi/include/sys/_stdint.h"
 872              		.file 4 "Libraries/CMSIS/Device/ST/STM32F4xx/Include/stm32f4xx.h"
 873              		.file 5 "Libraries/STM32F4xx_StdPeriph_Driver/inc/stm32f4xx_gpio.h"
 874              		.file 6 "Libraries/STM32F4xx_StdPeriph_Driver/inc/stm32f4xx_usart.h"
 875              		.file 7 "Libraries/STM32F4xx_StdPeriph_Driver/inc/misc.h"
 876              		.file 8 "SYSTEM/usart/usart.h"
 877              		.file 9 "/home/ktkuri/arm-gcc-tools/arm-none-eabi/include/stdio.h"
 878              		.file 10 "Libraries/STM32F4xx_StdPeriph_Driver/inc/stm32f4xx_rcc.h"
ARM GAS  /tmp/ccGyov29.s 			page 21

